ARM GAS  C:\Users\Admin\AppData\Local\Temp\cc3CjRUb.s 			page 1


   1              		.cpu cortex-m0
   2              		.fpu softvfp
   3              		.eabi_attribute 20, 1
   4              		.eabi_attribute 21, 1
   5              		.eabi_attribute 23, 3
   6              		.eabi_attribute 24, 1
   7              		.eabi_attribute 25, 1
   8              		.eabi_attribute 26, 1
   9              		.eabi_attribute 30, 4
  10              		.eabi_attribute 34, 0
  11              		.eabi_attribute 18, 4
  12              		.code	16
  13              		.file	"cyfitter_cfg.c"
  14              		.text
  15              	.Ltext0:
  16              		.cfi_sections	.debug_frame
  17              		.section	.psocinit,"ax",%progbits
  18              		.align	1
  19              		.global	cyfitter_cfg
  20              		.code	16
  21              		.thumb_func
  22              		.type	cyfitter_cfg, %function
  23              	cyfitter_cfg:
  24              	.LFB7:
  25              		.file 1 ".\\Generated_Source\\PSoC4\\cyfitter_cfg.c"
   1:.\Generated_Source\PSoC4/cyfitter_cfg.c **** /*******************************************************************************
   2:.\Generated_Source\PSoC4/cyfitter_cfg.c **** * FILENAME: cyfitter_cfg.c
   3:.\Generated_Source\PSoC4/cyfitter_cfg.c **** * PSoC Creator  3.1 SP1
   4:.\Generated_Source\PSoC4/cyfitter_cfg.c **** *
   5:.\Generated_Source\PSoC4/cyfitter_cfg.c **** * Description:
   6:.\Generated_Source\PSoC4/cyfitter_cfg.c **** * This file is automatically generated by PSoC Creator with device 
   7:.\Generated_Source\PSoC4/cyfitter_cfg.c **** * initialization code.  Except for the user defined sections in
   8:.\Generated_Source\PSoC4/cyfitter_cfg.c **** * CyClockStartupError(), this file should not be modified.
   9:.\Generated_Source\PSoC4/cyfitter_cfg.c **** *
  10:.\Generated_Source\PSoC4/cyfitter_cfg.c **** ********************************************************************************
  11:.\Generated_Source\PSoC4/cyfitter_cfg.c **** * Copyright 2013, Cypress Semiconductor Corporation.  All rights reserved.
  12:.\Generated_Source\PSoC4/cyfitter_cfg.c **** * You may use this file only in accordance with the license, terms, conditions, 
  13:.\Generated_Source\PSoC4/cyfitter_cfg.c **** * disclaimers, and limitations in the end user license agreement accompanying 
  14:.\Generated_Source\PSoC4/cyfitter_cfg.c **** * the software package with which this file was provided.
  15:.\Generated_Source\PSoC4/cyfitter_cfg.c **** ********************************************************************************/
  16:.\Generated_Source\PSoC4/cyfitter_cfg.c **** 
  17:.\Generated_Source\PSoC4/cyfitter_cfg.c **** #include <string.h>
  18:.\Generated_Source\PSoC4/cyfitter_cfg.c **** #include <cytypes.h>
  19:.\Generated_Source\PSoC4/cyfitter_cfg.c **** #include <cydevice_trm.h>
  20:.\Generated_Source\PSoC4/cyfitter_cfg.c **** #include <cyfitter.h>
  21:.\Generated_Source\PSoC4/cyfitter_cfg.c **** #include <CyLib.h>
  22:.\Generated_Source\PSoC4/cyfitter_cfg.c **** #include <cyfitter_cfg.h>
  23:.\Generated_Source\PSoC4/cyfitter_cfg.c **** 
  24:.\Generated_Source\PSoC4/cyfitter_cfg.c **** 
  25:.\Generated_Source\PSoC4/cyfitter_cfg.c **** #if defined(__GNUC__) || defined(__ARMCC_VERSION)
  26:.\Generated_Source\PSoC4/cyfitter_cfg.c ****     #define CYPACKED 
  27:.\Generated_Source\PSoC4/cyfitter_cfg.c ****     #define CYPACKED_ATTR __attribute__ ((packed))
  28:.\Generated_Source\PSoC4/cyfitter_cfg.c ****     #define CYALIGNED __attribute__ ((aligned))
  29:.\Generated_Source\PSoC4/cyfitter_cfg.c ****     #define CY_CFG_UNUSED __attribute__ ((unused))
  30:.\Generated_Source\PSoC4/cyfitter_cfg.c ****     #define CY_CFG_SECTION __attribute__ ((section(".psocinit")))
  31:.\Generated_Source\PSoC4/cyfitter_cfg.c ****     
  32:.\Generated_Source\PSoC4/cyfitter_cfg.c ****     #if defined(__ARMCC_VERSION)
ARM GAS  C:\Users\Admin\AppData\Local\Temp\cc3CjRUb.s 			page 2


  33:.\Generated_Source\PSoC4/cyfitter_cfg.c ****         #define CY_CFG_MEMORY_BARRIER() __memory_changed()
  34:.\Generated_Source\PSoC4/cyfitter_cfg.c ****     #else
  35:.\Generated_Source\PSoC4/cyfitter_cfg.c ****         #define CY_CFG_MEMORY_BARRIER() __sync_synchronize()
  36:.\Generated_Source\PSoC4/cyfitter_cfg.c ****     #endif
  37:.\Generated_Source\PSoC4/cyfitter_cfg.c ****     
  38:.\Generated_Source\PSoC4/cyfitter_cfg.c **** #elif defined(__ICCARM__)
  39:.\Generated_Source\PSoC4/cyfitter_cfg.c ****     #include <intrinsics.h>
  40:.\Generated_Source\PSoC4/cyfitter_cfg.c **** 
  41:.\Generated_Source\PSoC4/cyfitter_cfg.c ****     #define CYPACKED __packed
  42:.\Generated_Source\PSoC4/cyfitter_cfg.c ****     #define CYPACKED_ATTR 
  43:.\Generated_Source\PSoC4/cyfitter_cfg.c ****     #define CYALIGNED _Pragma("data_alignment=4")
  44:.\Generated_Source\PSoC4/cyfitter_cfg.c ****     #define CY_CFG_UNUSED _Pragma("diag_suppress=Pe177")
  45:.\Generated_Source\PSoC4/cyfitter_cfg.c ****     #define CY_CFG_SECTION _Pragma("location=\".psocinit\"")
  46:.\Generated_Source\PSoC4/cyfitter_cfg.c ****     
  47:.\Generated_Source\PSoC4/cyfitter_cfg.c ****     #define CY_CFG_MEMORY_BARRIER() __DMB()
  48:.\Generated_Source\PSoC4/cyfitter_cfg.c ****     
  49:.\Generated_Source\PSoC4/cyfitter_cfg.c **** #else
  50:.\Generated_Source\PSoC4/cyfitter_cfg.c ****     #error Unsupported toolchain
  51:.\Generated_Source\PSoC4/cyfitter_cfg.c **** #endif
  52:.\Generated_Source\PSoC4/cyfitter_cfg.c **** 
  53:.\Generated_Source\PSoC4/cyfitter_cfg.c **** 
  54:.\Generated_Source\PSoC4/cyfitter_cfg.c **** CY_CFG_UNUSED
  55:.\Generated_Source\PSoC4/cyfitter_cfg.c **** static void CYMEMZERO(void *s, size_t n);
  56:.\Generated_Source\PSoC4/cyfitter_cfg.c **** CY_CFG_UNUSED
  57:.\Generated_Source\PSoC4/cyfitter_cfg.c **** static void CYMEMZERO(void *s, size_t n)
  58:.\Generated_Source\PSoC4/cyfitter_cfg.c **** {
  59:.\Generated_Source\PSoC4/cyfitter_cfg.c **** 	(void)memset(s, 0, n);
  60:.\Generated_Source\PSoC4/cyfitter_cfg.c **** }
  61:.\Generated_Source\PSoC4/cyfitter_cfg.c **** CY_CFG_UNUSED
  62:.\Generated_Source\PSoC4/cyfitter_cfg.c **** static void CYCONFIGCPY(void *dest, const void *src, size_t n);
  63:.\Generated_Source\PSoC4/cyfitter_cfg.c **** CY_CFG_UNUSED
  64:.\Generated_Source\PSoC4/cyfitter_cfg.c **** static void CYCONFIGCPY(void *dest, const void *src, size_t n)
  65:.\Generated_Source\PSoC4/cyfitter_cfg.c **** {
  66:.\Generated_Source\PSoC4/cyfitter_cfg.c **** 	(void)memcpy(dest, src, n);
  67:.\Generated_Source\PSoC4/cyfitter_cfg.c **** }
  68:.\Generated_Source\PSoC4/cyfitter_cfg.c **** CY_CFG_UNUSED
  69:.\Generated_Source\PSoC4/cyfitter_cfg.c **** static void CYCONFIGCPYCODE(void *dest, const void *src, size_t n);
  70:.\Generated_Source\PSoC4/cyfitter_cfg.c **** CY_CFG_UNUSED
  71:.\Generated_Source\PSoC4/cyfitter_cfg.c **** static void CYCONFIGCPYCODE(void *dest, const void *src, size_t n)
  72:.\Generated_Source\PSoC4/cyfitter_cfg.c **** {
  73:.\Generated_Source\PSoC4/cyfitter_cfg.c **** 	(void)memcpy(dest, src, n);
  74:.\Generated_Source\PSoC4/cyfitter_cfg.c **** }
  75:.\Generated_Source\PSoC4/cyfitter_cfg.c **** 
  76:.\Generated_Source\PSoC4/cyfitter_cfg.c **** 
  77:.\Generated_Source\PSoC4/cyfitter_cfg.c **** 
  78:.\Generated_Source\PSoC4/cyfitter_cfg.c **** /* Clock startup error codes                                                   */
  79:.\Generated_Source\PSoC4/cyfitter_cfg.c **** #define CYCLOCKSTART_NO_ERROR    0u
  80:.\Generated_Source\PSoC4/cyfitter_cfg.c **** #define CYCLOCKSTART_XTAL_ERROR  1u
  81:.\Generated_Source\PSoC4/cyfitter_cfg.c **** #define CYCLOCKSTART_32KHZ_ERROR 2u
  82:.\Generated_Source\PSoC4/cyfitter_cfg.c **** #define CYCLOCKSTART_PLL_ERROR   3u
  83:.\Generated_Source\PSoC4/cyfitter_cfg.c **** 
  84:.\Generated_Source\PSoC4/cyfitter_cfg.c **** #ifdef CY_NEED_CYCLOCKSTARTUPERROR
  85:.\Generated_Source\PSoC4/cyfitter_cfg.c **** /*******************************************************************************
  86:.\Generated_Source\PSoC4/cyfitter_cfg.c **** * Function Name: CyClockStartupError
  87:.\Generated_Source\PSoC4/cyfitter_cfg.c **** ********************************************************************************
  88:.\Generated_Source\PSoC4/cyfitter_cfg.c **** * Summary:
  89:.\Generated_Source\PSoC4/cyfitter_cfg.c **** *  If an error is encountered during clock configuration (crystal startup error,
ARM GAS  C:\Users\Admin\AppData\Local\Temp\cc3CjRUb.s 			page 3


  90:.\Generated_Source\PSoC4/cyfitter_cfg.c **** *  PLL lock error, etc.), the system will end up here.  Unless reimplemented by
  91:.\Generated_Source\PSoC4/cyfitter_cfg.c **** *  the customer, this function will stop in an infinite loop.
  92:.\Generated_Source\PSoC4/cyfitter_cfg.c **** *
  93:.\Generated_Source\PSoC4/cyfitter_cfg.c **** * Parameters:
  94:.\Generated_Source\PSoC4/cyfitter_cfg.c **** *   void
  95:.\Generated_Source\PSoC4/cyfitter_cfg.c **** *
  96:.\Generated_Source\PSoC4/cyfitter_cfg.c **** * Return:
  97:.\Generated_Source\PSoC4/cyfitter_cfg.c **** *   void
  98:.\Generated_Source\PSoC4/cyfitter_cfg.c **** *
  99:.\Generated_Source\PSoC4/cyfitter_cfg.c **** *******************************************************************************/
 100:.\Generated_Source\PSoC4/cyfitter_cfg.c **** CY_CFG_UNUSED
 101:.\Generated_Source\PSoC4/cyfitter_cfg.c **** static void CyClockStartupError(uint8 errorCode);
 102:.\Generated_Source\PSoC4/cyfitter_cfg.c **** CY_CFG_UNUSED
 103:.\Generated_Source\PSoC4/cyfitter_cfg.c **** static void CyClockStartupError(uint8 errorCode)
 104:.\Generated_Source\PSoC4/cyfitter_cfg.c **** {
 105:.\Generated_Source\PSoC4/cyfitter_cfg.c ****     /* To remove the compiler warning if errorCode not used.                */
 106:.\Generated_Source\PSoC4/cyfitter_cfg.c ****     errorCode = errorCode;
 107:.\Generated_Source\PSoC4/cyfitter_cfg.c **** 
 108:.\Generated_Source\PSoC4/cyfitter_cfg.c ****     /* `#START CyClockStartupError` */
 109:.\Generated_Source\PSoC4/cyfitter_cfg.c **** 
 110:.\Generated_Source\PSoC4/cyfitter_cfg.c ****     /* If we have a clock startup error (bad MHz crystal, PLL lock, etc.),  */
 111:.\Generated_Source\PSoC4/cyfitter_cfg.c ****     /* we will end up here to allow the customer to implement something to  */
 112:.\Generated_Source\PSoC4/cyfitter_cfg.c ****     /* deal with the clock condition.                                       */
 113:.\Generated_Source\PSoC4/cyfitter_cfg.c **** 
 114:.\Generated_Source\PSoC4/cyfitter_cfg.c ****     /* `#END` */
 115:.\Generated_Source\PSoC4/cyfitter_cfg.c **** 
 116:.\Generated_Source\PSoC4/cyfitter_cfg.c ****     /* If nothing else, stop here since the clocks have not started         */
 117:.\Generated_Source\PSoC4/cyfitter_cfg.c ****     /* correctly.                                                           */
 118:.\Generated_Source\PSoC4/cyfitter_cfg.c ****     while(1) {}
 119:.\Generated_Source\PSoC4/cyfitter_cfg.c **** }
 120:.\Generated_Source\PSoC4/cyfitter_cfg.c **** #endif
 121:.\Generated_Source\PSoC4/cyfitter_cfg.c **** 
 122:.\Generated_Source\PSoC4/cyfitter_cfg.c **** #define CY_CFG_BASE_ADDR_COUNT 10u
 123:.\Generated_Source\PSoC4/cyfitter_cfg.c **** CYPACKED typedef struct
 124:.\Generated_Source\PSoC4/cyfitter_cfg.c **** {
 125:.\Generated_Source\PSoC4/cyfitter_cfg.c **** 	uint8 offset;
 126:.\Generated_Source\PSoC4/cyfitter_cfg.c **** 	uint8 value;
 127:.\Generated_Source\PSoC4/cyfitter_cfg.c **** } CYPACKED_ATTR cy_cfg_addrvalue_t;
 128:.\Generated_Source\PSoC4/cyfitter_cfg.c **** 
 129:.\Generated_Source\PSoC4/cyfitter_cfg.c **** 
 130:.\Generated_Source\PSoC4/cyfitter_cfg.c **** 
 131:.\Generated_Source\PSoC4/cyfitter_cfg.c **** /*******************************************************************************
 132:.\Generated_Source\PSoC4/cyfitter_cfg.c **** * Function Name: cfg_write_bytes32
 133:.\Generated_Source\PSoC4/cyfitter_cfg.c **** ********************************************************************************
 134:.\Generated_Source\PSoC4/cyfitter_cfg.c **** * Summary:
 135:.\Generated_Source\PSoC4/cyfitter_cfg.c **** *  This function is used for setting up the chip configuration areas that
 136:.\Generated_Source\PSoC4/cyfitter_cfg.c **** *  contain relatively sparse data.
 137:.\Generated_Source\PSoC4/cyfitter_cfg.c **** *
 138:.\Generated_Source\PSoC4/cyfitter_cfg.c **** * Parameters:
 139:.\Generated_Source\PSoC4/cyfitter_cfg.c **** *   void
 140:.\Generated_Source\PSoC4/cyfitter_cfg.c **** *
 141:.\Generated_Source\PSoC4/cyfitter_cfg.c **** * Return:
 142:.\Generated_Source\PSoC4/cyfitter_cfg.c **** *   void
 143:.\Generated_Source\PSoC4/cyfitter_cfg.c **** *
 144:.\Generated_Source\PSoC4/cyfitter_cfg.c **** *******************************************************************************/
 145:.\Generated_Source\PSoC4/cyfitter_cfg.c **** static void cfg_write_bytes32(const uint32 addr_table[], const cy_cfg_addrvalue_t data_table[]);
 146:.\Generated_Source\PSoC4/cyfitter_cfg.c **** static void cfg_write_bytes32(const uint32 addr_table[], const cy_cfg_addrvalue_t data_table[])
ARM GAS  C:\Users\Admin\AppData\Local\Temp\cc3CjRUb.s 			page 4


 147:.\Generated_Source\PSoC4/cyfitter_cfg.c **** {
 148:.\Generated_Source\PSoC4/cyfitter_cfg.c **** 	/* For 32-bit little-endian architectures */
 149:.\Generated_Source\PSoC4/cyfitter_cfg.c **** 	uint32 i, j = 0u;
 150:.\Generated_Source\PSoC4/cyfitter_cfg.c **** 	for (i = 0u; i < CY_CFG_BASE_ADDR_COUNT; i++)
 151:.\Generated_Source\PSoC4/cyfitter_cfg.c **** 	{
 152:.\Generated_Source\PSoC4/cyfitter_cfg.c **** 		uint32 baseAddr = addr_table[i];
 153:.\Generated_Source\PSoC4/cyfitter_cfg.c **** 		uint8 count = (uint8)baseAddr;
 154:.\Generated_Source\PSoC4/cyfitter_cfg.c **** 		baseAddr &= 0xFFFFFF00u;
 155:.\Generated_Source\PSoC4/cyfitter_cfg.c **** 		while (count != 0u)
 156:.\Generated_Source\PSoC4/cyfitter_cfg.c **** 		{
 157:.\Generated_Source\PSoC4/cyfitter_cfg.c **** 			CY_SET_XTND_REG8((void CYFAR *)(baseAddr + data_table[j].offset), data_table[j].value);
 158:.\Generated_Source\PSoC4/cyfitter_cfg.c **** 			j++;
 159:.\Generated_Source\PSoC4/cyfitter_cfg.c **** 			count--;
 160:.\Generated_Source\PSoC4/cyfitter_cfg.c **** 		}
 161:.\Generated_Source\PSoC4/cyfitter_cfg.c **** 	}
 162:.\Generated_Source\PSoC4/cyfitter_cfg.c **** }
 163:.\Generated_Source\PSoC4/cyfitter_cfg.c **** 
 164:.\Generated_Source\PSoC4/cyfitter_cfg.c **** /*******************************************************************************
 165:.\Generated_Source\PSoC4/cyfitter_cfg.c **** * Function Name: SetIMOBGTrims
 166:.\Generated_Source\PSoC4/cyfitter_cfg.c **** ********************************************************************************
 167:.\Generated_Source\PSoC4/cyfitter_cfg.c **** *
 168:.\Generated_Source\PSoC4/cyfitter_cfg.c **** * Summary:
 169:.\Generated_Source\PSoC4/cyfitter_cfg.c **** *   Performs the configuration of the bandgap trim for the IMO based on the given
 170:.\Generated_Source\PSoC4/cyfitter_cfg.c **** *   expected frequency of the IMO. 
 171:.\Generated_Source\PSoC4/cyfitter_cfg.c **** *
 172:.\Generated_Source\PSoC4/cyfitter_cfg.c **** * Parameters:
 173:.\Generated_Source\PSoC4/cyfitter_cfg.c **** *   imoFreq: Frequency for operation of the IMO.
 174:.\Generated_Source\PSoC4/cyfitter_cfg.c **** *
 175:.\Generated_Source\PSoC4/cyfitter_cfg.c **** * Return:
 176:.\Generated_Source\PSoC4/cyfitter_cfg.c **** *   void
 177:.\Generated_Source\PSoC4/cyfitter_cfg.c **** *
 178:.\Generated_Source\PSoC4/cyfitter_cfg.c **** *******************************************************************************/
 179:.\Generated_Source\PSoC4/cyfitter_cfg.c **** static void SetIMOBGTrims(uint8 imoFreq);
 180:.\Generated_Source\PSoC4/cyfitter_cfg.c **** CY_CFG_SECTION
 181:.\Generated_Source\PSoC4/cyfitter_cfg.c **** static void SetIMOBGTrims(uint8 imoFreq)
 182:.\Generated_Source\PSoC4/cyfitter_cfg.c **** {
 183:.\Generated_Source\PSoC4/cyfitter_cfg.c **** 	CYPACKED typedef struct {
 184:.\Generated_Source\PSoC4/cyfitter_cfg.c **** 		uint8 freq;
 185:.\Generated_Source\PSoC4/cyfitter_cfg.c **** 		uint8 absolute;
 186:.\Generated_Source\PSoC4/cyfitter_cfg.c **** 		uint8 tmpco;
 187:.\Generated_Source\PSoC4/cyfitter_cfg.c **** 	} CYPACKED_ATTR imo_trim_entry_t;
 188:.\Generated_Source\PSoC4/cyfitter_cfg.c **** 
 189:.\Generated_Source\PSoC4/cyfitter_cfg.c **** 	CYPACKED typedef struct {
 190:.\Generated_Source\PSoC4/cyfitter_cfg.c **** 		imo_trim_entry_t entries[4];
 191:.\Generated_Source\PSoC4/cyfitter_cfg.c **** 	} CYPACKED_ATTR imo_trim_table_t;
 192:.\Generated_Source\PSoC4/cyfitter_cfg.c **** 
 193:.\Generated_Source\PSoC4/cyfitter_cfg.c **** 	static const imo_trim_table_t *imo_trim_table = (const imo_trim_table_t *)CYREG_SFLASH_IMO_MAXF0;
 194:.\Generated_Source\PSoC4/cyfitter_cfg.c **** 	static const uint32 IMO_TRIM_FREQ_TABLE_ENTRIES = sizeof(imo_trim_table->entries)/sizeof(imo_trim_
 195:.\Generated_Source\PSoC4/cyfitter_cfg.c **** 
 196:.\Generated_Source\PSoC4/cyfitter_cfg.c **** 	int32 imoTrimIndex;
 197:.\Generated_Source\PSoC4/cyfitter_cfg.c **** 	uint8 setAbs;
 198:.\Generated_Source\PSoC4/cyfitter_cfg.c **** 	uint8 setTmpCo;
 199:.\Generated_Source\PSoC4/cyfitter_cfg.c **** 
 200:.\Generated_Source\PSoC4/cyfitter_cfg.c **** 	/* Traverse the SFLASH IMO frequency-dependent bandgap trim table to
 201:.\Generated_Source\PSoC4/cyfitter_cfg.c **** 	 * locate the appropriate value to trim the IMO bandgap based on freq. */
 202:.\Generated_Source\PSoC4/cyfitter_cfg.c **** 	setAbs = CY_GET_REG8((const void *)CYREG_SFLASH_IMO_ABS4);
 203:.\Generated_Source\PSoC4/cyfitter_cfg.c **** 	setTmpCo = CY_GET_REG8((const void *)CYREG_SFLASH_IMO_TMPCO4);
ARM GAS  C:\Users\Admin\AppData\Local\Temp\cc3CjRUb.s 			page 5


 204:.\Generated_Source\PSoC4/cyfitter_cfg.c **** 	for (imoTrimIndex = ((int32)IMO_TRIM_FREQ_TABLE_ENTRIES)-1;
 205:.\Generated_Source\PSoC4/cyfitter_cfg.c **** 	     (imoTrimIndex >= 0) && (imoFreq <= imo_trim_table->entries[imoTrimIndex].freq);
 206:.\Generated_Source\PSoC4/cyfitter_cfg.c **** 	     imoTrimIndex--)
 207:.\Generated_Source\PSoC4/cyfitter_cfg.c **** 	{
 208:.\Generated_Source\PSoC4/cyfitter_cfg.c **** 		setAbs = imo_trim_table->entries[imoTrimIndex].absolute;
 209:.\Generated_Source\PSoC4/cyfitter_cfg.c **** 		setTmpCo = imo_trim_table->entries[imoTrimIndex].tmpco;
 210:.\Generated_Source\PSoC4/cyfitter_cfg.c **** 	}
 211:.\Generated_Source\PSoC4/cyfitter_cfg.c **** 
 212:.\Generated_Source\PSoC4/cyfitter_cfg.c **** 	CY_SET_REG32((void *)CYREG_PWR_BG_TRIM4, setAbs);
 213:.\Generated_Source\PSoC4/cyfitter_cfg.c **** 	CY_SET_REG32((void *)CYREG_PWR_BG_TRIM5, setTmpCo);
 214:.\Generated_Source\PSoC4/cyfitter_cfg.c **** }
 215:.\Generated_Source\PSoC4/cyfitter_cfg.c **** 
 216:.\Generated_Source\PSoC4/cyfitter_cfg.c **** 
 217:.\Generated_Source\PSoC4/cyfitter_cfg.c **** 
 218:.\Generated_Source\PSoC4/cyfitter_cfg.c **** /*******************************************************************************
 219:.\Generated_Source\PSoC4/cyfitter_cfg.c **** * Function Name: ClockSetup
 220:.\Generated_Source\PSoC4/cyfitter_cfg.c **** ********************************************************************************
 221:.\Generated_Source\PSoC4/cyfitter_cfg.c **** *
 222:.\Generated_Source\PSoC4/cyfitter_cfg.c **** * Summary:
 223:.\Generated_Source\PSoC4/cyfitter_cfg.c **** *   Performs the initialization of all of the clocks in the device based on the
 224:.\Generated_Source\PSoC4/cyfitter_cfg.c **** *   settings in the Clock tab of the DWR.  This includes enabling the requested
 225:.\Generated_Source\PSoC4/cyfitter_cfg.c **** *   clocks and setting the necessary dividers to produce the desired frequency. 
 226:.\Generated_Source\PSoC4/cyfitter_cfg.c **** *
 227:.\Generated_Source\PSoC4/cyfitter_cfg.c **** * Parameters:
 228:.\Generated_Source\PSoC4/cyfitter_cfg.c **** *   void
 229:.\Generated_Source\PSoC4/cyfitter_cfg.c **** *
 230:.\Generated_Source\PSoC4/cyfitter_cfg.c **** * Return:
 231:.\Generated_Source\PSoC4/cyfitter_cfg.c **** *   void
 232:.\Generated_Source\PSoC4/cyfitter_cfg.c **** *
 233:.\Generated_Source\PSoC4/cyfitter_cfg.c **** *******************************************************************************/
 234:.\Generated_Source\PSoC4/cyfitter_cfg.c **** static void ClockSetup(void);
 235:.\Generated_Source\PSoC4/cyfitter_cfg.c **** CY_CFG_SECTION
 236:.\Generated_Source\PSoC4/cyfitter_cfg.c **** static void ClockSetup(void)
 237:.\Generated_Source\PSoC4/cyfitter_cfg.c **** {
 238:.\Generated_Source\PSoC4/cyfitter_cfg.c **** 	/* Enable HALF_EN before trimming for the flash accelerator. */
 239:.\Generated_Source\PSoC4/cyfitter_cfg.c **** 	CY_SET_REG32((void CYXDATA *)(CYREG_CLK_SELECT), (CY_GET_REG32((void *)CYREG_CLK_SELECT) | 0x00040
 240:.\Generated_Source\PSoC4/cyfitter_cfg.c **** 
 241:.\Generated_Source\PSoC4/cyfitter_cfg.c **** 	/* Trim IMO BG based on desired frequency. */
 242:.\Generated_Source\PSoC4/cyfitter_cfg.c **** 	SetIMOBGTrims(24u);
 243:.\Generated_Source\PSoC4/cyfitter_cfg.c **** 
 244:.\Generated_Source\PSoC4/cyfitter_cfg.c **** 	/* Going less than or equal to 24MHz, so update the clock speed then adjust trim value. */
 245:.\Generated_Source\PSoC4/cyfitter_cfg.c **** 	CY_SET_REG32((void CYXDATA *)(CYREG_CLK_IMO_TRIM2), (25u));
 246:.\Generated_Source\PSoC4/cyfitter_cfg.c **** 	CyDelayCycles(5u);
 247:.\Generated_Source\PSoC4/cyfitter_cfg.c **** 	CY_SET_REG32((void CYXDATA *)(CYREG_CLK_IMO_TRIM1), (CY_GET_REG8((void *)CYREG_SFLASH_IMO_TRIM21))
 248:.\Generated_Source\PSoC4/cyfitter_cfg.c **** 	CyDelayUs(5u);
 249:.\Generated_Source\PSoC4/cyfitter_cfg.c **** 
 250:.\Generated_Source\PSoC4/cyfitter_cfg.c **** 	/* Disable HALF_EN since it is not required at this IMO frequency. */
 251:.\Generated_Source\PSoC4/cyfitter_cfg.c **** 	CY_SET_REG32((void CYXDATA *)(CYREG_CLK_SELECT), (CY_GET_REG32((void *)CYREG_CLK_SELECT) & 0xFFFBF
 252:.\Generated_Source\PSoC4/cyfitter_cfg.c **** 	/* CYDEV_CLK_ILO_CONFIG Starting address: CYDEV_CLK_ILO_CONFIG */
 253:.\Generated_Source\PSoC4/cyfitter_cfg.c **** 	CY_SET_XTND_REG32((void CYFAR *)(CYREG_CLK_ILO_CONFIG), 0x80000006u);
 254:.\Generated_Source\PSoC4/cyfitter_cfg.c **** 
 255:.\Generated_Source\PSoC4/cyfitter_cfg.c **** 
 256:.\Generated_Source\PSoC4/cyfitter_cfg.c **** 	/* CYDEV_CLK_SELECT00 Starting address: CYDEV_CLK_SELECT00 */
 257:.\Generated_Source\PSoC4/cyfitter_cfg.c **** 	CY_SET_XTND_REG32((void CYFAR *)(CYREG_CLK_SELECT12), 0x00000010u);
 258:.\Generated_Source\PSoC4/cyfitter_cfg.c **** 
 259:.\Generated_Source\PSoC4/cyfitter_cfg.c **** 	/* CYDEV_CLK_IMO_CONFIG Starting address: CYDEV_CLK_IMO_CONFIG */
 260:.\Generated_Source\PSoC4/cyfitter_cfg.c **** 	CY_SET_XTND_REG32((void CYFAR *)(CYREG_CLK_IMO_CONFIG), 0x80000000u);
ARM GAS  C:\Users\Admin\AppData\Local\Temp\cc3CjRUb.s 			page 6


 261:.\Generated_Source\PSoC4/cyfitter_cfg.c **** 
 262:.\Generated_Source\PSoC4/cyfitter_cfg.c **** 	/* CYDEV_CLK_DIVIDER_A00 Starting address: CYDEV_CLK_DIVIDER_A00 */
 263:.\Generated_Source\PSoC4/cyfitter_cfg.c **** 	CY_SET_XTND_REG32((void CYFAR *)(CYREG_CLK_DIVIDER_A00), 0x8000176Fu);
 264:.\Generated_Source\PSoC4/cyfitter_cfg.c **** 
 265:.\Generated_Source\PSoC4/cyfitter_cfg.c **** }
 266:.\Generated_Source\PSoC4/cyfitter_cfg.c **** 
 267:.\Generated_Source\PSoC4/cyfitter_cfg.c **** 
 268:.\Generated_Source\PSoC4/cyfitter_cfg.c **** /* Analog API Functions */
 269:.\Generated_Source\PSoC4/cyfitter_cfg.c **** 
 270:.\Generated_Source\PSoC4/cyfitter_cfg.c **** 
 271:.\Generated_Source\PSoC4/cyfitter_cfg.c **** /*******************************************************************************
 272:.\Generated_Source\PSoC4/cyfitter_cfg.c **** * Function Name: AnalogSetDefault
 273:.\Generated_Source\PSoC4/cyfitter_cfg.c **** ********************************************************************************
 274:.\Generated_Source\PSoC4/cyfitter_cfg.c **** *
 275:.\Generated_Source\PSoC4/cyfitter_cfg.c **** * Summary:
 276:.\Generated_Source\PSoC4/cyfitter_cfg.c **** *  Sets up the analog portions of the chip to default values based on chip
 277:.\Generated_Source\PSoC4/cyfitter_cfg.c **** *  configuration options from the project.
 278:.\Generated_Source\PSoC4/cyfitter_cfg.c **** *
 279:.\Generated_Source\PSoC4/cyfitter_cfg.c **** * Parameters:
 280:.\Generated_Source\PSoC4/cyfitter_cfg.c **** *  void
 281:.\Generated_Source\PSoC4/cyfitter_cfg.c **** *
 282:.\Generated_Source\PSoC4/cyfitter_cfg.c **** * Return:
 283:.\Generated_Source\PSoC4/cyfitter_cfg.c **** *  void
 284:.\Generated_Source\PSoC4/cyfitter_cfg.c **** *
 285:.\Generated_Source\PSoC4/cyfitter_cfg.c **** *******************************************************************************/
 286:.\Generated_Source\PSoC4/cyfitter_cfg.c **** static void AnalogSetDefault(void);
 287:.\Generated_Source\PSoC4/cyfitter_cfg.c **** static void AnalogSetDefault(void)
 288:.\Generated_Source\PSoC4/cyfitter_cfg.c **** {
 289:.\Generated_Source\PSoC4/cyfitter_cfg.c **** }
 290:.\Generated_Source\PSoC4/cyfitter_cfg.c **** 
 291:.\Generated_Source\PSoC4/cyfitter_cfg.c **** #define CY_AMUX_UNUSED CYREG_CM0_ROM_DWT
 292:.\Generated_Source\PSoC4/cyfitter_cfg.c **** 
 293:.\Generated_Source\PSoC4/cyfitter_cfg.c **** 
 294:.\Generated_Source\PSoC4/cyfitter_cfg.c **** /*******************************************************************************
 295:.\Generated_Source\PSoC4/cyfitter_cfg.c **** * Function Name: cyfitter_cfg
 296:.\Generated_Source\PSoC4/cyfitter_cfg.c **** ********************************************************************************
 297:.\Generated_Source\PSoC4/cyfitter_cfg.c **** * Summary:
 298:.\Generated_Source\PSoC4/cyfitter_cfg.c **** *  This function is called by the start-up code for the selected device. It
 299:.\Generated_Source\PSoC4/cyfitter_cfg.c **** *  performs all of the necessary device configuration based on the design
 300:.\Generated_Source\PSoC4/cyfitter_cfg.c **** *  settings.  This includes settings from the Design Wide Resources (DWR) such
 301:.\Generated_Source\PSoC4/cyfitter_cfg.c **** *  as Clocks and Pins as well as any component configuration that is necessary.
 302:.\Generated_Source\PSoC4/cyfitter_cfg.c **** *
 303:.\Generated_Source\PSoC4/cyfitter_cfg.c **** * Parameters:  
 304:.\Generated_Source\PSoC4/cyfitter_cfg.c **** *   void
 305:.\Generated_Source\PSoC4/cyfitter_cfg.c **** *
 306:.\Generated_Source\PSoC4/cyfitter_cfg.c **** * Return:
 307:.\Generated_Source\PSoC4/cyfitter_cfg.c **** *   void
 308:.\Generated_Source\PSoC4/cyfitter_cfg.c **** *
 309:.\Generated_Source\PSoC4/cyfitter_cfg.c **** *******************************************************************************/
 310:.\Generated_Source\PSoC4/cyfitter_cfg.c **** CY_CFG_SECTION
 311:.\Generated_Source\PSoC4/cyfitter_cfg.c **** void cyfitter_cfg(void)
 312:.\Generated_Source\PSoC4/cyfitter_cfg.c **** {
  26              		.loc 1 312 0
  27              		.cfi_startproc
  28 0000 F7B5     		push	{r0, r1, r2, r4, r5, r6, r7, lr}
  29              		.cfi_def_cfa_offset 32
  30              		.cfi_offset 0, -32
ARM GAS  C:\Users\Admin\AppData\Local\Temp\cc3CjRUb.s 			page 7


  31              		.cfi_offset 1, -28
  32              		.cfi_offset 2, -24
  33              		.cfi_offset 4, -20
  34              		.cfi_offset 5, -16
  35              		.cfi_offset 6, -12
  36              		.cfi_offset 7, -8
  37              		.cfi_offset 14, -4
 313:.\Generated_Source\PSoC4/cyfitter_cfg.c **** 	/* Disable interrupts by default. Let user enable if/when they want. */
 314:.\Generated_Source\PSoC4/cyfitter_cfg.c **** 	CyGlobalIntDisable;
  38              		.loc 1 314 0
  39              	@ 314 ".\Generated_Source\PSoC4\cyfitter_cfg.c" 1
  40 0002 72B6     		CPSID   i
  41              	@ 0 "" 2
 315:.\Generated_Source\PSoC4/cyfitter_cfg.c **** 
 316:.\Generated_Source\PSoC4/cyfitter_cfg.c **** 	/* Enable the clock in the interrupt controller for the routed interrupts */
 317:.\Generated_Source\PSoC4/cyfitter_cfg.c **** 	CY_SET_REG8((void *)CYREG_UDB_UDBIF_INT_CLK_CTL, 0x01u);
  42              		.loc 1 317 0
  43              		.code	16
  44 0004 674B     		ldr	r3, .L11
  45 0006 0122     		mov	r2, #1
  46 0008 1A70     		strb	r2, [r3]
  47              	.LVL0:
  48              	.LBB18:
  49              	.LBB19:
  50              	.LBB20:
  51              	.LBB21:
  59:.\Generated_Source\PSoC4/cyfitter_cfg.c **** 	(void)memset(s, 0, n);
  52              		.loc 1 59 0
  53 000a 8022     		mov	r2, #128
  54 000c 0021     		mov	r1, #0
  55 000e D200     		lsl	r2, r2, #3
  56 0010 6548     		ldr	r0, .L11+4
  57 0012 FFF7FEFF 		bl	memset
  58              	.LVL1:
  59 0016 8022     		mov	r2, #128
  60 0018 0021     		mov	r1, #0
  61 001a 6448     		ldr	r0, .L11+8
  62 001c D200     		lsl	r2, r2, #3
  63 001e FFF7FEFF 		bl	memset
  64              	.LVL2:
  65 0022 0023     		mov	r3, #0
  66 0024 191C     		mov	r1, r3
  67              	.LVL3:
  68              	.L5:
  69              	.LBE21:
  70              	.LBE20:
  71              	.LBE19:
  72              	.LBB22:
  73              	.LBB23:
  74              	.LBB24:
 152:.\Generated_Source\PSoC4/cyfitter_cfg.c **** 		uint32 baseAddr = addr_table[i];
  75              		.loc 1 152 0
  76 0026 624C     		ldr	r4, .L11+12
  77 0028 1859     		ldr	r0, [r3, r4]
  78              	.LVL4:
  79 002a 2834     		add	r4, r4, #40
 153:.\Generated_Source\PSoC4/cyfitter_cfg.c **** 		uint8 count = (uint8)baseAddr;
ARM GAS  C:\Users\Admin\AppData\Local\Temp\cc3CjRUb.s 			page 8


  80              		.loc 1 153 0
  81 002c C2B2     		uxtb	r2, r0
  82 002e 0192     		str	r2, [sp, #4]
  83              	.LVL5:
 154:.\Generated_Source\PSoC4/cyfitter_cfg.c **** 		baseAddr &= 0xFFFFFF00u;
  84              		.loc 1 154 0
  85 0030 071C     		mov	r7, r0
  86 0032 FF22     		mov	r2, #255
  87 0034 9743     		bic	r7, r2
  88              	.LVL6:
  89 0036 4A00     		lsl	r2, r1, #1
  90 0038 A418     		add	r4, r4, r2
  91 003a 0022     		mov	r2, #0
  92              	.LVL7:
  93              	.L2:
 155:.\Generated_Source\PSoC4/cyfitter_cfg.c **** 		while (count != 0u)
  94              		.loc 1 155 0
  95 003c 019E     		ldr	r6, [sp, #4]
  96 003e D5B2     		uxtb	r5, r2
  97 0040 AE42     		cmp	r6, r5
  98 0042 09D0     		beq	.L10
  99 0044 5500     		lsl	r5, r2, #1
 157:.\Generated_Source\PSoC4/cyfitter_cfg.c **** 			CY_SET_XTND_REG8((void CYFAR *)(baseAddr + data_table[j].offset), data_table[j].value);
 100              		.loc 1 157 0
 101 0046 665D     		ldrb	r6, [r4, r5]
 102 0048 6519     		add	r5, r4, r5
 103 004a B446     		mov	ip, r6
 104 004c BC44     		add	ip, ip, r7
 105 004e 6D78     		ldrb	r5, [r5, #1]
 106 0050 6646     		mov	r6, ip
 107 0052 3570     		strb	r5, [r6]
 108              	.LVL8:
 109 0054 0132     		add	r2, r2, #1
 110              	.LVL9:
 111 0056 F1E7     		b	.L2
 112              	.LVL10:
 113              	.L10:
 114 0058 C0B2     		uxtb	r0, r0
 115              	.LVL11:
 116 005a 0433     		add	r3, r3, #4
 117              	.LVL12:
 118 005c 0918     		add	r1, r1, r0
 119              	.LVL13:
 120              	.LBE24:
 150:.\Generated_Source\PSoC4/cyfitter_cfg.c **** 	for (i = 0u; i < CY_CFG_BASE_ADDR_COUNT; i++)
 121              		.loc 1 150 0
 122 005e 282B     		cmp	r3, #40
 123 0060 E1D1     		bne	.L5
 124              	.LBE23:
 125              	.LBE22:
 318:.\Generated_Source\PSoC4/cyfitter_cfg.c **** 	{
 319:.\Generated_Source\PSoC4/cyfitter_cfg.c **** 		static const uint32 CYCODE cy_cfg_addr_table[] = {
 320:.\Generated_Source\PSoC4/cyfitter_cfg.c **** 			0x400F0003u, /* Base address: 0x400F0000 Count: 3 */
 321:.\Generated_Source\PSoC4/cyfitter_cfg.c **** 			0x400F303Au, /* Base address: 0x400F3000 Count: 58 */
 322:.\Generated_Source\PSoC4/cyfitter_cfg.c **** 			0x400F311Du, /* Base address: 0x400F3100 Count: 29 */
 323:.\Generated_Source\PSoC4/cyfitter_cfg.c **** 			0x400F324Fu, /* Base address: 0x400F3200 Count: 79 */
 324:.\Generated_Source\PSoC4/cyfitter_cfg.c **** 			0x400F332Eu, /* Base address: 0x400F3300 Count: 46 */
ARM GAS  C:\Users\Admin\AppData\Local\Temp\cc3CjRUb.s 			page 9


 325:.\Generated_Source\PSoC4/cyfitter_cfg.c **** 			0x400F4006u, /* Base address: 0x400F4000 Count: 6 */
 326:.\Generated_Source\PSoC4/cyfitter_cfg.c **** 			0x400F4102u, /* Base address: 0x400F4100 Count: 2 */
 327:.\Generated_Source\PSoC4/cyfitter_cfg.c **** 			0x400F4202u, /* Base address: 0x400F4200 Count: 2 */
 328:.\Generated_Source\PSoC4/cyfitter_cfg.c **** 			0x400F4302u, /* Base address: 0x400F4300 Count: 2 */
 329:.\Generated_Source\PSoC4/cyfitter_cfg.c **** 			0x400F6002u, /* Base address: 0x400F6000 Count: 2 */
 330:.\Generated_Source\PSoC4/cyfitter_cfg.c **** 		};
 331:.\Generated_Source\PSoC4/cyfitter_cfg.c **** 
 332:.\Generated_Source\PSoC4/cyfitter_cfg.c **** 		static const cy_cfg_addrvalue_t CYCODE cy_cfg_data_table[] = {
 333:.\Generated_Source\PSoC4/cyfitter_cfg.c **** 			{0x81u, 0x0Du},
 334:.\Generated_Source\PSoC4/cyfitter_cfg.c **** 			{0x82u, 0x0Du},
 335:.\Generated_Source\PSoC4/cyfitter_cfg.c **** 			{0x83u, 0x0Du},
 336:.\Generated_Source\PSoC4/cyfitter_cfg.c **** 			{0x40u, 0x30u},
 337:.\Generated_Source\PSoC4/cyfitter_cfg.c **** 			{0x41u, 0x04u},
 338:.\Generated_Source\PSoC4/cyfitter_cfg.c **** 			{0x49u, 0xFFu},
 339:.\Generated_Source\PSoC4/cyfitter_cfg.c **** 			{0x4Au, 0xFFu},
 340:.\Generated_Source\PSoC4/cyfitter_cfg.c **** 			{0x4Bu, 0xFFu},
 341:.\Generated_Source\PSoC4/cyfitter_cfg.c **** 			{0x4Du, 0xA0u},
 342:.\Generated_Source\PSoC4/cyfitter_cfg.c **** 			{0x4Fu, 0x04u},
 343:.\Generated_Source\PSoC4/cyfitter_cfg.c **** 			{0x50u, 0x18u},
 344:.\Generated_Source\PSoC4/cyfitter_cfg.c **** 			{0x5Au, 0x04u},
 345:.\Generated_Source\PSoC4/cyfitter_cfg.c **** 			{0x5Fu, 0x01u},
 346:.\Generated_Source\PSoC4/cyfitter_cfg.c **** 			{0x60u, 0x40u},
 347:.\Generated_Source\PSoC4/cyfitter_cfg.c **** 			{0x62u, 0xC0u},
 348:.\Generated_Source\PSoC4/cyfitter_cfg.c **** 			{0x64u, 0x40u},
 349:.\Generated_Source\PSoC4/cyfitter_cfg.c **** 			{0x65u, 0x40u},
 350:.\Generated_Source\PSoC4/cyfitter_cfg.c **** 			{0x66u, 0xC0u},
 351:.\Generated_Source\PSoC4/cyfitter_cfg.c **** 			{0x68u, 0xC0u},
 352:.\Generated_Source\PSoC4/cyfitter_cfg.c **** 			{0x6Au, 0xC0u},
 353:.\Generated_Source\PSoC4/cyfitter_cfg.c **** 			{0x6Cu, 0xC0u},
 354:.\Generated_Source\PSoC4/cyfitter_cfg.c **** 			{0x6Eu, 0xC0u},
 355:.\Generated_Source\PSoC4/cyfitter_cfg.c **** 			{0x82u, 0x02u},
 356:.\Generated_Source\PSoC4/cyfitter_cfg.c **** 			{0x87u, 0x03u},
 357:.\Generated_Source\PSoC4/cyfitter_cfg.c **** 			{0x96u, 0x02u},
 358:.\Generated_Source\PSoC4/cyfitter_cfg.c **** 			{0x99u, 0x02u},
 359:.\Generated_Source\PSoC4/cyfitter_cfg.c **** 			{0xAEu, 0x01u},
 360:.\Generated_Source\PSoC4/cyfitter_cfg.c **** 			{0xB2u, 0x01u},
 361:.\Generated_Source\PSoC4/cyfitter_cfg.c **** 			{0xB3u, 0x01u},
 362:.\Generated_Source\PSoC4/cyfitter_cfg.c **** 			{0xB4u, 0x02u},
 363:.\Generated_Source\PSoC4/cyfitter_cfg.c **** 			{0xB7u, 0x02u},
 364:.\Generated_Source\PSoC4/cyfitter_cfg.c **** 			{0xBEu, 0x10u},
 365:.\Generated_Source\PSoC4/cyfitter_cfg.c **** 			{0xC0u, 0x30u},
 366:.\Generated_Source\PSoC4/cyfitter_cfg.c **** 			{0xC1u, 0x04u},
 367:.\Generated_Source\PSoC4/cyfitter_cfg.c **** 			{0xC5u, 0xD1u},
 368:.\Generated_Source\PSoC4/cyfitter_cfg.c **** 			{0xC6u, 0x02u},
 369:.\Generated_Source\PSoC4/cyfitter_cfg.c **** 			{0xC8u, 0x07u},
 370:.\Generated_Source\PSoC4/cyfitter_cfg.c **** 			{0xC9u, 0xFFu},
 371:.\Generated_Source\PSoC4/cyfitter_cfg.c **** 			{0xCAu, 0xFFu},
 372:.\Generated_Source\PSoC4/cyfitter_cfg.c **** 			{0xCBu, 0xFFu},
 373:.\Generated_Source\PSoC4/cyfitter_cfg.c **** 			{0xCDu, 0xAFu},
 374:.\Generated_Source\PSoC4/cyfitter_cfg.c **** 			{0xCEu, 0x0Fu},
 375:.\Generated_Source\PSoC4/cyfitter_cfg.c **** 			{0xCFu, 0x04u},
 376:.\Generated_Source\PSoC4/cyfitter_cfg.c **** 			{0xD0u, 0x18u},
 377:.\Generated_Source\PSoC4/cyfitter_cfg.c **** 			{0xD2u, 0x80u},
 378:.\Generated_Source\PSoC4/cyfitter_cfg.c **** 			{0xD4u, 0x05u},
 379:.\Generated_Source\PSoC4/cyfitter_cfg.c **** 			{0xD6u, 0x04u},
 380:.\Generated_Source\PSoC4/cyfitter_cfg.c **** 			{0xD8u, 0x04u},
 381:.\Generated_Source\PSoC4/cyfitter_cfg.c **** 			{0xD9u, 0x04u},
ARM GAS  C:\Users\Admin\AppData\Local\Temp\cc3CjRUb.s 			page 10


 382:.\Generated_Source\PSoC4/cyfitter_cfg.c **** 			{0xDAu, 0x04u},
 383:.\Generated_Source\PSoC4/cyfitter_cfg.c **** 			{0xDBu, 0x04u},
 384:.\Generated_Source\PSoC4/cyfitter_cfg.c **** 			{0xDFu, 0x01u},
 385:.\Generated_Source\PSoC4/cyfitter_cfg.c **** 			{0xE0u, 0x40u},
 386:.\Generated_Source\PSoC4/cyfitter_cfg.c **** 			{0xE2u, 0xC0u},
 387:.\Generated_Source\PSoC4/cyfitter_cfg.c **** 			{0xE4u, 0x40u},
 388:.\Generated_Source\PSoC4/cyfitter_cfg.c **** 			{0xE5u, 0x40u},
 389:.\Generated_Source\PSoC4/cyfitter_cfg.c **** 			{0xE6u, 0xC0u},
 390:.\Generated_Source\PSoC4/cyfitter_cfg.c **** 			{0xE8u, 0xC0u},
 391:.\Generated_Source\PSoC4/cyfitter_cfg.c **** 			{0xEAu, 0xC0u},
 392:.\Generated_Source\PSoC4/cyfitter_cfg.c **** 			{0xECu, 0xC0u},
 393:.\Generated_Source\PSoC4/cyfitter_cfg.c **** 			{0xEEu, 0xC0u},
 394:.\Generated_Source\PSoC4/cyfitter_cfg.c **** 			{0x06u, 0x80u},
 395:.\Generated_Source\PSoC4/cyfitter_cfg.c **** 			{0x0Du, 0x08u},
 396:.\Generated_Source\PSoC4/cyfitter_cfg.c **** 			{0x17u, 0x40u},
 397:.\Generated_Source\PSoC4/cyfitter_cfg.c **** 			{0x1Cu, 0x10u},
 398:.\Generated_Source\PSoC4/cyfitter_cfg.c **** 			{0x1Du, 0x08u},
 399:.\Generated_Source\PSoC4/cyfitter_cfg.c **** 			{0x1Eu, 0x08u},
 400:.\Generated_Source\PSoC4/cyfitter_cfg.c **** 			{0x26u, 0x40u},
 401:.\Generated_Source\PSoC4/cyfitter_cfg.c **** 			{0x27u, 0x20u},
 402:.\Generated_Source\PSoC4/cyfitter_cfg.c **** 			{0x37u, 0x20u},
 403:.\Generated_Source\PSoC4/cyfitter_cfg.c **** 			{0x3Fu, 0x08u},
 404:.\Generated_Source\PSoC4/cyfitter_cfg.c **** 			{0x40u, 0x10u},
 405:.\Generated_Source\PSoC4/cyfitter_cfg.c **** 			{0x42u, 0x80u},
 406:.\Generated_Source\PSoC4/cyfitter_cfg.c **** 			{0x45u, 0x08u},
 407:.\Generated_Source\PSoC4/cyfitter_cfg.c **** 			{0x46u, 0x80u},
 408:.\Generated_Source\PSoC4/cyfitter_cfg.c **** 			{0x4Fu, 0x09u},
 409:.\Generated_Source\PSoC4/cyfitter_cfg.c **** 			{0x56u, 0x80u},
 410:.\Generated_Source\PSoC4/cyfitter_cfg.c **** 			{0x5Eu, 0x88u},
 411:.\Generated_Source\PSoC4/cyfitter_cfg.c **** 			{0x5Fu, 0x01u},
 412:.\Generated_Source\PSoC4/cyfitter_cfg.c **** 			{0x67u, 0x40u},
 413:.\Generated_Source\PSoC4/cyfitter_cfg.c **** 			{0x77u, 0x40u},
 414:.\Generated_Source\PSoC4/cyfitter_cfg.c **** 			{0x87u, 0x40u},
 415:.\Generated_Source\PSoC4/cyfitter_cfg.c **** 			{0xC0u, 0x10u},
 416:.\Generated_Source\PSoC4/cyfitter_cfg.c **** 			{0xC2u, 0x20u},
 417:.\Generated_Source\PSoC4/cyfitter_cfg.c **** 			{0xC4u, 0x80u},
 418:.\Generated_Source\PSoC4/cyfitter_cfg.c **** 			{0xCCu, 0x20u},
 419:.\Generated_Source\PSoC4/cyfitter_cfg.c **** 			{0xCEu, 0x40u},
 420:.\Generated_Source\PSoC4/cyfitter_cfg.c **** 			{0xD0u, 0xC3u},
 421:.\Generated_Source\PSoC4/cyfitter_cfg.c **** 			{0xD6u, 0xD0u},
 422:.\Generated_Source\PSoC4/cyfitter_cfg.c **** 			{0xD8u, 0x80u},
 423:.\Generated_Source\PSoC4/cyfitter_cfg.c **** 			{0x03u, 0x01u},
 424:.\Generated_Source\PSoC4/cyfitter_cfg.c **** 			{0x16u, 0x01u},
 425:.\Generated_Source\PSoC4/cyfitter_cfg.c **** 			{0x1Eu, 0x0Cu},
 426:.\Generated_Source\PSoC4/cyfitter_cfg.c **** 			{0x26u, 0x01u},
 427:.\Generated_Source\PSoC4/cyfitter_cfg.c **** 			{0x2Du, 0x01u},
 428:.\Generated_Source\PSoC4/cyfitter_cfg.c **** 			{0x2Eu, 0x06u},
 429:.\Generated_Source\PSoC4/cyfitter_cfg.c **** 			{0x30u, 0x08u},
 430:.\Generated_Source\PSoC4/cyfitter_cfg.c **** 			{0x32u, 0x02u},
 431:.\Generated_Source\PSoC4/cyfitter_cfg.c **** 			{0x34u, 0x01u},
 432:.\Generated_Source\PSoC4/cyfitter_cfg.c **** 			{0x36u, 0x04u},
 433:.\Generated_Source\PSoC4/cyfitter_cfg.c **** 			{0x37u, 0x01u},
 434:.\Generated_Source\PSoC4/cyfitter_cfg.c **** 			{0x3Eu, 0x10u},
 435:.\Generated_Source\PSoC4/cyfitter_cfg.c **** 			{0x40u, 0x30u},
 436:.\Generated_Source\PSoC4/cyfitter_cfg.c **** 			{0x41u, 0x06u},
 437:.\Generated_Source\PSoC4/cyfitter_cfg.c **** 			{0x45u, 0xD0u},
 438:.\Generated_Source\PSoC4/cyfitter_cfg.c **** 			{0x46u, 0x20u},
ARM GAS  C:\Users\Admin\AppData\Local\Temp\cc3CjRUb.s 			page 11


 439:.\Generated_Source\PSoC4/cyfitter_cfg.c **** 			{0x47u, 0x10u},
 440:.\Generated_Source\PSoC4/cyfitter_cfg.c **** 			{0x48u, 0x2Au},
 441:.\Generated_Source\PSoC4/cyfitter_cfg.c **** 			{0x49u, 0xFFu},
 442:.\Generated_Source\PSoC4/cyfitter_cfg.c **** 			{0x4Au, 0xFFu},
 443:.\Generated_Source\PSoC4/cyfitter_cfg.c **** 			{0x4Bu, 0xFFu},
 444:.\Generated_Source\PSoC4/cyfitter_cfg.c **** 			{0x4Du, 0xA0u},
 445:.\Generated_Source\PSoC4/cyfitter_cfg.c **** 			{0x4Fu, 0x04u},
 446:.\Generated_Source\PSoC4/cyfitter_cfg.c **** 			{0x50u, 0x18u},
 447:.\Generated_Source\PSoC4/cyfitter_cfg.c **** 			{0x52u, 0x80u},
 448:.\Generated_Source\PSoC4/cyfitter_cfg.c **** 			{0x54u, 0x05u},
 449:.\Generated_Source\PSoC4/cyfitter_cfg.c **** 			{0x58u, 0x04u},
 450:.\Generated_Source\PSoC4/cyfitter_cfg.c **** 			{0x59u, 0x04u},
 451:.\Generated_Source\PSoC4/cyfitter_cfg.c **** 			{0x5Au, 0x04u},
 452:.\Generated_Source\PSoC4/cyfitter_cfg.c **** 			{0x5Bu, 0x04u},
 453:.\Generated_Source\PSoC4/cyfitter_cfg.c **** 			{0x5Fu, 0x01u},
 454:.\Generated_Source\PSoC4/cyfitter_cfg.c **** 			{0x60u, 0x40u},
 455:.\Generated_Source\PSoC4/cyfitter_cfg.c **** 			{0x62u, 0xC0u},
 456:.\Generated_Source\PSoC4/cyfitter_cfg.c **** 			{0x64u, 0x40u},
 457:.\Generated_Source\PSoC4/cyfitter_cfg.c **** 			{0x65u, 0x40u},
 458:.\Generated_Source\PSoC4/cyfitter_cfg.c **** 			{0x66u, 0xC0u},
 459:.\Generated_Source\PSoC4/cyfitter_cfg.c **** 			{0x68u, 0xC0u},
 460:.\Generated_Source\PSoC4/cyfitter_cfg.c **** 			{0x6Au, 0xC0u},
 461:.\Generated_Source\PSoC4/cyfitter_cfg.c **** 			{0x6Cu, 0xC0u},
 462:.\Generated_Source\PSoC4/cyfitter_cfg.c **** 			{0x6Eu, 0xC0u},
 463:.\Generated_Source\PSoC4/cyfitter_cfg.c **** 			{0x82u, 0x01u},
 464:.\Generated_Source\PSoC4/cyfitter_cfg.c **** 			{0x92u, 0x06u},
 465:.\Generated_Source\PSoC4/cyfitter_cfg.c **** 			{0x9Bu, 0x01u},
 466:.\Generated_Source\PSoC4/cyfitter_cfg.c **** 			{0xA5u, 0x01u},
 467:.\Generated_Source\PSoC4/cyfitter_cfg.c **** 			{0xA6u, 0x0Cu},
 468:.\Generated_Source\PSoC4/cyfitter_cfg.c **** 			{0xAAu, 0x01u},
 469:.\Generated_Source\PSoC4/cyfitter_cfg.c **** 			{0xB0u, 0x04u},
 470:.\Generated_Source\PSoC4/cyfitter_cfg.c **** 			{0xB2u, 0x08u},
 471:.\Generated_Source\PSoC4/cyfitter_cfg.c **** 			{0xB4u, 0x01u},
 472:.\Generated_Source\PSoC4/cyfitter_cfg.c **** 			{0xB6u, 0x02u},
 473:.\Generated_Source\PSoC4/cyfitter_cfg.c **** 			{0xB7u, 0x01u},
 474:.\Generated_Source\PSoC4/cyfitter_cfg.c **** 			{0xBEu, 0x10u},
 475:.\Generated_Source\PSoC4/cyfitter_cfg.c **** 			{0xC0u, 0x10u},
 476:.\Generated_Source\PSoC4/cyfitter_cfg.c **** 			{0xC1u, 0x06u},
 477:.\Generated_Source\PSoC4/cyfitter_cfg.c **** 			{0xC5u, 0xD1u},
 478:.\Generated_Source\PSoC4/cyfitter_cfg.c **** 			{0xC7u, 0x02u},
 479:.\Generated_Source\PSoC4/cyfitter_cfg.c **** 			{0xC8u, 0x13u},
 480:.\Generated_Source\PSoC4/cyfitter_cfg.c **** 			{0xC9u, 0xFFu},
 481:.\Generated_Source\PSoC4/cyfitter_cfg.c **** 			{0xCAu, 0xFFu},
 482:.\Generated_Source\PSoC4/cyfitter_cfg.c **** 			{0xCBu, 0xFFu},
 483:.\Generated_Source\PSoC4/cyfitter_cfg.c **** 			{0xCDu, 0xA0u},
 484:.\Generated_Source\PSoC4/cyfitter_cfg.c **** 			{0xCFu, 0x04u},
 485:.\Generated_Source\PSoC4/cyfitter_cfg.c **** 			{0xD0u, 0x18u},
 486:.\Generated_Source\PSoC4/cyfitter_cfg.c **** 			{0xD2u, 0x80u},
 487:.\Generated_Source\PSoC4/cyfitter_cfg.c **** 			{0xD4u, 0x05u},
 488:.\Generated_Source\PSoC4/cyfitter_cfg.c **** 			{0xD8u, 0x04u},
 489:.\Generated_Source\PSoC4/cyfitter_cfg.c **** 			{0xD9u, 0x04u},
 490:.\Generated_Source\PSoC4/cyfitter_cfg.c **** 			{0xDAu, 0x04u},
 491:.\Generated_Source\PSoC4/cyfitter_cfg.c **** 			{0xDBu, 0x04u},
 492:.\Generated_Source\PSoC4/cyfitter_cfg.c **** 			{0xDFu, 0x01u},
 493:.\Generated_Source\PSoC4/cyfitter_cfg.c **** 			{0xE0u, 0x40u},
 494:.\Generated_Source\PSoC4/cyfitter_cfg.c **** 			{0xE2u, 0xC0u},
 495:.\Generated_Source\PSoC4/cyfitter_cfg.c **** 			{0xE4u, 0x40u},
ARM GAS  C:\Users\Admin\AppData\Local\Temp\cc3CjRUb.s 			page 12


 496:.\Generated_Source\PSoC4/cyfitter_cfg.c **** 			{0xE5u, 0x40u},
 497:.\Generated_Source\PSoC4/cyfitter_cfg.c **** 			{0xE6u, 0xC0u},
 498:.\Generated_Source\PSoC4/cyfitter_cfg.c **** 			{0xE8u, 0xC0u},
 499:.\Generated_Source\PSoC4/cyfitter_cfg.c **** 			{0xEAu, 0xC0u},
 500:.\Generated_Source\PSoC4/cyfitter_cfg.c **** 			{0xECu, 0xC0u},
 501:.\Generated_Source\PSoC4/cyfitter_cfg.c **** 			{0xEEu, 0xC0u},
 502:.\Generated_Source\PSoC4/cyfitter_cfg.c **** 			{0x00u, 0x01u},
 503:.\Generated_Source\PSoC4/cyfitter_cfg.c **** 			{0x09u, 0x02u},
 504:.\Generated_Source\PSoC4/cyfitter_cfg.c **** 			{0x0Du, 0x08u},
 505:.\Generated_Source\PSoC4/cyfitter_cfg.c **** 			{0x0Fu, 0x02u},
 506:.\Generated_Source\PSoC4/cyfitter_cfg.c **** 			{0x10u, 0x28u},
 507:.\Generated_Source\PSoC4/cyfitter_cfg.c **** 			{0x16u, 0x20u},
 508:.\Generated_Source\PSoC4/cyfitter_cfg.c **** 			{0x17u, 0x40u},
 509:.\Generated_Source\PSoC4/cyfitter_cfg.c **** 			{0x18u, 0x01u},
 510:.\Generated_Source\PSoC4/cyfitter_cfg.c **** 			{0x19u, 0x08u},
 511:.\Generated_Source\PSoC4/cyfitter_cfg.c **** 			{0x1Au, 0x44u},
 512:.\Generated_Source\PSoC4/cyfitter_cfg.c **** 			{0x1Du, 0x08u},
 513:.\Generated_Source\PSoC4/cyfitter_cfg.c **** 			{0x1Eu, 0x08u},
 514:.\Generated_Source\PSoC4/cyfitter_cfg.c **** 			{0x1Fu, 0x82u},
 515:.\Generated_Source\PSoC4/cyfitter_cfg.c **** 			{0x22u, 0x40u},
 516:.\Generated_Source\PSoC4/cyfitter_cfg.c **** 			{0x26u, 0x40u},
 517:.\Generated_Source\PSoC4/cyfitter_cfg.c **** 			{0x29u, 0x08u},
 518:.\Generated_Source\PSoC4/cyfitter_cfg.c **** 			{0x2Fu, 0x02u},
 519:.\Generated_Source\PSoC4/cyfitter_cfg.c **** 			{0x30u, 0x20u},
 520:.\Generated_Source\PSoC4/cyfitter_cfg.c **** 			{0x3Fu, 0x02u},
 521:.\Generated_Source\PSoC4/cyfitter_cfg.c **** 			{0x40u, 0x01u},
 522:.\Generated_Source\PSoC4/cyfitter_cfg.c **** 			{0x45u, 0x08u},
 523:.\Generated_Source\PSoC4/cyfitter_cfg.c **** 			{0x48u, 0x28u},
 524:.\Generated_Source\PSoC4/cyfitter_cfg.c **** 			{0x49u, 0x01u},
 525:.\Generated_Source\PSoC4/cyfitter_cfg.c **** 			{0x4Fu, 0x21u},
 526:.\Generated_Source\PSoC4/cyfitter_cfg.c **** 			{0x50u, 0x08u},
 527:.\Generated_Source\PSoC4/cyfitter_cfg.c **** 			{0x56u, 0x20u},
 528:.\Generated_Source\PSoC4/cyfitter_cfg.c **** 			{0x57u, 0x11u},
 529:.\Generated_Source\PSoC4/cyfitter_cfg.c **** 			{0x59u, 0x01u},
 530:.\Generated_Source\PSoC4/cyfitter_cfg.c **** 			{0x5Au, 0x84u},
 531:.\Generated_Source\PSoC4/cyfitter_cfg.c **** 			{0x5Eu, 0x88u},
 532:.\Generated_Source\PSoC4/cyfitter_cfg.c **** 			{0x5Fu, 0x01u},
 533:.\Generated_Source\PSoC4/cyfitter_cfg.c **** 			{0x71u, 0x02u},
 534:.\Generated_Source\PSoC4/cyfitter_cfg.c **** 			{0x77u, 0x40u},
 535:.\Generated_Source\PSoC4/cyfitter_cfg.c **** 			{0x83u, 0x80u},
 536:.\Generated_Source\PSoC4/cyfitter_cfg.c **** 			{0x8Eu, 0x40u},
 537:.\Generated_Source\PSoC4/cyfitter_cfg.c **** 			{0xC0u, 0x08u},
 538:.\Generated_Source\PSoC4/cyfitter_cfg.c **** 			{0xC2u, 0xA8u},
 539:.\Generated_Source\PSoC4/cyfitter_cfg.c **** 			{0xC4u, 0xA6u},
 540:.\Generated_Source\PSoC4/cyfitter_cfg.c **** 			{0xCAu, 0x12u},
 541:.\Generated_Source\PSoC4/cyfitter_cfg.c **** 			{0xCCu, 0x04u},
 542:.\Generated_Source\PSoC4/cyfitter_cfg.c **** 			{0xCEu, 0x80u},
 543:.\Generated_Source\PSoC4/cyfitter_cfg.c **** 			{0xD0u, 0x48u},
 544:.\Generated_Source\PSoC4/cyfitter_cfg.c **** 			{0xD2u, 0x24u},
 545:.\Generated_Source\PSoC4/cyfitter_cfg.c **** 			{0xD6u, 0xDBu},
 546:.\Generated_Source\PSoC4/cyfitter_cfg.c **** 			{0xE4u, 0x04u},
 547:.\Generated_Source\PSoC4/cyfitter_cfg.c **** 			{0xE6u, 0x40u},
 548:.\Generated_Source\PSoC4/cyfitter_cfg.c **** 			{0x50u, 0x10u},
 549:.\Generated_Source\PSoC4/cyfitter_cfg.c **** 			{0x73u, 0x02u},
 550:.\Generated_Source\PSoC4/cyfitter_cfg.c **** 			{0x87u, 0x02u},
 551:.\Generated_Source\PSoC4/cyfitter_cfg.c **** 			{0xD4u, 0x20u},
 552:.\Generated_Source\PSoC4/cyfitter_cfg.c **** 			{0xDCu, 0x20u},
ARM GAS  C:\Users\Admin\AppData\Local\Temp\cc3CjRUb.s 			page 13


 553:.\Generated_Source\PSoC4/cyfitter_cfg.c **** 			{0xE6u, 0x40u},
 554:.\Generated_Source\PSoC4/cyfitter_cfg.c **** 			{0x8Cu, 0x10u},
 555:.\Generated_Source\PSoC4/cyfitter_cfg.c **** 			{0x94u, 0x20u},
 556:.\Generated_Source\PSoC4/cyfitter_cfg.c **** 			{0x67u, 0x02u},
 557:.\Generated_Source\PSoC4/cyfitter_cfg.c **** 			{0xD6u, 0x01u},
 558:.\Generated_Source\PSoC4/cyfitter_cfg.c **** 			{0x83u, 0x01u},
 559:.\Generated_Source\PSoC4/cyfitter_cfg.c **** 			{0x97u, 0x02u},
 560:.\Generated_Source\PSoC4/cyfitter_cfg.c **** 			{0x10u, 0x01u},
 561:.\Generated_Source\PSoC4/cyfitter_cfg.c **** 			{0x11u, 0x01u},
 562:.\Generated_Source\PSoC4/cyfitter_cfg.c **** 		};
 563:.\Generated_Source\PSoC4/cyfitter_cfg.c **** 
 564:.\Generated_Source\PSoC4/cyfitter_cfg.c **** 
 565:.\Generated_Source\PSoC4/cyfitter_cfg.c **** 
 566:.\Generated_Source\PSoC4/cyfitter_cfg.c **** 		CYPACKED typedef struct {
 567:.\Generated_Source\PSoC4/cyfitter_cfg.c **** 			void CYFAR *address;
 568:.\Generated_Source\PSoC4/cyfitter_cfg.c **** 			uint16 size;
 569:.\Generated_Source\PSoC4/cyfitter_cfg.c **** 		} CYPACKED_ATTR cfg_memset_t;
 570:.\Generated_Source\PSoC4/cyfitter_cfg.c **** 
 571:.\Generated_Source\PSoC4/cyfitter_cfg.c **** 		static const cfg_memset_t CYCODE cfg_memset_list [] = {
 572:.\Generated_Source\PSoC4/cyfitter_cfg.c **** 			/* address, size */
 573:.\Generated_Source\PSoC4/cyfitter_cfg.c **** 			{(void CYFAR *)(CYDEV_UDB_P0_U0_BASE), 1024u},
 574:.\Generated_Source\PSoC4/cyfitter_cfg.c **** 			{(void CYFAR *)(CYDEV_UDB_DSI0_BASE), 1024u},
 575:.\Generated_Source\PSoC4/cyfitter_cfg.c **** 		};
 576:.\Generated_Source\PSoC4/cyfitter_cfg.c **** 
 577:.\Generated_Source\PSoC4/cyfitter_cfg.c **** 		uint8 CYDATA i;
 578:.\Generated_Source\PSoC4/cyfitter_cfg.c **** 
 579:.\Generated_Source\PSoC4/cyfitter_cfg.c **** 		/* Zero out critical memory blocks before beginning configuration */
 580:.\Generated_Source\PSoC4/cyfitter_cfg.c **** 		for (i = 0u; i < (sizeof(cfg_memset_list)/sizeof(cfg_memset_list[0])); i++)
 581:.\Generated_Source\PSoC4/cyfitter_cfg.c **** 		{
 582:.\Generated_Source\PSoC4/cyfitter_cfg.c **** 			const cfg_memset_t CYCODE * CYDATA ms = &cfg_memset_list[i];
 583:.\Generated_Source\PSoC4/cyfitter_cfg.c **** 			CYMEMZERO(ms->address, (size_t)(uint32)(ms->size));
 584:.\Generated_Source\PSoC4/cyfitter_cfg.c **** 		}
 585:.\Generated_Source\PSoC4/cyfitter_cfg.c **** 
 586:.\Generated_Source\PSoC4/cyfitter_cfg.c **** 		cfg_write_bytes32(cy_cfg_addr_table, cy_cfg_data_table);
 587:.\Generated_Source\PSoC4/cyfitter_cfg.c **** 
 588:.\Generated_Source\PSoC4/cyfitter_cfg.c **** 		/* Perform normal device configuration. Order is not critical for these items. */
 589:.\Generated_Source\PSoC4/cyfitter_cfg.c **** 		CY_SET_XTND_REG16((void CYFAR *)(CYREG_UDB_BCTL0_DRV), 0x0100u);
 126              		.loc 1 589 0
 127 0062 544B     		ldr	r3, .L11+16
 128              	.LVL14:
 129 0064 8022     		mov	r2, #128
 130 0066 5200     		lsl	r2, r2, #1
 131 0068 1A80     		strh	r2, [r3]
 590:.\Generated_Source\PSoC4/cyfitter_cfg.c **** 		CY_SET_XTND_REG8((void CYFAR *)(CYREG_UDB_BCTL0_DRV + 0x2u), 0x01u);
 132              		.loc 1 590 0
 133 006a 534B     		ldr	r3, .L11+20
 134 006c 0122     		mov	r2, #1
 135 006e 1A70     		strb	r2, [r3]
 591:.\Generated_Source\PSoC4/cyfitter_cfg.c **** 
 592:.\Generated_Source\PSoC4/cyfitter_cfg.c **** 		/* HSIOM Starting address: CYDEV_HSIOM_BASE */
 593:.\Generated_Source\PSoC4/cyfitter_cfg.c **** 		CY_SET_XTND_REG32((void CYFAR *)(CYDEV_HSIOM_BASE), 0x00000300u);
 136              		.loc 1 593 0
 137 0070 524B     		ldr	r3, .L11+24
 138 0072 C022     		mov	r2, #192
 139 0074 9200     		lsl	r2, r2, #2
 140 0076 1A60     		str	r2, [r3]
 594:.\Generated_Source\PSoC4/cyfitter_cfg.c **** 		CY_SET_XTND_REG32((void CYFAR *)(CYREG_HSIOM_PORT_SEL2), 0x30000000u);
ARM GAS  C:\Users\Admin\AppData\Local\Temp\cc3CjRUb.s 			page 14


 141              		.loc 1 594 0
 142 0078 514B     		ldr	r3, .L11+28
 143 007a C022     		mov	r2, #192
 144 007c 9205     		lsl	r2, r2, #22
 145 007e 1A60     		str	r2, [r3]
 595:.\Generated_Source\PSoC4/cyfitter_cfg.c **** 		CY_SET_XTND_REG32((void CYFAR *)(CYREG_HSIOM_PORT_SEL3), 0x0000EE00u);
 146              		.loc 1 595 0
 147 0080 504B     		ldr	r3, .L11+32
 148 0082 EE22     		mov	r2, #238
 149 0084 1202     		lsl	r2, r2, #8
 150 0086 1A60     		str	r2, [r3]
 596:.\Generated_Source\PSoC4/cyfitter_cfg.c **** 
 597:.\Generated_Source\PSoC4/cyfitter_cfg.c **** 		/* IOPINS0_0 Starting address: CYDEV_PRT0_DR */
 598:.\Generated_Source\PSoC4/cyfitter_cfg.c **** 		CY_SET_XTND_REG32((void CYFAR *)(CYREG_PRT0_DR), 0x00000084u);
 151              		.loc 1 598 0
 152 0088 4F4B     		ldr	r3, .L11+36
 153 008a 8422     		mov	r2, #132
 154 008c 1A60     		str	r2, [r3]
 599:.\Generated_Source\PSoC4/cyfitter_cfg.c **** 		CY_SET_XTND_REG32((void CYFAR *)(CYREG_PRT0_PC), 0x005801B6u);
 155              		.loc 1 599 0
 156 008e 4F4A     		ldr	r2, .L11+40
 157 0090 4F4B     		ldr	r3, .L11+44
 600:.\Generated_Source\PSoC4/cyfitter_cfg.c **** 		CY_SET_XTND_REG32((void CYFAR *)(CYREG_PRT0_INTCFG), 0x0000C000u);
 601:.\Generated_Source\PSoC4/cyfitter_cfg.c **** 
 602:.\Generated_Source\PSoC4/cyfitter_cfg.c **** 		/* IOPINS0_1 Starting address: CYDEV_PRT1_DR */
 603:.\Generated_Source\PSoC4/cyfitter_cfg.c **** 		CY_SET_XTND_REG32((void CYFAR *)(CYREG_PRT1_DR), 0x00000004u);
 604:.\Generated_Source\PSoC4/cyfitter_cfg.c **** 		CY_SET_XTND_REG32((void CYFAR *)(CYREG_PRT1_PC), 0x00180080u);
 158              		.loc 1 604 0
 159 0092 5049     		ldr	r1, .L11+48
 160              	.LVL15:
 599:.\Generated_Source\PSoC4/cyfitter_cfg.c **** 		CY_SET_XTND_REG32((void CYFAR *)(CYREG_PRT0_PC), 0x005801B6u);
 161              		.loc 1 599 0
 162 0094 1A60     		str	r2, [r3]
 600:.\Generated_Source\PSoC4/cyfitter_cfg.c **** 		CY_SET_XTND_REG32((void CYFAR *)(CYREG_PRT0_INTCFG), 0x0000C000u);
 163              		.loc 1 600 0
 164 0096 504B     		ldr	r3, .L11+52
 165 0098 C022     		mov	r2, #192
 166 009a 1202     		lsl	r2, r2, #8
 167 009c 1A60     		str	r2, [r3]
 603:.\Generated_Source\PSoC4/cyfitter_cfg.c **** 		CY_SET_XTND_REG32((void CYFAR *)(CYREG_PRT1_DR), 0x00000004u);
 168              		.loc 1 603 0
 169 009e 4F4B     		ldr	r3, .L11+56
 170 00a0 0422     		mov	r2, #4
 171 00a2 1A60     		str	r2, [r3]
 172              		.loc 1 604 0
 173 00a4 4E4B     		ldr	r3, .L11+60
 605:.\Generated_Source\PSoC4/cyfitter_cfg.c **** 		CY_SET_XTND_REG32((void CYFAR *)(CYREG_PRT1_INTCFG), 0x00000020u);
 606:.\Generated_Source\PSoC4/cyfitter_cfg.c **** 
 607:.\Generated_Source\PSoC4/cyfitter_cfg.c **** 		/* IOPINS0_2 Starting address: CYDEV_PRT2_DR */
 608:.\Generated_Source\PSoC4/cyfitter_cfg.c **** 		CY_SET_XTND_REG32((void CYFAR *)(CYREG_PRT2_DR), 0x00000080u);
 609:.\Generated_Source\PSoC4/cyfitter_cfg.c **** 		CY_SET_XTND_REG32((void CYFAR *)(CYREG_PRT2_PC), 0x00DB0000u);
 610:.\Generated_Source\PSoC4/cyfitter_cfg.c **** 
 611:.\Generated_Source\PSoC4/cyfitter_cfg.c **** 		/* IOPINS0_3 Starting address: CYDEV_PRT3_DR */
 612:.\Generated_Source\PSoC4/cyfitter_cfg.c **** 		CY_SET_XTND_REG32((void CYFAR *)(CYREG_PRT3_DR), 0x00000010u);
 613:.\Generated_Source\PSoC4/cyfitter_cfg.c **** 		CY_SET_XTND_REG32((void CYFAR *)(CYREG_PRT3_PC), 0x00002D80u);
 614:.\Generated_Source\PSoC4/cyfitter_cfg.c **** 		CY_SET_XTND_REG32((void CYFAR *)(CYREG_PRT3_INTCFG), 0x00000200u);
 615:.\Generated_Source\PSoC4/cyfitter_cfg.c **** 
ARM GAS  C:\Users\Admin\AppData\Local\Temp\cc3CjRUb.s 			page 15


 616:.\Generated_Source\PSoC4/cyfitter_cfg.c **** 		/* UDB_PA_0 Starting address: CYDEV_UDB_PA0_BASE */
 617:.\Generated_Source\PSoC4/cyfitter_cfg.c **** 		CY_SET_XTND_REG32((void CYFAR *)(CYDEV_UDB_PA0_BASE), 0x00990000u);
 618:.\Generated_Source\PSoC4/cyfitter_cfg.c **** 		CY_SET_XTND_REG32((void CYFAR *)(CYREG_UDB_PA0_CFG4), 0x80000000u);
 174              		.loc 1 618 0
 175 00a6 8020     		mov	r0, #128
 604:.\Generated_Source\PSoC4/cyfitter_cfg.c **** 		CY_SET_XTND_REG32((void CYFAR *)(CYREG_PRT1_PC), 0x00180080u);
 176              		.loc 1 604 0
 177 00a8 1960     		str	r1, [r3]
 605:.\Generated_Source\PSoC4/cyfitter_cfg.c **** 		CY_SET_XTND_REG32((void CYFAR *)(CYREG_PRT1_INTCFG), 0x00000020u);
 178              		.loc 1 605 0
 179 00aa 4E4B     		ldr	r3, .L11+64
 180 00ac 2021     		mov	r1, #32
 181 00ae 1960     		str	r1, [r3]
 608:.\Generated_Source\PSoC4/cyfitter_cfg.c **** 		CY_SET_XTND_REG32((void CYFAR *)(CYREG_PRT2_DR), 0x00000080u);
 182              		.loc 1 608 0
 183 00b0 4D4B     		ldr	r3, .L11+68
 184 00b2 8021     		mov	r1, #128
 185 00b4 1960     		str	r1, [r3]
 609:.\Generated_Source\PSoC4/cyfitter_cfg.c **** 		CY_SET_XTND_REG32((void CYFAR *)(CYREG_PRT2_PC), 0x00DB0000u);
 186              		.loc 1 609 0
 187 00b6 4D4B     		ldr	r3, .L11+72
 188 00b8 DB21     		mov	r1, #219
 189 00ba 0904     		lsl	r1, r1, #16
 190 00bc 1960     		str	r1, [r3]
 612:.\Generated_Source\PSoC4/cyfitter_cfg.c **** 		CY_SET_XTND_REG32((void CYFAR *)(CYREG_PRT3_DR), 0x00000010u);
 191              		.loc 1 612 0
 192 00be 4C4B     		ldr	r3, .L11+76
 193 00c0 1021     		mov	r1, #16
 194 00c2 1960     		str	r1, [r3]
 613:.\Generated_Source\PSoC4/cyfitter_cfg.c **** 		CY_SET_XTND_REG32((void CYFAR *)(CYREG_PRT3_PC), 0x00002D80u);
 195              		.loc 1 613 0
 196 00c4 4B4B     		ldr	r3, .L11+80
 197 00c6 B621     		mov	r1, #182
 198 00c8 8901     		lsl	r1, r1, #6
 199 00ca 1960     		str	r1, [r3]
 614:.\Generated_Source\PSoC4/cyfitter_cfg.c **** 		CY_SET_XTND_REG32((void CYFAR *)(CYREG_PRT3_INTCFG), 0x00000200u);
 200              		.loc 1 614 0
 201 00cc 4A4B     		ldr	r3, .L11+84
 202 00ce 8021     		mov	r1, #128
 203 00d0 8900     		lsl	r1, r1, #2
 204 00d2 1960     		str	r1, [r3]
 617:.\Generated_Source\PSoC4/cyfitter_cfg.c **** 		CY_SET_XTND_REG32((void CYFAR *)(CYDEV_UDB_PA0_BASE), 0x00990000u);
 205              		.loc 1 617 0
 206 00d4 4949     		ldr	r1, .L11+88
 207 00d6 9923     		mov	r3, #153
 208 00d8 1B04     		lsl	r3, r3, #16
 209 00da 0B60     		str	r3, [r1]
 210              		.loc 1 618 0
 211 00dc 4849     		ldr	r1, .L11+92
 212 00de 0006     		lsl	r0, r0, #24
 213 00e0 0860     		str	r0, [r1]
 619:.\Generated_Source\PSoC4/cyfitter_cfg.c **** 
 620:.\Generated_Source\PSoC4/cyfitter_cfg.c **** 		/* UDB_PA_1 Starting address: CYDEV_UDB_PA1_BASE */
 621:.\Generated_Source\PSoC4/cyfitter_cfg.c **** 		CY_SET_XTND_REG32((void CYFAR *)(CYDEV_UDB_PA1_BASE), 0x00990000u);
 214              		.loc 1 621 0
 215 00e2 4849     		ldr	r1, .L11+96
 622:.\Generated_Source\PSoC4/cyfitter_cfg.c **** 		CY_SET_XTND_REG32((void CYFAR *)(CYREG_UDB_PA1_CFG4), 0x00200000u);
ARM GAS  C:\Users\Admin\AppData\Local\Temp\cc3CjRUb.s 			page 16


 216              		.loc 1 622 0
 217 00e4 8020     		mov	r0, #128
 621:.\Generated_Source\PSoC4/cyfitter_cfg.c **** 		CY_SET_XTND_REG32((void CYFAR *)(CYDEV_UDB_PA1_BASE), 0x00990000u);
 218              		.loc 1 621 0
 219 00e6 0B60     		str	r3, [r1]
 220              		.loc 1 622 0
 221 00e8 4749     		ldr	r1, .L11+100
 222 00ea 8003     		lsl	r0, r0, #14
 223 00ec 0860     		str	r0, [r1]
 623:.\Generated_Source\PSoC4/cyfitter_cfg.c **** 
 624:.\Generated_Source\PSoC4/cyfitter_cfg.c **** 		/* UDB_PA_2 Starting address: CYDEV_UDB_PA2_BASE */
 625:.\Generated_Source\PSoC4/cyfitter_cfg.c **** 		CY_SET_XTND_REG32((void CYFAR *)(CYDEV_UDB_PA2_BASE), 0x00990000u);
 224              		.loc 1 625 0
 225 00ee 4749     		ldr	r1, .L11+104
 626:.\Generated_Source\PSoC4/cyfitter_cfg.c **** 		CY_SET_XTND_REG32((void CYFAR *)(CYREG_UDB_PA2_CFG8), 0x40000000u);
 226              		.loc 1 626 0
 227 00f0 8020     		mov	r0, #128
 625:.\Generated_Source\PSoC4/cyfitter_cfg.c **** 		CY_SET_XTND_REG32((void CYFAR *)(CYDEV_UDB_PA2_BASE), 0x00990000u);
 228              		.loc 1 625 0
 229 00f2 0B60     		str	r3, [r1]
 230              		.loc 1 626 0
 231 00f4 4649     		ldr	r1, .L11+108
 232 00f6 C005     		lsl	r0, r0, #23
 233 00f8 0860     		str	r0, [r1]
 627:.\Generated_Source\PSoC4/cyfitter_cfg.c **** 
 628:.\Generated_Source\PSoC4/cyfitter_cfg.c **** 		/* UDB_PA_3 Starting address: CYDEV_UDB_PA3_BASE */
 629:.\Generated_Source\PSoC4/cyfitter_cfg.c **** 		CY_SET_XTND_REG32((void CYFAR *)(CYDEV_UDB_PA3_BASE), 0x00990000u);
 234              		.loc 1 629 0
 235 00fa 4649     		ldr	r1, .L11+112
 630:.\Generated_Source\PSoC4/cyfitter_cfg.c **** 		CY_SET_XTND_REG32((void CYFAR *)(CYREG_UDB_PA3_CFG4), 0x02000000u);
 631:.\Generated_Source\PSoC4/cyfitter_cfg.c **** 
 632:.\Generated_Source\PSoC4/cyfitter_cfg.c **** 		/* INT_SELECT Starting address: CYDEV_CPUSS_INTR_SELECT */
 633:.\Generated_Source\PSoC4/cyfitter_cfg.c **** 		CY_SET_XTND_REG32((void CYFAR *)(CYREG_CPUSS_INTR_SELECT), 0x00000004u);
 634:.\Generated_Source\PSoC4/cyfitter_cfg.c **** 
 635:.\Generated_Source\PSoC4/cyfitter_cfg.c **** 		/* INT_CONFIG Starting address: CYDEV_UDB_INT_CFG */
 636:.\Generated_Source\PSoC4/cyfitter_cfg.c **** 		CY_SET_XTND_REG32((void CYFAR *)(CYREG_UDB_INT_CFG), 0x00000004u);
 637:.\Generated_Source\PSoC4/cyfitter_cfg.c **** 
 638:.\Generated_Source\PSoC4/cyfitter_cfg.c **** 		/* Enable digital routing */
 639:.\Generated_Source\PSoC4/cyfitter_cfg.c **** 		CY_SET_XTND_REG8((void *)CYREG_UDB_UDBIF_BANK_CTL, CY_GET_XTND_REG8((void *)CYREG_UDB_UDBIF_BANK_
 640:.\Generated_Source\PSoC4/cyfitter_cfg.c **** 
 641:.\Generated_Source\PSoC4/cyfitter_cfg.c **** 		/* Enable UDB array */
 642:.\Generated_Source\PSoC4/cyfitter_cfg.c **** 		CY_SET_XTND_REG8((void *)CYREG_UDB_UDBIF_WAIT_CFG, (uint8)((CY_GET_XTND_REG8((void *)CYREG_UDB_UD
 236              		.loc 1 642 0
 237 00fc 3C20     		mov	r0, #60
 629:.\Generated_Source\PSoC4/cyfitter_cfg.c **** 		CY_SET_XTND_REG32((void CYFAR *)(CYDEV_UDB_PA3_BASE), 0x00990000u);
 238              		.loc 1 629 0
 239 00fe 0B60     		str	r3, [r1]
 630:.\Generated_Source\PSoC4/cyfitter_cfg.c **** 		CY_SET_XTND_REG32((void CYFAR *)(CYREG_UDB_PA3_CFG4), 0x02000000u);
 240              		.loc 1 630 0
 241 0100 454B     		ldr	r3, .L11+116
 242 0102 8021     		mov	r1, #128
 243 0104 8904     		lsl	r1, r1, #18
 244 0106 1960     		str	r1, [r3]
 633:.\Generated_Source\PSoC4/cyfitter_cfg.c **** 		CY_SET_XTND_REG32((void CYFAR *)(CYREG_CPUSS_INTR_SELECT), 0x00000004u);
 245              		.loc 1 633 0
 246 0108 444B     		ldr	r3, .L11+120
 639:.\Generated_Source\PSoC4/cyfitter_cfg.c **** 		CY_SET_XTND_REG8((void *)CYREG_UDB_UDBIF_BANK_CTL, CY_GET_XTND_REG8((void *)CYREG_UDB_UDBIF_BANK_
ARM GAS  C:\Users\Admin\AppData\Local\Temp\cc3CjRUb.s 			page 17


 247              		.loc 1 639 0
 248 010a 0221     		mov	r1, #2
 633:.\Generated_Source\PSoC4/cyfitter_cfg.c **** 		CY_SET_XTND_REG32((void CYFAR *)(CYREG_CPUSS_INTR_SELECT), 0x00000004u);
 249              		.loc 1 633 0
 250 010c 1A60     		str	r2, [r3]
 636:.\Generated_Source\PSoC4/cyfitter_cfg.c **** 		CY_SET_XTND_REG32((void CYFAR *)(CYREG_UDB_INT_CFG), 0x00000004u);
 251              		.loc 1 636 0
 252 010e 444B     		ldr	r3, .L11+124
 253 0110 1A60     		str	r2, [r3]
 639:.\Generated_Source\PSoC4/cyfitter_cfg.c **** 		CY_SET_XTND_REG8((void *)CYREG_UDB_UDBIF_BANK_CTL, CY_GET_XTND_REG8((void *)CYREG_UDB_UDBIF_BANK_
 254              		.loc 1 639 0
 255 0112 444B     		ldr	r3, .L11+128
 256 0114 1A78     		ldrb	r2, [r3]
 257 0116 0A43     		orr	r2, r1
 258 0118 1A70     		strb	r2, [r3]
 259              		.loc 1 642 0
 260 011a 434A     		ldr	r2, .L11+132
 261 011c 1178     		ldrb	r1, [r2]
 262 011e 8143     		bic	r1, r0
 263 0120 1420     		mov	r0, #20
 264 0122 0143     		orr	r1, r0
 265 0124 1170     		strb	r1, [r2]
 643:.\Generated_Source\PSoC4/cyfitter_cfg.c **** 		CY_SET_XTND_REG8((void *)CYREG_UDB_UDBIF_BANK_CTL, (uint8)(CY_GET_XTND_REG8((void *)CYREG_UDB_UDB
 266              		.loc 1 643 0
 267 0126 1A78     		ldrb	r2, [r3]
 268 0128 1621     		mov	r1, #22
 269 012a 0A43     		orr	r2, r1
 270 012c 1A70     		strb	r2, [r3]
 271              	.LBE18:
 272              	.LBB25:
 273              	.LBB26:
 239:.\Generated_Source\PSoC4/cyfitter_cfg.c **** 	CY_SET_REG32((void CYXDATA *)(CYREG_CLK_SELECT), (CY_GET_REG32((void *)CYREG_CLK_SELECT) | 0x00040
 274              		.loc 1 239 0
 275 012e 3F4A     		ldr	r2, .L11+136
 276 0130 8023     		mov	r3, #128
 277 0132 1168     		ldr	r1, [r2]
 278 0134 DB02     		lsl	r3, r3, #11
 279 0136 0B43     		orr	r3, r1
 280 0138 1360     		str	r3, [r2]
 281              	.LVL16:
 282              	.LBB27:
 283              	.LBB28:
 202:.\Generated_Source\PSoC4/cyfitter_cfg.c **** 	setAbs = CY_GET_REG8((const void *)CYREG_SFLASH_IMO_ABS4);
 284              		.loc 1 202 0
 285 013a 3D4B     		ldr	r3, .L11+140
 286 013c 141C     		mov	r4, r2
 287 013e 1878     		ldrb	r0, [r3]
 203:.\Generated_Source\PSoC4/cyfitter_cfg.c **** 	setTmpCo = CY_GET_REG8((const void *)CYREG_SFLASH_IMO_TMPCO4);
 288              		.loc 1 203 0
 289 0140 3C4B     		ldr	r3, .L11+144
 202:.\Generated_Source\PSoC4/cyfitter_cfg.c **** 	setAbs = CY_GET_REG8((const void *)CYREG_SFLASH_IMO_ABS4);
 290              		.loc 1 202 0
 291 0142 C0B2     		uxtb	r0, r0
 292              	.LVL17:
 203:.\Generated_Source\PSoC4/cyfitter_cfg.c **** 	setTmpCo = CY_GET_REG8((const void *)CYREG_SFLASH_IMO_TMPCO4);
 293              		.loc 1 203 0
 294 0144 1978     		ldrb	r1, [r3]
ARM GAS  C:\Users\Admin\AppData\Local\Temp\cc3CjRUb.s 			page 18


 295 0146 3C4B     		ldr	r3, .L11+148
 296 0148 C9B2     		uxtb	r1, r1
 297              	.LVL18:
 298              	.L6:
 205:.\Generated_Source\PSoC4/cyfitter_cfg.c **** 	     (imoTrimIndex >= 0) && (imoFreq <= imo_trim_table->entries[imoTrimIndex].freq);
 299              		.loc 1 205 0
 300 014a 1A78     		ldrb	r2, [r3]
 301 014c 172A     		cmp	r2, #23
 302 014e 05D9     		bls	.L7
 204:.\Generated_Source\PSoC4/cyfitter_cfg.c **** 	for (imoTrimIndex = ((int32)IMO_TRIM_FREQ_TABLE_ENTRIES)-1;
 303              		.loc 1 204 0
 304 0150 3A4A     		ldr	r2, .L11+152
 208:.\Generated_Source\PSoC4/cyfitter_cfg.c **** 		setAbs = imo_trim_table->entries[imoTrimIndex].absolute;
 305              		.loc 1 208 0
 306 0152 5878     		ldrb	r0, [r3, #1]
 307              	.LVL19:
 209:.\Generated_Source\PSoC4/cyfitter_cfg.c **** 		setTmpCo = imo_trim_table->entries[imoTrimIndex].tmpco;
 308              		.loc 1 209 0
 309 0154 9978     		ldrb	r1, [r3, #2]
 310              	.LVL20:
 311 0156 033B     		sub	r3, r3, #3
 312              	.LVL21:
 204:.\Generated_Source\PSoC4/cyfitter_cfg.c **** 	for (imoTrimIndex = ((int32)IMO_TRIM_FREQ_TABLE_ENTRIES)-1;
 313              		.loc 1 204 0
 314 0158 9342     		cmp	r3, r2
 315 015a F6D1     		bne	.L6
 316              	.LVL22:
 317              	.L7:
 212:.\Generated_Source\PSoC4/cyfitter_cfg.c **** 	CY_SET_REG32((void *)CYREG_PWR_BG_TRIM4, setAbs);
 318              		.loc 1 212 0
 319 015c 384B     		ldr	r3, .L11+156
 320              	.LBE28:
 321              	.LBE27:
 245:.\Generated_Source\PSoC4/cyfitter_cfg.c **** 	CY_SET_REG32((void CYXDATA *)(CYREG_CLK_IMO_TRIM2), (25u));
 322              		.loc 1 245 0
 323 015e 1922     		mov	r2, #25
 324              	.LBB31:
 325              	.LBB29:
 212:.\Generated_Source\PSoC4/cyfitter_cfg.c **** 	CY_SET_REG32((void *)CYREG_PWR_BG_TRIM4, setAbs);
 326              		.loc 1 212 0
 327 0160 1860     		str	r0, [r3]
 213:.\Generated_Source\PSoC4/cyfitter_cfg.c **** 	CY_SET_REG32((void *)CYREG_PWR_BG_TRIM5, setTmpCo);
 328              		.loc 1 213 0
 329 0162 384B     		ldr	r3, .L11+160
 330              	.LBE29:
 331              	.LBE31:
 246:.\Generated_Source\PSoC4/cyfitter_cfg.c **** 	CyDelayCycles(5u);
 332              		.loc 1 246 0
 333 0164 0520     		mov	r0, #5
 334              	.LBB32:
 335              	.LBB30:
 213:.\Generated_Source\PSoC4/cyfitter_cfg.c **** 	CY_SET_REG32((void *)CYREG_PWR_BG_TRIM5, setTmpCo);
 336              		.loc 1 213 0
 337 0166 1960     		str	r1, [r3]
 338              	.LBE30:
 339              	.LBE32:
 245:.\Generated_Source\PSoC4/cyfitter_cfg.c **** 	CY_SET_REG32((void CYXDATA *)(CYREG_CLK_IMO_TRIM2), (25u));
ARM GAS  C:\Users\Admin\AppData\Local\Temp\cc3CjRUb.s 			page 19


 340              		.loc 1 245 0
 341 0168 374B     		ldr	r3, .L11+164
 342              	.LBE26:
 343              	.LBE25:
 644:.\Generated_Source\PSoC4/cyfitter_cfg.c **** 	}
 645:.\Generated_Source\PSoC4/cyfitter_cfg.c **** 
 646:.\Generated_Source\PSoC4/cyfitter_cfg.c **** 	/* Setup clocks based on selections from Clock DWR */
 647:.\Generated_Source\PSoC4/cyfitter_cfg.c **** 	ClockSetup();
 648:.\Generated_Source\PSoC4/cyfitter_cfg.c **** 
 649:.\Generated_Source\PSoC4/cyfitter_cfg.c **** 	/* Perform basic analog initialization to defaults */
 650:.\Generated_Source\PSoC4/cyfitter_cfg.c **** 	AnalogSetDefault();
 651:.\Generated_Source\PSoC4/cyfitter_cfg.c **** 
 652:.\Generated_Source\PSoC4/cyfitter_cfg.c **** }
 344              		.loc 1 652 0
 345              		@ sp needed
 346              	.LBB34:
 347              	.LBB33:
 245:.\Generated_Source\PSoC4/cyfitter_cfg.c **** 	CY_SET_REG32((void CYXDATA *)(CYREG_CLK_IMO_TRIM2), (25u));
 348              		.loc 1 245 0
 349 016a 1A60     		str	r2, [r3]
 246:.\Generated_Source\PSoC4/cyfitter_cfg.c **** 	CyDelayCycles(5u);
 350              		.loc 1 246 0
 351 016c FFF7FEFF 		bl	CyDelayCycles
 352              	.LVL23:
 247:.\Generated_Source\PSoC4/cyfitter_cfg.c **** 	CY_SET_REG32((void CYXDATA *)(CYREG_CLK_IMO_TRIM1), (CY_GET_REG8((void *)CYREG_SFLASH_IMO_TRIM21))
 353              		.loc 1 247 0
 354 0170 364B     		ldr	r3, .L11+168
 248:.\Generated_Source\PSoC4/cyfitter_cfg.c **** 	CyDelayUs(5u);
 355              		.loc 1 248 0
 356 0172 0520     		mov	r0, #5
 247:.\Generated_Source\PSoC4/cyfitter_cfg.c **** 	CY_SET_REG32((void CYXDATA *)(CYREG_CLK_IMO_TRIM1), (CY_GET_REG8((void *)CYREG_SFLASH_IMO_TRIM21))
 357              		.loc 1 247 0
 358 0174 1A78     		ldrb	r2, [r3]
 359 0176 364B     		ldr	r3, .L11+172
 360 0178 D2B2     		uxtb	r2, r2
 361 017a 1A60     		str	r2, [r3]
 248:.\Generated_Source\PSoC4/cyfitter_cfg.c **** 	CyDelayUs(5u);
 362              		.loc 1 248 0
 363 017c FFF7FEFF 		bl	CyDelayUs
 364              	.LVL24:
 251:.\Generated_Source\PSoC4/cyfitter_cfg.c **** 	CY_SET_REG32((void CYXDATA *)(CYREG_CLK_SELECT), (CY_GET_REG32((void *)CYREG_CLK_SELECT) & 0xFFFBF
 365              		.loc 1 251 0
 366 0180 2268     		ldr	r2, [r4]
 367 0182 344B     		ldr	r3, .L11+176
 368 0184 1340     		and	r3, r2
 369 0186 2360     		str	r3, [r4]
 253:.\Generated_Source\PSoC4/cyfitter_cfg.c **** 	CY_SET_XTND_REG32((void CYFAR *)(CYREG_CLK_ILO_CONFIG), 0x80000006u);
 370              		.loc 1 253 0
 371 0188 334A     		ldr	r2, .L11+180
 372 018a 344B     		ldr	r3, .L11+184
 373 018c 1A60     		str	r2, [r3]
 257:.\Generated_Source\PSoC4/cyfitter_cfg.c **** 	CY_SET_XTND_REG32((void CYFAR *)(CYREG_CLK_SELECT12), 0x00000010u);
 374              		.loc 1 257 0
 375 018e 344B     		ldr	r3, .L11+188
 376 0190 1022     		mov	r2, #16
 377 0192 1A60     		str	r2, [r3]
 260:.\Generated_Source\PSoC4/cyfitter_cfg.c **** 	CY_SET_XTND_REG32((void CYFAR *)(CYREG_CLK_IMO_CONFIG), 0x80000000u);
ARM GAS  C:\Users\Admin\AppData\Local\Temp\cc3CjRUb.s 			page 20


 378              		.loc 1 260 0
 379 0194 334B     		ldr	r3, .L11+192
 380 0196 8022     		mov	r2, #128
 381 0198 1206     		lsl	r2, r2, #24
 382 019a 1A60     		str	r2, [r3]
 263:.\Generated_Source\PSoC4/cyfitter_cfg.c **** 	CY_SET_XTND_REG32((void CYFAR *)(CYREG_CLK_DIVIDER_A00), 0x8000176Fu);
 383              		.loc 1 263 0
 384 019c 324A     		ldr	r2, .L11+196
 385 019e 334B     		ldr	r3, .L11+200
 386 01a0 1A60     		str	r2, [r3]
 387              	.LVL25:
 388              	.LBE33:
 389              	.LBE34:
 390              		.loc 1 652 0
 391 01a2 F7BD     		pop	{r0, r1, r2, r4, r5, r6, r7, pc}
 392              	.L12:
 393              		.align	2
 394              	.L11:
 395 01a4 1C700F40 		.word	1074753564
 396 01a8 00300F40 		.word	1074737152
 397 01ac 00400F40 		.word	1074741248
 398 01b0 00000000 		.word	.LANCHOR0
 399 01b4 00600F40 		.word	1074749440
 400 01b8 02600F40 		.word	1074749442
 401 01bc 00000140 		.word	1073807360
 402 01c0 08000140 		.word	1073807368
 403 01c4 0C000140 		.word	1073807372
 404 01c8 00000440 		.word	1074003968
 405 01cc B6015800 		.word	5767606
 406 01d0 08000440 		.word	1074003976
 407 01d4 80001800 		.word	1572992
 408 01d8 0C000440 		.word	1074003980
 409 01dc 00010440 		.word	1074004224
 410 01e0 08010440 		.word	1074004232
 411 01e4 0C010440 		.word	1074004236
 412 01e8 00020440 		.word	1074004480
 413 01ec 08020440 		.word	1074004488
 414 01f0 00030440 		.word	1074004736
 415 01f4 08030440 		.word	1074004744
 416 01f8 0C030440 		.word	1074004748
 417 01fc 00500F40 		.word	1074745344
 418 0200 04500F40 		.word	1074745348
 419 0204 10500F40 		.word	1074745360
 420 0208 14500F40 		.word	1074745364
 421 020c 20500F40 		.word	1074745376
 422 0210 28500F40 		.word	1074745384
 423 0214 30500F40 		.word	1074745392
 424 0218 34500F40 		.word	1074745396
 425 021c 20000040 		.word	1073741856
 426 0220 00800F40 		.word	1074757632
 427 0224 00700F40 		.word	1074753536
 428 0228 01700F40 		.word	1074753537
 429 022c 00010B40 		.word	1074462976
 430 0230 CCF1FF0F 		.word	268431820
 431 0234 CDF1FF0F 		.word	268431821
 432 0238 C9F1FF0F 		.word	268431817
 433 023c BDF1FF0F 		.word	268431805
ARM GAS  C:\Users\Admin\AppData\Local\Temp\cc3CjRUb.s 			page 21


 434 0240 1CFF0B40 		.word	1074528028
 435 0244 20FF0B40 		.word	1074528032
 436 0248 2CFF0B40 		.word	1074528044
 437 024c E5F1FF0F 		.word	268431845
 438 0250 28FF0B40 		.word	1074528040
 439 0254 FFFFFBFF 		.word	-262145
 440 0258 06000080 		.word	-2147483642
 441 025c 04010B40 		.word	1074462980
 442 0260 30020240 		.word	1073873456
 443 0264 08010B40 		.word	1074462984
 444 0268 6F170080 		.word	-2147477649
 445 026c 00000240 		.word	1073872896
 446              		.cfi_endproc
 447              	.LFE7:
 448              		.size	cyfitter_cfg, .-cyfitter_cfg
 449              		.section	.rodata
 450              		.align	2
 451              		.set	.LANCHOR0,. + 0
 452              		.type	cy_cfg_addr_table.4729, %object
 453              		.size	cy_cfg_addr_table.4729, 40
 454              	cy_cfg_addr_table.4729:
 455 0000 03000F40 		.word	1074724867
 456 0004 3A300F40 		.word	1074737210
 457 0008 1D310F40 		.word	1074737437
 458 000c 4F320F40 		.word	1074737743
 459 0010 2E330F40 		.word	1074737966
 460 0014 06400F40 		.word	1074741254
 461 0018 02410F40 		.word	1074741506
 462 001c 02420F40 		.word	1074741762
 463 0020 02430F40 		.word	1074742018
 464 0024 02600F40 		.word	1074749442
 465              		.type	cy_cfg_data_table.4730, %object
 466              		.size	cy_cfg_data_table.4730, 458
 467              	cy_cfg_data_table.4730:
 468 0028 81       		.byte	-127
 469 0029 0D       		.byte	13
 470 002a 82       		.byte	-126
 471 002b 0D       		.byte	13
 472 002c 83       		.byte	-125
 473 002d 0D       		.byte	13
 474 002e 40       		.byte	64
 475 002f 30       		.byte	48
 476 0030 41       		.byte	65
 477 0031 04       		.byte	4
 478 0032 49       		.byte	73
 479 0033 FF       		.byte	-1
 480 0034 4A       		.byte	74
 481 0035 FF       		.byte	-1
 482 0036 4B       		.byte	75
 483 0037 FF       		.byte	-1
 484 0038 4D       		.byte	77
 485 0039 A0       		.byte	-96
 486 003a 4F       		.byte	79
 487 003b 04       		.byte	4
 488 003c 50       		.byte	80
 489 003d 18       		.byte	24
 490 003e 5A       		.byte	90
ARM GAS  C:\Users\Admin\AppData\Local\Temp\cc3CjRUb.s 			page 22


 491 003f 04       		.byte	4
 492 0040 5F       		.byte	95
 493 0041 01       		.byte	1
 494 0042 60       		.byte	96
 495 0043 40       		.byte	64
 496 0044 62       		.byte	98
 497 0045 C0       		.byte	-64
 498 0046 64       		.byte	100
 499 0047 40       		.byte	64
 500 0048 65       		.byte	101
 501 0049 40       		.byte	64
 502 004a 66       		.byte	102
 503 004b C0       		.byte	-64
 504 004c 68       		.byte	104
 505 004d C0       		.byte	-64
 506 004e 6A       		.byte	106
 507 004f C0       		.byte	-64
 508 0050 6C       		.byte	108
 509 0051 C0       		.byte	-64
 510 0052 6E       		.byte	110
 511 0053 C0       		.byte	-64
 512 0054 82       		.byte	-126
 513 0055 02       		.byte	2
 514 0056 87       		.byte	-121
 515 0057 03       		.byte	3
 516 0058 96       		.byte	-106
 517 0059 02       		.byte	2
 518 005a 99       		.byte	-103
 519 005b 02       		.byte	2
 520 005c AE       		.byte	-82
 521 005d 01       		.byte	1
 522 005e B2       		.byte	-78
 523 005f 01       		.byte	1
 524 0060 B3       		.byte	-77
 525 0061 01       		.byte	1
 526 0062 B4       		.byte	-76
 527 0063 02       		.byte	2
 528 0064 B7       		.byte	-73
 529 0065 02       		.byte	2
 530 0066 BE       		.byte	-66
 531 0067 10       		.byte	16
 532 0068 C0       		.byte	-64
 533 0069 30       		.byte	48
 534 006a C1       		.byte	-63
 535 006b 04       		.byte	4
 536 006c C5       		.byte	-59
 537 006d D1       		.byte	-47
 538 006e C6       		.byte	-58
 539 006f 02       		.byte	2
 540 0070 C8       		.byte	-56
 541 0071 07       		.byte	7
 542 0072 C9       		.byte	-55
 543 0073 FF       		.byte	-1
 544 0074 CA       		.byte	-54
 545 0075 FF       		.byte	-1
 546 0076 CB       		.byte	-53
 547 0077 FF       		.byte	-1
ARM GAS  C:\Users\Admin\AppData\Local\Temp\cc3CjRUb.s 			page 23


 548 0078 CD       		.byte	-51
 549 0079 AF       		.byte	-81
 550 007a CE       		.byte	-50
 551 007b 0F       		.byte	15
 552 007c CF       		.byte	-49
 553 007d 04       		.byte	4
 554 007e D0       		.byte	-48
 555 007f 18       		.byte	24
 556 0080 D2       		.byte	-46
 557 0081 80       		.byte	-128
 558 0082 D4       		.byte	-44
 559 0083 05       		.byte	5
 560 0084 D6       		.byte	-42
 561 0085 04       		.byte	4
 562 0086 D8       		.byte	-40
 563 0087 04       		.byte	4
 564 0088 D9       		.byte	-39
 565 0089 04       		.byte	4
 566 008a DA       		.byte	-38
 567 008b 04       		.byte	4
 568 008c DB       		.byte	-37
 569 008d 04       		.byte	4
 570 008e DF       		.byte	-33
 571 008f 01       		.byte	1
 572 0090 E0       		.byte	-32
 573 0091 40       		.byte	64
 574 0092 E2       		.byte	-30
 575 0093 C0       		.byte	-64
 576 0094 E4       		.byte	-28
 577 0095 40       		.byte	64
 578 0096 E5       		.byte	-27
 579 0097 40       		.byte	64
 580 0098 E6       		.byte	-26
 581 0099 C0       		.byte	-64
 582 009a E8       		.byte	-24
 583 009b C0       		.byte	-64
 584 009c EA       		.byte	-22
 585 009d C0       		.byte	-64
 586 009e EC       		.byte	-20
 587 009f C0       		.byte	-64
 588 00a0 EE       		.byte	-18
 589 00a1 C0       		.byte	-64
 590 00a2 06       		.byte	6
 591 00a3 80       		.byte	-128
 592 00a4 0D       		.byte	13
 593 00a5 08       		.byte	8
 594 00a6 17       		.byte	23
 595 00a7 40       		.byte	64
 596 00a8 1C       		.byte	28
 597 00a9 10       		.byte	16
 598 00aa 1D       		.byte	29
 599 00ab 08       		.byte	8
 600 00ac 1E       		.byte	30
 601 00ad 08       		.byte	8
 602 00ae 26       		.byte	38
 603 00af 40       		.byte	64
 604 00b0 27       		.byte	39
ARM GAS  C:\Users\Admin\AppData\Local\Temp\cc3CjRUb.s 			page 24


 605 00b1 20       		.byte	32
 606 00b2 37       		.byte	55
 607 00b3 20       		.byte	32
 608 00b4 3F       		.byte	63
 609 00b5 08       		.byte	8
 610 00b6 40       		.byte	64
 611 00b7 10       		.byte	16
 612 00b8 42       		.byte	66
 613 00b9 80       		.byte	-128
 614 00ba 45       		.byte	69
 615 00bb 08       		.byte	8
 616 00bc 46       		.byte	70
 617 00bd 80       		.byte	-128
 618 00be 4F       		.byte	79
 619 00bf 09       		.byte	9
 620 00c0 56       		.byte	86
 621 00c1 80       		.byte	-128
 622 00c2 5E       		.byte	94
 623 00c3 88       		.byte	-120
 624 00c4 5F       		.byte	95
 625 00c5 01       		.byte	1
 626 00c6 67       		.byte	103
 627 00c7 40       		.byte	64
 628 00c8 77       		.byte	119
 629 00c9 40       		.byte	64
 630 00ca 87       		.byte	-121
 631 00cb 40       		.byte	64
 632 00cc C0       		.byte	-64
 633 00cd 10       		.byte	16
 634 00ce C2       		.byte	-62
 635 00cf 20       		.byte	32
 636 00d0 C4       		.byte	-60
 637 00d1 80       		.byte	-128
 638 00d2 CC       		.byte	-52
 639 00d3 20       		.byte	32
 640 00d4 CE       		.byte	-50
 641 00d5 40       		.byte	64
 642 00d6 D0       		.byte	-48
 643 00d7 C3       		.byte	-61
 644 00d8 D6       		.byte	-42
 645 00d9 D0       		.byte	-48
 646 00da D8       		.byte	-40
 647 00db 80       		.byte	-128
 648 00dc 03       		.byte	3
 649 00dd 01       		.byte	1
 650 00de 16       		.byte	22
 651 00df 01       		.byte	1
 652 00e0 1E       		.byte	30
 653 00e1 0C       		.byte	12
 654 00e2 26       		.byte	38
 655 00e3 01       		.byte	1
 656 00e4 2D       		.byte	45
 657 00e5 01       		.byte	1
 658 00e6 2E       		.byte	46
 659 00e7 06       		.byte	6
 660 00e8 30       		.byte	48
 661 00e9 08       		.byte	8
ARM GAS  C:\Users\Admin\AppData\Local\Temp\cc3CjRUb.s 			page 25


 662 00ea 32       		.byte	50
 663 00eb 02       		.byte	2
 664 00ec 34       		.byte	52
 665 00ed 01       		.byte	1
 666 00ee 36       		.byte	54
 667 00ef 04       		.byte	4
 668 00f0 37       		.byte	55
 669 00f1 01       		.byte	1
 670 00f2 3E       		.byte	62
 671 00f3 10       		.byte	16
 672 00f4 40       		.byte	64
 673 00f5 30       		.byte	48
 674 00f6 41       		.byte	65
 675 00f7 06       		.byte	6
 676 00f8 45       		.byte	69
 677 00f9 D0       		.byte	-48
 678 00fa 46       		.byte	70
 679 00fb 20       		.byte	32
 680 00fc 47       		.byte	71
 681 00fd 10       		.byte	16
 682 00fe 48       		.byte	72
 683 00ff 2A       		.byte	42
 684 0100 49       		.byte	73
 685 0101 FF       		.byte	-1
 686 0102 4A       		.byte	74
 687 0103 FF       		.byte	-1
 688 0104 4B       		.byte	75
 689 0105 FF       		.byte	-1
 690 0106 4D       		.byte	77
 691 0107 A0       		.byte	-96
 692 0108 4F       		.byte	79
 693 0109 04       		.byte	4
 694 010a 50       		.byte	80
 695 010b 18       		.byte	24
 696 010c 52       		.byte	82
 697 010d 80       		.byte	-128
 698 010e 54       		.byte	84
 699 010f 05       		.byte	5
 700 0110 58       		.byte	88
 701 0111 04       		.byte	4
 702 0112 59       		.byte	89
 703 0113 04       		.byte	4
 704 0114 5A       		.byte	90
 705 0115 04       		.byte	4
 706 0116 5B       		.byte	91
 707 0117 04       		.byte	4
 708 0118 5F       		.byte	95
 709 0119 01       		.byte	1
 710 011a 60       		.byte	96
 711 011b 40       		.byte	64
 712 011c 62       		.byte	98
 713 011d C0       		.byte	-64
 714 011e 64       		.byte	100
 715 011f 40       		.byte	64
 716 0120 65       		.byte	101
 717 0121 40       		.byte	64
 718 0122 66       		.byte	102
ARM GAS  C:\Users\Admin\AppData\Local\Temp\cc3CjRUb.s 			page 26


 719 0123 C0       		.byte	-64
 720 0124 68       		.byte	104
 721 0125 C0       		.byte	-64
 722 0126 6A       		.byte	106
 723 0127 C0       		.byte	-64
 724 0128 6C       		.byte	108
 725 0129 C0       		.byte	-64
 726 012a 6E       		.byte	110
 727 012b C0       		.byte	-64
 728 012c 82       		.byte	-126
 729 012d 01       		.byte	1
 730 012e 92       		.byte	-110
 731 012f 06       		.byte	6
 732 0130 9B       		.byte	-101
 733 0131 01       		.byte	1
 734 0132 A5       		.byte	-91
 735 0133 01       		.byte	1
 736 0134 A6       		.byte	-90
 737 0135 0C       		.byte	12
 738 0136 AA       		.byte	-86
 739 0137 01       		.byte	1
 740 0138 B0       		.byte	-80
 741 0139 04       		.byte	4
 742 013a B2       		.byte	-78
 743 013b 08       		.byte	8
 744 013c B4       		.byte	-76
 745 013d 01       		.byte	1
 746 013e B6       		.byte	-74
 747 013f 02       		.byte	2
 748 0140 B7       		.byte	-73
 749 0141 01       		.byte	1
 750 0142 BE       		.byte	-66
 751 0143 10       		.byte	16
 752 0144 C0       		.byte	-64
 753 0145 10       		.byte	16
 754 0146 C1       		.byte	-63
 755 0147 06       		.byte	6
 756 0148 C5       		.byte	-59
 757 0149 D1       		.byte	-47
 758 014a C7       		.byte	-57
 759 014b 02       		.byte	2
 760 014c C8       		.byte	-56
 761 014d 13       		.byte	19
 762 014e C9       		.byte	-55
 763 014f FF       		.byte	-1
 764 0150 CA       		.byte	-54
 765 0151 FF       		.byte	-1
 766 0152 CB       		.byte	-53
 767 0153 FF       		.byte	-1
 768 0154 CD       		.byte	-51
 769 0155 A0       		.byte	-96
 770 0156 CF       		.byte	-49
 771 0157 04       		.byte	4
 772 0158 D0       		.byte	-48
 773 0159 18       		.byte	24
 774 015a D2       		.byte	-46
 775 015b 80       		.byte	-128
ARM GAS  C:\Users\Admin\AppData\Local\Temp\cc3CjRUb.s 			page 27


 776 015c D4       		.byte	-44
 777 015d 05       		.byte	5
 778 015e D8       		.byte	-40
 779 015f 04       		.byte	4
 780 0160 D9       		.byte	-39
 781 0161 04       		.byte	4
 782 0162 DA       		.byte	-38
 783 0163 04       		.byte	4
 784 0164 DB       		.byte	-37
 785 0165 04       		.byte	4
 786 0166 DF       		.byte	-33
 787 0167 01       		.byte	1
 788 0168 E0       		.byte	-32
 789 0169 40       		.byte	64
 790 016a E2       		.byte	-30
 791 016b C0       		.byte	-64
 792 016c E4       		.byte	-28
 793 016d 40       		.byte	64
 794 016e E5       		.byte	-27
 795 016f 40       		.byte	64
 796 0170 E6       		.byte	-26
 797 0171 C0       		.byte	-64
 798 0172 E8       		.byte	-24
 799 0173 C0       		.byte	-64
 800 0174 EA       		.byte	-22
 801 0175 C0       		.byte	-64
 802 0176 EC       		.byte	-20
 803 0177 C0       		.byte	-64
 804 0178 EE       		.byte	-18
 805 0179 C0       		.byte	-64
 806 017a 00       		.byte	0
 807 017b 01       		.byte	1
 808 017c 09       		.byte	9
 809 017d 02       		.byte	2
 810 017e 0D       		.byte	13
 811 017f 08       		.byte	8
 812 0180 0F       		.byte	15
 813 0181 02       		.byte	2
 814 0182 10       		.byte	16
 815 0183 28       		.byte	40
 816 0184 16       		.byte	22
 817 0185 20       		.byte	32
 818 0186 17       		.byte	23
 819 0187 40       		.byte	64
 820 0188 18       		.byte	24
 821 0189 01       		.byte	1
 822 018a 19       		.byte	25
 823 018b 08       		.byte	8
 824 018c 1A       		.byte	26
 825 018d 44       		.byte	68
 826 018e 1D       		.byte	29
 827 018f 08       		.byte	8
 828 0190 1E       		.byte	30
 829 0191 08       		.byte	8
 830 0192 1F       		.byte	31
 831 0193 82       		.byte	-126
 832 0194 22       		.byte	34
ARM GAS  C:\Users\Admin\AppData\Local\Temp\cc3CjRUb.s 			page 28


 833 0195 40       		.byte	64
 834 0196 26       		.byte	38
 835 0197 40       		.byte	64
 836 0198 29       		.byte	41
 837 0199 08       		.byte	8
 838 019a 2F       		.byte	47
 839 019b 02       		.byte	2
 840 019c 30       		.byte	48
 841 019d 20       		.byte	32
 842 019e 3F       		.byte	63
 843 019f 02       		.byte	2
 844 01a0 40       		.byte	64
 845 01a1 01       		.byte	1
 846 01a2 45       		.byte	69
 847 01a3 08       		.byte	8
 848 01a4 48       		.byte	72
 849 01a5 28       		.byte	40
 850 01a6 49       		.byte	73
 851 01a7 01       		.byte	1
 852 01a8 4F       		.byte	79
 853 01a9 21       		.byte	33
 854 01aa 50       		.byte	80
 855 01ab 08       		.byte	8
 856 01ac 56       		.byte	86
 857 01ad 20       		.byte	32
 858 01ae 57       		.byte	87
 859 01af 11       		.byte	17
 860 01b0 59       		.byte	89
 861 01b1 01       		.byte	1
 862 01b2 5A       		.byte	90
 863 01b3 84       		.byte	-124
 864 01b4 5E       		.byte	94
 865 01b5 88       		.byte	-120
 866 01b6 5F       		.byte	95
 867 01b7 01       		.byte	1
 868 01b8 71       		.byte	113
 869 01b9 02       		.byte	2
 870 01ba 77       		.byte	119
 871 01bb 40       		.byte	64
 872 01bc 83       		.byte	-125
 873 01bd 80       		.byte	-128
 874 01be 8E       		.byte	-114
 875 01bf 40       		.byte	64
 876 01c0 C0       		.byte	-64
 877 01c1 08       		.byte	8
 878 01c2 C2       		.byte	-62
 879 01c3 A8       		.byte	-88
 880 01c4 C4       		.byte	-60
 881 01c5 A6       		.byte	-90
 882 01c6 CA       		.byte	-54
 883 01c7 12       		.byte	18
 884 01c8 CC       		.byte	-52
 885 01c9 04       		.byte	4
 886 01ca CE       		.byte	-50
 887 01cb 80       		.byte	-128
 888 01cc D0       		.byte	-48
 889 01cd 48       		.byte	72
ARM GAS  C:\Users\Admin\AppData\Local\Temp\cc3CjRUb.s 			page 29


 890 01ce D2       		.byte	-46
 891 01cf 24       		.byte	36
 892 01d0 D6       		.byte	-42
 893 01d1 DB       		.byte	-37
 894 01d2 E4       		.byte	-28
 895 01d3 04       		.byte	4
 896 01d4 E6       		.byte	-26
 897 01d5 40       		.byte	64
 898 01d6 50       		.byte	80
 899 01d7 10       		.byte	16
 900 01d8 73       		.byte	115
 901 01d9 02       		.byte	2
 902 01da 87       		.byte	-121
 903 01db 02       		.byte	2
 904 01dc D4       		.byte	-44
 905 01dd 20       		.byte	32
 906 01de DC       		.byte	-36
 907 01df 20       		.byte	32
 908 01e0 E6       		.byte	-26
 909 01e1 40       		.byte	64
 910 01e2 8C       		.byte	-116
 911 01e3 10       		.byte	16
 912 01e4 94       		.byte	-108
 913 01e5 20       		.byte	32
 914 01e6 67       		.byte	103
 915 01e7 02       		.byte	2
 916 01e8 D6       		.byte	-42
 917 01e9 01       		.byte	1
 918 01ea 83       		.byte	-125
 919 01eb 01       		.byte	1
 920 01ec 97       		.byte	-105
 921 01ed 02       		.byte	2
 922 01ee 10       		.byte	16
 923 01ef 01       		.byte	1
 924 01f0 11       		.byte	17
 925 01f1 01       		.byte	1
 926 01f2 0000     		.text
 927              	.Letext0:
 928              		.file 2 "c:\\program files\\cypress\\psoc creator\\3.1\\psoc creator\\import\\gnu_cs\\arm\\4.8.4\\
 929              		.file 3 ".\\Generated_Source\\PSoC4/cytypes.h"
 930              		.file 4 ".\\Generated_Source\\PSoC4/CyLib.h"