ARM GAS  C:\Users\Admin\AppData\Local\Temp\cceP5T5y.s 			page 1


   1              		.cpu cortex-m0
   2              		.fpu softvfp
   3              		.eabi_attribute 20, 1
   4              		.eabi_attribute 21, 1
   5              		.eabi_attribute 23, 3
   6              		.eabi_attribute 24, 1
   7              		.eabi_attribute 25, 1
   8              		.eabi_attribute 26, 1
   9              		.eabi_attribute 30, 4
  10              		.eabi_attribute 34, 0
  11              		.eabi_attribute 18, 4
  12              		.code	16
  13              		.file	"lightlib.c"
  14              		.text
  15              	.Ltext0:
  16              		.cfi_sections	.debug_frame
  17              		.section	.text.set_color,"ax",%progbits
  18              		.align	1
  19              		.global	set_color
  20              		.code	16
  21              		.thumb_func
  22              		.type	set_color, %function
  23              	set_color:
  24              	.LFB33:
  25              		.file 1 ".\\lightlib.c"
   1:.\lightlib.c  **** /* ========================================
   2:.\lightlib.c  ****  *
   3:.\lightlib.c  ****  * Copyright Nullify, 2016
   4:.\lightlib.c  ****  * All Rights Reserved
   5:.\lightlib.c  ****  * UNPUBLISHED, LICENSED SOFTWARE.
   6:.\lightlib.c  ****  *
   7:.\lightlib.c  ****  * CONFIDENTIAL AND PROPRIETARY INFORMATION
   8:.\lightlib.c  ****  * WHICH IS THE PROPERTY OF NULLIY.
   9:.\lightlib.c  ****  *
  10:.\lightlib.c  ****  * ========================================
  11:.\lightlib.c  **** */
  12:.\lightlib.c  **** #include <project.h>
  13:.\lightlib.c  **** #include "lightlib.h"
  14:.\lightlib.c  **** 
  15:.\lightlib.c  **** 
  16:.\lightlib.c  **** /* Allocate a structure for each led in the project */
  17:.\lightlib.c  **** volatile struct RGB_LED_State Left_LED_State;
  18:.\lightlib.c  **** volatile struct RGB_LED_State Right_LED_State;
  19:.\lightlib.c  **** volatile struct LED_State IR_LED_State;
  20:.\lightlib.c  **** volatile struct LED_State Board_LED_State;
  21:.\lightlib.c  **** 
  22:.\lightlib.c  **** /*
  23:.\lightlib.c  ****  * Sets the color of the of the passed in led_flag.
  24:.\lightlib.c  ****  */
  25:.\lightlib.c  **** void set_color(uint8 led_flag, uint8 color) {
  26              		.loc 1 25 0
  27              		.cfi_startproc
  28              	.LVL0:
  29 0000 10B5     		push	{r4, lr}
  30              		.cfi_def_cfa_offset 8
  31              		.cfi_offset 4, -8
  32              		.cfi_offset 14, -4
ARM GAS  C:\Users\Admin\AppData\Local\Temp\cceP5T5y.s 			page 2


  33              		.loc 1 25 0
  34 0002 0C1C     		mov	r4, r1
  26:.\lightlib.c  ****     switch(led_flag) {
  35              		.loc 1 26 0
  36 0004 0228     		cmp	r0, #2
  37 0006 08D0     		beq	.L3
  38 0008 0328     		cmp	r0, #3
  39 000a 03D0     		beq	.L4
  40 000c 0128     		cmp	r0, #1
  41 000e 06D1     		bne	.L1
  27:.\lightlib.c  ****         case LEFT_LED:
  28:.\lightlib.c  ****             Left_LED_State.color = color;
  42              		.loc 1 28 0
  43 0010 034B     		ldr	r3, .L11
  44 0012 03E0     		b	.L9
  45              	.L4:
  29:.\lightlib.c  ****         break;
  30:.\lightlib.c  ****         case RIGHT_LED:
  31:.\lightlib.c  ****             Right_LED_State.color = color;
  32:.\lightlib.c  ****         break;
  33:.\lightlib.c  ****         case LEFT_RIGHT_LED:
  34:.\lightlib.c  ****             set_color(LEFT_LED, color);
  46              		.loc 1 34 0
  47 0014 0120     		mov	r0, #1
  48              	.LVL1:
  49 0016 FFF7FEFF 		bl	set_color
  50              	.LVL2:
  51              	.L3:
  31:.\lightlib.c  ****             Right_LED_State.color = color;
  52              		.loc 1 31 0
  53 001a 024B     		ldr	r3, .L11+4
  54              	.L9:
  55 001c 5C70     		strb	r4, [r3, #1]
  56              	.L1:
  35:.\lightlib.c  ****             set_color(RIGHT_LED, color);
  36:.\lightlib.c  ****         break;
  37:.\lightlib.c  ****     }    
  38:.\lightlib.c  **** }
  57              		.loc 1 38 0
  58              		@ sp needed
  59 001e 10BD     		pop	{r4, pc}
  60              	.L12:
  61              		.align	2
  62              	.L11:
  63 0020 00000000 		.word	Left_LED_State
  64 0024 00000000 		.word	Right_LED_State
  65              		.cfi_endproc
  66              	.LFE33:
  67              		.size	set_color, .-set_color
  68              		.section	.text.set_status,"ax",%progbits
  69              		.align	1
  70              		.global	set_status
  71              		.code	16
  72              		.thumb_func
  73              		.type	set_status, %function
  74              	set_status:
  75              	.LFB34:
ARM GAS  C:\Users\Admin\AppData\Local\Temp\cceP5T5y.s 			page 3


  39:.\lightlib.c  **** 
  40:.\lightlib.c  **** void set_status(uint8 led_flag, uint8 status) {
  76              		.loc 1 40 0
  77              		.cfi_startproc
  78              	.LVL3:
  41:.\lightlib.c  ****     switch(led_flag) {
  79              		.loc 1 41 0
  80 0000 0138     		sub	r0, r0, #1
  81              	.LVL4:
  40:.\lightlib.c  **** void set_status(uint8 led_flag, uint8 status) {
  82              		.loc 1 40 0
  83 0002 10B5     		push	{r4, lr}
  84              		.cfi_def_cfa_offset 8
  85              		.cfi_offset 4, -8
  86              		.cfi_offset 14, -4
  40:.\lightlib.c  **** void set_status(uint8 led_flag, uint8 status) {
  87              		.loc 1 40 0
  88 0004 0C1C     		mov	r4, r1
  89              		.loc 1 41 0
  90 0006 0428     		cmp	r0, #4
  91 0008 0FD8     		bhi	.L13
  92 000a FFF7FEFF 		bl	__gnu_thumb1_case_uqi
  93              	.L16:
  94 000e 03       		.byte	(.L15-.L16)/2
  95 000f 08       		.byte	(.L17-.L16)/2
  96 0010 05       		.byte	(.L18-.L16)/2
  97 0011 0A       		.byte	(.L19-.L16)/2
  98 0012 0C       		.byte	(.L20-.L16)/2
  99 0013 00       		.p2align 1
 100              	.L15:
  42:.\lightlib.c  ****         case LEFT_LED:
  43:.\lightlib.c  ****             Left_LED_State.status = status;
 101              		.loc 1 43 0
 102 0014 054B     		ldr	r3, .L22
 103 0016 07E0     		b	.L21
 104              	.L18:
  44:.\lightlib.c  ****         break;
  45:.\lightlib.c  ****         case RIGHT_LED:
  46:.\lightlib.c  ****             Right_LED_State.status = status;
  47:.\lightlib.c  ****         break;
  48:.\lightlib.c  ****         case LEFT_RIGHT_LED:
  49:.\lightlib.c  ****             set_status(LEFT_LED, status);
 105              		.loc 1 49 0
 106 0018 0120     		mov	r0, #1
 107 001a FFF7FEFF 		bl	set_status
 108              	.LVL5:
 109              	.L17:
  46:.\lightlib.c  ****             Right_LED_State.status = status;
 110              		.loc 1 46 0
 111 001e 044B     		ldr	r3, .L22+4
 112 0020 02E0     		b	.L21
 113              	.LVL6:
 114              	.L19:
  50:.\lightlib.c  ****             set_status(RIGHT_LED, status);
  51:.\lightlib.c  ****         break;
  52:.\lightlib.c  ****         case IR_LED:
  53:.\lightlib.c  ****             IR_LED_State.status = status;
ARM GAS  C:\Users\Admin\AppData\Local\Temp\cceP5T5y.s 			page 4


 115              		.loc 1 53 0
 116 0022 044B     		ldr	r3, .L22+8
 117 0024 00E0     		b	.L21
 118              	.L20:
  54:.\lightlib.c  ****         break;
  55:.\lightlib.c  ****         case BOARD_LED:
  56:.\lightlib.c  ****            Board_LED_State.status = status;
 119              		.loc 1 56 0
 120 0026 044B     		ldr	r3, .L22+12
 121              	.LVL7:
 122              	.L21:
 123 0028 1C70     		strb	r4, [r3]
 124              	.L13:
  57:.\lightlib.c  ****         break;
  58:.\lightlib.c  ****     }    
  59:.\lightlib.c  **** }
 125              		.loc 1 59 0
 126              		@ sp needed
 127 002a 10BD     		pop	{r4, pc}
 128              	.L23:
 129              		.align	2
 130              	.L22:
 131 002c 00000000 		.word	Left_LED_State
 132 0030 00000000 		.word	Right_LED_State
 133 0034 00000000 		.word	IR_LED_State
 134 0038 00000000 		.word	Board_LED_State
 135              		.cfi_endproc
 136              	.LFE34:
 137              		.size	set_status, .-set_status
 138              		.section	.text.get_color,"ax",%progbits
 139              		.align	1
 140              		.global	get_color
 141              		.code	16
 142              		.thumb_func
 143              		.type	get_color, %function
 144              	get_color:
 145              	.LFB35:
  60:.\lightlib.c  **** 
  61:.\lightlib.c  **** uint8 get_color(uint8 led_flag) {
 146              		.loc 1 61 0
 147              		.cfi_startproc
 148              	.LVL8:
  62:.\lightlib.c  ****     switch(led_flag) {
 149              		.loc 1 62 0
 150 0000 0128     		cmp	r0, #1
 151 0002 03D0     		beq	.L26
 152 0004 0228     		cmp	r0, #2
 153 0006 05D1     		bne	.L31
  63:.\lightlib.c  ****         case LEFT_LED:
  64:.\lightlib.c  ****             return Left_LED_State.color;
  65:.\lightlib.c  ****         break;
  66:.\lightlib.c  ****         case RIGHT_LED:
  67:.\lightlib.c  ****             return Right_LED_State.color;
 154              		.loc 1 67 0
 155 0008 034B     		ldr	r3, .L32
 156 000a 00E0     		b	.L30
 157              	.L26:
ARM GAS  C:\Users\Admin\AppData\Local\Temp\cceP5T5y.s 			page 5


  64:.\lightlib.c  ****             return Left_LED_State.color;
 158              		.loc 1 64 0
 159 000c 034B     		ldr	r3, .L32+4
 160              	.L30:
 161              		.loc 1 67 0
 162 000e 5878     		ldrb	r0, [r3, #1]
 163              	.LVL9:
 164 0010 C0B2     		uxtb	r0, r0
 165 0012 00E0     		b	.L25
 166              	.LVL10:
 167              	.L31:
  68:.\lightlib.c  ****         break;
  69:.\lightlib.c  ****     }
  70:.\lightlib.c  ****     return -1;
 168              		.loc 1 70 0
 169 0014 FF20     		mov	r0, #255
 170              	.LVL11:
 171              	.L25:
  71:.\lightlib.c  **** }
 172              		.loc 1 71 0
 173              		@ sp needed
 174 0016 7047     		bx	lr
 175              	.L33:
 176              		.align	2
 177              	.L32:
 178 0018 00000000 		.word	Right_LED_State
 179 001c 00000000 		.word	Left_LED_State
 180              		.cfi_endproc
 181              	.LFE35:
 182              		.size	get_color, .-get_color
 183              		.section	.text.get_status,"ax",%progbits
 184              		.align	1
 185              		.global	get_status
 186              		.code	16
 187              		.thumb_func
 188              		.type	get_status, %function
 189              	get_status:
 190              	.LFB36:
  72:.\lightlib.c  **** 
  73:.\lightlib.c  **** uint8 get_status(uint8 led_flag) {
 191              		.loc 1 73 0
 192              		.cfi_startproc
 193              	.LVL12:
  74:.\lightlib.c  ****     switch(led_flag) {
 194              		.loc 1 74 0
 195 0000 0138     		sub	r0, r0, #1
 196              	.LVL13:
  73:.\lightlib.c  **** uint8 get_status(uint8 led_flag) {
 197              		.loc 1 73 0
 198 0002 00B5     		push	{lr}
 199              		.cfi_def_cfa_offset 4
 200              		.cfi_offset 14, -4
 201              		.loc 1 74 0
 202 0004 0428     		cmp	r0, #4
 203 0006 0ED8     		bhi	.L41
 204 0008 FFF7FEFF 		bl	__gnu_thumb1_case_uqi
 205              	.L37:
ARM GAS  C:\Users\Admin\AppData\Local\Temp\cceP5T5y.s 			page 6


 206 000c 03       		.byte	(.L36-.L37)/2
 207 000d 05       		.byte	(.L38-.L37)/2
 208 000e 0D       		.byte	(.L41-.L37)/2
 209 000f 07       		.byte	(.L39-.L37)/2
 210 0010 09       		.byte	(.L40-.L37)/2
 211 0011 00       		.p2align 1
 212              	.L36:
  75:.\lightlib.c  ****         case LEFT_LED:
  76:.\lightlib.c  ****             return Left_LED_State.status;
 213              		.loc 1 76 0
 214 0012 064B     		ldr	r3, .L43
 215 0014 04E0     		b	.L42
 216              	.L38:
  77:.\lightlib.c  ****         break;
  78:.\lightlib.c  ****         case RIGHT_LED:
  79:.\lightlib.c  ****             return Right_LED_State.status;
 217              		.loc 1 79 0
 218 0016 064B     		ldr	r3, .L43+4
 219 0018 02E0     		b	.L42
 220              	.L39:
  80:.\lightlib.c  ****         break;
  81:.\lightlib.c  ****         case IR_LED:
  82:.\lightlib.c  ****             return IR_LED_State.status;
 221              		.loc 1 82 0
 222 001a 064B     		ldr	r3, .L43+8
 223 001c 00E0     		b	.L42
 224              	.L40:
  83:.\lightlib.c  ****         break;
  84:.\lightlib.c  ****         case BOARD_LED:
  85:.\lightlib.c  ****            return Board_LED_State.status;
 225              		.loc 1 85 0
 226 001e 064B     		ldr	r3, .L43+12
 227              	.L42:
 228 0020 1878     		ldrb	r0, [r3]
 229 0022 C0B2     		uxtb	r0, r0
 230 0024 00E0     		b	.L35
 231              	.L41:
  86:.\lightlib.c  ****         break;
  87:.\lightlib.c  ****     }  
  88:.\lightlib.c  ****     return -1;
 232              		.loc 1 88 0
 233 0026 FF20     		mov	r0, #255
 234              	.L35:
  89:.\lightlib.c  **** }
 235              		.loc 1 89 0
 236              		@ sp needed
 237 0028 00BD     		pop	{pc}
 238              	.L44:
 239 002a C046     		.align	2
 240              	.L43:
 241 002c 00000000 		.word	Left_LED_State
 242 0030 00000000 		.word	Right_LED_State
 243 0034 00000000 		.word	IR_LED_State
 244 0038 00000000 		.word	Board_LED_State
 245              		.cfi_endproc
 246              	.LFE36:
 247              		.size	get_status, .-get_status
ARM GAS  C:\Users\Admin\AppData\Local\Temp\cceP5T5y.s 			page 7


 248              		.section	.text.turn_on,"ax",%progbits
 249              		.align	1
 250              		.global	turn_on
 251              		.code	16
 252              		.thumb_func
 253              		.type	turn_on, %function
 254              	turn_on:
 255              	.LFB37:
  90:.\lightlib.c  **** 
  91:.\lightlib.c  **** void turn_on(uint8 led_flag) {
 256              		.loc 1 91 0
 257              		.cfi_startproc
 258              	.LVL14:
  92:.\lightlib.c  ****     switch(led_flag) {
 259              		.loc 1 92 0
 260 0000 0138     		sub	r0, r0, #1
 261              	.LVL15:
  91:.\lightlib.c  **** void turn_on(uint8 led_flag) {
 262              		.loc 1 91 0
 263 0002 08B5     		push	{r3, lr}
 264              		.cfi_def_cfa_offset 8
 265              		.cfi_offset 3, -8
 266              		.cfi_offset 14, -4
 267              		.loc 1 92 0
 268 0004 0428     		cmp	r0, #4
 269 0006 5CD8     		bhi	.L45
 270 0008 FFF7FEFF 		bl	__gnu_thumb1_case_uqi
 271              	.L48:
 272 000c 03       		.byte	(.L47-.L48)/2
 273 000d 2B       		.byte	(.L49-.L48)/2
 274 000e 28       		.byte	(.L50-.L48)/2
 275 000f 4F       		.byte	(.L51-.L48)/2
 276 0010 54       		.byte	(.L52-.L48)/2
 277 0011 00       		.p2align 1
 278              	.L47:
 279              	.LVL16:
 280              	.LBB6:
 281              	.LBB7:
  64:.\lightlib.c  ****             return Left_LED_State.color;
 282              		.loc 1 64 0
 283 0012 2C4B     		ldr	r3, .L79
 284 0014 5878     		ldrb	r0, [r3, #1]
 285              	.LBE7:
 286              	.LBE6:
  93:.\lightlib.c  ****         case LEFT_LED:
  94:.\lightlib.c  ****             switch(get_color(LEFT_LED)) {
 287              		.loc 1 94 0
 288 0016 0138     		sub	r0, r0, #1
 289 0018 0628     		cmp	r0, #6
 290 001a 1CD8     		bhi	.L53
 291 001c FFF7FEFF 		bl	__gnu_thumb1_case_uqi
 292              	.L55:
 293 0020 04       		.byte	(.L54-.L55)/2
 294 0021 0B       		.byte	(.L71-.L55)/2
 295 0022 08       		.byte	(.L57-.L55)/2
 296 0023 19       		.byte	(.L73-.L55)/2
 297 0024 0F       		.byte	(.L59-.L55)/2
ARM GAS  C:\Users\Admin\AppData\Local\Temp\cceP5T5y.s 			page 8


 298 0025 16       		.byte	(.L72-.L55)/2
 299 0026 13       		.byte	(.L61-.L55)/2
 300 0027 00       		.p2align 1
 301              	.L54:
  95:.\lightlib.c  ****                 case RED:
  96:.\lightlib.c  ****                     Left_LED_Red_Write(1);
 302              		.loc 1 96 0
 303 0028 0120     		mov	r0, #1
 304 002a FFF7FEFF 		bl	Left_LED_Red_Write
 305              	.LVL17:
  97:.\lightlib.c  ****                 break;
 306              		.loc 1 97 0
 307 002e 12E0     		b	.L53
 308              	.L57:
  98:.\lightlib.c  ****                 case BLUE:
  99:.\lightlib.c  ****                     Left_LED_Blue_Write(1);
 100:.\lightlib.c  ****                 break;
 101:.\lightlib.c  ****                 case MAGENTA:
 102:.\lightlib.c  ****                     Left_LED_Red_Write(1);
 309              		.loc 1 102 0
 310 0030 0120     		mov	r0, #1
 311 0032 FFF7FEFF 		bl	Left_LED_Red_Write
 312              	.LVL18:
 313              	.L71:
 103:.\lightlib.c  ****                     Left_LED_Blue_Write(1);
 314              		.loc 1 103 0
 315 0036 0120     		mov	r0, #1
 316 0038 FFF7FEFF 		bl	Left_LED_Blue_Write
 317              	.LVL19:
 104:.\lightlib.c  ****                 break;
 318              		.loc 1 104 0
 319 003c 0BE0     		b	.L53
 320              	.L59:
 105:.\lightlib.c  ****                 case GREEN:
 106:.\lightlib.c  ****                     PWM_Left_LED_Green_Start();
 107:.\lightlib.c  ****                 break;
 108:.\lightlib.c  ****                 case YELLOW:
 109:.\lightlib.c  ****                     Left_LED_Red_Write(1);
 321              		.loc 1 109 0
 322 003e 0120     		mov	r0, #1
 323 0040 FFF7FEFF 		bl	Left_LED_Red_Write
 324              	.LVL20:
 325 0044 05E0     		b	.L73
 326              	.L61:
 110:.\lightlib.c  ****                     PWM_Left_LED_Green_Start();
 111:.\lightlib.c  ****                 break;
 112:.\lightlib.c  ****                 case CYAN:
 113:.\lightlib.c  ****                     Left_LED_Blue_Write(1);
 114:.\lightlib.c  ****                     PWM_Left_LED_Green_Start();
 115:.\lightlib.c  ****                 break;
 116:.\lightlib.c  ****                 case WHITE:
 117:.\lightlib.c  ****                     Left_LED_Red_Write(1);
 327              		.loc 1 117 0
 328 0046 0120     		mov	r0, #1
 329 0048 FFF7FEFF 		bl	Left_LED_Red_Write
 330              	.LVL21:
 331              	.L72:
ARM GAS  C:\Users\Admin\AppData\Local\Temp\cceP5T5y.s 			page 9


 118:.\lightlib.c  ****                     Left_LED_Blue_Write(1);
 332              		.loc 1 118 0
 333 004c 0120     		mov	r0, #1
 334 004e FFF7FEFF 		bl	Left_LED_Blue_Write
 335              	.LVL22:
 336              	.L73:
 119:.\lightlib.c  ****                     PWM_Left_LED_Green_Start();
 337              		.loc 1 119 0
 338 0052 FFF7FEFF 		bl	PWM_Left_LED_Green_Start
 339              	.LVL23:
 340              	.L53:
 120:.\lightlib.c  ****                 break;
 121:.\lightlib.c  ****             }
 122:.\lightlib.c  ****         set_status(LEFT_LED, ON);
 341              		.loc 1 122 0
 342 0056 0120     		mov	r0, #1
 343 0058 011C     		mov	r1, r0
 344 005a 30E0     		b	.L78
 345              	.LVL24:
 346              	.L50:
 123:.\lightlib.c  ****         break;
 124:.\lightlib.c  ****         case RIGHT_LED:
 125:.\lightlib.c  ****             switch(get_color(RIGHT_LED)) {
 126:.\lightlib.c  ****                 case RED:
 127:.\lightlib.c  ****                     Right_LED_Red_Write(1);
 128:.\lightlib.c  ****                 break;
 129:.\lightlib.c  ****                 case BLUE:
 130:.\lightlib.c  ****                     Right_LED_Blue_Write(1);
 131:.\lightlib.c  ****                 break;
 132:.\lightlib.c  ****                 case MAGENTA:
 133:.\lightlib.c  ****                     Right_LED_Red_Write(1);
 134:.\lightlib.c  ****                     Right_LED_Blue_Write(1);
 135:.\lightlib.c  ****                 break;
 136:.\lightlib.c  ****                 case GREEN:
 137:.\lightlib.c  ****                     PWM_Right_LED_Green_Start();
 138:.\lightlib.c  ****                 break;
 139:.\lightlib.c  ****                 case YELLOW:
 140:.\lightlib.c  ****                     Right_LED_Red_Write(1);
 141:.\lightlib.c  ****                     PWM_Right_LED_Green_Start();
 142:.\lightlib.c  ****                 break;
 143:.\lightlib.c  ****                 case CYAN:
 144:.\lightlib.c  ****                     Right_LED_Blue_Write(1);
 145:.\lightlib.c  ****                     PWM_Right_LED_Green_Start();
 146:.\lightlib.c  ****                 break;
 147:.\lightlib.c  ****                 case WHITE:
 148:.\lightlib.c  ****                     Right_LED_Red_Write(1);
 149:.\lightlib.c  ****                     Right_LED_Blue_Write(1);
 150:.\lightlib.c  ****                     PWM_Right_LED_Green_Start();
 151:.\lightlib.c  ****                 break;
 152:.\lightlib.c  ****             }
 153:.\lightlib.c  ****         set_status(RIGHT_LED, ON);
 154:.\lightlib.c  ****         break;
 155:.\lightlib.c  ****         case LEFT_RIGHT_LED:
 156:.\lightlib.c  ****             turn_on(LEFT_LED);
 347              		.loc 1 156 0
 348 005c 0120     		mov	r0, #1
 349 005e FFF7FEFF 		bl	turn_on
ARM GAS  C:\Users\Admin\AppData\Local\Temp\cceP5T5y.s 			page 10


 350              	.LVL25:
 351              	.L49:
 352              	.LBB8:
 353              	.LBB9:
  67:.\lightlib.c  ****             return Right_LED_State.color;
 354              		.loc 1 67 0
 355 0062 194B     		ldr	r3, .L79+4
 356 0064 5878     		ldrb	r0, [r3, #1]
 357              	.LBE9:
 358              	.LBE8:
 125:.\lightlib.c  ****             switch(get_color(RIGHT_LED)) {
 359              		.loc 1 125 0
 360 0066 0138     		sub	r0, r0, #1
 361 0068 0628     		cmp	r0, #6
 362 006a 1CD8     		bhi	.L62
 363 006c FFF7FEFF 		bl	__gnu_thumb1_case_uqi
 364              	.L64:
 365 0070 04       		.byte	(.L63-.L64)/2
 366 0071 0B       		.byte	(.L74-.L64)/2
 367 0072 08       		.byte	(.L66-.L64)/2
 368 0073 19       		.byte	(.L76-.L64)/2
 369 0074 0F       		.byte	(.L68-.L64)/2
 370 0075 16       		.byte	(.L75-.L64)/2
 371 0076 13       		.byte	(.L70-.L64)/2
 372 0077 00       		.p2align 1
 373              	.L63:
 127:.\lightlib.c  ****                     Right_LED_Red_Write(1);
 374              		.loc 1 127 0
 375 0078 0120     		mov	r0, #1
 376 007a FFF7FEFF 		bl	Right_LED_Red_Write
 377              	.LVL26:
 128:.\lightlib.c  ****                 break;
 378              		.loc 1 128 0
 379 007e 12E0     		b	.L62
 380              	.L66:
 133:.\lightlib.c  ****                     Right_LED_Red_Write(1);
 381              		.loc 1 133 0
 382 0080 0120     		mov	r0, #1
 383 0082 FFF7FEFF 		bl	Right_LED_Red_Write
 384              	.LVL27:
 385              	.L74:
 134:.\lightlib.c  ****                     Right_LED_Blue_Write(1);
 386              		.loc 1 134 0
 387 0086 0120     		mov	r0, #1
 388 0088 FFF7FEFF 		bl	Right_LED_Blue_Write
 389              	.LVL28:
 135:.\lightlib.c  ****                 break;
 390              		.loc 1 135 0
 391 008c 0BE0     		b	.L62
 392              	.L68:
 140:.\lightlib.c  ****                     Right_LED_Red_Write(1);
 393              		.loc 1 140 0
 394 008e 0120     		mov	r0, #1
 395 0090 FFF7FEFF 		bl	Right_LED_Red_Write
 396              	.LVL29:
 397 0094 05E0     		b	.L76
 398              	.L70:
ARM GAS  C:\Users\Admin\AppData\Local\Temp\cceP5T5y.s 			page 11


 148:.\lightlib.c  ****                     Right_LED_Red_Write(1);
 399              		.loc 1 148 0
 400 0096 0120     		mov	r0, #1
 401 0098 FFF7FEFF 		bl	Right_LED_Red_Write
 402              	.LVL30:
 403              	.L75:
 149:.\lightlib.c  ****                     Right_LED_Blue_Write(1);
 404              		.loc 1 149 0
 405 009c 0120     		mov	r0, #1
 406 009e FFF7FEFF 		bl	Right_LED_Blue_Write
 407              	.LVL31:
 408              	.L76:
 150:.\lightlib.c  ****                     PWM_Right_LED_Green_Start();
 409              		.loc 1 150 0
 410 00a2 FFF7FEFF 		bl	PWM_Right_LED_Green_Start
 411              	.LVL32:
 412              	.L62:
 153:.\lightlib.c  ****         set_status(RIGHT_LED, ON);
 413              		.loc 1 153 0
 414 00a6 0220     		mov	r0, #2
 415 00a8 08E0     		b	.L77
 416              	.LVL33:
 417              	.L51:
 157:.\lightlib.c  ****             turn_on(RIGHT_LED);
 158:.\lightlib.c  ****         break;
 159:.\lightlib.c  ****         case IR_LED:
 160:.\lightlib.c  ****             IR_LED_Write(1);
 418              		.loc 1 160 0
 419 00aa 0120     		mov	r0, #1
 420 00ac FFF7FEFF 		bl	IR_LED_Write
 421              	.LVL34:
 161:.\lightlib.c  ****             set_status(IR_LED, ON);
 422              		.loc 1 161 0
 423 00b0 0420     		mov	r0, #4
 424 00b2 03E0     		b	.L77
 425              	.L52:
 162:.\lightlib.c  ****         break;
 163:.\lightlib.c  ****         case BOARD_LED:
 164:.\lightlib.c  ****             Board_LED_Write(1);
 426              		.loc 1 164 0
 427 00b4 0120     		mov	r0, #1
 428 00b6 FFF7FEFF 		bl	Board_LED_Write
 429              	.LVL35:
 165:.\lightlib.c  ****             set_status(BOARD_LED, ON);
 430              		.loc 1 165 0
 431 00ba 0520     		mov	r0, #5
 432              	.L77:
 433 00bc 0121     		mov	r1, #1
 434              	.L78:
 435 00be FFF7FEFF 		bl	set_status
 436              	.LVL36:
 437              	.L45:
 166:.\lightlib.c  **** 
 167:.\lightlib.c  ****         break;
 168:.\lightlib.c  ****     }    
 169:.\lightlib.c  **** }
 438              		.loc 1 169 0
ARM GAS  C:\Users\Admin\AppData\Local\Temp\cceP5T5y.s 			page 12


 439              		@ sp needed
 440 00c2 08BD     		pop	{r3, pc}
 441              	.L80:
 442              		.align	2
 443              	.L79:
 444 00c4 00000000 		.word	Left_LED_State
 445 00c8 00000000 		.word	Right_LED_State
 446              		.cfi_endproc
 447              	.LFE37:
 448              		.size	turn_on, .-turn_on
 449              		.section	.text.turn_off,"ax",%progbits
 450              		.align	1
 451              		.global	turn_off
 452              		.code	16
 453              		.thumb_func
 454              		.type	turn_off, %function
 455              	turn_off:
 456              	.LFB38:
 170:.\lightlib.c  **** 
 171:.\lightlib.c  **** void turn_off(uint8 led_flag) {
 457              		.loc 1 171 0
 458              		.cfi_startproc
 459              	.LVL37:
 172:.\lightlib.c  ****     switch(led_flag) {
 460              		.loc 1 172 0
 461 0000 0138     		sub	r0, r0, #1
 462              	.LVL38:
 171:.\lightlib.c  **** void turn_off(uint8 led_flag) {
 463              		.loc 1 171 0
 464 0002 08B5     		push	{r3, lr}
 465              		.cfi_def_cfa_offset 8
 466              		.cfi_offset 3, -8
 467              		.cfi_offset 14, -4
 468              		.loc 1 172 0
 469 0004 0428     		cmp	r0, #4
 470 0006 27D8     		bhi	.L81
 471 0008 FFF7FEFF 		bl	__gnu_thumb1_case_uqi
 472              	.L84:
 473 000c 03       		.byte	(.L83-.L84)/2
 474 000d 10       		.byte	(.L85-.L84)/2
 475 000e 0D       		.byte	(.L86-.L84)/2
 476 000f 1A       		.byte	(.L87-.L84)/2
 477 0010 1F       		.byte	(.L88-.L84)/2
 478 0011 00       		.p2align 1
 479              	.L83:
 480              	.LVL39:
 481              	.LBB12:
 482              	.LBB13:
 173:.\lightlib.c  ****         case LEFT_LED:
 174:.\lightlib.c  ****             Left_LED_Red_Write(0);
 483              		.loc 1 174 0
 484 0012 0020     		mov	r0, #0
 485 0014 FFF7FEFF 		bl	Left_LED_Red_Write
 486              	.LVL40:
 175:.\lightlib.c  ****             Left_LED_Blue_Write(0);
 487              		.loc 1 175 0
 488 0018 0020     		mov	r0, #0
ARM GAS  C:\Users\Admin\AppData\Local\Temp\cceP5T5y.s 			page 13


 489 001a FFF7FEFF 		bl	Left_LED_Blue_Write
 490              	.LVL41:
 176:.\lightlib.c  ****             PWM_Left_LED_Green_Stop();
 491              		.loc 1 176 0
 492 001e FFF7FEFF 		bl	PWM_Left_LED_Green_Stop
 493              	.LVL42:
 177:.\lightlib.c  ****             set_status(LEFT_LED, OFF);
 494              		.loc 1 177 0
 495 0022 0120     		mov	r0, #1
 496 0024 15E0     		b	.L89
 497              	.LVL43:
 498              	.L86:
 499              	.LBE13:
 500              	.LBE12:
 178:.\lightlib.c  ****         break;
 179:.\lightlib.c  ****         case RIGHT_LED:
 180:.\lightlib.c  ****             Right_LED_Red_Write(0);
 181:.\lightlib.c  ****             Right_LED_Blue_Write(0);
 182:.\lightlib.c  ****             PWM_Right_LED_Green_Stop();
 183:.\lightlib.c  ****             set_status(RIGHT_LED, OFF);
 184:.\lightlib.c  ****         break;
 185:.\lightlib.c  ****         case LEFT_RIGHT_LED:
 186:.\lightlib.c  ****             turn_off(LEFT_LED);
 501              		.loc 1 186 0
 502 0026 0120     		mov	r0, #1
 503 0028 FFF7FEFF 		bl	turn_off
 504              	.LVL44:
 505              	.L85:
 180:.\lightlib.c  ****             Right_LED_Red_Write(0);
 506              		.loc 1 180 0
 507 002c 0020     		mov	r0, #0
 508 002e FFF7FEFF 		bl	Right_LED_Red_Write
 509              	.LVL45:
 181:.\lightlib.c  ****             Right_LED_Blue_Write(0);
 510              		.loc 1 181 0
 511 0032 0020     		mov	r0, #0
 512 0034 FFF7FEFF 		bl	Right_LED_Blue_Write
 513              	.LVL46:
 182:.\lightlib.c  ****             PWM_Right_LED_Green_Stop();
 514              		.loc 1 182 0
 515 0038 FFF7FEFF 		bl	PWM_Right_LED_Green_Stop
 516              	.LVL47:
 183:.\lightlib.c  ****             set_status(RIGHT_LED, OFF);
 517              		.loc 1 183 0
 518 003c 0220     		mov	r0, #2
 519 003e 08E0     		b	.L89
 520              	.L87:
 187:.\lightlib.c  ****             turn_off(RIGHT_LED);
 188:.\lightlib.c  ****         break;
 189:.\lightlib.c  ****         case IR_LED:
 190:.\lightlib.c  ****             IR_LED_Write(0);
 521              		.loc 1 190 0
 522 0040 0020     		mov	r0, #0
 523 0042 FFF7FEFF 		bl	IR_LED_Write
 524              	.LVL48:
 191:.\lightlib.c  ****             set_status(IR_LED, OFF);
 525              		.loc 1 191 0
ARM GAS  C:\Users\Admin\AppData\Local\Temp\cceP5T5y.s 			page 14


 526 0046 0420     		mov	r0, #4
 527 0048 03E0     		b	.L89
 528              	.L88:
 192:.\lightlib.c  ****         break;
 193:.\lightlib.c  ****         case BOARD_LED:
 194:.\lightlib.c  ****             Board_LED_Write(0);
 529              		.loc 1 194 0
 530 004a 0020     		mov	r0, #0
 531 004c FFF7FEFF 		bl	Board_LED_Write
 532              	.LVL49:
 195:.\lightlib.c  ****            set_status(BOARD_LED, OFF);
 533              		.loc 1 195 0
 534 0050 0520     		mov	r0, #5
 535              	.L89:
 536 0052 0021     		mov	r1, #0
 537 0054 FFF7FEFF 		bl	set_status
 538              	.LVL50:
 539              	.L81:
 196:.\lightlib.c  ****         break;
 197:.\lightlib.c  ****     }    
 198:.\lightlib.c  **** }
 540              		.loc 1 198 0
 541              		@ sp needed
 542 0058 08BD     		pop	{r3, pc}
 543              		.cfi_endproc
 544              	.LFE38:
 545              		.size	turn_off, .-turn_off
 546              		.section	.text.turn_on_all_led,"ax",%progbits
 547              		.align	1
 548              		.global	turn_on_all_led
 549              		.code	16
 550              		.thumb_func
 551              		.type	turn_on_all_led, %function
 552              	turn_on_all_led:
 553              	.LFB39:
 199:.\lightlib.c  **** 
 200:.\lightlib.c  **** void turn_on_all_led(void) {
 554              		.loc 1 200 0
 555              		.cfi_startproc
 556 0000 08B5     		push	{r3, lr}
 557              		.cfi_def_cfa_offset 8
 558              		.cfi_offset 3, -8
 559              		.cfi_offset 14, -4
 201:.\lightlib.c  ****     turn_on(LEFT_LED);
 560              		.loc 1 201 0
 561 0002 0120     		mov	r0, #1
 562 0004 FFF7FEFF 		bl	turn_on
 563              	.LVL51:
 202:.\lightlib.c  ****     turn_on(RIGHT_LED); 
 564              		.loc 1 202 0
 565 0008 0220     		mov	r0, #2
 566 000a FFF7FEFF 		bl	turn_on
 567              	.LVL52:
 203:.\lightlib.c  ****     turn_on(IR_LED); 
 568              		.loc 1 203 0
 569 000e 0420     		mov	r0, #4
 570 0010 FFF7FEFF 		bl	turn_on
ARM GAS  C:\Users\Admin\AppData\Local\Temp\cceP5T5y.s 			page 15


 571              	.LVL53:
 204:.\lightlib.c  ****     turn_on(BOARD_LED); 
 572              		.loc 1 204 0
 573 0014 0520     		mov	r0, #5
 574 0016 FFF7FEFF 		bl	turn_on
 575              	.LVL54:
 205:.\lightlib.c  **** }
 576              		.loc 1 205 0
 577              		@ sp needed
 578 001a 08BD     		pop	{r3, pc}
 579              		.cfi_endproc
 580              	.LFE39:
 581              		.size	turn_on_all_led, .-turn_on_all_led
 582              		.section	.text.turn_off_all_led,"ax",%progbits
 583              		.align	1
 584              		.global	turn_off_all_led
 585              		.code	16
 586              		.thumb_func
 587              		.type	turn_off_all_led, %function
 588              	turn_off_all_led:
 589              	.LFB40:
 206:.\lightlib.c  **** 
 207:.\lightlib.c  **** void turn_off_all_led(void) {
 590              		.loc 1 207 0
 591              		.cfi_startproc
 592 0000 08B5     		push	{r3, lr}
 593              		.cfi_def_cfa_offset 8
 594              		.cfi_offset 3, -8
 595              		.cfi_offset 14, -4
 208:.\lightlib.c  ****     turn_off(LEFT_LED);
 596              		.loc 1 208 0
 597 0002 0120     		mov	r0, #1
 598 0004 FFF7FEFF 		bl	turn_off
 599              	.LVL55:
 209:.\lightlib.c  ****     turn_off(RIGHT_LED); 
 600              		.loc 1 209 0
 601 0008 0220     		mov	r0, #2
 602 000a FFF7FEFF 		bl	turn_off
 603              	.LVL56:
 210:.\lightlib.c  ****     turn_off(IR_LED); 
 604              		.loc 1 210 0
 605 000e 0420     		mov	r0, #4
 606 0010 FFF7FEFF 		bl	turn_off
 607              	.LVL57:
 211:.\lightlib.c  ****     turn_off(BOARD_LED); 
 608              		.loc 1 211 0
 609 0014 0520     		mov	r0, #5
 610 0016 FFF7FEFF 		bl	turn_off
 611              	.LVL58:
 212:.\lightlib.c  **** }
 612              		.loc 1 212 0
 613              		@ sp needed
 614 001a 08BD     		pop	{r3, pc}
 615              		.cfi_endproc
 616              	.LFE40:
 617              		.size	turn_off_all_led, .-turn_off_all_led
 618              		.section	.text.init_led,"ax",%progbits
ARM GAS  C:\Users\Admin\AppData\Local\Temp\cceP5T5y.s 			page 16


 619              		.align	1
 620              		.global	init_led
 621              		.code	16
 622              		.thumb_func
 623              		.type	init_led, %function
 624              	init_led:
 625              	.LFB41:
 213:.\lightlib.c  **** 
 214:.\lightlib.c  **** void init_led(uint8 color) {
 626              		.loc 1 214 0
 627              		.cfi_startproc
 628              	.LVL59:
 629 0000 10B5     		push	{r4, lr}
 630              		.cfi_def_cfa_offset 8
 631              		.cfi_offset 4, -8
 632              		.cfi_offset 14, -4
 633              		.loc 1 214 0
 634 0002 041C     		mov	r4, r0
 215:.\lightlib.c  ****     /* Turn off all leds */
 216:.\lightlib.c  ****     turn_off_all_led();
 635              		.loc 1 216 0
 636 0004 FFF7FEFF 		bl	turn_off_all_led
 637              	.LVL60:
 217:.\lightlib.c  ****     
 218:.\lightlib.c  ****     /* Set default led color */
 219:.\lightlib.c  ****     set_color(LEFT_LED, color);
 638              		.loc 1 219 0
 639 0008 211C     		mov	r1, r4
 640 000a 0120     		mov	r0, #1
 641 000c FFF7FEFF 		bl	set_color
 642              	.LVL61:
 220:.\lightlib.c  ****     set_color(RIGHT_LED, color);
 643              		.loc 1 220 0
 644 0010 0220     		mov	r0, #2
 645 0012 211C     		mov	r1, r4
 646 0014 FFF7FEFF 		bl	set_color
 647              	.LVL62:
 221:.\lightlib.c  **** }...
 648              		.loc 1 221 0
 649              		@ sp needed
 650 0018 10BD     		pop	{r4, pc}
 651              		.cfi_endproc
 652              	.LFE41:
 653              		.size	init_led, .-init_led
 654              		.comm	Board_LED_State,1,1
 655              		.comm	IR_LED_State,1,1
 656              		.comm	Right_LED_State,2,1
 657              		.comm	Left_LED_State,2,1
 658              		.text
 659              	.Letext0:
 660              		.file 2 ".\\lightlib.h"
 661              		.file 3 ".\\Generated_Source\\PSoC4/Left_LED_Red.h"
 662              		.file 4 ".\\Generated_Source\\PSoC4/Left_LED_Blue.h"
 663              		.file 5 ".\\Generated_Source\\PSoC4/Right_LED_Red.h"
 664              		.file 6 ".\\Generated_Source\\PSoC4/Right_LED_Blue.h"
 665              		.file 7 ".\\Generated_Source\\PSoC4/PWM_Left_LED_Green.h"
 666              		.file 8 ".\\Generated_Source\\PSoC4/PWM_Right_LED_Green.h"
ARM GAS  C:\Users\Admin\AppData\Local\Temp\cceP5T5y.s 			page 17


 667              		.file 9 ".\\Generated_Source\\PSoC4/IR_LED.h"
 668              		.file 10 ".\\Generated_Source\\PSoC4/Board_LED.h"
 669              		.file 11 ".\\Generated_Source\\PSoC4/cytypes.h"