ARM GAS  C:\Users\Admin\AppData\Local\Temp\cczbEa2T.s 			page 1


   1              		.cpu cortex-m0
   2              		.fpu softvfp
   3              		.eabi_attribute 20, 1
   4              		.eabi_attribute 21, 1
   5              		.eabi_attribute 23, 3
   6              		.eabi_attribute 24, 1
   7              		.eabi_attribute 25, 1
   8              		.eabi_attribute 26, 1
   9              		.eabi_attribute 30, 4
  10              		.eabi_attribute 34, 0
  11              		.eabi_attribute 18, 4
  12              		.code	16
  13              		.file	"SWL_Int.c"
  14              		.text
  15              	.Ltext0:
  16              		.cfi_sections	.debug_frame
  17              		.section	.text.SWL_Int_Interrupt,"ax",%progbits
  18              		.align	1
  19              		.global	SWL_Int_Interrupt
  20              		.code	16
  21              		.thumb_func
  22              		.type	SWL_Int_Interrupt, %function
  23              	SWL_Int_Interrupt:
  24              	.LFB3:
  25              		.file 1 ".\\Generated_Source\\PSoC4\\SWL_Int.c"
   1:.\Generated_Source\PSoC4/SWL_Int.c **** /*******************************************************************************
   2:.\Generated_Source\PSoC4/SWL_Int.c **** * File Name: SWL_Int.c  
   3:.\Generated_Source\PSoC4/SWL_Int.c **** * Version 1.70
   4:.\Generated_Source\PSoC4/SWL_Int.c **** *
   5:.\Generated_Source\PSoC4/SWL_Int.c **** *  Description:
   6:.\Generated_Source\PSoC4/SWL_Int.c **** *   API for controlling the state of an interrupt.
   7:.\Generated_Source\PSoC4/SWL_Int.c **** *
   8:.\Generated_Source\PSoC4/SWL_Int.c **** *
   9:.\Generated_Source\PSoC4/SWL_Int.c **** *  Note:
  10:.\Generated_Source\PSoC4/SWL_Int.c **** *
  11:.\Generated_Source\PSoC4/SWL_Int.c **** ********************************************************************************
  12:.\Generated_Source\PSoC4/SWL_Int.c **** * Copyright 2008-2012, Cypress Semiconductor Corporation.  All rights reserved.
  13:.\Generated_Source\PSoC4/SWL_Int.c **** * You may use this file only in accordance with the license, terms, conditions, 
  14:.\Generated_Source\PSoC4/SWL_Int.c **** * disclaimers, and limitations in the end user license agreement accompanying 
  15:.\Generated_Source\PSoC4/SWL_Int.c **** * the software package with which this file was provided.
  16:.\Generated_Source\PSoC4/SWL_Int.c **** *******************************************************************************/
  17:.\Generated_Source\PSoC4/SWL_Int.c **** 
  18:.\Generated_Source\PSoC4/SWL_Int.c **** 
  19:.\Generated_Source\PSoC4/SWL_Int.c **** #include <cydevice_trm.h>
  20:.\Generated_Source\PSoC4/SWL_Int.c **** #include <CyLib.h>
  21:.\Generated_Source\PSoC4/SWL_Int.c **** #include <SWL_Int.h>
  22:.\Generated_Source\PSoC4/SWL_Int.c **** 
  23:.\Generated_Source\PSoC4/SWL_Int.c **** #if !defined(SWL_Int__REMOVED) /* Check for removal by optimization */
  24:.\Generated_Source\PSoC4/SWL_Int.c **** 
  25:.\Generated_Source\PSoC4/SWL_Int.c **** /*******************************************************************************
  26:.\Generated_Source\PSoC4/SWL_Int.c **** *  Place your includes, defines and code here 
  27:.\Generated_Source\PSoC4/SWL_Int.c **** ********************************************************************************/
  28:.\Generated_Source\PSoC4/SWL_Int.c **** /* `#START SWL_Int_intc` */
  29:.\Generated_Source\PSoC4/SWL_Int.c **** 
  30:.\Generated_Source\PSoC4/SWL_Int.c **** /* `#END` */
  31:.\Generated_Source\PSoC4/SWL_Int.c **** 
  32:.\Generated_Source\PSoC4/SWL_Int.c **** extern cyisraddress CyRamVectors[CYINT_IRQ_BASE + CY_NUM_INTERRUPTS];
ARM GAS  C:\Users\Admin\AppData\Local\Temp\cczbEa2T.s 			page 2


  33:.\Generated_Source\PSoC4/SWL_Int.c **** 
  34:.\Generated_Source\PSoC4/SWL_Int.c **** /* Declared in startup, used to set unused interrupts to. */
  35:.\Generated_Source\PSoC4/SWL_Int.c **** CY_ISR_PROTO(IntDefaultHandler);
  36:.\Generated_Source\PSoC4/SWL_Int.c **** 
  37:.\Generated_Source\PSoC4/SWL_Int.c **** 
  38:.\Generated_Source\PSoC4/SWL_Int.c **** /*******************************************************************************
  39:.\Generated_Source\PSoC4/SWL_Int.c **** * Function Name: SWL_Int_Start
  40:.\Generated_Source\PSoC4/SWL_Int.c **** ********************************************************************************
  41:.\Generated_Source\PSoC4/SWL_Int.c **** *
  42:.\Generated_Source\PSoC4/SWL_Int.c **** * Summary:
  43:.\Generated_Source\PSoC4/SWL_Int.c **** *  Set up the interrupt and enable it.
  44:.\Generated_Source\PSoC4/SWL_Int.c **** *
  45:.\Generated_Source\PSoC4/SWL_Int.c **** * Parameters:  
  46:.\Generated_Source\PSoC4/SWL_Int.c **** *   None
  47:.\Generated_Source\PSoC4/SWL_Int.c **** *
  48:.\Generated_Source\PSoC4/SWL_Int.c **** * Return:
  49:.\Generated_Source\PSoC4/SWL_Int.c **** *   None
  50:.\Generated_Source\PSoC4/SWL_Int.c **** *
  51:.\Generated_Source\PSoC4/SWL_Int.c **** *******************************************************************************/
  52:.\Generated_Source\PSoC4/SWL_Int.c **** void SWL_Int_Start(void)
  53:.\Generated_Source\PSoC4/SWL_Int.c **** {
  54:.\Generated_Source\PSoC4/SWL_Int.c ****     /* For all we know the interrupt is active. */
  55:.\Generated_Source\PSoC4/SWL_Int.c ****     SWL_Int_Disable();
  56:.\Generated_Source\PSoC4/SWL_Int.c **** 
  57:.\Generated_Source\PSoC4/SWL_Int.c ****     /* Set the ISR to point to the SWL_Int Interrupt. */
  58:.\Generated_Source\PSoC4/SWL_Int.c ****     SWL_Int_SetVector(&SWL_Int_Interrupt);
  59:.\Generated_Source\PSoC4/SWL_Int.c **** 
  60:.\Generated_Source\PSoC4/SWL_Int.c ****     /* Set the priority. */
  61:.\Generated_Source\PSoC4/SWL_Int.c ****     SWL_Int_SetPriority((uint8)SWL_Int_INTC_PRIOR_NUMBER);
  62:.\Generated_Source\PSoC4/SWL_Int.c **** 
  63:.\Generated_Source\PSoC4/SWL_Int.c ****     /* Enable it. */
  64:.\Generated_Source\PSoC4/SWL_Int.c ****     SWL_Int_Enable();
  65:.\Generated_Source\PSoC4/SWL_Int.c **** }
  66:.\Generated_Source\PSoC4/SWL_Int.c **** 
  67:.\Generated_Source\PSoC4/SWL_Int.c **** 
  68:.\Generated_Source\PSoC4/SWL_Int.c **** /*******************************************************************************
  69:.\Generated_Source\PSoC4/SWL_Int.c **** * Function Name: SWL_Int_StartEx
  70:.\Generated_Source\PSoC4/SWL_Int.c **** ********************************************************************************
  71:.\Generated_Source\PSoC4/SWL_Int.c **** *
  72:.\Generated_Source\PSoC4/SWL_Int.c **** * Summary:
  73:.\Generated_Source\PSoC4/SWL_Int.c **** *  Set up the interrupt and enable it.
  74:.\Generated_Source\PSoC4/SWL_Int.c **** *
  75:.\Generated_Source\PSoC4/SWL_Int.c **** * Parameters:  
  76:.\Generated_Source\PSoC4/SWL_Int.c **** *   address: Address of the ISR to set in the interrupt vector table.
  77:.\Generated_Source\PSoC4/SWL_Int.c **** *
  78:.\Generated_Source\PSoC4/SWL_Int.c **** * Return:
  79:.\Generated_Source\PSoC4/SWL_Int.c **** *   None
  80:.\Generated_Source\PSoC4/SWL_Int.c **** *
  81:.\Generated_Source\PSoC4/SWL_Int.c **** *******************************************************************************/
  82:.\Generated_Source\PSoC4/SWL_Int.c **** void SWL_Int_StartEx(cyisraddress address)
  83:.\Generated_Source\PSoC4/SWL_Int.c **** {
  84:.\Generated_Source\PSoC4/SWL_Int.c ****     /* For all we know the interrupt is active. */
  85:.\Generated_Source\PSoC4/SWL_Int.c ****     SWL_Int_Disable();
  86:.\Generated_Source\PSoC4/SWL_Int.c **** 
  87:.\Generated_Source\PSoC4/SWL_Int.c ****     /* Set the ISR to point to the SWL_Int Interrupt. */
  88:.\Generated_Source\PSoC4/SWL_Int.c ****     SWL_Int_SetVector(address);
  89:.\Generated_Source\PSoC4/SWL_Int.c **** 
ARM GAS  C:\Users\Admin\AppData\Local\Temp\cczbEa2T.s 			page 3


  90:.\Generated_Source\PSoC4/SWL_Int.c ****     /* Set the priority. */
  91:.\Generated_Source\PSoC4/SWL_Int.c ****     SWL_Int_SetPriority((uint8)SWL_Int_INTC_PRIOR_NUMBER);
  92:.\Generated_Source\PSoC4/SWL_Int.c **** 
  93:.\Generated_Source\PSoC4/SWL_Int.c ****     /* Enable it. */
  94:.\Generated_Source\PSoC4/SWL_Int.c ****     SWL_Int_Enable();
  95:.\Generated_Source\PSoC4/SWL_Int.c **** }
  96:.\Generated_Source\PSoC4/SWL_Int.c **** 
  97:.\Generated_Source\PSoC4/SWL_Int.c **** 
  98:.\Generated_Source\PSoC4/SWL_Int.c **** /*******************************************************************************
  99:.\Generated_Source\PSoC4/SWL_Int.c **** * Function Name: SWL_Int_Stop
 100:.\Generated_Source\PSoC4/SWL_Int.c **** ********************************************************************************
 101:.\Generated_Source\PSoC4/SWL_Int.c **** *
 102:.\Generated_Source\PSoC4/SWL_Int.c **** * Summary:
 103:.\Generated_Source\PSoC4/SWL_Int.c **** *   Disables and removes the interrupt.
 104:.\Generated_Source\PSoC4/SWL_Int.c **** *
 105:.\Generated_Source\PSoC4/SWL_Int.c **** * Parameters:  
 106:.\Generated_Source\PSoC4/SWL_Int.c **** *
 107:.\Generated_Source\PSoC4/SWL_Int.c **** * Return:
 108:.\Generated_Source\PSoC4/SWL_Int.c **** *   None
 109:.\Generated_Source\PSoC4/SWL_Int.c **** *
 110:.\Generated_Source\PSoC4/SWL_Int.c **** *******************************************************************************/
 111:.\Generated_Source\PSoC4/SWL_Int.c **** void SWL_Int_Stop(void)
 112:.\Generated_Source\PSoC4/SWL_Int.c **** {
 113:.\Generated_Source\PSoC4/SWL_Int.c ****     /* Disable this interrupt. */
 114:.\Generated_Source\PSoC4/SWL_Int.c ****     SWL_Int_Disable();
 115:.\Generated_Source\PSoC4/SWL_Int.c **** 
 116:.\Generated_Source\PSoC4/SWL_Int.c ****     /* Set the ISR to point to the passive one. */
 117:.\Generated_Source\PSoC4/SWL_Int.c ****     SWL_Int_SetVector(&IntDefaultHandler);
 118:.\Generated_Source\PSoC4/SWL_Int.c **** }
 119:.\Generated_Source\PSoC4/SWL_Int.c **** 
 120:.\Generated_Source\PSoC4/SWL_Int.c **** 
 121:.\Generated_Source\PSoC4/SWL_Int.c **** /*******************************************************************************
 122:.\Generated_Source\PSoC4/SWL_Int.c **** * Function Name: SWL_Int_Interrupt
 123:.\Generated_Source\PSoC4/SWL_Int.c **** ********************************************************************************
 124:.\Generated_Source\PSoC4/SWL_Int.c **** *
 125:.\Generated_Source\PSoC4/SWL_Int.c **** * Summary:
 126:.\Generated_Source\PSoC4/SWL_Int.c **** *   The default Interrupt Service Routine for SWL_Int.
 127:.\Generated_Source\PSoC4/SWL_Int.c **** *
 128:.\Generated_Source\PSoC4/SWL_Int.c **** *   Add custom code between the coments to keep the next version of this file
 129:.\Generated_Source\PSoC4/SWL_Int.c **** *   from over writting your code.
 130:.\Generated_Source\PSoC4/SWL_Int.c **** *
 131:.\Generated_Source\PSoC4/SWL_Int.c **** * Parameters:  
 132:.\Generated_Source\PSoC4/SWL_Int.c **** *   None
 133:.\Generated_Source\PSoC4/SWL_Int.c **** *
 134:.\Generated_Source\PSoC4/SWL_Int.c **** * Return:
 135:.\Generated_Source\PSoC4/SWL_Int.c **** *   None
 136:.\Generated_Source\PSoC4/SWL_Int.c **** *
 137:.\Generated_Source\PSoC4/SWL_Int.c **** *******************************************************************************/
 138:.\Generated_Source\PSoC4/SWL_Int.c **** CY_ISR(SWL_Int_Interrupt)
 139:.\Generated_Source\PSoC4/SWL_Int.c **** {
  26              		.loc 1 139 0
  27              		.cfi_startproc
 140:.\Generated_Source\PSoC4/SWL_Int.c ****     /*  Place your Interrupt code here. */
 141:.\Generated_Source\PSoC4/SWL_Int.c ****     /* `#START SWL_Int_Interrupt` */
 142:.\Generated_Source\PSoC4/SWL_Int.c **** 
 143:.\Generated_Source\PSoC4/SWL_Int.c ****     /* `#END` */
 144:.\Generated_Source\PSoC4/SWL_Int.c **** }
ARM GAS  C:\Users\Admin\AppData\Local\Temp\cczbEa2T.s 			page 4


  28              		.loc 1 144 0
  29              		@ sp needed
  30 0000 7047     		bx	lr
  31              		.cfi_endproc
  32              	.LFE3:
  33              		.size	SWL_Int_Interrupt, .-SWL_Int_Interrupt
  34              		.section	.text.SWL_Int_Stop,"ax",%progbits
  35              		.align	1
  36              		.global	SWL_Int_Stop
  37              		.code	16
  38              		.thumb_func
  39              		.type	SWL_Int_Stop, %function
  40              	SWL_Int_Stop:
  41              	.LFB2:
 112:.\Generated_Source\PSoC4/SWL_Int.c **** {
  42              		.loc 1 112 0
  43              		.cfi_startproc
  44              	.LBB18:
  45              	.LBB19:
 145:.\Generated_Source\PSoC4/SWL_Int.c **** 
 146:.\Generated_Source\PSoC4/SWL_Int.c **** 
 147:.\Generated_Source\PSoC4/SWL_Int.c **** /*******************************************************************************
 148:.\Generated_Source\PSoC4/SWL_Int.c **** * Function Name: SWL_Int_SetVector
 149:.\Generated_Source\PSoC4/SWL_Int.c **** ********************************************************************************
 150:.\Generated_Source\PSoC4/SWL_Int.c **** *
 151:.\Generated_Source\PSoC4/SWL_Int.c **** * Summary:
 152:.\Generated_Source\PSoC4/SWL_Int.c **** *   Change the ISR vector for the Interrupt. Note calling SWL_Int_Start
 153:.\Generated_Source\PSoC4/SWL_Int.c **** *   will override any effect this method would have had. To set the vector 
 154:.\Generated_Source\PSoC4/SWL_Int.c **** *   before the component has been started use SWL_Int_StartEx instead.
 155:.\Generated_Source\PSoC4/SWL_Int.c **** *
 156:.\Generated_Source\PSoC4/SWL_Int.c **** * Parameters:
 157:.\Generated_Source\PSoC4/SWL_Int.c **** *   address: Address of the ISR to set in the interrupt vector table.
 158:.\Generated_Source\PSoC4/SWL_Int.c **** *
 159:.\Generated_Source\PSoC4/SWL_Int.c **** * Return:
 160:.\Generated_Source\PSoC4/SWL_Int.c **** *   None
 161:.\Generated_Source\PSoC4/SWL_Int.c **** *
 162:.\Generated_Source\PSoC4/SWL_Int.c **** *******************************************************************************/
 163:.\Generated_Source\PSoC4/SWL_Int.c **** void SWL_Int_SetVector(cyisraddress address)
 164:.\Generated_Source\PSoC4/SWL_Int.c **** {
 165:.\Generated_Source\PSoC4/SWL_Int.c ****     CyRamVectors[CYINT_IRQ_BASE + SWL_Int__INTC_NUMBER] = address;
 166:.\Generated_Source\PSoC4/SWL_Int.c **** }
 167:.\Generated_Source\PSoC4/SWL_Int.c **** 
 168:.\Generated_Source\PSoC4/SWL_Int.c **** 
 169:.\Generated_Source\PSoC4/SWL_Int.c **** /*******************************************************************************
 170:.\Generated_Source\PSoC4/SWL_Int.c **** * Function Name: SWL_Int_GetVector
 171:.\Generated_Source\PSoC4/SWL_Int.c **** ********************************************************************************
 172:.\Generated_Source\PSoC4/SWL_Int.c **** *
 173:.\Generated_Source\PSoC4/SWL_Int.c **** * Summary:
 174:.\Generated_Source\PSoC4/SWL_Int.c **** *   Gets the "address" of the current ISR vector for the Interrupt.
 175:.\Generated_Source\PSoC4/SWL_Int.c **** *
 176:.\Generated_Source\PSoC4/SWL_Int.c **** * Parameters:
 177:.\Generated_Source\PSoC4/SWL_Int.c **** *   None
 178:.\Generated_Source\PSoC4/SWL_Int.c **** *
 179:.\Generated_Source\PSoC4/SWL_Int.c **** * Return:
 180:.\Generated_Source\PSoC4/SWL_Int.c **** *   Address of the ISR in the interrupt vector table.
 181:.\Generated_Source\PSoC4/SWL_Int.c **** *
 182:.\Generated_Source\PSoC4/SWL_Int.c **** *******************************************************************************/
ARM GAS  C:\Users\Admin\AppData\Local\Temp\cczbEa2T.s 			page 5


 183:.\Generated_Source\PSoC4/SWL_Int.c **** cyisraddress SWL_Int_GetVector(void)
 184:.\Generated_Source\PSoC4/SWL_Int.c **** {
 185:.\Generated_Source\PSoC4/SWL_Int.c ****     return CyRamVectors[CYINT_IRQ_BASE + SWL_Int__INTC_NUMBER];
 186:.\Generated_Source\PSoC4/SWL_Int.c **** }
 187:.\Generated_Source\PSoC4/SWL_Int.c **** 
 188:.\Generated_Source\PSoC4/SWL_Int.c **** 
 189:.\Generated_Source\PSoC4/SWL_Int.c **** /*******************************************************************************
 190:.\Generated_Source\PSoC4/SWL_Int.c **** * Function Name: SWL_Int_SetPriority
 191:.\Generated_Source\PSoC4/SWL_Int.c **** ********************************************************************************
 192:.\Generated_Source\PSoC4/SWL_Int.c **** *
 193:.\Generated_Source\PSoC4/SWL_Int.c **** * Summary:
 194:.\Generated_Source\PSoC4/SWL_Int.c **** *   Sets the Priority of the Interrupt. Note calling SWL_Int_Start
 195:.\Generated_Source\PSoC4/SWL_Int.c **** *   or SWL_Int_StartEx will override any effect this method would 
 196:.\Generated_Source\PSoC4/SWL_Int.c **** *   have had. This method should only be called after SWL_Int_Start or 
 197:.\Generated_Source\PSoC4/SWL_Int.c **** *   SWL_Int_StartEx has been called. To set the initial
 198:.\Generated_Source\PSoC4/SWL_Int.c **** *   priority for the component use the cydwr file in the tool.
 199:.\Generated_Source\PSoC4/SWL_Int.c **** *
 200:.\Generated_Source\PSoC4/SWL_Int.c **** * Parameters:
 201:.\Generated_Source\PSoC4/SWL_Int.c **** *   priority: Priority of the interrupt. 0 - 3, 0 being the highest.
 202:.\Generated_Source\PSoC4/SWL_Int.c **** *
 203:.\Generated_Source\PSoC4/SWL_Int.c **** * Return:
 204:.\Generated_Source\PSoC4/SWL_Int.c **** *   None
 205:.\Generated_Source\PSoC4/SWL_Int.c **** *
 206:.\Generated_Source\PSoC4/SWL_Int.c **** *******************************************************************************/
 207:.\Generated_Source\PSoC4/SWL_Int.c **** void SWL_Int_SetPriority(uint8 priority)
 208:.\Generated_Source\PSoC4/SWL_Int.c **** {
 209:.\Generated_Source\PSoC4/SWL_Int.c **** 	uint8 interruptState;
 210:.\Generated_Source\PSoC4/SWL_Int.c ****     uint32 priorityOffset = ((SWL_Int__INTC_NUMBER % 4u) * 8u) + 6u;
 211:.\Generated_Source\PSoC4/SWL_Int.c ****     
 212:.\Generated_Source\PSoC4/SWL_Int.c **** 	interruptState = CyEnterCriticalSection();
 213:.\Generated_Source\PSoC4/SWL_Int.c ****     *SWL_Int_INTC_PRIOR = (*SWL_Int_INTC_PRIOR & (uint32)(~SWL_Int__INTC_PRIOR_MASK)) |
 214:.\Generated_Source\PSoC4/SWL_Int.c ****                                     ((uint32)priority << priorityOffset);
 215:.\Generated_Source\PSoC4/SWL_Int.c **** 	CyExitCriticalSection(interruptState);
 216:.\Generated_Source\PSoC4/SWL_Int.c **** }
 217:.\Generated_Source\PSoC4/SWL_Int.c **** 
 218:.\Generated_Source\PSoC4/SWL_Int.c **** 
 219:.\Generated_Source\PSoC4/SWL_Int.c **** /*******************************************************************************
 220:.\Generated_Source\PSoC4/SWL_Int.c **** * Function Name: SWL_Int_GetPriority
 221:.\Generated_Source\PSoC4/SWL_Int.c **** ********************************************************************************
 222:.\Generated_Source\PSoC4/SWL_Int.c **** *
 223:.\Generated_Source\PSoC4/SWL_Int.c **** * Summary:
 224:.\Generated_Source\PSoC4/SWL_Int.c **** *   Gets the Priority of the Interrupt.
 225:.\Generated_Source\PSoC4/SWL_Int.c **** *
 226:.\Generated_Source\PSoC4/SWL_Int.c **** * Parameters:
 227:.\Generated_Source\PSoC4/SWL_Int.c **** *   None
 228:.\Generated_Source\PSoC4/SWL_Int.c **** *
 229:.\Generated_Source\PSoC4/SWL_Int.c **** * Return:
 230:.\Generated_Source\PSoC4/SWL_Int.c **** *   Priority of the interrupt. 0 - 3, 0 being the highest.
 231:.\Generated_Source\PSoC4/SWL_Int.c **** *
 232:.\Generated_Source\PSoC4/SWL_Int.c **** *******************************************************************************/
 233:.\Generated_Source\PSoC4/SWL_Int.c **** uint8 SWL_Int_GetPriority(void)
 234:.\Generated_Source\PSoC4/SWL_Int.c **** {
 235:.\Generated_Source\PSoC4/SWL_Int.c ****     uint32 priority;
 236:.\Generated_Source\PSoC4/SWL_Int.c **** 	uint32 priorityOffset = ((SWL_Int__INTC_NUMBER % 4u) * 8u) + 6u;
 237:.\Generated_Source\PSoC4/SWL_Int.c **** 
 238:.\Generated_Source\PSoC4/SWL_Int.c ****     priority = (*SWL_Int_INTC_PRIOR & SWL_Int__INTC_PRIOR_MASK) >> priorityOffset;
 239:.\Generated_Source\PSoC4/SWL_Int.c **** 
ARM GAS  C:\Users\Admin\AppData\Local\Temp\cczbEa2T.s 			page 6


 240:.\Generated_Source\PSoC4/SWL_Int.c ****     return (uint8)priority;
 241:.\Generated_Source\PSoC4/SWL_Int.c **** }
 242:.\Generated_Source\PSoC4/SWL_Int.c **** 
 243:.\Generated_Source\PSoC4/SWL_Int.c **** 
 244:.\Generated_Source\PSoC4/SWL_Int.c **** /*******************************************************************************
 245:.\Generated_Source\PSoC4/SWL_Int.c **** * Function Name: SWL_Int_Enable
 246:.\Generated_Source\PSoC4/SWL_Int.c **** ********************************************************************************
 247:.\Generated_Source\PSoC4/SWL_Int.c **** *
 248:.\Generated_Source\PSoC4/SWL_Int.c **** * Summary:
 249:.\Generated_Source\PSoC4/SWL_Int.c **** *   Enables the interrupt.
 250:.\Generated_Source\PSoC4/SWL_Int.c **** *
 251:.\Generated_Source\PSoC4/SWL_Int.c **** * Parameters:
 252:.\Generated_Source\PSoC4/SWL_Int.c **** *   None
 253:.\Generated_Source\PSoC4/SWL_Int.c **** *
 254:.\Generated_Source\PSoC4/SWL_Int.c **** * Return:
 255:.\Generated_Source\PSoC4/SWL_Int.c **** *   None
 256:.\Generated_Source\PSoC4/SWL_Int.c **** *
 257:.\Generated_Source\PSoC4/SWL_Int.c **** *******************************************************************************/
 258:.\Generated_Source\PSoC4/SWL_Int.c **** void SWL_Int_Enable(void)
 259:.\Generated_Source\PSoC4/SWL_Int.c **** {
 260:.\Generated_Source\PSoC4/SWL_Int.c ****     /* Enable the general interrupt. */
 261:.\Generated_Source\PSoC4/SWL_Int.c ****     *SWL_Int_INTC_SET_EN = SWL_Int__INTC_MASK;
 262:.\Generated_Source\PSoC4/SWL_Int.c **** }
 263:.\Generated_Source\PSoC4/SWL_Int.c **** 
 264:.\Generated_Source\PSoC4/SWL_Int.c **** 
 265:.\Generated_Source\PSoC4/SWL_Int.c **** /*******************************************************************************
 266:.\Generated_Source\PSoC4/SWL_Int.c **** * Function Name: SWL_Int_GetState
 267:.\Generated_Source\PSoC4/SWL_Int.c **** ********************************************************************************
 268:.\Generated_Source\PSoC4/SWL_Int.c **** *
 269:.\Generated_Source\PSoC4/SWL_Int.c **** * Summary:
 270:.\Generated_Source\PSoC4/SWL_Int.c **** *   Gets the state (enabled, disabled) of the Interrupt.
 271:.\Generated_Source\PSoC4/SWL_Int.c **** *
 272:.\Generated_Source\PSoC4/SWL_Int.c **** * Parameters:
 273:.\Generated_Source\PSoC4/SWL_Int.c **** *   None
 274:.\Generated_Source\PSoC4/SWL_Int.c **** *
 275:.\Generated_Source\PSoC4/SWL_Int.c **** * Return:
 276:.\Generated_Source\PSoC4/SWL_Int.c **** *   1 if enabled, 0 if disabled.
 277:.\Generated_Source\PSoC4/SWL_Int.c **** *
 278:.\Generated_Source\PSoC4/SWL_Int.c **** *******************************************************************************/
 279:.\Generated_Source\PSoC4/SWL_Int.c **** uint8 SWL_Int_GetState(void)
 280:.\Generated_Source\PSoC4/SWL_Int.c **** {
 281:.\Generated_Source\PSoC4/SWL_Int.c ****     /* Get the state of the general interrupt. */
 282:.\Generated_Source\PSoC4/SWL_Int.c ****     return ((*SWL_Int_INTC_SET_EN & (uint32)SWL_Int__INTC_MASK) != 0u) ? 1u:0u;
 283:.\Generated_Source\PSoC4/SWL_Int.c **** }
 284:.\Generated_Source\PSoC4/SWL_Int.c **** 
 285:.\Generated_Source\PSoC4/SWL_Int.c **** 
 286:.\Generated_Source\PSoC4/SWL_Int.c **** /*******************************************************************************
 287:.\Generated_Source\PSoC4/SWL_Int.c **** * Function Name: SWL_Int_Disable
 288:.\Generated_Source\PSoC4/SWL_Int.c **** ********************************************************************************
 289:.\Generated_Source\PSoC4/SWL_Int.c **** *
 290:.\Generated_Source\PSoC4/SWL_Int.c **** * Summary:
 291:.\Generated_Source\PSoC4/SWL_Int.c **** *   Disables the Interrupt.
 292:.\Generated_Source\PSoC4/SWL_Int.c **** *
 293:.\Generated_Source\PSoC4/SWL_Int.c **** * Parameters:
 294:.\Generated_Source\PSoC4/SWL_Int.c **** *   None
 295:.\Generated_Source\PSoC4/SWL_Int.c **** *
 296:.\Generated_Source\PSoC4/SWL_Int.c **** * Return:
ARM GAS  C:\Users\Admin\AppData\Local\Temp\cczbEa2T.s 			page 7


 297:.\Generated_Source\PSoC4/SWL_Int.c **** *   None
 298:.\Generated_Source\PSoC4/SWL_Int.c **** *
 299:.\Generated_Source\PSoC4/SWL_Int.c **** *******************************************************************************/
 300:.\Generated_Source\PSoC4/SWL_Int.c **** void SWL_Int_Disable(void)
 301:.\Generated_Source\PSoC4/SWL_Int.c **** {
 302:.\Generated_Source\PSoC4/SWL_Int.c ****     /* Disable the general interrupt. */
 303:.\Generated_Source\PSoC4/SWL_Int.c ****     *SWL_Int_INTC_CLR_EN = SWL_Int__INTC_MASK;
  46              		.loc 1 303 0
  47 0000 034B     		ldr	r3, .L3
  48 0002 0822     		mov	r2, #8
  49 0004 1A60     		str	r2, [r3]
  50              	.LVL0:
  51              	.LBE19:
  52              	.LBE18:
  53              	.LBB20:
  54              	.LBB21:
 165:.\Generated_Source\PSoC4/SWL_Int.c ****     CyRamVectors[CYINT_IRQ_BASE + SWL_Int__INTC_NUMBER] = address;
  55              		.loc 1 165 0
  56 0006 034A     		ldr	r2, .L3+4
  57 0008 034B     		ldr	r3, .L3+8
  58              	.LBE21:
  59              	.LBE20:
 118:.\Generated_Source\PSoC4/SWL_Int.c **** }
  60              		.loc 1 118 0
  61              		@ sp needed
  62              	.LBB23:
  63              	.LBB22:
 165:.\Generated_Source\PSoC4/SWL_Int.c ****     CyRamVectors[CYINT_IRQ_BASE + SWL_Int__INTC_NUMBER] = address;
  64              		.loc 1 165 0
  65 000a DA64     		str	r2, [r3, #76]
  66              	.LBE22:
  67              	.LBE23:
 118:.\Generated_Source\PSoC4/SWL_Int.c **** }
  68              		.loc 1 118 0
  69 000c 7047     		bx	lr
  70              	.L4:
  71 000e C046     		.align	2
  72              	.L3:
  73 0010 80E100E0 		.word	-536813184
  74 0014 00000000 		.word	IntDefaultHandler
  75 0018 00000000 		.word	CyRamVectors
  76              		.cfi_endproc
  77              	.LFE2:
  78              		.size	SWL_Int_Stop, .-SWL_Int_Stop
  79              		.section	.text.SWL_Int_SetVector,"ax",%progbits
  80              		.align	1
  81              		.global	SWL_Int_SetVector
  82              		.code	16
  83              		.thumb_func
  84              		.type	SWL_Int_SetVector, %function
  85              	SWL_Int_SetVector:
  86              	.LFB4:
 164:.\Generated_Source\PSoC4/SWL_Int.c **** {
  87              		.loc 1 164 0
  88              		.cfi_startproc
  89              	.LVL1:
 165:.\Generated_Source\PSoC4/SWL_Int.c ****     CyRamVectors[CYINT_IRQ_BASE + SWL_Int__INTC_NUMBER] = address;
ARM GAS  C:\Users\Admin\AppData\Local\Temp\cczbEa2T.s 			page 8


  90              		.loc 1 165 0
  91 0000 014B     		ldr	r3, .L6
 166:.\Generated_Source\PSoC4/SWL_Int.c **** }
  92              		.loc 1 166 0
  93              		@ sp needed
 165:.\Generated_Source\PSoC4/SWL_Int.c ****     CyRamVectors[CYINT_IRQ_BASE + SWL_Int__INTC_NUMBER] = address;
  94              		.loc 1 165 0
  95 0002 D864     		str	r0, [r3, #76]
 166:.\Generated_Source\PSoC4/SWL_Int.c **** }
  96              		.loc 1 166 0
  97 0004 7047     		bx	lr
  98              	.L7:
  99 0006 C046     		.align	2
 100              	.L6:
 101 0008 00000000 		.word	CyRamVectors
 102              		.cfi_endproc
 103              	.LFE4:
 104              		.size	SWL_Int_SetVector, .-SWL_Int_SetVector
 105              		.section	.text.SWL_Int_GetVector,"ax",%progbits
 106              		.align	1
 107              		.global	SWL_Int_GetVector
 108              		.code	16
 109              		.thumb_func
 110              		.type	SWL_Int_GetVector, %function
 111              	SWL_Int_GetVector:
 112              	.LFB5:
 184:.\Generated_Source\PSoC4/SWL_Int.c **** {
 113              		.loc 1 184 0
 114              		.cfi_startproc
 185:.\Generated_Source\PSoC4/SWL_Int.c ****     return CyRamVectors[CYINT_IRQ_BASE + SWL_Int__INTC_NUMBER];
 115              		.loc 1 185 0
 116 0000 014B     		ldr	r3, .L9
 186:.\Generated_Source\PSoC4/SWL_Int.c **** }
 117              		.loc 1 186 0
 118              		@ sp needed
 185:.\Generated_Source\PSoC4/SWL_Int.c ****     return CyRamVectors[CYINT_IRQ_BASE + SWL_Int__INTC_NUMBER];
 119              		.loc 1 185 0
 120 0002 D86C     		ldr	r0, [r3, #76]
 186:.\Generated_Source\PSoC4/SWL_Int.c **** }
 121              		.loc 1 186 0
 122 0004 7047     		bx	lr
 123              	.L10:
 124 0006 C046     		.align	2
 125              	.L9:
 126 0008 00000000 		.word	CyRamVectors
 127              		.cfi_endproc
 128              	.LFE5:
 129              		.size	SWL_Int_GetVector, .-SWL_Int_GetVector
 130              		.section	.text.SWL_Int_SetPriority,"ax",%progbits
 131              		.align	1
 132              		.global	SWL_Int_SetPriority
 133              		.code	16
 134              		.thumb_func
 135              		.type	SWL_Int_SetPriority, %function
 136              	SWL_Int_SetPriority:
 137              	.LFB6:
 208:.\Generated_Source\PSoC4/SWL_Int.c **** {
ARM GAS  C:\Users\Admin\AppData\Local\Temp\cczbEa2T.s 			page 9


 138              		.loc 1 208 0
 139              		.cfi_startproc
 140              	.LVL2:
 141 0000 10B5     		push	{r4, lr}
 142              		.cfi_def_cfa_offset 8
 143              		.cfi_offset 4, -8
 144              		.cfi_offset 14, -4
 208:.\Generated_Source\PSoC4/SWL_Int.c **** {
 145              		.loc 1 208 0
 146 0002 041C     		mov	r4, r0
 212:.\Generated_Source\PSoC4/SWL_Int.c **** 	interruptState = CyEnterCriticalSection();
 147              		.loc 1 212 0
 148 0004 FFF7FEFF 		bl	CyEnterCriticalSection
 149              	.LVL3:
 213:.\Generated_Source\PSoC4/SWL_Int.c ****     *SWL_Int_INTC_PRIOR = (*SWL_Int_INTC_PRIOR & (uint32)(~SWL_Int__INTC_PRIOR_MASK)) |
 150              		.loc 1 213 0
 151 0008 044B     		ldr	r3, .L12
 214:.\Generated_Source\PSoC4/SWL_Int.c ****                                     ((uint32)priority << priorityOffset);
 152              		.loc 1 214 0
 153 000a A407     		lsl	r4, r4, #30
 213:.\Generated_Source\PSoC4/SWL_Int.c ****     *SWL_Int_INTC_PRIOR = (*SWL_Int_INTC_PRIOR & (uint32)(~SWL_Int__INTC_PRIOR_MASK)) |
 154              		.loc 1 213 0
 155 000c 1A68     		ldr	r2, [r3]
 216:.\Generated_Source\PSoC4/SWL_Int.c **** }
 156              		.loc 1 216 0
 157              		@ sp needed
 213:.\Generated_Source\PSoC4/SWL_Int.c ****     *SWL_Int_INTC_PRIOR = (*SWL_Int_INTC_PRIOR & (uint32)(~SWL_Int__INTC_PRIOR_MASK)) |
 158              		.loc 1 213 0
 159 000e 9200     		lsl	r2, r2, #2
 160 0010 9208     		lsr	r2, r2, #2
 161 0012 1443     		orr	r4, r2
 162 0014 1C60     		str	r4, [r3]
 215:.\Generated_Source\PSoC4/SWL_Int.c **** 	CyExitCriticalSection(interruptState);
 163              		.loc 1 215 0
 164 0016 FFF7FEFF 		bl	CyExitCriticalSection
 165              	.LVL4:
 216:.\Generated_Source\PSoC4/SWL_Int.c **** }
 166              		.loc 1 216 0
 167 001a 10BD     		pop	{r4, pc}
 168              	.L13:
 169              		.align	2
 170              	.L12:
 171 001c 00E400E0 		.word	-536812544
 172              		.cfi_endproc
 173              	.LFE6:
 174              		.size	SWL_Int_SetPriority, .-SWL_Int_SetPriority
 175              		.section	.text.SWL_Int_Start,"ax",%progbits
 176              		.align	1
 177              		.global	SWL_Int_Start
 178              		.code	16
 179              		.thumb_func
 180              		.type	SWL_Int_Start, %function
 181              	SWL_Int_Start:
 182              	.LFB0:
  53:.\Generated_Source\PSoC4/SWL_Int.c **** {
 183              		.loc 1 53 0
 184              		.cfi_startproc
ARM GAS  C:\Users\Admin\AppData\Local\Temp\cczbEa2T.s 			page 10


 185              	.LBB24:
 186              	.LBB25:
 187              		.loc 1 303 0
 188 0000 064B     		ldr	r3, .L15
 189              	.LBE25:
 190              	.LBE24:
  53:.\Generated_Source\PSoC4/SWL_Int.c **** {
 191              		.loc 1 53 0
 192 0002 10B5     		push	{r4, lr}
 193              		.cfi_def_cfa_offset 8
 194              		.cfi_offset 4, -8
 195              		.cfi_offset 14, -4
 196              	.LBB27:
 197              	.LBB26:
 198              		.loc 1 303 0
 199 0004 0824     		mov	r4, #8
 200 0006 1C60     		str	r4, [r3]
 201              	.LVL5:
 202              	.LBE26:
 203              	.LBE27:
 204              	.LBB28:
 205              	.LBB29:
 165:.\Generated_Source\PSoC4/SWL_Int.c ****     CyRamVectors[CYINT_IRQ_BASE + SWL_Int__INTC_NUMBER] = address;
 206              		.loc 1 165 0
 207 0008 054A     		ldr	r2, .L15+4
 208 000a 064B     		ldr	r3, .L15+8
 209              	.LBE29:
 210              	.LBE28:
  61:.\Generated_Source\PSoC4/SWL_Int.c ****     SWL_Int_SetPriority((uint8)SWL_Int_INTC_PRIOR_NUMBER);
 211              		.loc 1 61 0
 212 000c 0320     		mov	r0, #3
 213              	.LBB31:
 214              	.LBB30:
 165:.\Generated_Source\PSoC4/SWL_Int.c ****     CyRamVectors[CYINT_IRQ_BASE + SWL_Int__INTC_NUMBER] = address;
 215              		.loc 1 165 0
 216 000e DA64     		str	r2, [r3, #76]
 217              	.LBE30:
 218              	.LBE31:
  61:.\Generated_Source\PSoC4/SWL_Int.c ****     SWL_Int_SetPriority((uint8)SWL_Int_INTC_PRIOR_NUMBER);
 219              		.loc 1 61 0
 220 0010 FFF7FEFF 		bl	SWL_Int_SetPriority
 221              	.LVL6:
 222              	.LBB32:
 223              	.LBB33:
 261:.\Generated_Source\PSoC4/SWL_Int.c ****     *SWL_Int_INTC_SET_EN = SWL_Int__INTC_MASK;
 224              		.loc 1 261 0
 225 0014 044B     		ldr	r3, .L15+12
 226              	.LBE33:
 227              	.LBE32:
  65:.\Generated_Source\PSoC4/SWL_Int.c **** }
 228              		.loc 1 65 0
 229              		@ sp needed
 230              	.LBB35:
 231              	.LBB34:
 261:.\Generated_Source\PSoC4/SWL_Int.c ****     *SWL_Int_INTC_SET_EN = SWL_Int__INTC_MASK;
 232              		.loc 1 261 0
 233 0016 1C60     		str	r4, [r3]
ARM GAS  C:\Users\Admin\AppData\Local\Temp\cczbEa2T.s 			page 11


 234              	.LBE34:
 235              	.LBE35:
  65:.\Generated_Source\PSoC4/SWL_Int.c **** }
 236              		.loc 1 65 0
 237 0018 10BD     		pop	{r4, pc}
 238              	.L16:
 239 001a C046     		.align	2
 240              	.L15:
 241 001c 80E100E0 		.word	-536813184
 242 0020 00000000 		.word	SWL_Int_Interrupt
 243 0024 00000000 		.word	CyRamVectors
 244 0028 00E100E0 		.word	-536813312
 245              		.cfi_endproc
 246              	.LFE0:
 247              		.size	SWL_Int_Start, .-SWL_Int_Start
 248              		.section	.text.SWL_Int_StartEx,"ax",%progbits
 249              		.align	1
 250              		.global	SWL_Int_StartEx
 251              		.code	16
 252              		.thumb_func
 253              		.type	SWL_Int_StartEx, %function
 254              	SWL_Int_StartEx:
 255              	.LFB1:
  83:.\Generated_Source\PSoC4/SWL_Int.c **** {
 256              		.loc 1 83 0
 257              		.cfi_startproc
 258              	.LVL7:
 259              	.LBB36:
 260              	.LBB37:
 261              		.loc 1 303 0
 262 0000 054B     		ldr	r3, .L18
 263              	.LBE37:
 264              	.LBE36:
  83:.\Generated_Source\PSoC4/SWL_Int.c **** {
 265              		.loc 1 83 0
 266 0002 10B5     		push	{r4, lr}
 267              		.cfi_def_cfa_offset 8
 268              		.cfi_offset 4, -8
 269              		.cfi_offset 14, -4
 270              	.LBB39:
 271              	.LBB38:
 272              		.loc 1 303 0
 273 0004 0824     		mov	r4, #8
 274 0006 1C60     		str	r4, [r3]
 275              	.LVL8:
 276              	.LBE38:
 277              	.LBE39:
 278              	.LBB40:
 279              	.LBB41:
 165:.\Generated_Source\PSoC4/SWL_Int.c ****     CyRamVectors[CYINT_IRQ_BASE + SWL_Int__INTC_NUMBER] = address;
 280              		.loc 1 165 0
 281 0008 044B     		ldr	r3, .L18+4
 282              	.LBE41:
 283              	.LBE40:
  95:.\Generated_Source\PSoC4/SWL_Int.c **** }
 284              		.loc 1 95 0
 285              		@ sp needed
ARM GAS  C:\Users\Admin\AppData\Local\Temp\cczbEa2T.s 			page 12


 286              	.LBB43:
 287              	.LBB42:
 165:.\Generated_Source\PSoC4/SWL_Int.c ****     CyRamVectors[CYINT_IRQ_BASE + SWL_Int__INTC_NUMBER] = address;
 288              		.loc 1 165 0
 289 000a D864     		str	r0, [r3, #76]
 290              	.LBE42:
 291              	.LBE43:
  91:.\Generated_Source\PSoC4/SWL_Int.c ****     SWL_Int_SetPriority((uint8)SWL_Int_INTC_PRIOR_NUMBER);
 292              		.loc 1 91 0
 293 000c 0320     		mov	r0, #3
 294              	.LVL9:
 295 000e FFF7FEFF 		bl	SWL_Int_SetPriority
 296              	.LVL10:
 297              	.LBB44:
 298              	.LBB45:
 261:.\Generated_Source\PSoC4/SWL_Int.c ****     *SWL_Int_INTC_SET_EN = SWL_Int__INTC_MASK;
 299              		.loc 1 261 0
 300 0012 034B     		ldr	r3, .L18+8
 301 0014 1C60     		str	r4, [r3]
 302              	.LBE45:
 303              	.LBE44:
  95:.\Generated_Source\PSoC4/SWL_Int.c **** }
 304              		.loc 1 95 0
 305 0016 10BD     		pop	{r4, pc}
 306              	.L19:
 307              		.align	2
 308              	.L18:
 309 0018 80E100E0 		.word	-536813184
 310 001c 00000000 		.word	CyRamVectors
 311 0020 00E100E0 		.word	-536813312
 312              		.cfi_endproc
 313              	.LFE1:
 314              		.size	SWL_Int_StartEx, .-SWL_Int_StartEx
 315              		.section	.text.SWL_Int_GetPriority,"ax",%progbits
 316              		.align	1
 317              		.global	SWL_Int_GetPriority
 318              		.code	16
 319              		.thumb_func
 320              		.type	SWL_Int_GetPriority, %function
 321              	SWL_Int_GetPriority:
 322              	.LFB7:
 234:.\Generated_Source\PSoC4/SWL_Int.c **** {
 323              		.loc 1 234 0
 324              		.cfi_startproc
 325              	.LVL11:
 238:.\Generated_Source\PSoC4/SWL_Int.c ****     priority = (*SWL_Int_INTC_PRIOR & SWL_Int__INTC_PRIOR_MASK) >> priorityOffset;
 326              		.loc 1 238 0
 327 0000 014B     		ldr	r3, .L21
 241:.\Generated_Source\PSoC4/SWL_Int.c **** }
 328              		.loc 1 241 0
 329              		@ sp needed
 238:.\Generated_Source\PSoC4/SWL_Int.c ****     priority = (*SWL_Int_INTC_PRIOR & SWL_Int__INTC_PRIOR_MASK) >> priorityOffset;
 330              		.loc 1 238 0
 331 0002 1868     		ldr	r0, [r3]
 332              	.LVL12:
 240:.\Generated_Source\PSoC4/SWL_Int.c ****     return (uint8)priority;
 333              		.loc 1 240 0
ARM GAS  C:\Users\Admin\AppData\Local\Temp\cczbEa2T.s 			page 13


 334 0004 800F     		lsr	r0, r0, #30
 335              	.LVL13:
 241:.\Generated_Source\PSoC4/SWL_Int.c **** }
 336              		.loc 1 241 0
 337 0006 7047     		bx	lr
 338              	.L22:
 339              		.align	2
 340              	.L21:
 341 0008 00E400E0 		.word	-536812544
 342              		.cfi_endproc
 343              	.LFE7:
 344              		.size	SWL_Int_GetPriority, .-SWL_Int_GetPriority
 345              		.section	.text.SWL_Int_Enable,"ax",%progbits
 346              		.align	1
 347              		.global	SWL_Int_Enable
 348              		.code	16
 349              		.thumb_func
 350              		.type	SWL_Int_Enable, %function
 351              	SWL_Int_Enable:
 352              	.LFB8:
 259:.\Generated_Source\PSoC4/SWL_Int.c **** {
 353              		.loc 1 259 0
 354              		.cfi_startproc
 261:.\Generated_Source\PSoC4/SWL_Int.c ****     *SWL_Int_INTC_SET_EN = SWL_Int__INTC_MASK;
 355              		.loc 1 261 0
 356 0000 014B     		ldr	r3, .L24
 357 0002 0822     		mov	r2, #8
 358 0004 1A60     		str	r2, [r3]
 262:.\Generated_Source\PSoC4/SWL_Int.c **** }
 359              		.loc 1 262 0
 360              		@ sp needed
 361 0006 7047     		bx	lr
 362              	.L25:
 363              		.align	2
 364              	.L24:
 365 0008 00E100E0 		.word	-536813312
 366              		.cfi_endproc
 367              	.LFE8:
 368              		.size	SWL_Int_Enable, .-SWL_Int_Enable
 369              		.section	.text.SWL_Int_GetState,"ax",%progbits
 370              		.align	1
 371              		.global	SWL_Int_GetState
 372              		.code	16
 373              		.thumb_func
 374              		.type	SWL_Int_GetState, %function
 375              	SWL_Int_GetState:
 376              	.LFB9:
 280:.\Generated_Source\PSoC4/SWL_Int.c **** {
 377              		.loc 1 280 0
 378              		.cfi_startproc
 282:.\Generated_Source\PSoC4/SWL_Int.c ****     return ((*SWL_Int_INTC_SET_EN & (uint32)SWL_Int__INTC_MASK) != 0u) ? 1u:0u;
 379              		.loc 1 282 0
 380 0000 024B     		ldr	r3, .L27
 283:.\Generated_Source\PSoC4/SWL_Int.c **** }
 381              		.loc 1 283 0
 382              		@ sp needed
 282:.\Generated_Source\PSoC4/SWL_Int.c ****     return ((*SWL_Int_INTC_SET_EN & (uint32)SWL_Int__INTC_MASK) != 0u) ? 1u:0u;
ARM GAS  C:\Users\Admin\AppData\Local\Temp\cczbEa2T.s 			page 14


 383              		.loc 1 282 0
 384 0002 1868     		ldr	r0, [r3]
 385 0004 0007     		lsl	r0, r0, #28
 386 0006 C00F     		lsr	r0, r0, #31
 283:.\Generated_Source\PSoC4/SWL_Int.c **** }
 387              		.loc 1 283 0
 388 0008 7047     		bx	lr
 389              	.L28:
 390 000a C046     		.align	2
 391              	.L27:
 392 000c 00E100E0 		.word	-536813312
 393              		.cfi_endproc
 394              	.LFE9:
 395              		.size	SWL_Int_GetState, .-SWL_Int_GetState
 396              		.section	.text.SWL_Int_Disable,"ax",%progbits
 397              		.align	1
 398              		.global	SWL_Int_Disable
 399              		.code	16
 400              		.thumb_func
 401              		.type	SWL_Int_Disable, %function
 402              	SWL_Int_Disable:
 403              	.LFB10:
 301:.\Generated_Source\PSoC4/SWL_Int.c **** {
 404              		.loc 1 301 0
 405              		.cfi_startproc
 406              		.loc 1 303 0
 407 0000 014B     		ldr	r3, .L30
 408 0002 0822     		mov	r2, #8
 409 0004 1A60     		str	r2, [r3]
 304:.\Generated_Source\PSoC4/SWL_Int.c **** }
 410              		.loc 1 304 0
 411              		@ sp needed
 412 0006 7047     		bx	lr
 413              	.L31:
 414              		.align	2
 415              	.L30:
 416 0008 80E100E0 		.word	-536813184
 417              		.cfi_endproc
 418              	.LFE10:
 419              		.size	SWL_Int_Disable, .-SWL_Int_Disable
 420              		.section	.text.SWL_Int_SetPending,"ax",%progbits
 421              		.align	1
 422              		.global	SWL_Int_SetPending
 423              		.code	16
 424              		.thumb_func
 425              		.type	SWL_Int_SetPending, %function
 426              	SWL_Int_SetPending:
 427              	.LFB11:
 305:.\Generated_Source\PSoC4/SWL_Int.c **** 
 306:.\Generated_Source\PSoC4/SWL_Int.c **** 
 307:.\Generated_Source\PSoC4/SWL_Int.c **** /*******************************************************************************
 308:.\Generated_Source\PSoC4/SWL_Int.c **** * Function Name: SWL_Int_SetPending
 309:.\Generated_Source\PSoC4/SWL_Int.c **** ********************************************************************************
 310:.\Generated_Source\PSoC4/SWL_Int.c **** *
 311:.\Generated_Source\PSoC4/SWL_Int.c **** * Summary:
 312:.\Generated_Source\PSoC4/SWL_Int.c **** *   Causes the Interrupt to enter the pending state, a software method of
 313:.\Generated_Source\PSoC4/SWL_Int.c **** *   generating the interrupt.
ARM GAS  C:\Users\Admin\AppData\Local\Temp\cczbEa2T.s 			page 15


 314:.\Generated_Source\PSoC4/SWL_Int.c **** *
 315:.\Generated_Source\PSoC4/SWL_Int.c **** * Parameters:
 316:.\Generated_Source\PSoC4/SWL_Int.c **** *   None
 317:.\Generated_Source\PSoC4/SWL_Int.c **** *
 318:.\Generated_Source\PSoC4/SWL_Int.c **** * Return:
 319:.\Generated_Source\PSoC4/SWL_Int.c **** *   None
 320:.\Generated_Source\PSoC4/SWL_Int.c **** *
 321:.\Generated_Source\PSoC4/SWL_Int.c **** *******************************************************************************/
 322:.\Generated_Source\PSoC4/SWL_Int.c **** void SWL_Int_SetPending(void)
 323:.\Generated_Source\PSoC4/SWL_Int.c **** {
 428              		.loc 1 323 0
 429              		.cfi_startproc
 324:.\Generated_Source\PSoC4/SWL_Int.c ****     *SWL_Int_INTC_SET_PD = SWL_Int__INTC_MASK;
 430              		.loc 1 324 0
 431 0000 014B     		ldr	r3, .L33
 432 0002 0822     		mov	r2, #8
 433 0004 1A60     		str	r2, [r3]
 325:.\Generated_Source\PSoC4/SWL_Int.c **** }
 434              		.loc 1 325 0
 435              		@ sp needed
 436 0006 7047     		bx	lr
 437              	.L34:
 438              		.align	2
 439              	.L33:
 440 0008 00E200E0 		.word	-536813056
 441              		.cfi_endproc
 442              	.LFE11:
 443              		.size	SWL_Int_SetPending, .-SWL_Int_SetPending
 444              		.section	.text.SWL_Int_ClearPending,"ax",%progbits
 445              		.align	1
 446              		.global	SWL_Int_ClearPending
 447              		.code	16
 448              		.thumb_func
 449              		.type	SWL_Int_ClearPending, %function
 450              	SWL_Int_ClearPending:
 451              	.LFB12:
 326:.\Generated_Source\PSoC4/SWL_Int.c **** 
 327:.\Generated_Source\PSoC4/SWL_Int.c **** 
 328:.\Generated_Source\PSoC4/SWL_Int.c **** /*******************************************************************************
 329:.\Generated_Source\PSoC4/SWL_Int.c **** * Function Name: SWL_Int_ClearPending
 330:.\Generated_Source\PSoC4/SWL_Int.c **** ********************************************************************************
 331:.\Generated_Source\PSoC4/SWL_Int.c **** *
 332:.\Generated_Source\PSoC4/SWL_Int.c **** * Summary:
 333:.\Generated_Source\PSoC4/SWL_Int.c **** *   Clears a pending interrupt.
 334:.\Generated_Source\PSoC4/SWL_Int.c **** *
 335:.\Generated_Source\PSoC4/SWL_Int.c **** * Parameters:
 336:.\Generated_Source\PSoC4/SWL_Int.c **** *   None
 337:.\Generated_Source\PSoC4/SWL_Int.c **** *
 338:.\Generated_Source\PSoC4/SWL_Int.c **** * Return:
 339:.\Generated_Source\PSoC4/SWL_Int.c **** *   None
 340:.\Generated_Source\PSoC4/SWL_Int.c **** *
 341:.\Generated_Source\PSoC4/SWL_Int.c **** *******************************************************************************/
 342:.\Generated_Source\PSoC4/SWL_Int.c **** void SWL_Int_ClearPending(void)
 343:.\Generated_Source\PSoC4/SWL_Int.c **** {
 452              		.loc 1 343 0
 453              		.cfi_startproc
 344:.\Generated_Source\PSoC4/SWL_Int.c ****     *SWL_Int_INTC_CLR_PD = SWL_Int__INTC_MASK;
ARM GAS  C:\Users\Admin\AppData\Local\Temp\cczbEa2T.s 			page 16


 454              		.loc 1 344 0
 455 0000 014B     		ldr	r3, .L36
 456 0002 0822     		mov	r2, #8
 457 0004 1A60     		str	r2, [r3]
 345:.\Generated_Source\PSoC4/SWL_Int.c **** }
 458              		.loc 1 345 0
 459              		@ sp needed
 460 0006 7047     		bx	lr
 461              	.L37:
 462              		.align	2
 463              	.L36:
 464 0008 80E200E0 		.word	-536812928
 465              		.cfi_endproc
 466              	.LFE12:
 467              		.size	SWL_Int_ClearPending, .-SWL_Int_ClearPending
 468              		.text
 469              	.Letext0:
 470              		.file 2 ".\\Generated_Source\\PSoC4/cytypes.h"
 471              		.file 3 ".\\Generated_Source\\PSoC4/CyLib.h"