ARM GAS  C:\Users\Admin\AppData\Local\Temp\ccunGczW.s 			page 1


   1              		.cpu cortex-m0
   2              		.fpu softvfp
   3              		.eabi_attribute 20, 1
   4              		.eabi_attribute 21, 1
   5              		.eabi_attribute 23, 3
   6              		.eabi_attribute 24, 1
   7              		.eabi_attribute 25, 1
   8              		.eabi_attribute 26, 1
   9              		.eabi_attribute 30, 4
  10              		.eabi_attribute 34, 0
  11              		.eabi_attribute 18, 4
  12              		.code	16
  13              		.file	"togglelib.c"
  14              		.text
  15              	.Ltext0:
  16              		.cfi_sections	.debug_frame
  17              		.section	.text.SWB_Handler,"ax",%progbits
  18              		.align	1
  19              		.global	SWB_Handler
  20              		.code	16
  21              		.thumb_func
  22              		.type	SWB_Handler, %function
  23              	SWB_Handler:
  24              	.LFB35:
  25              		.file 1 ".\\togglelib.c"
   1:.\togglelib.c **** /* ========================================
   2:.\togglelib.c ****  *
   3:.\togglelib.c ****  * Copyright Nullify, 2016
   4:.\togglelib.c ****  * All Rights Reserved
   5:.\togglelib.c ****  * UNPUBLISHED, LICENSED SOFTWARE.
   6:.\togglelib.c ****  *
   7:.\togglelib.c ****  * CONFIDENTIAL AND PROPRIETARY INFORMATION
   8:.\togglelib.c ****  * WHICH IS THE PROPERTY OF NULLIY.
   9:.\togglelib.c ****  *
  10:.\togglelib.c ****  * ========================================
  11:.\togglelib.c **** */
  12:.\togglelib.c **** #include <project.h>
  13:.\togglelib.c **** #include <stdio.h>
  14:.\togglelib.c **** #include <time.h>
  15:.\togglelib.c **** #include <stdlib.h>
  16:.\togglelib.c **** #include "lightlib.h"
  17:.\togglelib.c **** #include "togglelib.h"
  18:.\togglelib.c **** #include "state.h"
  19:.\togglelib.c **** 
  20:.\togglelib.c **** /* Global Structures used to signal state change for badge  */
  21:.\togglelib.c **** volatile struct Magic_Toggle_Sequence Volunteer_Sequence;
  22:.\togglelib.c **** volatile struct Magic_Toggle_Sequence Organizer_Sequence;
  23:.\togglelib.c **** 
  24:.\togglelib.c **** /* Signal handler for left toggle press */
  25:.\togglelib.c **** CY_ISR( SWL_Handler ) {
  26:.\togglelib.c ****     uint8* sequance; 
  27:.\togglelib.c ****     uint8 index;
  28:.\togglelib.c ****     
  29:.\togglelib.c ****     /* Determine what state the badge is currently in */
  30:.\togglelib.c ****     switch(badge_state) {
  31:.\togglelib.c ****         case VOLUNTEER:
  32:.\togglelib.c ****             sequance = get_magic_toggle_sequance(ORGANIZER);
ARM GAS  C:\Users\Admin\AppData\Local\Temp\ccunGczW.s 			page 2


  33:.\togglelib.c ****             index = get_magic_toggle_index(ORGANIZER);
  34:.\togglelib.c ****             
  35:.\togglelib.c ****             /* Check if the toggle is the next value in the sequance */
  36:.\togglelib.c ****             if (sequance[index] == LEFT_TOGGLE) {
  37:.\togglelib.c ****                 index += 1;
  38:.\togglelib.c ****             }
  39:.\togglelib.c ****             else {
  40:.\togglelib.c ****                 index = 0;
  41:.\togglelib.c ****             }
  42:.\togglelib.c ****                    
  43:.\togglelib.c ****            /* If the sequance is found change the state of the badge */
  44:.\togglelib.c ****            if (index == strlen(sequance)){
  45:.\togglelib.c ****             badge_state = ORGANIZER;
  46:.\togglelib.c ****             PWM_Organizer_Start();
  47:.\togglelib.c ****             index = 0;
  48:.\togglelib.c ****            }
  49:.\togglelib.c ****         
  50:.\togglelib.c ****            /* Update the value in the toggle struct */
  51:.\togglelib.c ****             set_magic_toggle_index(ORGANIZER, index);
  52:.\togglelib.c ****         break;
  53:.\togglelib.c ****         case ORGANIZER:
  54:.\togglelib.c ****             sequance = get_magic_toggle_sequance(VOLUNTEER);
  55:.\togglelib.c ****             index = get_magic_toggle_index(VOLUNTEER);
  56:.\togglelib.c ****             
  57:.\togglelib.c ****             /* Check if the toggle is the next value in the sequance */
  58:.\togglelib.c ****             if (sequance[index] == LEFT_TOGGLE) {
  59:.\togglelib.c ****                 index += 1;
  60:.\togglelib.c ****             }
  61:.\togglelib.c ****             else {
  62:.\togglelib.c ****                 index = 0;
  63:.\togglelib.c ****             }
  64:.\togglelib.c ****                    
  65:.\togglelib.c ****            /* If the sequance is found change the state of the badge */
  66:.\togglelib.c ****            if (index == strlen(sequance)){
  67:.\togglelib.c ****             badge_state = VOLUNTEER;
  68:.\togglelib.c ****             PWM_Organizer_Stop();
  69:.\togglelib.c ****             turn_off(LEFT_RIGHT_LED);
  70:.\togglelib.c ****             set_color(LEFT_RIGHT_LED, GREEN);
  71:.\togglelib.c ****             turn_on(LEFT_RIGHT_LED);
  72:.\togglelib.c ****             index = 0;
  73:.\togglelib.c ****            }
  74:.\togglelib.c ****         
  75:.\togglelib.c ****            /* Update the value in the VOLUNTEER toggle struct */
  76:.\togglelib.c ****             set_magic_toggle_index(VOLUNTEER, index);
  77:.\togglelib.c ****         break;
  78:.\togglelib.c ****     }
  79:.\togglelib.c ****     
  80:.\togglelib.c ****     /* Delay for a long press and clear interrupt */
  81:.\togglelib.c ****     CyDelay(TOGGLE_DELAY);
  82:.\togglelib.c ****     SWL_ClearInterrupt();
  83:.\togglelib.c **** }
  84:.\togglelib.c **** 
  85:.\togglelib.c **** /* Signal handler for right toggle press */
  86:.\togglelib.c **** CY_ISR( SWR_Handler ) {
  87:.\togglelib.c ****     uint8* sequance; 
  88:.\togglelib.c ****     uint8 index;
  89:.\togglelib.c ****     
ARM GAS  C:\Users\Admin\AppData\Local\Temp\ccunGczW.s 			page 3


  90:.\togglelib.c ****     /* Determine what state the badge is currently in */
  91:.\togglelib.c ****     switch(badge_state) {
  92:.\togglelib.c ****         case VOLUNTEER:
  93:.\togglelib.c ****             sequance = get_magic_toggle_sequance(ORGANIZER);
  94:.\togglelib.c ****             index = get_magic_toggle_index(ORGANIZER);
  95:.\togglelib.c ****             
  96:.\togglelib.c ****             /* Check if the toggle is the next value in the sequance */
  97:.\togglelib.c ****             if (sequance[index] == RIGHT_TOGGLE) {
  98:.\togglelib.c ****                 index += 1;
  99:.\togglelib.c ****             }
 100:.\togglelib.c ****             else {
 101:.\togglelib.c ****                 index = 0;
 102:.\togglelib.c ****             }
 103:.\togglelib.c ****                    
 104:.\togglelib.c ****            /* If the sequance is found change the state of the badge */
 105:.\togglelib.c ****            if (index == strlen(sequance)){
 106:.\togglelib.c ****             badge_state = ORGANIZER;
 107:.\togglelib.c ****             PWM_Organizer_Start();
 108:.\togglelib.c ****             index = 0;
 109:.\togglelib.c ****            }
 110:.\togglelib.c ****         
 111:.\togglelib.c ****            /* Update the value in the toggle struct */
 112:.\togglelib.c ****             set_magic_toggle_index(ORGANIZER, index);
 113:.\togglelib.c ****         break;
 114:.\togglelib.c ****         case ORGANIZER:
 115:.\togglelib.c ****             sequance = get_magic_toggle_sequance(VOLUNTEER);
 116:.\togglelib.c ****             index = get_magic_toggle_index(VOLUNTEER);
 117:.\togglelib.c ****             
 118:.\togglelib.c ****             /* Check if the toggle is the next value in the sequance */
 119:.\togglelib.c ****             if (sequance[index] == RIGHT_TOGGLE) {
 120:.\togglelib.c ****                 index += 1;
 121:.\togglelib.c ****             }
 122:.\togglelib.c ****             else {
 123:.\togglelib.c ****                 index = 0;
 124:.\togglelib.c ****             }
 125:.\togglelib.c ****                    
 126:.\togglelib.c ****            /* If the sequance is found change the state of the badge */
 127:.\togglelib.c ****            if (index == strlen(sequance)){
 128:.\togglelib.c ****             badge_state = VOLUNTEER;
 129:.\togglelib.c ****             PWM_Organizer_Stop();
 130:.\togglelib.c ****             turn_off(LEFT_RIGHT_LED);
 131:.\togglelib.c ****             set_color(LEFT_RIGHT_LED, GREEN);
 132:.\togglelib.c ****             turn_on(LEFT_RIGHT_LED);
 133:.\togglelib.c ****             index = 0;
 134:.\togglelib.c ****            }
 135:.\togglelib.c ****         
 136:.\togglelib.c ****            /* Update the value in the VOLUNTEER toggle struct */
 137:.\togglelib.c ****             set_magic_toggle_index(VOLUNTEER, index);
 138:.\togglelib.c ****         break;
 139:.\togglelib.c ****     }
 140:.\togglelib.c ****     
 141:.\togglelib.c ****     /* Delay for a long press and clear interrupt */
 142:.\togglelib.c ****     CyDelay(TOGGLE_DELAY);
 143:.\togglelib.c ****     SWR_ClearInterrupt();
 144:.\togglelib.c **** }
 145:.\togglelib.c **** 
 146:.\togglelib.c **** /* Signal handler for on board toggle press */
ARM GAS  C:\Users\Admin\AppData\Local\Temp\ccunGczW.s 			page 4


 147:.\togglelib.c **** CY_ISR( SWB_Handler ) {
  26              		.loc 1 147 0
  27              		.cfi_startproc
  28 0000 08B5     		push	{r3, lr}
  29              		.cfi_def_cfa_offset 8
  30              		.cfi_offset 3, -8
  31              		.cfi_offset 14, -4
 148:.\togglelib.c ****     /* Flip IR Status */
 149:.\togglelib.c ****     if (get_status(IR_LED) == OFF) {
  32              		.loc 1 149 0
  33 0002 0420     		mov	r0, #4
  34 0004 FFF7FEFF 		bl	get_status
  35              	.LVL0:
  36 0008 0028     		cmp	r0, #0
  37 000a 03D1     		bne	.L2
 150:.\togglelib.c ****         turn_on(IR_LED);
  38              		.loc 1 150 0
  39 000c 0420     		mov	r0, #4
  40 000e FFF7FEFF 		bl	turn_on
  41              	.LVL1:
  42 0012 02E0     		b	.L3
  43              	.L2:
 151:.\togglelib.c ****     } 
 152:.\togglelib.c ****     else {
 153:.\togglelib.c ****          turn_off(IR_LED);
  44              		.loc 1 153 0
  45 0014 0420     		mov	r0, #4
  46 0016 FFF7FEFF 		bl	turn_off
  47              	.LVL2:
  48              	.L3:
 154:.\togglelib.c ****     }
 155:.\togglelib.c ****     
 156:.\togglelib.c ****     if (get_status(BOARD_LED) == OFF) {
  49              		.loc 1 156 0
  50 001a 0520     		mov	r0, #5
  51 001c FFF7FEFF 		bl	get_status
  52              	.LVL3:
  53 0020 0028     		cmp	r0, #0
  54 0022 03D1     		bne	.L4
 157:.\togglelib.c ****         turn_on(BOARD_LED);
  55              		.loc 1 157 0
  56 0024 0520     		mov	r0, #5
  57 0026 FFF7FEFF 		bl	turn_on
  58              	.LVL4:
  59 002a 02E0     		b	.L5
  60              	.L4:
 158:.\togglelib.c ****     } 
 159:.\togglelib.c ****     else {
 160:.\togglelib.c ****          turn_off(BOARD_LED);
  61              		.loc 1 160 0
  62 002c 0520     		mov	r0, #5
  63 002e FFF7FEFF 		bl	turn_off
  64              	.LVL5:
  65              	.L5:
 161:.\togglelib.c ****     }
 162:.\togglelib.c ****     
 163:.\togglelib.c **** 
ARM GAS  C:\Users\Admin\AppData\Local\Temp\ccunGczW.s 			page 5


 164:.\togglelib.c ****     /* Clear interrupt */
 165:.\togglelib.c ****     SWB_ClearInterrupt();
  66              		.loc 1 165 0
  67 0032 FFF7FEFF 		bl	SWB_ClearInterrupt
  68              	.LVL6:
 166:.\togglelib.c **** }
  69              		.loc 1 166 0
  70              		@ sp needed
  71 0036 08BD     		pop	{r3, pc}
  72              		.cfi_endproc
  73              	.LFE35:
  74              		.size	SWB_Handler, .-SWB_Handler
  75              		.global	__aeabi_idivmod
  76              		.section	.text.ORG_Handler,"ax",%progbits
  77              		.align	1
  78              		.global	ORG_Handler
  79              		.code	16
  80              		.thumb_func
  81              		.type	ORG_Handler, %function
  82              	ORG_Handler:
  83              	.LFB36:
 167:.\togglelib.c **** 
 168:.\togglelib.c **** /* Signal handler for organizer lights */
 169:.\togglelib.c **** CY_ISR( ORG_Handler ) {
  84              		.loc 1 169 0
  85              		.cfi_startproc
  86 0000 F8B5     		push	{r3, r4, r5, r6, r7, lr}
  87              		.cfi_def_cfa_offset 24
  88              		.cfi_offset 3, -24
  89              		.cfi_offset 4, -20
  90              		.cfi_offset 5, -16
  91              		.cfi_offset 6, -12
  92              		.cfi_offset 7, -8
  93              		.cfi_offset 14, -4
 170:.\togglelib.c ****     /* */
 171:.\togglelib.c ****     uint8 current_color_left = get_color(LEFT_LED);
  94              		.loc 1 171 0
  95 0002 0120     		mov	r0, #1
  96 0004 FFF7FEFF 		bl	get_color
  97              	.LVL7:
  98 0008 071C     		mov	r7, r0
  99              	.LVL8:
 172:.\togglelib.c ****     uint8 current_color_right = get_color(RIGHT_LED);
 100              		.loc 1 172 0
 101 000a 0220     		mov	r0, #2
 102              	.LVL9:
 103 000c FFF7FEFF 		bl	get_color
 104              	.LVL10:
 105 0010 061C     		mov	r6, r0
 106              	.LVL11:
 173:.\togglelib.c ****     uint32 rand_num_left = (rand() % 7) + 1;
 107              		.loc 1 173 0
 108 0012 FFF7FEFF 		bl	rand
 109              	.LVL12:
 110 0016 0721     		mov	r1, #7
 111 0018 FFF7FEFF 		bl	__aeabi_idivmod
 112              	.LVL13:
ARM GAS  C:\Users\Admin\AppData\Local\Temp\ccunGczW.s 			page 6


 113 001c 4D1C     		add	r5, r1, #1
 114              	.LVL14:
 174:.\togglelib.c ****     uint32 rand_num_right = (rand() % 7) + 1;
 115              		.loc 1 174 0
 116 001e FFF7FEFF 		bl	rand
 117              	.LVL15:
 118 0022 0721     		mov	r1, #7
 119 0024 FFF7FEFF 		bl	__aeabi_idivmod
 120              	.LVL16:
 121 0028 4C1C     		add	r4, r1, #1
 122              	.LVL17:
 123              	.L8:
 175:.\togglelib.c ****     
 176:.\togglelib.c ****     while (current_color_left == rand_num_left){
 124              		.loc 1 176 0 discriminator 1
 125 002a AF42     		cmp	r7, r5
 126 002c 06D1     		bne	.L10
 177:.\togglelib.c ****         rand_num_left = (rand() % 7) + 1;
 127              		.loc 1 177 0
 128 002e FFF7FEFF 		bl	rand
 129              	.LVL18:
 130 0032 0721     		mov	r1, #7
 131 0034 FFF7FEFF 		bl	__aeabi_idivmod
 132              	.LVL19:
 133 0038 4D1C     		add	r5, r1, #1
 134              	.LVL20:
 135 003a F6E7     		b	.L8
 136              	.L10:
 178:.\togglelib.c ****     }
 179:.\togglelib.c ****     
 180:.\togglelib.c ****    while (current_color_right == rand_num_right){
 137              		.loc 1 180 0 discriminator 1
 138 003c A642     		cmp	r6, r4
 139 003e 06D1     		bne	.L12
 181:.\togglelib.c ****         rand_num_right = (rand() % 7) + 1;
 140              		.loc 1 181 0
 141 0040 FFF7FEFF 		bl	rand
 142              	.LVL21:
 143 0044 0721     		mov	r1, #7
 144 0046 FFF7FEFF 		bl	__aeabi_idivmod
 145              	.LVL22:
 146 004a 4C1C     		add	r4, r1, #1
 147              	.LVL23:
 148 004c F6E7     		b	.L10
 149              	.L12:
 182:.\togglelib.c ****     }
 183:.\togglelib.c ****     
 184:.\togglelib.c ****     set_color(LEFT_LED, rand_num_left);
 150              		.loc 1 184 0
 151 004e E9B2     		uxtb	r1, r5
 152 0050 0120     		mov	r0, #1
 153 0052 FFF7FEFF 		bl	set_color
 154              	.LVL24:
 185:.\togglelib.c ****     set_color(RIGHT_LED, rand_num_right);
 155              		.loc 1 185 0
 156 0056 E1B2     		uxtb	r1, r4
 157 0058 0220     		mov	r0, #2
ARM GAS  C:\Users\Admin\AppData\Local\Temp\ccunGczW.s 			page 7


 158 005a FFF7FEFF 		bl	set_color
 159              	.LVL25:
 186:.\togglelib.c ****     turn_off(LEFT_RIGHT_LED);
 160              		.loc 1 186 0
 161 005e 0320     		mov	r0, #3
 162 0060 FFF7FEFF 		bl	turn_off
 163              	.LVL26:
 187:.\togglelib.c ****     turn_on(LEFT_RIGHT_LED);
 164              		.loc 1 187 0
 165 0064 0320     		mov	r0, #3
 166 0066 FFF7FEFF 		bl	turn_on
 167              	.LVL27:
 188:.\togglelib.c ****     
 189:.\togglelib.c ****     ORG_Int_ClearPending();
 190:.\togglelib.c ****     PWM_Organizer_ReadStatusRegister();
 191:.\togglelib.c **** }
 168              		.loc 1 191 0
 169              		@ sp needed
 189:.\togglelib.c ****     ORG_Int_ClearPending();
 170              		.loc 1 189 0
 171 006a FFF7FEFF 		bl	ORG_Int_ClearPending
 172              	.LVL28:
 190:.\togglelib.c ****     PWM_Organizer_ReadStatusRegister();
 173              		.loc 1 190 0
 174 006e FFF7FEFF 		bl	PWM_Organizer_ReadStatusRegister
 175              	.LVL29:
 176              	.LVL30:
 177              	.LVL31:
 178              	.LVL32:
 179              	.LVL33:
 180              		.loc 1 191 0
 181 0072 F8BD     		pop	{r3, r4, r5, r6, r7, pc}
 182              		.cfi_endproc
 183              	.LFE36:
 184              		.size	ORG_Handler, .-ORG_Handler
 185              		.section	.text.SWL_Handler,"ax",%progbits
 186              		.align	1
 187              		.global	SWL_Handler
 188              		.code	16
 189              		.thumb_func
 190              		.type	SWL_Handler, %function
 191              	SWL_Handler:
 192              	.LFB33:
  25:.\togglelib.c **** CY_ISR( SWL_Handler ) {
 193              		.loc 1 25 0
 194              		.cfi_startproc
 195 0000 70B5     		push	{r4, r5, r6, lr}
 196              		.cfi_def_cfa_offset 16
 197              		.cfi_offset 4, -16
 198              		.cfi_offset 5, -12
 199              		.cfi_offset 6, -8
 200              		.cfi_offset 14, -4
  30:.\togglelib.c ****     switch(badge_state) {
 201              		.loc 1 30 0
 202 0002 204D     		ldr	r5, .L24
 203 0004 2B78     		ldrb	r3, [r5]
 204 0006 DBB2     		uxtb	r3, r3
ARM GAS  C:\Users\Admin\AppData\Local\Temp\ccunGczW.s 			page 8


 205 0008 012B     		cmp	r3, #1
 206 000a 02D0     		beq	.L15
 207 000c 022B     		cmp	r3, #2
 208 000e 14D0     		beq	.L16
 209 0010 32E0     		b	.L14
 210              	.L15:
 211              	.LVL34:
 212              	.LBB14:
 213              	.LBB15:
 192:.\togglelib.c **** 
 193:.\togglelib.c **** /* Sets the magic toogle sequence of the global toggle state change structure */
 194:.\togglelib.c **** void set_magic_toggle_sequance(uint8 state_flag, uint8* sequance) {
 195:.\togglelib.c ****     switch(state_flag) {
 196:.\togglelib.c ****         case VOLUNTEER:
 197:.\togglelib.c ****             memmove(Volunteer_Sequence.sequance, sequance, MAX_SEQUENCE_SIZE);
 198:.\togglelib.c ****         break;
 199:.\togglelib.c ****         case ORGANIZER:
 200:.\togglelib.c ****             memmove(Organizer_Sequence.sequance, sequance, MAX_SEQUENCE_SIZE);
 201:.\togglelib.c ****         break;
 202:.\togglelib.c ****     }   
 203:.\togglelib.c ****     
 204:.\togglelib.c **** }
 205:.\togglelib.c **** 
 206:.\togglelib.c **** /* Gets the magic toogle sequence of the global toggle state change structure */
 207:.\togglelib.c **** uint8* get_magic_toggle_sequance(uint8 state_flag) {
 208:.\togglelib.c ****     switch(state_flag) {
 209:.\togglelib.c ****         case VOLUNTEER:
 210:.\togglelib.c ****             return Volunteer_Sequence.sequance;
 211:.\togglelib.c ****         break;
 212:.\togglelib.c ****         case ORGANIZER:
 213:.\togglelib.c ****              return Organizer_Sequence.sequance;
 214:.\togglelib.c ****         break;
 215:.\togglelib.c ****     }
 216:.\togglelib.c ****     return NULL;
 217:.\togglelib.c **** }
 218:.\togglelib.c **** 
 219:.\togglelib.c **** /* Sets the index of the magic toogle sequence of the global toggle state change structure */
 220:.\togglelib.c **** void set_magic_toggle_index(uint8 state_flag, uint8 value) {
 221:.\togglelib.c ****     switch(state_flag) {
 222:.\togglelib.c ****         case VOLUNTEER:
 223:.\togglelib.c ****             Volunteer_Sequence.index = value;
 224:.\togglelib.c ****         break;
 225:.\togglelib.c ****         case ORGANIZER:
 226:.\togglelib.c ****             Organizer_Sequence.index = value;
 227:.\togglelib.c ****         break;
 228:.\togglelib.c ****     }
 229:.\togglelib.c **** }
 230:.\togglelib.c **** 
 231:.\togglelib.c **** /* Gets the index of the magic toogle sequence of the global toggle state change structure */
 232:.\togglelib.c **** uint8 get_magic_toggle_index(uint8 state_flag) {
 233:.\togglelib.c ****         switch(state_flag) {
 234:.\togglelib.c ****         case VOLUNTEER:
 235:.\togglelib.c ****             return Volunteer_Sequence.index;
 236:.\togglelib.c ****         break;
 237:.\togglelib.c ****         case ORGANIZER:
 238:.\togglelib.c ****             return Organizer_Sequence.index;
 214              		.loc 1 238 0
ARM GAS  C:\Users\Admin\AppData\Local\Temp\ccunGczW.s 			page 9


 215 0012 1D48     		ldr	r0, .L24+4
 216              	.LBE15:
 217              	.LBE14:
  40:.\togglelib.c ****                 index = 0;
 218              		.loc 1 40 0
 219 0014 0024     		mov	r4, #0
 220              	.LBB17:
 221              	.LBB16:
 222              		.loc 1 238 0
 223 0016 037D     		ldrb	r3, [r0, #20]
 224 0018 061C     		mov	r6, r0
 225 001a DBB2     		uxtb	r3, r3
 226              	.LBE16:
 227              	.LBE17:
  36:.\togglelib.c ****             if (sequance[index] == LEFT_TOGGLE) {
 228              		.loc 1 36 0
 229 001c C25C     		ldrb	r2, [r0, r3]
 230 001e 012A     		cmp	r2, #1
 231 0020 01D1     		bne	.L17
  37:.\togglelib.c ****                 index += 1;
 232              		.loc 1 37 0
 233 0022 5C1C     		add	r4, r3, #1
 234 0024 E4B2     		uxtb	r4, r4
 235              	.LVL35:
 236              	.L17:
  44:.\togglelib.c ****            if (index == strlen(sequance)){
 237              		.loc 1 44 0
 238 0026 301C     		mov	r0, r6
 239 0028 FFF7FEFF 		bl	strlen
 240              	.LVL36:
 241 002c 8442     		cmp	r4, r0
 242 002e 22D1     		bne	.L20
  45:.\togglelib.c ****             badge_state = ORGANIZER;
 243              		.loc 1 45 0
 244 0030 0223     		mov	r3, #2
 245 0032 2B70     		strb	r3, [r5]
  46:.\togglelib.c ****             PWM_Organizer_Start();
 246              		.loc 1 46 0
 247 0034 FFF7FEFF 		bl	PWM_Organizer_Start
 248              	.LVL37:
 249 0038 1CE0     		b	.L23
 250              	.LVL38:
 251              	.L16:
 252              	.LBB18:
 253              	.LBB19:
 235:.\togglelib.c ****             return Volunteer_Sequence.index;
 254              		.loc 1 235 0
 255 003a 1448     		ldr	r0, .L24+8
 256              	.LBE19:
 257              	.LBE18:
  62:.\togglelib.c ****                 index = 0;
 258              		.loc 1 62 0
 259 003c 0024     		mov	r4, #0
 260              	.LBB21:
 261              	.LBB20:
 235:.\togglelib.c ****             return Volunteer_Sequence.index;
 262              		.loc 1 235 0
ARM GAS  C:\Users\Admin\AppData\Local\Temp\ccunGczW.s 			page 10


 263 003e 037D     		ldrb	r3, [r0, #20]
 264 0040 061C     		mov	r6, r0
 265 0042 DBB2     		uxtb	r3, r3
 266              	.LBE20:
 267              	.LBE21:
  58:.\togglelib.c ****             if (sequance[index] == LEFT_TOGGLE) {
 268              		.loc 1 58 0
 269 0044 C25C     		ldrb	r2, [r0, r3]
 270 0046 012A     		cmp	r2, #1
 271 0048 01D1     		bne	.L19
  59:.\togglelib.c ****                 index += 1;
 272              		.loc 1 59 0
 273 004a 5C1C     		add	r4, r3, #1
 274 004c E4B2     		uxtb	r4, r4
 275              	.LVL39:
 276              	.L19:
  66:.\togglelib.c ****            if (index == strlen(sequance)){
 277              		.loc 1 66 0
 278 004e 301C     		mov	r0, r6
 279 0050 FFF7FEFF 		bl	strlen
 280              	.LVL40:
 281 0054 8442     		cmp	r4, r0
 282 0056 0ED1     		bne	.L20
  67:.\togglelib.c ****             badge_state = VOLUNTEER;
 283              		.loc 1 67 0
 284 0058 0123     		mov	r3, #1
 285 005a 2B70     		strb	r3, [r5]
  68:.\togglelib.c ****             PWM_Organizer_Stop();
 286              		.loc 1 68 0
 287 005c FFF7FEFF 		bl	PWM_Organizer_Stop
 288              	.LVL41:
  69:.\togglelib.c ****             turn_off(LEFT_RIGHT_LED);
 289              		.loc 1 69 0
 290 0060 0320     		mov	r0, #3
 291 0062 FFF7FEFF 		bl	turn_off
 292              	.LVL42:
  70:.\togglelib.c ****             set_color(LEFT_RIGHT_LED, GREEN);
 293              		.loc 1 70 0
 294 0066 0320     		mov	r0, #3
 295 0068 0421     		mov	r1, #4
 296 006a FFF7FEFF 		bl	set_color
 297              	.LVL43:
  71:.\togglelib.c ****             turn_on(LEFT_RIGHT_LED);
 298              		.loc 1 71 0
 299 006e 0320     		mov	r0, #3
 300 0070 FFF7FEFF 		bl	turn_on
 301              	.LVL44:
 302              	.L23:
  72:.\togglelib.c ****             index = 0;
 303              		.loc 1 72 0
 304 0074 0024     		mov	r4, #0
 305              	.LVL45:
 306              	.L20:
 307              	.LBB22:
 308              	.LBB23:
 223:.\togglelib.c ****             Volunteer_Sequence.index = value;
 309              		.loc 1 223 0
ARM GAS  C:\Users\Admin\AppData\Local\Temp\ccunGczW.s 			page 11


 310 0076 3475     		strb	r4, [r6, #20]
 311              	.LVL46:
 312              	.L14:
 313              	.LBE23:
 314              	.LBE22:
  81:.\togglelib.c ****     CyDelay(TOGGLE_DELAY);
 315              		.loc 1 81 0
 316 0078 9620     		mov	r0, #150
 317 007a FFF7FEFF 		bl	CyDelay
 318              	.LVL47:
  83:.\togglelib.c **** }
 319              		.loc 1 83 0
 320              		@ sp needed
  82:.\togglelib.c ****     SWL_ClearInterrupt();
 321              		.loc 1 82 0
 322 007e FFF7FEFF 		bl	SWL_ClearInterrupt
 323              	.LVL48:
  83:.\togglelib.c **** }
 324              		.loc 1 83 0
 325 0082 70BD     		pop	{r4, r5, r6, pc}
 326              	.L25:
 327              		.align	2
 328              	.L24:
 329 0084 00000000 		.word	badge_state
 330 0088 00000000 		.word	Organizer_Sequence
 331 008c 00000000 		.word	Volunteer_Sequence
 332              		.cfi_endproc
 333              	.LFE33:
 334              		.size	SWL_Handler, .-SWL_Handler
 335              		.section	.text.SWR_Handler,"ax",%progbits
 336              		.align	1
 337              		.global	SWR_Handler
 338              		.code	16
 339              		.thumb_func
 340              		.type	SWR_Handler, %function
 341              	SWR_Handler:
 342              	.LFB34:
  86:.\togglelib.c **** CY_ISR( SWR_Handler ) {
 343              		.loc 1 86 0
 344              		.cfi_startproc
 345 0000 70B5     		push	{r4, r5, r6, lr}
 346              		.cfi_def_cfa_offset 16
 347              		.cfi_offset 4, -16
 348              		.cfi_offset 5, -12
 349              		.cfi_offset 6, -8
 350              		.cfi_offset 14, -4
  91:.\togglelib.c ****     switch(badge_state) {
 351              		.loc 1 91 0
 352 0002 204D     		ldr	r5, .L37
 353 0004 2B78     		ldrb	r3, [r5]
 354 0006 DBB2     		uxtb	r3, r3
 355 0008 012B     		cmp	r3, #1
 356 000a 02D0     		beq	.L28
 357 000c 022B     		cmp	r3, #2
 358 000e 14D0     		beq	.L29
 359 0010 32E0     		b	.L27
 360              	.L28:
ARM GAS  C:\Users\Admin\AppData\Local\Temp\ccunGczW.s 			page 12


 361              	.LVL49:
 362              	.LBB36:
 363              	.LBB37:
 364              		.loc 1 238 0
 365 0012 1D48     		ldr	r0, .L37+4
 366              	.LBE37:
 367              	.LBE36:
 101:.\togglelib.c ****                 index = 0;
 368              		.loc 1 101 0
 369 0014 0024     		mov	r4, #0
 370              	.LBB39:
 371              	.LBB38:
 372              		.loc 1 238 0
 373 0016 037D     		ldrb	r3, [r0, #20]
 374 0018 061C     		mov	r6, r0
 375 001a DBB2     		uxtb	r3, r3
 376              	.LBE38:
 377              	.LBE39:
  97:.\togglelib.c ****             if (sequance[index] == RIGHT_TOGGLE) {
 378              		.loc 1 97 0
 379 001c C25C     		ldrb	r2, [r0, r3]
 380 001e 022A     		cmp	r2, #2
 381 0020 01D1     		bne	.L30
  98:.\togglelib.c ****                 index += 1;
 382              		.loc 1 98 0
 383 0022 5C1C     		add	r4, r3, #1
 384 0024 E4B2     		uxtb	r4, r4
 385              	.LVL50:
 386              	.L30:
 105:.\togglelib.c ****            if (index == strlen(sequance)){
 387              		.loc 1 105 0
 388 0026 301C     		mov	r0, r6
 389 0028 FFF7FEFF 		bl	strlen
 390              	.LVL51:
 391 002c 8442     		cmp	r4, r0
 392 002e 22D1     		bne	.L33
 106:.\togglelib.c ****             badge_state = ORGANIZER;
 393              		.loc 1 106 0
 394 0030 0223     		mov	r3, #2
 395 0032 2B70     		strb	r3, [r5]
 107:.\togglelib.c ****             PWM_Organizer_Start();
 396              		.loc 1 107 0
 397 0034 FFF7FEFF 		bl	PWM_Organizer_Start
 398              	.LVL52:
 399 0038 1CE0     		b	.L36
 400              	.LVL53:
 401              	.L29:
 402              	.LBB40:
 403              	.LBB41:
 235:.\togglelib.c ****             return Volunteer_Sequence.index;
 404              		.loc 1 235 0
 405 003a 1448     		ldr	r0, .L37+8
 406              	.LBE41:
 407              	.LBE40:
 123:.\togglelib.c ****                 index = 0;
 408              		.loc 1 123 0
 409 003c 0024     		mov	r4, #0
ARM GAS  C:\Users\Admin\AppData\Local\Temp\ccunGczW.s 			page 13


 410              	.LBB43:
 411              	.LBB42:
 235:.\togglelib.c ****             return Volunteer_Sequence.index;
 412              		.loc 1 235 0
 413 003e 037D     		ldrb	r3, [r0, #20]
 414 0040 061C     		mov	r6, r0
 415 0042 DBB2     		uxtb	r3, r3
 416              	.LBE42:
 417              	.LBE43:
 119:.\togglelib.c ****             if (sequance[index] == RIGHT_TOGGLE) {
 418              		.loc 1 119 0
 419 0044 C25C     		ldrb	r2, [r0, r3]
 420 0046 022A     		cmp	r2, #2
 421 0048 01D1     		bne	.L32
 120:.\togglelib.c ****                 index += 1;
 422              		.loc 1 120 0
 423 004a 5C1C     		add	r4, r3, #1
 424 004c E4B2     		uxtb	r4, r4
 425              	.LVL54:
 426              	.L32:
 127:.\togglelib.c ****            if (index == strlen(sequance)){
 427              		.loc 1 127 0
 428 004e 301C     		mov	r0, r6
 429 0050 FFF7FEFF 		bl	strlen
 430              	.LVL55:
 431 0054 8442     		cmp	r4, r0
 432 0056 0ED1     		bne	.L33
 128:.\togglelib.c ****             badge_state = VOLUNTEER;
 433              		.loc 1 128 0
 434 0058 0123     		mov	r3, #1
 435 005a 2B70     		strb	r3, [r5]
 129:.\togglelib.c ****             PWM_Organizer_Stop();
 436              		.loc 1 129 0
 437 005c FFF7FEFF 		bl	PWM_Organizer_Stop
 438              	.LVL56:
 130:.\togglelib.c ****             turn_off(LEFT_RIGHT_LED);
 439              		.loc 1 130 0
 440 0060 0320     		mov	r0, #3
 441 0062 FFF7FEFF 		bl	turn_off
 442              	.LVL57:
 131:.\togglelib.c ****             set_color(LEFT_RIGHT_LED, GREEN);
 443              		.loc 1 131 0
 444 0066 0320     		mov	r0, #3
 445 0068 0421     		mov	r1, #4
 446 006a FFF7FEFF 		bl	set_color
 447              	.LVL58:
 132:.\togglelib.c ****             turn_on(LEFT_RIGHT_LED);
 448              		.loc 1 132 0
 449 006e 0320     		mov	r0, #3
 450 0070 FFF7FEFF 		bl	turn_on
 451              	.LVL59:
 452              	.L36:
 133:.\togglelib.c ****             index = 0;
 453              		.loc 1 133 0
 454 0074 0024     		mov	r4, #0
 455              	.LVL60:
 456              	.L33:
ARM GAS  C:\Users\Admin\AppData\Local\Temp\ccunGczW.s 			page 14


 457              	.LBB44:
 458              	.LBB45:
 223:.\togglelib.c ****             Volunteer_Sequence.index = value;
 459              		.loc 1 223 0
 460 0076 3475     		strb	r4, [r6, #20]
 461              	.LVL61:
 462              	.L27:
 463              	.LBE45:
 464              	.LBE44:
 142:.\togglelib.c ****     CyDelay(TOGGLE_DELAY);
 465              		.loc 1 142 0
 466 0078 9620     		mov	r0, #150
 467 007a FFF7FEFF 		bl	CyDelay
 468              	.LVL62:
 144:.\togglelib.c **** }
 469              		.loc 1 144 0
 470              		@ sp needed
 143:.\togglelib.c ****     SWR_ClearInterrupt();
 471              		.loc 1 143 0
 472 007e FFF7FEFF 		bl	SWR_ClearInterrupt
 473              	.LVL63:
 144:.\togglelib.c **** }
 474              		.loc 1 144 0
 475 0082 70BD     		pop	{r4, r5, r6, pc}
 476              	.L38:
 477              		.align	2
 478              	.L37:
 479 0084 00000000 		.word	badge_state
 480 0088 00000000 		.word	Organizer_Sequence
 481 008c 00000000 		.word	Volunteer_Sequence
 482              		.cfi_endproc
 483              	.LFE34:
 484              		.size	SWR_Handler, .-SWR_Handler
 485              		.section	.text.set_magic_toggle_sequance,"ax",%progbits
 486              		.align	1
 487              		.global	set_magic_toggle_sequance
 488              		.code	16
 489              		.thumb_func
 490              		.type	set_magic_toggle_sequance, %function
 491              	set_magic_toggle_sequance:
 492              	.LFB37:
 194:.\togglelib.c **** void set_magic_toggle_sequance(uint8 state_flag, uint8* sequance) {
 493              		.loc 1 194 0
 494              		.cfi_startproc
 495              	.LVL64:
 496 0000 08B5     		push	{r3, lr}
 497              		.cfi_def_cfa_offset 8
 498              		.cfi_offset 3, -8
 499              		.cfi_offset 14, -4
 195:.\togglelib.c ****     switch(state_flag) {
 500              		.loc 1 195 0
 501 0002 0128     		cmp	r0, #1
 502 0004 03D0     		beq	.L41
 503 0006 0228     		cmp	r0, #2
 504 0008 05D1     		bne	.L39
 200:.\togglelib.c ****             memmove(Organizer_Sequence.sequance, sequance, MAX_SEQUENCE_SIZE);
 505              		.loc 1 200 0
ARM GAS  C:\Users\Admin\AppData\Local\Temp\ccunGczW.s 			page 15


 506 000a 0348     		ldr	r0, .L44
 507              	.LVL65:
 508 000c 00E0     		b	.L43
 509              	.LVL66:
 510              	.L41:
 197:.\togglelib.c ****             memmove(Volunteer_Sequence.sequance, sequance, MAX_SEQUENCE_SIZE);
 511              		.loc 1 197 0
 512 000e 0348     		ldr	r0, .L44+4
 513              	.LVL67:
 514              	.L43:
 200:.\togglelib.c ****             memmove(Organizer_Sequence.sequance, sequance, MAX_SEQUENCE_SIZE);
 515              		.loc 1 200 0
 516 0010 1422     		mov	r2, #20
 517 0012 FFF7FEFF 		bl	memmove
 518              	.LVL68:
 519              	.L39:
 204:.\togglelib.c **** }
 520              		.loc 1 204 0
 521              		@ sp needed
 522 0016 08BD     		pop	{r3, pc}
 523              	.L45:
 524              		.align	2
 525              	.L44:
 526 0018 00000000 		.word	Organizer_Sequence
 527 001c 00000000 		.word	Volunteer_Sequence
 528              		.cfi_endproc
 529              	.LFE37:
 530              		.size	set_magic_toggle_sequance, .-set_magic_toggle_sequance
 531              		.section	.text.get_magic_toggle_sequance,"ax",%progbits
 532              		.align	1
 533              		.global	get_magic_toggle_sequance
 534              		.code	16
 535              		.thumb_func
 536              		.type	get_magic_toggle_sequance, %function
 537              	get_magic_toggle_sequance:
 538              	.LFB38:
 207:.\togglelib.c **** uint8* get_magic_toggle_sequance(uint8 state_flag) {
 539              		.loc 1 207 0
 540              		.cfi_startproc
 541              	.LVL69:
 208:.\togglelib.c ****     switch(state_flag) {
 542              		.loc 1 208 0
 543 0000 0128     		cmp	r0, #1
 544 0002 03D0     		beq	.L48
 545 0004 0228     		cmp	r0, #2
 546 0006 03D0     		beq	.L50
 216:.\togglelib.c ****     return NULL;
 547              		.loc 1 216 0
 548 0008 0020     		mov	r0, #0
 549              	.LVL70:
 550 000a 02E0     		b	.L49
 551              	.LVL71:
 552              	.L48:
 210:.\togglelib.c ****             return Volunteer_Sequence.sequance;
 553              		.loc 1 210 0
 554 000c 0148     		ldr	r0, .L52
 555              	.LVL72:
ARM GAS  C:\Users\Admin\AppData\Local\Temp\ccunGczW.s 			page 16


 556 000e 00E0     		b	.L49
 557              	.LVL73:
 558              	.L50:
 213:.\togglelib.c ****              return Organizer_Sequence.sequance;
 559              		.loc 1 213 0
 560 0010 0148     		ldr	r0, .L52+4
 561              	.LVL74:
 562              	.L49:
 217:.\togglelib.c **** }
 563              		.loc 1 217 0
 564              		@ sp needed
 565 0012 7047     		bx	lr
 566              	.L53:
 567              		.align	2
 568              	.L52:
 569 0014 00000000 		.word	Volunteer_Sequence
 570 0018 00000000 		.word	Organizer_Sequence
 571              		.cfi_endproc
 572              	.LFE38:
 573              		.size	get_magic_toggle_sequance, .-get_magic_toggle_sequance
 574              		.section	.text.set_magic_toggle_index,"ax",%progbits
 575              		.align	1
 576              		.global	set_magic_toggle_index
 577              		.code	16
 578              		.thumb_func
 579              		.type	set_magic_toggle_index, %function
 580              	set_magic_toggle_index:
 581              	.LFB39:
 220:.\togglelib.c **** void set_magic_toggle_index(uint8 state_flag, uint8 value) {
 582              		.loc 1 220 0
 583              		.cfi_startproc
 584              	.LVL75:
 221:.\togglelib.c ****     switch(state_flag) {
 585              		.loc 1 221 0
 586 0000 0128     		cmp	r0, #1
 587 0002 03D0     		beq	.L56
 588 0004 0228     		cmp	r0, #2
 589 0006 03D1     		bne	.L54
 226:.\togglelib.c ****             Organizer_Sequence.index = value;
 590              		.loc 1 226 0
 591 0008 024B     		ldr	r3, .L59
 592 000a 00E0     		b	.L58
 593              	.L56:
 223:.\togglelib.c ****             Volunteer_Sequence.index = value;
 594              		.loc 1 223 0
 595 000c 024B     		ldr	r3, .L59+4
 596              	.L58:
 226:.\togglelib.c ****             Organizer_Sequence.index = value;
 597              		.loc 1 226 0
 598 000e 1975     		strb	r1, [r3, #20]
 599              	.L54:
 229:.\togglelib.c **** }
 600              		.loc 1 229 0
 601              		@ sp needed
 602 0010 7047     		bx	lr
 603              	.L60:
 604 0012 C046     		.align	2
ARM GAS  C:\Users\Admin\AppData\Local\Temp\ccunGczW.s 			page 17


 605              	.L59:
 606 0014 00000000 		.word	Organizer_Sequence
 607 0018 00000000 		.word	Volunteer_Sequence
 608              		.cfi_endproc
 609              	.LFE39:
 610              		.size	set_magic_toggle_index, .-set_magic_toggle_index
 611              		.section	.text.get_magic_toggle_index,"ax",%progbits
 612              		.align	1
 613              		.global	get_magic_toggle_index
 614              		.code	16
 615              		.thumb_func
 616              		.type	get_magic_toggle_index, %function
 617              	get_magic_toggle_index:
 618              	.LFB40:
 232:.\togglelib.c **** uint8 get_magic_toggle_index(uint8 state_flag) {
 619              		.loc 1 232 0
 620              		.cfi_startproc
 621              	.LVL76:
 233:.\togglelib.c ****         switch(state_flag) {
 622              		.loc 1 233 0
 623 0000 0128     		cmp	r0, #1
 624 0002 03D0     		beq	.L63
 625 0004 0228     		cmp	r0, #2
 626 0006 05D1     		bne	.L68
 627              		.loc 1 238 0
 628 0008 034B     		ldr	r3, .L69
 629 000a 00E0     		b	.L67
 630              	.L63:
 235:.\togglelib.c ****             return Volunteer_Sequence.index;
 631              		.loc 1 235 0
 632 000c 034B     		ldr	r3, .L69+4
 633              	.L67:
 634              		.loc 1 238 0
 635 000e 187D     		ldrb	r0, [r3, #20]
 636              	.LVL77:
 637 0010 C0B2     		uxtb	r0, r0
 638 0012 00E0     		b	.L62
 639              	.LVL78:
 640              	.L68:
 239:.\togglelib.c ****         break;
 240:.\togglelib.c ****     }
 241:.\togglelib.c ****     return -1;
 641              		.loc 1 241 0
 642 0014 FF20     		mov	r0, #255
 643              	.LVL79:
 644              	.L62:
 242:.\togglelib.c **** }
 645              		.loc 1 242 0
 646              		@ sp needed
 647 0016 7047     		bx	lr
 648              	.L70:
 649              		.align	2
 650              	.L69:
 651 0018 00000000 		.word	Organizer_Sequence
 652 001c 00000000 		.word	Volunteer_Sequence
 653              		.cfi_endproc
 654              	.LFE40:
ARM GAS  C:\Users\Admin\AppData\Local\Temp\ccunGczW.s 			page 18


 655              		.size	get_magic_toggle_index, .-get_magic_toggle_index
 656              		.section	.text.init_magic_toggle_sequance,"ax",%progbits
 657              		.align	1
 658              		.global	init_magic_toggle_sequance
 659              		.code	16
 660              		.thumb_func
 661              		.type	init_magic_toggle_sequance, %function
 662              	init_magic_toggle_sequance:
 663              	.LFB41:
 243:.\togglelib.c **** 
 244:.\togglelib.c **** /* Initialize the magic toogle structures */
 245:.\togglelib.c **** void init_magic_toggle_sequance(uint8 state_flag, uint8* sequance) {
 664              		.loc 1 245 0
 665              		.cfi_startproc
 666              	.LVL80:
 667 0000 10B5     		push	{r4, lr}
 668              		.cfi_def_cfa_offset 8
 669              		.cfi_offset 4, -8
 670              		.cfi_offset 14, -4
 671              		.loc 1 245 0
 672 0002 041C     		mov	r4, r0
 246:.\togglelib.c ****     set_magic_toggle_sequance(state_flag, sequance);
 673              		.loc 1 246 0
 674 0004 FFF7FEFF 		bl	set_magic_toggle_sequance
 675              	.LVL81:
 247:.\togglelib.c ****     set_magic_toggle_index(state_flag, 0);
 676              		.loc 1 247 0
 677 0008 201C     		mov	r0, r4
 678 000a 0021     		mov	r1, #0
 679 000c FFF7FEFF 		bl	set_magic_toggle_index
 680              	.LVL82:
 248:.\togglelib.c **** }
 681              		.loc 1 248 0
 682              		@ sp needed
 683 0010 10BD     		pop	{r4, pc}
 684              		.cfi_endproc
 685              	.LFE41:
 686              		.size	init_magic_toggle_sequance, .-init_magic_toggle_sequance
 687              		.section	.text.enable_toggle_interrupts,"ax",%progbits
 688              		.align	1
 689              		.global	enable_toggle_interrupts
 690              		.code	16
 691              		.thumb_func
 692              		.type	enable_toggle_interrupts, %function
 693              	enable_toggle_interrupts:
 694              	.LFB42:
 249:.\togglelib.c **** 
 250:.\togglelib.c **** void enable_toggle_interrupts() {
 695              		.loc 1 250 0
 696              		.cfi_startproc
 697 0000 08B5     		push	{r3, lr}
 698              		.cfi_def_cfa_offset 8
 699              		.cfi_offset 3, -8
 700              		.cfi_offset 14, -4
 251:.\togglelib.c ****     /* Setup toggle interrupts  */
 252:.\togglelib.c ****     SWB_Int_StartEx( SWB_Handler );
 701              		.loc 1 252 0
ARM GAS  C:\Users\Admin\AppData\Local\Temp\ccunGczW.s 			page 19


 702 0002 0948     		ldr	r0, .L73
 703 0004 FFF7FEFF 		bl	SWB_Int_StartEx
 704              	.LVL83:
 253:.\togglelib.c ****     SWL_Int_StartEx( SWL_Handler );
 705              		.loc 1 253 0
 706 0008 0848     		ldr	r0, .L73+4
 707 000a FFF7FEFF 		bl	SWL_Int_StartEx
 708              	.LVL84:
 254:.\togglelib.c ****     SWR_Int_StartEx( SWR_Handler );
 709              		.loc 1 254 0
 710 000e 0848     		ldr	r0, .L73+8
 711 0010 FFF7FEFF 		bl	SWR_Int_StartEx
 712              	.LVL85:
 255:.\togglelib.c ****     ORG_Int_StartEx( ORG_Handler );
 713              		.loc 1 255 0
 714 0014 0748     		ldr	r0, .L73+12
 715 0016 FFF7FEFF 		bl	ORG_Int_StartEx
 716              	.LVL86:
 256:.\togglelib.c ****     /* Seed random */
 257:.\togglelib.c ****     srand(time(NULL));
 717              		.loc 1 257 0
 718 001a 0020     		mov	r0, #0
 719 001c FFF7FEFF 		bl	time
 720              	.LVL87:
 721 0020 FFF7FEFF 		bl	srand
 722              	.LVL88:
 258:.\togglelib.c **** }...
 723              		.loc 1 258 0
 724              		@ sp needed
 725 0024 08BD     		pop	{r3, pc}
 726              	.L74:
 727 0026 C046     		.align	2
 728              	.L73:
 729 0028 00000000 		.word	SWB_Handler
 730 002c 00000000 		.word	SWL_Handler
 731 0030 00000000 		.word	SWR_Handler
 732 0034 00000000 		.word	ORG_Handler
 733              		.cfi_endproc
 734              	.LFE42:
 735              		.size	enable_toggle_interrupts, .-enable_toggle_interrupts
 736              		.comm	Organizer_Sequence,21,1
 737              		.comm	Volunteer_Sequence,21,1
 738              		.text
 739              	.Letext0:
 740              		.file 2 ".\\Generated_Source\\PSoC4/cytypes.h"
 741              		.file 3 "c:\\program files\\cypress\\psoc creator\\3.1\\psoc creator\\import\\gnu_cs\\arm\\4.8.4\\
 742              		.file 4 "c:\\program files\\cypress\\psoc creator\\3.1\\psoc creator\\import\\gnu_cs\\arm\\4.8.4\\
 743              		.file 5 ".\\togglelib.h"
 744              		.file 6 ".\\state.h"
 745              		.file 7 ".\\lightlib.h"
 746              		.file 8 ".\\Generated_Source\\PSoC4/SWB.h"
 747              		.file 9 "c:\\program files\\cypress\\psoc creator\\3.1\\psoc creator\\import\\gnu_cs\\arm\\4.8.4\\
 748              		.file 10 ".\\Generated_Source\\PSoC4/PWM_Organizer.h"
 749              		.file 11 "c:\\program files\\cypress\\psoc creator\\3.1\\psoc creator\\import\\gnu_cs\\arm\\4.8.4\
 750              		.file 12 ".\\Generated_Source\\PSoC4/ORG_Int.h"
 751              		.file 13 ".\\Generated_Source\\PSoC4/CyLib.h"
 752              		.file 14 ".\\Generated_Source\\PSoC4/SWL.h"
ARM GAS  C:\Users\Admin\AppData\Local\Temp\ccunGczW.s 			page 20


 753              		.file 15 ".\\Generated_Source\\PSoC4/SWR.h"
 754              		.file 16 ".\\Generated_Source\\PSoC4/SWB_Int.h"
 755              		.file 17 ".\\Generated_Source\\PSoC4/SWL_Int.h"
 756              		.file 18 ".\\Generated_Source\\PSoC4/SWR_Int.h"
 757              		.file 19 "c:\\program files\\cypress\\psoc creator\\3.1\\psoc creator\\import\\gnu_cs\\arm\\4.8.4\