ARM GAS  C:\Users\Admin\AppData\Local\Temp\ccGlYQxk.s 			page 1


   1              		.cpu cortex-m0
   2              		.fpu softvfp
   3              		.eabi_attribute 20, 1
   4              		.eabi_attribute 21, 1
   5              		.eabi_attribute 23, 3
   6              		.eabi_attribute 24, 1
   7              		.eabi_attribute 25, 1
   8              		.eabi_attribute 26, 1
   9              		.eabi_attribute 30, 6
  10              		.eabi_attribute 34, 0
  11              		.eabi_attribute 18, 4
  12              		.code	16
  13              		.file	"cyfitter_cfg.c"
  14              		.text
  15              	.Ltext0:
  16              		.cfi_sections	.debug_frame
  17              		.section	.text.CYMEMZERO,"ax",%progbits
  18              		.align	2
  19              		.code	16
  20              		.thumb_func
  21              		.type	CYMEMZERO, %function
  22              	CYMEMZERO:
  23              	.LFB0:
  24              		.file 1 ".\\Generated_Source\\PSoC4\\cyfitter_cfg.c"
   1:.\Generated_Source\PSoC4/cyfitter_cfg.c **** /*******************************************************************************
   2:.\Generated_Source\PSoC4/cyfitter_cfg.c **** * FILENAME: cyfitter_cfg.c
   3:.\Generated_Source\PSoC4/cyfitter_cfg.c **** * PSoC Creator  3.1 SP1
   4:.\Generated_Source\PSoC4/cyfitter_cfg.c **** *
   5:.\Generated_Source\PSoC4/cyfitter_cfg.c **** * Description:
   6:.\Generated_Source\PSoC4/cyfitter_cfg.c **** * This file is automatically generated by PSoC Creator with device 
   7:.\Generated_Source\PSoC4/cyfitter_cfg.c **** * initialization code.  Except for the user defined sections in
   8:.\Generated_Source\PSoC4/cyfitter_cfg.c **** * CyClockStartupError(), this file should not be modified.
   9:.\Generated_Source\PSoC4/cyfitter_cfg.c **** *
  10:.\Generated_Source\PSoC4/cyfitter_cfg.c **** ********************************************************************************
  11:.\Generated_Source\PSoC4/cyfitter_cfg.c **** * Copyright 2013, Cypress Semiconductor Corporation.  All rights reserved.
  12:.\Generated_Source\PSoC4/cyfitter_cfg.c **** * You may use this file only in accordance with the license, terms, conditions, 
  13:.\Generated_Source\PSoC4/cyfitter_cfg.c **** * disclaimers, and limitations in the end user license agreement accompanying 
  14:.\Generated_Source\PSoC4/cyfitter_cfg.c **** * the software package with which this file was provided.
  15:.\Generated_Source\PSoC4/cyfitter_cfg.c **** ********************************************************************************/
  16:.\Generated_Source\PSoC4/cyfitter_cfg.c **** 
  17:.\Generated_Source\PSoC4/cyfitter_cfg.c **** #include <string.h>
  18:.\Generated_Source\PSoC4/cyfitter_cfg.c **** #include <cytypes.h>
  19:.\Generated_Source\PSoC4/cyfitter_cfg.c **** #include <cydevice_trm.h>
  20:.\Generated_Source\PSoC4/cyfitter_cfg.c **** #include <cyfitter.h>
  21:.\Generated_Source\PSoC4/cyfitter_cfg.c **** #include <CyLib.h>
  22:.\Generated_Source\PSoC4/cyfitter_cfg.c **** #include <cyfitter_cfg.h>
  23:.\Generated_Source\PSoC4/cyfitter_cfg.c **** 
  24:.\Generated_Source\PSoC4/cyfitter_cfg.c **** 
  25:.\Generated_Source\PSoC4/cyfitter_cfg.c **** #if defined(__GNUC__) || defined(__ARMCC_VERSION)
  26:.\Generated_Source\PSoC4/cyfitter_cfg.c ****     #define CYPACKED 
  27:.\Generated_Source\PSoC4/cyfitter_cfg.c ****     #define CYPACKED_ATTR __attribute__ ((packed))
  28:.\Generated_Source\PSoC4/cyfitter_cfg.c ****     #define CYALIGNED __attribute__ ((aligned))
  29:.\Generated_Source\PSoC4/cyfitter_cfg.c ****     #define CY_CFG_UNUSED __attribute__ ((unused))
  30:.\Generated_Source\PSoC4/cyfitter_cfg.c ****     #define CY_CFG_SECTION __attribute__ ((section(".psocinit")))
  31:.\Generated_Source\PSoC4/cyfitter_cfg.c ****     
  32:.\Generated_Source\PSoC4/cyfitter_cfg.c ****     #if defined(__ARMCC_VERSION)
  33:.\Generated_Source\PSoC4/cyfitter_cfg.c ****         #define CY_CFG_MEMORY_BARRIER() __memory_changed()
ARM GAS  C:\Users\Admin\AppData\Local\Temp\ccGlYQxk.s 			page 2


  34:.\Generated_Source\PSoC4/cyfitter_cfg.c ****     #else
  35:.\Generated_Source\PSoC4/cyfitter_cfg.c ****         #define CY_CFG_MEMORY_BARRIER() __sync_synchronize()
  36:.\Generated_Source\PSoC4/cyfitter_cfg.c ****     #endif
  37:.\Generated_Source\PSoC4/cyfitter_cfg.c ****     
  38:.\Generated_Source\PSoC4/cyfitter_cfg.c **** #elif defined(__ICCARM__)
  39:.\Generated_Source\PSoC4/cyfitter_cfg.c ****     #include <intrinsics.h>
  40:.\Generated_Source\PSoC4/cyfitter_cfg.c **** 
  41:.\Generated_Source\PSoC4/cyfitter_cfg.c ****     #define CYPACKED __packed
  42:.\Generated_Source\PSoC4/cyfitter_cfg.c ****     #define CYPACKED_ATTR 
  43:.\Generated_Source\PSoC4/cyfitter_cfg.c ****     #define CYALIGNED _Pragma("data_alignment=4")
  44:.\Generated_Source\PSoC4/cyfitter_cfg.c ****     #define CY_CFG_UNUSED _Pragma("diag_suppress=Pe177")
  45:.\Generated_Source\PSoC4/cyfitter_cfg.c ****     #define CY_CFG_SECTION _Pragma("location=\".psocinit\"")
  46:.\Generated_Source\PSoC4/cyfitter_cfg.c ****     
  47:.\Generated_Source\PSoC4/cyfitter_cfg.c ****     #define CY_CFG_MEMORY_BARRIER() __DMB()
  48:.\Generated_Source\PSoC4/cyfitter_cfg.c ****     
  49:.\Generated_Source\PSoC4/cyfitter_cfg.c **** #else
  50:.\Generated_Source\PSoC4/cyfitter_cfg.c ****     #error Unsupported toolchain
  51:.\Generated_Source\PSoC4/cyfitter_cfg.c **** #endif
  52:.\Generated_Source\PSoC4/cyfitter_cfg.c **** 
  53:.\Generated_Source\PSoC4/cyfitter_cfg.c **** 
  54:.\Generated_Source\PSoC4/cyfitter_cfg.c **** CY_CFG_UNUSED
  55:.\Generated_Source\PSoC4/cyfitter_cfg.c **** static void CYMEMZERO(void *s, size_t n);
  56:.\Generated_Source\PSoC4/cyfitter_cfg.c **** CY_CFG_UNUSED
  57:.\Generated_Source\PSoC4/cyfitter_cfg.c **** static void CYMEMZERO(void *s, size_t n)
  58:.\Generated_Source\PSoC4/cyfitter_cfg.c **** {
  25              		.loc 1 58 0
  26              		.cfi_startproc
  27 0000 80B5     		push	{r7, lr}
  28              		.cfi_def_cfa_offset 8
  29              		.cfi_offset 7, -8
  30              		.cfi_offset 14, -4
  31 0002 82B0     		sub	sp, sp, #8
  32              		.cfi_def_cfa_offset 16
  33 0004 00AF     		add	r7, sp, #0
  34              		.cfi_def_cfa_register 7
  35 0006 7860     		str	r0, [r7, #4]
  36 0008 3960     		str	r1, [r7]
  59:.\Generated_Source\PSoC4/cyfitter_cfg.c **** 	(void)memset(s, 0, n);
  37              		.loc 1 59 0
  38 000a 7A68     		ldr	r2, [r7, #4]
  39 000c 3B68     		ldr	r3, [r7]
  40 000e 101C     		mov	r0, r2
  41 0010 0021     		mov	r1, #0
  42 0012 1A1C     		mov	r2, r3
  43 0014 FFF7FEFF 		bl	memset
  60:.\Generated_Source\PSoC4/cyfitter_cfg.c **** }
  44              		.loc 1 60 0
  45 0018 BD46     		mov	sp, r7
  46 001a 02B0     		add	sp, sp, #8
  47              		@ sp needed
  48 001c 80BD     		pop	{r7, pc}
  49              		.cfi_endproc
  50              	.LFE0:
  51              		.size	CYMEMZERO, .-CYMEMZERO
  52 001e C046     		.section	.text.CYCONFIGCPY,"ax",%progbits
  53              		.align	2
  54              		.code	16
ARM GAS  C:\Users\Admin\AppData\Local\Temp\ccGlYQxk.s 			page 3


  55              		.thumb_func
  56              		.type	CYCONFIGCPY, %function
  57              	CYCONFIGCPY:
  58              	.LFB1:
  61:.\Generated_Source\PSoC4/cyfitter_cfg.c **** CY_CFG_UNUSED
  62:.\Generated_Source\PSoC4/cyfitter_cfg.c **** static void CYCONFIGCPY(void *dest, const void *src, size_t n);
  63:.\Generated_Source\PSoC4/cyfitter_cfg.c **** CY_CFG_UNUSED
  64:.\Generated_Source\PSoC4/cyfitter_cfg.c **** static void CYCONFIGCPY(void *dest, const void *src, size_t n)
  65:.\Generated_Source\PSoC4/cyfitter_cfg.c **** {
  59              		.loc 1 65 0
  60              		.cfi_startproc
  61 0000 80B5     		push	{r7, lr}
  62              		.cfi_def_cfa_offset 8
  63              		.cfi_offset 7, -8
  64              		.cfi_offset 14, -4
  65 0002 84B0     		sub	sp, sp, #16
  66              		.cfi_def_cfa_offset 24
  67 0004 00AF     		add	r7, sp, #0
  68              		.cfi_def_cfa_register 7
  69 0006 F860     		str	r0, [r7, #12]
  70 0008 B960     		str	r1, [r7, #8]
  71 000a 7A60     		str	r2, [r7, #4]
  66:.\Generated_Source\PSoC4/cyfitter_cfg.c **** 	(void)memcpy(dest, src, n);
  72              		.loc 1 66 0
  73 000c F968     		ldr	r1, [r7, #12]
  74 000e BA68     		ldr	r2, [r7, #8]
  75 0010 7B68     		ldr	r3, [r7, #4]
  76 0012 081C     		mov	r0, r1
  77 0014 111C     		mov	r1, r2
  78 0016 1A1C     		mov	r2, r3
  79 0018 FFF7FEFF 		bl	memcpy
  67:.\Generated_Source\PSoC4/cyfitter_cfg.c **** }
  80              		.loc 1 67 0
  81 001c BD46     		mov	sp, r7
  82 001e 04B0     		add	sp, sp, #16
  83              		@ sp needed
  84 0020 80BD     		pop	{r7, pc}
  85              		.cfi_endproc
  86              	.LFE1:
  87              		.size	CYCONFIGCPY, .-CYCONFIGCPY
  88 0022 C046     		.section	.text.CYCONFIGCPYCODE,"ax",%progbits
  89              		.align	2
  90              		.code	16
  91              		.thumb_func
  92              		.type	CYCONFIGCPYCODE, %function
  93              	CYCONFIGCPYCODE:
  94              	.LFB2:
  68:.\Generated_Source\PSoC4/cyfitter_cfg.c **** CY_CFG_UNUSED
  69:.\Generated_Source\PSoC4/cyfitter_cfg.c **** static void CYCONFIGCPYCODE(void *dest, const void *src, size_t n);
  70:.\Generated_Source\PSoC4/cyfitter_cfg.c **** CY_CFG_UNUSED
  71:.\Generated_Source\PSoC4/cyfitter_cfg.c **** static void CYCONFIGCPYCODE(void *dest, const void *src, size_t n)
  72:.\Generated_Source\PSoC4/cyfitter_cfg.c **** {
  95              		.loc 1 72 0
  96              		.cfi_startproc
  97 0000 80B5     		push	{r7, lr}
  98              		.cfi_def_cfa_offset 8
  99              		.cfi_offset 7, -8
ARM GAS  C:\Users\Admin\AppData\Local\Temp\ccGlYQxk.s 			page 4


 100              		.cfi_offset 14, -4
 101 0002 84B0     		sub	sp, sp, #16
 102              		.cfi_def_cfa_offset 24
 103 0004 00AF     		add	r7, sp, #0
 104              		.cfi_def_cfa_register 7
 105 0006 F860     		str	r0, [r7, #12]
 106 0008 B960     		str	r1, [r7, #8]
 107 000a 7A60     		str	r2, [r7, #4]
  73:.\Generated_Source\PSoC4/cyfitter_cfg.c **** 	(void)memcpy(dest, src, n);
 108              		.loc 1 73 0
 109 000c F968     		ldr	r1, [r7, #12]
 110 000e BA68     		ldr	r2, [r7, #8]
 111 0010 7B68     		ldr	r3, [r7, #4]
 112 0012 081C     		mov	r0, r1
 113 0014 111C     		mov	r1, r2
 114 0016 1A1C     		mov	r2, r3
 115 0018 FFF7FEFF 		bl	memcpy
  74:.\Generated_Source\PSoC4/cyfitter_cfg.c **** }
 116              		.loc 1 74 0
 117 001c BD46     		mov	sp, r7
 118 001e 04B0     		add	sp, sp, #16
 119              		@ sp needed
 120 0020 80BD     		pop	{r7, pc}
 121              		.cfi_endproc
 122              	.LFE2:
 123              		.size	CYCONFIGCPYCODE, .-CYCONFIGCPYCODE
 124 0022 C046     		.section	.text.cfg_write_bytes32,"ax",%progbits
 125              		.align	2
 126              		.code	16
 127              		.thumb_func
 128              		.type	cfg_write_bytes32, %function
 129              	cfg_write_bytes32:
 130              	.LFB3:
  75:.\Generated_Source\PSoC4/cyfitter_cfg.c **** 
  76:.\Generated_Source\PSoC4/cyfitter_cfg.c **** 
  77:.\Generated_Source\PSoC4/cyfitter_cfg.c **** 
  78:.\Generated_Source\PSoC4/cyfitter_cfg.c **** /* Clock startup error codes                                                   */
  79:.\Generated_Source\PSoC4/cyfitter_cfg.c **** #define CYCLOCKSTART_NO_ERROR    0u
  80:.\Generated_Source\PSoC4/cyfitter_cfg.c **** #define CYCLOCKSTART_XTAL_ERROR  1u
  81:.\Generated_Source\PSoC4/cyfitter_cfg.c **** #define CYCLOCKSTART_32KHZ_ERROR 2u
  82:.\Generated_Source\PSoC4/cyfitter_cfg.c **** #define CYCLOCKSTART_PLL_ERROR   3u
  83:.\Generated_Source\PSoC4/cyfitter_cfg.c **** 
  84:.\Generated_Source\PSoC4/cyfitter_cfg.c **** #ifdef CY_NEED_CYCLOCKSTARTUPERROR
  85:.\Generated_Source\PSoC4/cyfitter_cfg.c **** /*******************************************************************************
  86:.\Generated_Source\PSoC4/cyfitter_cfg.c **** * Function Name: CyClockStartupError
  87:.\Generated_Source\PSoC4/cyfitter_cfg.c **** ********************************************************************************
  88:.\Generated_Source\PSoC4/cyfitter_cfg.c **** * Summary:
  89:.\Generated_Source\PSoC4/cyfitter_cfg.c **** *  If an error is encountered during clock configuration (crystal startup error,
  90:.\Generated_Source\PSoC4/cyfitter_cfg.c **** *  PLL lock error, etc.), the system will end up here.  Unless reimplemented by
  91:.\Generated_Source\PSoC4/cyfitter_cfg.c **** *  the customer, this function will stop in an infinite loop.
  92:.\Generated_Source\PSoC4/cyfitter_cfg.c **** *
  93:.\Generated_Source\PSoC4/cyfitter_cfg.c **** * Parameters:
  94:.\Generated_Source\PSoC4/cyfitter_cfg.c **** *   void
  95:.\Generated_Source\PSoC4/cyfitter_cfg.c **** *
  96:.\Generated_Source\PSoC4/cyfitter_cfg.c **** * Return:
  97:.\Generated_Source\PSoC4/cyfitter_cfg.c **** *   void
  98:.\Generated_Source\PSoC4/cyfitter_cfg.c **** *
ARM GAS  C:\Users\Admin\AppData\Local\Temp\ccGlYQxk.s 			page 5


  99:.\Generated_Source\PSoC4/cyfitter_cfg.c **** *******************************************************************************/
 100:.\Generated_Source\PSoC4/cyfitter_cfg.c **** CY_CFG_UNUSED
 101:.\Generated_Source\PSoC4/cyfitter_cfg.c **** static void CyClockStartupError(uint8 errorCode);
 102:.\Generated_Source\PSoC4/cyfitter_cfg.c **** CY_CFG_UNUSED
 103:.\Generated_Source\PSoC4/cyfitter_cfg.c **** static void CyClockStartupError(uint8 errorCode)
 104:.\Generated_Source\PSoC4/cyfitter_cfg.c **** {
 105:.\Generated_Source\PSoC4/cyfitter_cfg.c ****     /* To remove the compiler warning if errorCode not used.                */
 106:.\Generated_Source\PSoC4/cyfitter_cfg.c ****     errorCode = errorCode;
 107:.\Generated_Source\PSoC4/cyfitter_cfg.c **** 
 108:.\Generated_Source\PSoC4/cyfitter_cfg.c ****     /* `#START CyClockStartupError` */
 109:.\Generated_Source\PSoC4/cyfitter_cfg.c **** 
 110:.\Generated_Source\PSoC4/cyfitter_cfg.c ****     /* If we have a clock startup error (bad MHz crystal, PLL lock, etc.),  */
 111:.\Generated_Source\PSoC4/cyfitter_cfg.c ****     /* we will end up here to allow the customer to implement something to  */
 112:.\Generated_Source\PSoC4/cyfitter_cfg.c ****     /* deal with the clock condition.                                       */
 113:.\Generated_Source\PSoC4/cyfitter_cfg.c **** 
 114:.\Generated_Source\PSoC4/cyfitter_cfg.c ****     /* `#END` */
 115:.\Generated_Source\PSoC4/cyfitter_cfg.c **** 
 116:.\Generated_Source\PSoC4/cyfitter_cfg.c ****     /* If nothing else, stop here since the clocks have not started         */
 117:.\Generated_Source\PSoC4/cyfitter_cfg.c ****     /* correctly.                                                           */
 118:.\Generated_Source\PSoC4/cyfitter_cfg.c ****     while(1) {}
 119:.\Generated_Source\PSoC4/cyfitter_cfg.c **** }
 120:.\Generated_Source\PSoC4/cyfitter_cfg.c **** #endif
 121:.\Generated_Source\PSoC4/cyfitter_cfg.c **** 
 122:.\Generated_Source\PSoC4/cyfitter_cfg.c **** #define CY_CFG_BASE_ADDR_COUNT 8u
 123:.\Generated_Source\PSoC4/cyfitter_cfg.c **** CYPACKED typedef struct
 124:.\Generated_Source\PSoC4/cyfitter_cfg.c **** {
 125:.\Generated_Source\PSoC4/cyfitter_cfg.c **** 	uint8 offset;
 126:.\Generated_Source\PSoC4/cyfitter_cfg.c **** 	uint8 value;
 127:.\Generated_Source\PSoC4/cyfitter_cfg.c **** } CYPACKED_ATTR cy_cfg_addrvalue_t;
 128:.\Generated_Source\PSoC4/cyfitter_cfg.c **** 
 129:.\Generated_Source\PSoC4/cyfitter_cfg.c **** 
 130:.\Generated_Source\PSoC4/cyfitter_cfg.c **** 
 131:.\Generated_Source\PSoC4/cyfitter_cfg.c **** /*******************************************************************************
 132:.\Generated_Source\PSoC4/cyfitter_cfg.c **** * Function Name: cfg_write_bytes32
 133:.\Generated_Source\PSoC4/cyfitter_cfg.c **** ********************************************************************************
 134:.\Generated_Source\PSoC4/cyfitter_cfg.c **** * Summary:
 135:.\Generated_Source\PSoC4/cyfitter_cfg.c **** *  This function is used for setting up the chip configuration areas that
 136:.\Generated_Source\PSoC4/cyfitter_cfg.c **** *  contain relatively sparse data.
 137:.\Generated_Source\PSoC4/cyfitter_cfg.c **** *
 138:.\Generated_Source\PSoC4/cyfitter_cfg.c **** * Parameters:
 139:.\Generated_Source\PSoC4/cyfitter_cfg.c **** *   void
 140:.\Generated_Source\PSoC4/cyfitter_cfg.c **** *
 141:.\Generated_Source\PSoC4/cyfitter_cfg.c **** * Return:
 142:.\Generated_Source\PSoC4/cyfitter_cfg.c **** *   void
 143:.\Generated_Source\PSoC4/cyfitter_cfg.c **** *
 144:.\Generated_Source\PSoC4/cyfitter_cfg.c **** *******************************************************************************/
 145:.\Generated_Source\PSoC4/cyfitter_cfg.c **** static void cfg_write_bytes32(const uint32 addr_table[], const cy_cfg_addrvalue_t data_table[]);
 146:.\Generated_Source\PSoC4/cyfitter_cfg.c **** static void cfg_write_bytes32(const uint32 addr_table[], const cy_cfg_addrvalue_t data_table[])
 147:.\Generated_Source\PSoC4/cyfitter_cfg.c **** {
 131              		.loc 1 147 0
 132              		.cfi_startproc
 133 0000 80B5     		push	{r7, lr}
 134              		.cfi_def_cfa_offset 8
 135              		.cfi_offset 7, -8
 136              		.cfi_offset 14, -4
 137 0002 86B0     		sub	sp, sp, #24
 138              		.cfi_def_cfa_offset 32
ARM GAS  C:\Users\Admin\AppData\Local\Temp\ccGlYQxk.s 			page 6


 139 0004 00AF     		add	r7, sp, #0
 140              		.cfi_def_cfa_register 7
 141 0006 7860     		str	r0, [r7, #4]
 142 0008 3960     		str	r1, [r7]
 148:.\Generated_Source\PSoC4/cyfitter_cfg.c **** 	/* For 32-bit little-endian architectures */
 149:.\Generated_Source\PSoC4/cyfitter_cfg.c **** 	uint32 i, j = 0u;
 143              		.loc 1 149 0
 144 000a 0023     		mov	r3, #0
 145 000c 3B61     		str	r3, [r7, #16]
 150:.\Generated_Source\PSoC4/cyfitter_cfg.c **** 	for (i = 0u; i < CY_CFG_BASE_ADDR_COUNT; i++)
 146              		.loc 1 150 0
 147 000e 0023     		mov	r3, #0
 148 0010 7B61     		str	r3, [r7, #20]
 149 0012 2EE0     		b	.L5
 150              	.L8:
 151              	.LBB2:
 151:.\Generated_Source\PSoC4/cyfitter_cfg.c **** 	{
 152:.\Generated_Source\PSoC4/cyfitter_cfg.c **** 		uint32 baseAddr = addr_table[i];
 152              		.loc 1 152 0
 153 0014 7B69     		ldr	r3, [r7, #20]
 154 0016 9B00     		lsl	r3, r3, #2
 155 0018 7A68     		ldr	r2, [r7, #4]
 156 001a D318     		add	r3, r2, r3
 157 001c 1B68     		ldr	r3, [r3]
 158 001e BB60     		str	r3, [r7, #8]
 153:.\Generated_Source\PSoC4/cyfitter_cfg.c **** 		uint8 count = (uint8)baseAddr;
 159              		.loc 1 153 0
 160 0020 3B1C     		mov	r3, r7
 161 0022 0F33     		add	r3, r3, #15
 162 0024 BA68     		ldr	r2, [r7, #8]
 163 0026 1A70     		strb	r2, [r3]
 154:.\Generated_Source\PSoC4/cyfitter_cfg.c **** 		baseAddr &= 0xFFFFFF00u;
 164              		.loc 1 154 0
 165 0028 BB68     		ldr	r3, [r7, #8]
 166 002a FF22     		mov	r2, #255
 167 002c 9343     		bic	r3, r2
 168 002e BB60     		str	r3, [r7, #8]
 155:.\Generated_Source\PSoC4/cyfitter_cfg.c **** 		while (count != 0u)
 169              		.loc 1 155 0
 170 0030 17E0     		b	.L6
 171              	.L7:
 156:.\Generated_Source\PSoC4/cyfitter_cfg.c **** 		{
 157:.\Generated_Source\PSoC4/cyfitter_cfg.c **** 			CY_SET_XTND_REG8((void CYFAR *)(baseAddr + data_table[j].offset), data_table[j].value);
 172              		.loc 1 157 0
 173 0032 3B69     		ldr	r3, [r7, #16]
 174 0034 5B00     		lsl	r3, r3, #1
 175 0036 3A68     		ldr	r2, [r7]
 176 0038 D318     		add	r3, r2, r3
 177 003a 1B78     		ldrb	r3, [r3]
 178 003c 1A1C     		mov	r2, r3
 179 003e BB68     		ldr	r3, [r7, #8]
 180 0040 D318     		add	r3, r2, r3
 181 0042 3A69     		ldr	r2, [r7, #16]
 182 0044 5200     		lsl	r2, r2, #1
 183 0046 3968     		ldr	r1, [r7]
 184 0048 8A18     		add	r2, r1, r2
 185 004a 5278     		ldrb	r2, [r2, #1]
ARM GAS  C:\Users\Admin\AppData\Local\Temp\ccGlYQxk.s 			page 7


 186 004c 1A70     		strb	r2, [r3]
 158:.\Generated_Source\PSoC4/cyfitter_cfg.c **** 			j++;
 187              		.loc 1 158 0
 188 004e 3B69     		ldr	r3, [r7, #16]
 189 0050 0133     		add	r3, r3, #1
 190 0052 3B61     		str	r3, [r7, #16]
 159:.\Generated_Source\PSoC4/cyfitter_cfg.c **** 			count--;
 191              		.loc 1 159 0
 192 0054 3B1C     		mov	r3, r7
 193 0056 0F33     		add	r3, r3, #15
 194 0058 1A78     		ldrb	r2, [r3]
 195 005a 3B1C     		mov	r3, r7
 196 005c 0F33     		add	r3, r3, #15
 197 005e 013A     		sub	r2, r2, #1
 198 0060 1A70     		strb	r2, [r3]
 199              	.L6:
 155:.\Generated_Source\PSoC4/cyfitter_cfg.c **** 		while (count != 0u)
 200              		.loc 1 155 0 discriminator 1
 201 0062 3B1C     		mov	r3, r7
 202 0064 0F33     		add	r3, r3, #15
 203 0066 1B78     		ldrb	r3, [r3]
 204 0068 002B     		cmp	r3, #0
 205 006a E2D1     		bne	.L7
 206              	.LBE2:
 150:.\Generated_Source\PSoC4/cyfitter_cfg.c **** 	for (i = 0u; i < CY_CFG_BASE_ADDR_COUNT; i++)
 207              		.loc 1 150 0
 208 006c 7B69     		ldr	r3, [r7, #20]
 209 006e 0133     		add	r3, r3, #1
 210 0070 7B61     		str	r3, [r7, #20]
 211              	.L5:
 150:.\Generated_Source\PSoC4/cyfitter_cfg.c **** 	for (i = 0u; i < CY_CFG_BASE_ADDR_COUNT; i++)
 212              		.loc 1 150 0 is_stmt 0 discriminator 1
 213 0072 7B69     		ldr	r3, [r7, #20]
 214 0074 072B     		cmp	r3, #7
 215 0076 CDD9     		bls	.L8
 160:.\Generated_Source\PSoC4/cyfitter_cfg.c **** 		}
 161:.\Generated_Source\PSoC4/cyfitter_cfg.c **** 	}
 162:.\Generated_Source\PSoC4/cyfitter_cfg.c **** }
 216              		.loc 1 162 0 is_stmt 1
 217 0078 BD46     		mov	sp, r7
 218 007a 06B0     		add	sp, sp, #24
 219              		@ sp needed
 220 007c 80BD     		pop	{r7, pc}
 221              		.cfi_endproc
 222              	.LFE3:
 223              		.size	cfg_write_bytes32, .-cfg_write_bytes32
 224 007e C046     		.section	.psocinit,"ax",%progbits
 225              		.align	2
 226              		.code	16
 227              		.thumb_func
 228              		.type	SetIMOBGTrims, %function
 229              	SetIMOBGTrims:
 230              	.LFB4:
 163:.\Generated_Source\PSoC4/cyfitter_cfg.c **** 
 164:.\Generated_Source\PSoC4/cyfitter_cfg.c **** /*******************************************************************************
 165:.\Generated_Source\PSoC4/cyfitter_cfg.c **** * Function Name: SetIMOBGTrims
 166:.\Generated_Source\PSoC4/cyfitter_cfg.c **** ********************************************************************************
ARM GAS  C:\Users\Admin\AppData\Local\Temp\ccGlYQxk.s 			page 8


 167:.\Generated_Source\PSoC4/cyfitter_cfg.c **** *
 168:.\Generated_Source\PSoC4/cyfitter_cfg.c **** * Summary:
 169:.\Generated_Source\PSoC4/cyfitter_cfg.c **** *   Performs the configuration of the bandgap trim for the IMO based on the given
 170:.\Generated_Source\PSoC4/cyfitter_cfg.c **** *   expected frequency of the IMO. 
 171:.\Generated_Source\PSoC4/cyfitter_cfg.c **** *
 172:.\Generated_Source\PSoC4/cyfitter_cfg.c **** * Parameters:
 173:.\Generated_Source\PSoC4/cyfitter_cfg.c **** *   imoFreq: Frequency for operation of the IMO.
 174:.\Generated_Source\PSoC4/cyfitter_cfg.c **** *
 175:.\Generated_Source\PSoC4/cyfitter_cfg.c **** * Return:
 176:.\Generated_Source\PSoC4/cyfitter_cfg.c **** *   void
 177:.\Generated_Source\PSoC4/cyfitter_cfg.c **** *
 178:.\Generated_Source\PSoC4/cyfitter_cfg.c **** *******************************************************************************/
 179:.\Generated_Source\PSoC4/cyfitter_cfg.c **** static void SetIMOBGTrims(uint8 imoFreq);
 180:.\Generated_Source\PSoC4/cyfitter_cfg.c **** CY_CFG_SECTION
 181:.\Generated_Source\PSoC4/cyfitter_cfg.c **** static void SetIMOBGTrims(uint8 imoFreq)
 182:.\Generated_Source\PSoC4/cyfitter_cfg.c **** {
 231              		.loc 1 182 0
 232              		.cfi_startproc
 233 0000 80B5     		push	{r7, lr}
 234              		.cfi_def_cfa_offset 8
 235              		.cfi_offset 7, -8
 236              		.cfi_offset 14, -4
 237 0002 84B0     		sub	sp, sp, #16
 238              		.cfi_def_cfa_offset 24
 239 0004 00AF     		add	r7, sp, #0
 240              		.cfi_def_cfa_register 7
 241 0006 021C     		mov	r2, r0
 242 0008 FB1D     		add	r3, r7, #7
 243 000a 1A70     		strb	r2, [r3]
 183:.\Generated_Source\PSoC4/cyfitter_cfg.c **** 	CYPACKED typedef struct {
 184:.\Generated_Source\PSoC4/cyfitter_cfg.c **** 		uint8 freq;
 185:.\Generated_Source\PSoC4/cyfitter_cfg.c **** 		uint8 absolute;
 186:.\Generated_Source\PSoC4/cyfitter_cfg.c **** 		uint8 tmpco;
 187:.\Generated_Source\PSoC4/cyfitter_cfg.c **** 	} CYPACKED_ATTR imo_trim_entry_t;
 188:.\Generated_Source\PSoC4/cyfitter_cfg.c **** 
 189:.\Generated_Source\PSoC4/cyfitter_cfg.c **** 	CYPACKED typedef struct {
 190:.\Generated_Source\PSoC4/cyfitter_cfg.c **** 		imo_trim_entry_t entries[4];
 191:.\Generated_Source\PSoC4/cyfitter_cfg.c **** 	} CYPACKED_ATTR imo_trim_table_t;
 192:.\Generated_Source\PSoC4/cyfitter_cfg.c **** 
 193:.\Generated_Source\PSoC4/cyfitter_cfg.c **** 	static const imo_trim_table_t *imo_trim_table = (const imo_trim_table_t *)CYREG_SFLASH_IMO_MAXF0;
 194:.\Generated_Source\PSoC4/cyfitter_cfg.c **** 	static const uint32 IMO_TRIM_FREQ_TABLE_ENTRIES = sizeof(imo_trim_table->entries)/sizeof(imo_trim_
 195:.\Generated_Source\PSoC4/cyfitter_cfg.c **** 
 196:.\Generated_Source\PSoC4/cyfitter_cfg.c **** 	int32 imoTrimIndex;
 197:.\Generated_Source\PSoC4/cyfitter_cfg.c **** 	uint8 setAbs;
 198:.\Generated_Source\PSoC4/cyfitter_cfg.c **** 	uint8 setTmpCo;
 199:.\Generated_Source\PSoC4/cyfitter_cfg.c **** 
 200:.\Generated_Source\PSoC4/cyfitter_cfg.c **** 	/* Traverse the SFLASH IMO frequency-dependent bandgap trim table to
 201:.\Generated_Source\PSoC4/cyfitter_cfg.c **** 	 * locate the appropriate value to trim the IMO bandgap based on freq. */
 202:.\Generated_Source\PSoC4/cyfitter_cfg.c **** 	setAbs = CY_GET_REG8((const void *)CYREG_SFLASH_IMO_ABS4);
 244              		.loc 1 202 0
 245 000c 204A     		ldr	r2, .L13
 246 000e 3B1C     		mov	r3, r7
 247 0010 0B33     		add	r3, r3, #11
 248 0012 1278     		ldrb	r2, [r2]
 249 0014 1A70     		strb	r2, [r3]
 203:.\Generated_Source\PSoC4/cyfitter_cfg.c **** 	setTmpCo = CY_GET_REG8((const void *)CYREG_SFLASH_IMO_TMPCO4);
 250              		.loc 1 203 0
ARM GAS  C:\Users\Admin\AppData\Local\Temp\ccGlYQxk.s 			page 9


 251 0016 1F4A     		ldr	r2, .L13+4
 252 0018 3B1C     		mov	r3, r7
 253 001a 0A33     		add	r3, r3, #10
 254 001c 1278     		ldrb	r2, [r2]
 255 001e 1A70     		strb	r2, [r3]
 204:.\Generated_Source\PSoC4/cyfitter_cfg.c **** 	for (imoTrimIndex = ((int32)IMO_TRIM_FREQ_TABLE_ENTRIES)-1;
 256              		.loc 1 204 0
 257 0020 0423     		mov	r3, #4
 258 0022 013B     		sub	r3, r3, #1
 259 0024 FB60     		str	r3, [r7, #12]
 260 0026 18E0     		b	.L10
 261              	.L12:
 205:.\Generated_Source\PSoC4/cyfitter_cfg.c **** 	     (imoTrimIndex >= 0) && (imoFreq <= imo_trim_table->entries[imoTrimIndex].freq);
 206:.\Generated_Source\PSoC4/cyfitter_cfg.c **** 	     imoTrimIndex--)
 207:.\Generated_Source\PSoC4/cyfitter_cfg.c **** 	{
 208:.\Generated_Source\PSoC4/cyfitter_cfg.c **** 		setAbs = imo_trim_table->entries[imoTrimIndex].absolute;
 262              		.loc 1 208 0
 263 0028 1B4B     		ldr	r3, .L13+8
 264 002a 1868     		ldr	r0, [r3]
 265 002c 391C     		mov	r1, r7
 266 002e 0B31     		add	r1, r1, #11
 267 0030 FA68     		ldr	r2, [r7, #12]
 268 0032 131C     		mov	r3, r2
 269 0034 5B00     		lsl	r3, r3, #1
 270 0036 9B18     		add	r3, r3, r2
 271 0038 C318     		add	r3, r0, r3
 272 003a 5B78     		ldrb	r3, [r3, #1]
 273 003c 0B70     		strb	r3, [r1]
 209:.\Generated_Source\PSoC4/cyfitter_cfg.c **** 		setTmpCo = imo_trim_table->entries[imoTrimIndex].tmpco;
 274              		.loc 1 209 0
 275 003e 164B     		ldr	r3, .L13+8
 276 0040 1868     		ldr	r0, [r3]
 277 0042 391C     		mov	r1, r7
 278 0044 0A31     		add	r1, r1, #10
 279 0046 FA68     		ldr	r2, [r7, #12]
 280 0048 131C     		mov	r3, r2
 281 004a 5B00     		lsl	r3, r3, #1
 282 004c 9B18     		add	r3, r3, r2
 283 004e C318     		add	r3, r0, r3
 284 0050 9B78     		ldrb	r3, [r3, #2]
 285 0052 0B70     		strb	r3, [r1]
 206:.\Generated_Source\PSoC4/cyfitter_cfg.c **** 	     imoTrimIndex--)
 286              		.loc 1 206 0
 287 0054 FB68     		ldr	r3, [r7, #12]
 288 0056 013B     		sub	r3, r3, #1
 289 0058 FB60     		str	r3, [r7, #12]
 290              	.L10:
 204:.\Generated_Source\PSoC4/cyfitter_cfg.c **** 	for (imoTrimIndex = ((int32)IMO_TRIM_FREQ_TABLE_ENTRIES)-1;
 291              		.loc 1 204 0 discriminator 1
 292 005a FB68     		ldr	r3, [r7, #12]
 293 005c 002B     		cmp	r3, #0
 294 005e 0ADB     		blt	.L11
 205:.\Generated_Source\PSoC4/cyfitter_cfg.c **** 	     (imoTrimIndex >= 0) && (imoFreq <= imo_trim_table->entries[imoTrimIndex].freq);
 295              		.loc 1 205 0
 296 0060 0D4B     		ldr	r3, .L13+8
 297 0062 1968     		ldr	r1, [r3]
 298 0064 FA68     		ldr	r2, [r7, #12]
ARM GAS  C:\Users\Admin\AppData\Local\Temp\ccGlYQxk.s 			page 10


 299 0066 131C     		mov	r3, r2
 300 0068 5B00     		lsl	r3, r3, #1
 301 006a 9B18     		add	r3, r3, r2
 302 006c 5B5C     		ldrb	r3, [r3, r1]
 303 006e FA1D     		add	r2, r7, #7
 304 0070 1278     		ldrb	r2, [r2]
 305 0072 9A42     		cmp	r2, r3
 306 0074 D8D9     		bls	.L12
 307              	.L11:
 210:.\Generated_Source\PSoC4/cyfitter_cfg.c **** 	}
 211:.\Generated_Source\PSoC4/cyfitter_cfg.c **** 
 212:.\Generated_Source\PSoC4/cyfitter_cfg.c **** 	CY_SET_REG32((void *)CYREG_PWR_BG_TRIM4, setAbs);
 308              		.loc 1 212 0
 309 0076 094B     		ldr	r3, .L13+12
 310 0078 3A1C     		mov	r2, r7
 311 007a 0B32     		add	r2, r2, #11
 312 007c 1278     		ldrb	r2, [r2]
 313 007e 1A60     		str	r2, [r3]
 213:.\Generated_Source\PSoC4/cyfitter_cfg.c **** 	CY_SET_REG32((void *)CYREG_PWR_BG_TRIM5, setTmpCo);
 314              		.loc 1 213 0
 315 0080 074B     		ldr	r3, .L13+16
 316 0082 3A1C     		mov	r2, r7
 317 0084 0A32     		add	r2, r2, #10
 318 0086 1278     		ldrb	r2, [r2]
 319 0088 1A60     		str	r2, [r3]
 214:.\Generated_Source\PSoC4/cyfitter_cfg.c **** }
 320              		.loc 1 214 0
 321 008a BD46     		mov	sp, r7
 322 008c 04B0     		add	sp, sp, #16
 323              		@ sp needed
 324 008e 80BD     		pop	{r7, pc}
 325              	.L14:
 326              		.align	2
 327              	.L13:
 328 0090 CCF1FF0F 		.word	268431820
 329 0094 CDF1FF0F 		.word	268431821
 330 0098 00000000 		.word	imo_trim_table.4708
 331 009c 1CFF0B40 		.word	1074528028
 332 00a0 20FF0B40 		.word	1074528032
 333              		.cfi_endproc
 334              	.LFE4:
 335              		.size	SetIMOBGTrims, .-SetIMOBGTrims
 336              		.align	2
 337              		.code	16
 338              		.thumb_func
 339              		.type	ClockSetup, %function
 340              	ClockSetup:
 341              	.LFB5:
 215:.\Generated_Source\PSoC4/cyfitter_cfg.c **** 
 216:.\Generated_Source\PSoC4/cyfitter_cfg.c **** 
 217:.\Generated_Source\PSoC4/cyfitter_cfg.c **** 
 218:.\Generated_Source\PSoC4/cyfitter_cfg.c **** /*******************************************************************************
 219:.\Generated_Source\PSoC4/cyfitter_cfg.c **** * Function Name: ClockSetup
 220:.\Generated_Source\PSoC4/cyfitter_cfg.c **** ********************************************************************************
 221:.\Generated_Source\PSoC4/cyfitter_cfg.c **** *
 222:.\Generated_Source\PSoC4/cyfitter_cfg.c **** * Summary:
 223:.\Generated_Source\PSoC4/cyfitter_cfg.c **** *   Performs the initialization of all of the clocks in the device based on the
ARM GAS  C:\Users\Admin\AppData\Local\Temp\ccGlYQxk.s 			page 11


 224:.\Generated_Source\PSoC4/cyfitter_cfg.c **** *   settings in the Clock tab of the DWR.  This includes enabling the requested
 225:.\Generated_Source\PSoC4/cyfitter_cfg.c **** *   clocks and setting the necessary dividers to produce the desired frequency. 
 226:.\Generated_Source\PSoC4/cyfitter_cfg.c **** *
 227:.\Generated_Source\PSoC4/cyfitter_cfg.c **** * Parameters:
 228:.\Generated_Source\PSoC4/cyfitter_cfg.c **** *   void
 229:.\Generated_Source\PSoC4/cyfitter_cfg.c **** *
 230:.\Generated_Source\PSoC4/cyfitter_cfg.c **** * Return:
 231:.\Generated_Source\PSoC4/cyfitter_cfg.c **** *   void
 232:.\Generated_Source\PSoC4/cyfitter_cfg.c **** *
 233:.\Generated_Source\PSoC4/cyfitter_cfg.c **** *******************************************************************************/
 234:.\Generated_Source\PSoC4/cyfitter_cfg.c **** static void ClockSetup(void);
 235:.\Generated_Source\PSoC4/cyfitter_cfg.c **** CY_CFG_SECTION
 236:.\Generated_Source\PSoC4/cyfitter_cfg.c **** static void ClockSetup(void)
 237:.\Generated_Source\PSoC4/cyfitter_cfg.c **** {
 342              		.loc 1 237 0
 343              		.cfi_startproc
 344 00a4 80B5     		push	{r7, lr}
 345              		.cfi_def_cfa_offset 8
 346              		.cfi_offset 7, -8
 347              		.cfi_offset 14, -4
 348 00a6 00AF     		add	r7, sp, #0
 349              		.cfi_def_cfa_register 7
 238:.\Generated_Source\PSoC4/cyfitter_cfg.c **** 	/* Enable HALF_EN before trimming for the flash accelerator. */
 239:.\Generated_Source\PSoC4/cyfitter_cfg.c **** 	CY_SET_REG32((void CYXDATA *)(CYREG_CLK_SELECT), (CY_GET_REG32((void *)CYREG_CLK_SELECT) | 0x00040
 350              		.loc 1 239 0
 351 00a8 164B     		ldr	r3, .L16
 352 00aa 164A     		ldr	r2, .L16
 353 00ac 1268     		ldr	r2, [r2]
 354 00ae 8021     		mov	r1, #128
 355 00b0 C902     		lsl	r1, r1, #11
 356 00b2 0A43     		orr	r2, r1
 357 00b4 1A60     		str	r2, [r3]
 240:.\Generated_Source\PSoC4/cyfitter_cfg.c **** 
 241:.\Generated_Source\PSoC4/cyfitter_cfg.c **** 	/* Trim IMO BG based on desired frequency. */
 242:.\Generated_Source\PSoC4/cyfitter_cfg.c **** 	SetIMOBGTrims(24u);
 358              		.loc 1 242 0
 359 00b6 1820     		mov	r0, #24
 360 00b8 FFF7A2FF 		bl	SetIMOBGTrims
 243:.\Generated_Source\PSoC4/cyfitter_cfg.c **** 
 244:.\Generated_Source\PSoC4/cyfitter_cfg.c **** 	/* Going less than or equal to 24MHz, so update the clock speed then adjust trim value. */
 245:.\Generated_Source\PSoC4/cyfitter_cfg.c **** 	CY_SET_REG32((void CYXDATA *)(CYREG_CLK_IMO_TRIM2), (25u));
 361              		.loc 1 245 0
 362 00bc 124B     		ldr	r3, .L16+4
 363 00be 1922     		mov	r2, #25
 364 00c0 1A60     		str	r2, [r3]
 246:.\Generated_Source\PSoC4/cyfitter_cfg.c **** 	CyDelayCycles(5u);
 365              		.loc 1 246 0
 366 00c2 0520     		mov	r0, #5
 367 00c4 FFF7FEFF 		bl	CyDelayCycles
 247:.\Generated_Source\PSoC4/cyfitter_cfg.c **** 	CY_SET_REG32((void CYXDATA *)(CYREG_CLK_IMO_TRIM1), (CY_GET_REG8((void *)CYREG_SFLASH_IMO_TRIM21))
 368              		.loc 1 247 0
 369 00c8 104B     		ldr	r3, .L16+8
 370 00ca 114A     		ldr	r2, .L16+12
 371 00cc 1278     		ldrb	r2, [r2]
 372 00ce D2B2     		uxtb	r2, r2
 373 00d0 1A60     		str	r2, [r3]
 248:.\Generated_Source\PSoC4/cyfitter_cfg.c **** 	CyDelayUs(5u);
ARM GAS  C:\Users\Admin\AppData\Local\Temp\ccGlYQxk.s 			page 12


 374              		.loc 1 248 0
 375 00d2 0520     		mov	r0, #5
 376 00d4 FFF7FEFF 		bl	CyDelayUs
 249:.\Generated_Source\PSoC4/cyfitter_cfg.c **** 
 250:.\Generated_Source\PSoC4/cyfitter_cfg.c **** 	/* Disable HALF_EN since it is not required at this IMO frequency. */
 251:.\Generated_Source\PSoC4/cyfitter_cfg.c **** 	CY_SET_REG32((void CYXDATA *)(CYREG_CLK_SELECT), (CY_GET_REG32((void *)CYREG_CLK_SELECT) & 0xFFFBF
 377              		.loc 1 251 0
 378 00d8 0A4B     		ldr	r3, .L16
 379 00da 0A4A     		ldr	r2, .L16
 380 00dc 1168     		ldr	r1, [r2]
 381 00de 0D4A     		ldr	r2, .L16+16
 382 00e0 0A40     		and	r2, r1
 383 00e2 1A60     		str	r2, [r3]
 252:.\Generated_Source\PSoC4/cyfitter_cfg.c **** 	/* CYDEV_CLK_ILO_CONFIG Starting address: CYDEV_CLK_ILO_CONFIG */
 253:.\Generated_Source\PSoC4/cyfitter_cfg.c **** 	CY_SET_XTND_REG32((void CYFAR *)(CYREG_CLK_ILO_CONFIG), 0x80000006u);
 384              		.loc 1 253 0
 385 00e4 0C4B     		ldr	r3, .L16+20
 386 00e6 0D4A     		ldr	r2, .L16+24
 387 00e8 1A60     		str	r2, [r3]
 254:.\Generated_Source\PSoC4/cyfitter_cfg.c **** 
 255:.\Generated_Source\PSoC4/cyfitter_cfg.c **** 
 256:.\Generated_Source\PSoC4/cyfitter_cfg.c **** 	/* CYDEV_CLK_SELECT00 Starting address: CYDEV_CLK_SELECT00 */
 257:.\Generated_Source\PSoC4/cyfitter_cfg.c **** 	CY_SET_XTND_REG32((void CYFAR *)(CYREG_CLK_SELECT12), 0x00000010u);
 388              		.loc 1 257 0
 389 00ea 0D4B     		ldr	r3, .L16+28
 390 00ec 1022     		mov	r2, #16
 391 00ee 1A60     		str	r2, [r3]
 258:.\Generated_Source\PSoC4/cyfitter_cfg.c **** 
 259:.\Generated_Source\PSoC4/cyfitter_cfg.c **** 	/* CYDEV_CLK_IMO_CONFIG Starting address: CYDEV_CLK_IMO_CONFIG */
 260:.\Generated_Source\PSoC4/cyfitter_cfg.c **** 	CY_SET_XTND_REG32((void CYFAR *)(CYREG_CLK_IMO_CONFIG), 0x80000000u);
 392              		.loc 1 260 0
 393 00f0 0C4B     		ldr	r3, .L16+32
 394 00f2 8022     		mov	r2, #128
 395 00f4 1206     		lsl	r2, r2, #24
 396 00f6 1A60     		str	r2, [r3]
 261:.\Generated_Source\PSoC4/cyfitter_cfg.c **** 
 262:.\Generated_Source\PSoC4/cyfitter_cfg.c **** 	/* CYDEV_CLK_DIVIDER_A00 Starting address: CYDEV_CLK_DIVIDER_A00 */
 263:.\Generated_Source\PSoC4/cyfitter_cfg.c **** 	CY_SET_XTND_REG32((void CYFAR *)(CYREG_CLK_DIVIDER_A00), 0x8000176Fu);
 397              		.loc 1 263 0
 398 00f8 0B4B     		ldr	r3, .L16+36
 399 00fa 0C4A     		ldr	r2, .L16+40
 400 00fc 1A60     		str	r2, [r3]
 264:.\Generated_Source\PSoC4/cyfitter_cfg.c **** 
 265:.\Generated_Source\PSoC4/cyfitter_cfg.c **** }
 401              		.loc 1 265 0
 402 00fe BD46     		mov	sp, r7
 403              		@ sp needed
 404 0100 80BD     		pop	{r7, pc}
 405              	.L17:
 406 0102 C046     		.align	2
 407              	.L16:
 408 0104 00010B40 		.word	1074462976
 409 0108 2CFF0B40 		.word	1074528044
 410 010c 28FF0B40 		.word	1074528040
 411 0110 E5F1FF0F 		.word	268431845
 412 0114 FFFFFBFF 		.word	-262145
 413 0118 04010B40 		.word	1074462980
ARM GAS  C:\Users\Admin\AppData\Local\Temp\ccGlYQxk.s 			page 13


 414 011c 06000080 		.word	-2147483642
 415 0120 30020240 		.word	1073873456
 416 0124 08010B40 		.word	1074462984
 417 0128 00000240 		.word	1073872896
 418 012c 6F170080 		.word	-2147477649
 419              		.cfi_endproc
 420              	.LFE5:
 421              		.size	ClockSetup, .-ClockSetup
 422              		.section	.text.AnalogSetDefault,"ax",%progbits
 423              		.align	2
 424              		.code	16
 425              		.thumb_func
 426              		.type	AnalogSetDefault, %function
 427              	AnalogSetDefault:
 428              	.LFB6:
 266:.\Generated_Source\PSoC4/cyfitter_cfg.c **** 
 267:.\Generated_Source\PSoC4/cyfitter_cfg.c **** 
 268:.\Generated_Source\PSoC4/cyfitter_cfg.c **** /* Analog API Functions */
 269:.\Generated_Source\PSoC4/cyfitter_cfg.c **** 
 270:.\Generated_Source\PSoC4/cyfitter_cfg.c **** 
 271:.\Generated_Source\PSoC4/cyfitter_cfg.c **** /*******************************************************************************
 272:.\Generated_Source\PSoC4/cyfitter_cfg.c **** * Function Name: AnalogSetDefault
 273:.\Generated_Source\PSoC4/cyfitter_cfg.c **** ********************************************************************************
 274:.\Generated_Source\PSoC4/cyfitter_cfg.c **** *
 275:.\Generated_Source\PSoC4/cyfitter_cfg.c **** * Summary:
 276:.\Generated_Source\PSoC4/cyfitter_cfg.c **** *  Sets up the analog portions of the chip to default values based on chip
 277:.\Generated_Source\PSoC4/cyfitter_cfg.c **** *  configuration options from the project.
 278:.\Generated_Source\PSoC4/cyfitter_cfg.c **** *
 279:.\Generated_Source\PSoC4/cyfitter_cfg.c **** * Parameters:
 280:.\Generated_Source\PSoC4/cyfitter_cfg.c **** *  void
 281:.\Generated_Source\PSoC4/cyfitter_cfg.c **** *
 282:.\Generated_Source\PSoC4/cyfitter_cfg.c **** * Return:
 283:.\Generated_Source\PSoC4/cyfitter_cfg.c **** *  void
 284:.\Generated_Source\PSoC4/cyfitter_cfg.c **** *
 285:.\Generated_Source\PSoC4/cyfitter_cfg.c **** *******************************************************************************/
 286:.\Generated_Source\PSoC4/cyfitter_cfg.c **** static void AnalogSetDefault(void);
 287:.\Generated_Source\PSoC4/cyfitter_cfg.c **** static void AnalogSetDefault(void)
 288:.\Generated_Source\PSoC4/cyfitter_cfg.c **** {
 429              		.loc 1 288 0
 430              		.cfi_startproc
 431 0000 80B5     		push	{r7, lr}
 432              		.cfi_def_cfa_offset 8
 433              		.cfi_offset 7, -8
 434              		.cfi_offset 14, -4
 435 0002 00AF     		add	r7, sp, #0
 436              		.cfi_def_cfa_register 7
 289:.\Generated_Source\PSoC4/cyfitter_cfg.c **** }
 437              		.loc 1 289 0
 438 0004 BD46     		mov	sp, r7
 439              		@ sp needed
 440 0006 80BD     		pop	{r7, pc}
 441              		.cfi_endproc
 442              	.LFE6:
 443              		.size	AnalogSetDefault, .-AnalogSetDefault
 444              		.section	.psocinit
 445              		.align	2
 446              		.global	cyfitter_cfg
ARM GAS  C:\Users\Admin\AppData\Local\Temp\ccGlYQxk.s 			page 14


 447              		.code	16
 448              		.thumb_func
 449              		.type	cyfitter_cfg, %function
 450              	cyfitter_cfg:
 451              	.LFB7:
 290:.\Generated_Source\PSoC4/cyfitter_cfg.c **** 
 291:.\Generated_Source\PSoC4/cyfitter_cfg.c **** #define CY_AMUX_UNUSED CYREG_CM0_ROM_DWT
 292:.\Generated_Source\PSoC4/cyfitter_cfg.c **** 
 293:.\Generated_Source\PSoC4/cyfitter_cfg.c **** 
 294:.\Generated_Source\PSoC4/cyfitter_cfg.c **** /*******************************************************************************
 295:.\Generated_Source\PSoC4/cyfitter_cfg.c **** * Function Name: cyfitter_cfg
 296:.\Generated_Source\PSoC4/cyfitter_cfg.c **** ********************************************************************************
 297:.\Generated_Source\PSoC4/cyfitter_cfg.c **** * Summary:
 298:.\Generated_Source\PSoC4/cyfitter_cfg.c **** *  This function is called by the start-up code for the selected device. It
 299:.\Generated_Source\PSoC4/cyfitter_cfg.c **** *  performs all of the necessary device configuration based on the design
 300:.\Generated_Source\PSoC4/cyfitter_cfg.c **** *  settings.  This includes settings from the Design Wide Resources (DWR) such
 301:.\Generated_Source\PSoC4/cyfitter_cfg.c **** *  as Clocks and Pins as well as any component configuration that is necessary.
 302:.\Generated_Source\PSoC4/cyfitter_cfg.c **** *
 303:.\Generated_Source\PSoC4/cyfitter_cfg.c **** * Parameters:  
 304:.\Generated_Source\PSoC4/cyfitter_cfg.c **** *   void
 305:.\Generated_Source\PSoC4/cyfitter_cfg.c **** *
 306:.\Generated_Source\PSoC4/cyfitter_cfg.c **** * Return:
 307:.\Generated_Source\PSoC4/cyfitter_cfg.c **** *   void
 308:.\Generated_Source\PSoC4/cyfitter_cfg.c **** *
 309:.\Generated_Source\PSoC4/cyfitter_cfg.c **** *******************************************************************************/
 310:.\Generated_Source\PSoC4/cyfitter_cfg.c **** CY_CFG_SECTION
 311:.\Generated_Source\PSoC4/cyfitter_cfg.c **** void cyfitter_cfg(void)
 312:.\Generated_Source\PSoC4/cyfitter_cfg.c **** {
 452              		.loc 1 312 0
 453              		.cfi_startproc
 454 0130 80B5     		push	{r7, lr}
 455              		.cfi_def_cfa_offset 8
 456              		.cfi_offset 7, -8
 457              		.cfi_offset 14, -4
 458 0132 82B0     		sub	sp, sp, #8
 459              		.cfi_def_cfa_offset 16
 460 0134 00AF     		add	r7, sp, #0
 461              		.cfi_def_cfa_register 7
 313:.\Generated_Source\PSoC4/cyfitter_cfg.c **** 	/* Disable interrupts by default. Let user enable if/when they want. */
 314:.\Generated_Source\PSoC4/cyfitter_cfg.c **** 	CyGlobalIntDisable;
 462              		.loc 1 314 0
 463              	@ 314 ".\Generated_Source\PSoC4\cyfitter_cfg.c" 1
 464 0136 72B6     		CPSID   i
 465              	@ 0 "" 2
 466              		.code	16
 467              	.LBB3:
 315:.\Generated_Source\PSoC4/cyfitter_cfg.c **** 
 316:.\Generated_Source\PSoC4/cyfitter_cfg.c **** 	{
 317:.\Generated_Source\PSoC4/cyfitter_cfg.c **** 		static const uint32 CYCODE cy_cfg_addr_table[] = {
 318:.\Generated_Source\PSoC4/cyfitter_cfg.c **** 			0x400F0002u, /* Base address: 0x400F0000 Count: 2 */
 319:.\Generated_Source\PSoC4/cyfitter_cfg.c **** 			0x400F324Cu, /* Base address: 0x400F3200 Count: 76 */
 320:.\Generated_Source\PSoC4/cyfitter_cfg.c **** 			0x400F332Bu, /* Base address: 0x400F3300 Count: 43 */
 321:.\Generated_Source\PSoC4/cyfitter_cfg.c **** 			0x400F4002u, /* Base address: 0x400F4000 Count: 2 */
 322:.\Generated_Source\PSoC4/cyfitter_cfg.c **** 			0x400F4102u, /* Base address: 0x400F4100 Count: 2 */
 323:.\Generated_Source\PSoC4/cyfitter_cfg.c **** 			0x400F4202u, /* Base address: 0x400F4200 Count: 2 */
 324:.\Generated_Source\PSoC4/cyfitter_cfg.c **** 			0x400F4302u, /* Base address: 0x400F4300 Count: 2 */
 325:.\Generated_Source\PSoC4/cyfitter_cfg.c **** 			0x400F6002u, /* Base address: 0x400F6000 Count: 2 */
ARM GAS  C:\Users\Admin\AppData\Local\Temp\ccGlYQxk.s 			page 15


 326:.\Generated_Source\PSoC4/cyfitter_cfg.c **** 		};
 327:.\Generated_Source\PSoC4/cyfitter_cfg.c **** 
 328:.\Generated_Source\PSoC4/cyfitter_cfg.c **** 		static const cy_cfg_addrvalue_t CYCODE cy_cfg_data_table[] = {
 329:.\Generated_Source\PSoC4/cyfitter_cfg.c **** 			{0x82u, 0x0Du},
 330:.\Generated_Source\PSoC4/cyfitter_cfg.c **** 			{0x83u, 0x0Du},
 331:.\Generated_Source\PSoC4/cyfitter_cfg.c **** 			{0x0Fu, 0x01u},
 332:.\Generated_Source\PSoC4/cyfitter_cfg.c **** 			{0x14u, 0x04u},
 333:.\Generated_Source\PSoC4/cyfitter_cfg.c **** 			{0x1Au, 0x07u},
 334:.\Generated_Source\PSoC4/cyfitter_cfg.c **** 			{0x27u, 0x01u},
 335:.\Generated_Source\PSoC4/cyfitter_cfg.c **** 			{0x2Eu, 0x09u},
 336:.\Generated_Source\PSoC4/cyfitter_cfg.c **** 			{0x30u, 0x04u},
 337:.\Generated_Source\PSoC4/cyfitter_cfg.c **** 			{0x32u, 0x02u},
 338:.\Generated_Source\PSoC4/cyfitter_cfg.c **** 			{0x34u, 0x08u},
 339:.\Generated_Source\PSoC4/cyfitter_cfg.c **** 			{0x35u, 0x01u},
 340:.\Generated_Source\PSoC4/cyfitter_cfg.c **** 			{0x36u, 0x01u},
 341:.\Generated_Source\PSoC4/cyfitter_cfg.c **** 			{0x3Fu, 0x10u},
 342:.\Generated_Source\PSoC4/cyfitter_cfg.c **** 			{0x40u, 0x20u},
 343:.\Generated_Source\PSoC4/cyfitter_cfg.c **** 			{0x41u, 0x05u},
 344:.\Generated_Source\PSoC4/cyfitter_cfg.c **** 			{0x45u, 0xD1u},
 345:.\Generated_Source\PSoC4/cyfitter_cfg.c **** 			{0x46u, 0x02u},
 346:.\Generated_Source\PSoC4/cyfitter_cfg.c **** 			{0x48u, 0x07u},
 347:.\Generated_Source\PSoC4/cyfitter_cfg.c **** 			{0x49u, 0xFFu},
 348:.\Generated_Source\PSoC4/cyfitter_cfg.c **** 			{0x4Au, 0xFFu},
 349:.\Generated_Source\PSoC4/cyfitter_cfg.c **** 			{0x4Bu, 0xFFu},
 350:.\Generated_Source\PSoC4/cyfitter_cfg.c **** 			{0x4Du, 0xA0u},
 351:.\Generated_Source\PSoC4/cyfitter_cfg.c **** 			{0x4Fu, 0x04u},
 352:.\Generated_Source\PSoC4/cyfitter_cfg.c **** 			{0x50u, 0x18u},
 353:.\Generated_Source\PSoC4/cyfitter_cfg.c **** 			{0x52u, 0x80u},
 354:.\Generated_Source\PSoC4/cyfitter_cfg.c **** 			{0x54u, 0x05u},
 355:.\Generated_Source\PSoC4/cyfitter_cfg.c **** 			{0x58u, 0x04u},
 356:.\Generated_Source\PSoC4/cyfitter_cfg.c **** 			{0x59u, 0x04u},
 357:.\Generated_Source\PSoC4/cyfitter_cfg.c **** 			{0x5Au, 0x04u},
 358:.\Generated_Source\PSoC4/cyfitter_cfg.c **** 			{0x5Bu, 0x04u},
 359:.\Generated_Source\PSoC4/cyfitter_cfg.c **** 			{0x5Fu, 0x01u},
 360:.\Generated_Source\PSoC4/cyfitter_cfg.c **** 			{0x60u, 0x40u},
 361:.\Generated_Source\PSoC4/cyfitter_cfg.c **** 			{0x62u, 0xC0u},
 362:.\Generated_Source\PSoC4/cyfitter_cfg.c **** 			{0x64u, 0x40u},
 363:.\Generated_Source\PSoC4/cyfitter_cfg.c **** 			{0x65u, 0x40u},
 364:.\Generated_Source\PSoC4/cyfitter_cfg.c **** 			{0x66u, 0xC0u},
 365:.\Generated_Source\PSoC4/cyfitter_cfg.c **** 			{0x68u, 0xC0u},
 366:.\Generated_Source\PSoC4/cyfitter_cfg.c **** 			{0x6Au, 0xC0u},
 367:.\Generated_Source\PSoC4/cyfitter_cfg.c **** 			{0x6Cu, 0xC0u},
 368:.\Generated_Source\PSoC4/cyfitter_cfg.c **** 			{0x6Eu, 0xC0u},
 369:.\Generated_Source\PSoC4/cyfitter_cfg.c **** 			{0x87u, 0x01u},
 370:.\Generated_Source\PSoC4/cyfitter_cfg.c **** 			{0x92u, 0x09u},
 371:.\Generated_Source\PSoC4/cyfitter_cfg.c **** 			{0x93u, 0x01u},
 372:.\Generated_Source\PSoC4/cyfitter_cfg.c **** 			{0x9Cu, 0x04u},
 373:.\Generated_Source\PSoC4/cyfitter_cfg.c **** 			{0xA6u, 0x07u},
 374:.\Generated_Source\PSoC4/cyfitter_cfg.c **** 			{0xB0u, 0x04u},
 375:.\Generated_Source\PSoC4/cyfitter_cfg.c **** 			{0xB2u, 0x01u},
 376:.\Generated_Source\PSoC4/cyfitter_cfg.c **** 			{0xB3u, 0x01u},
 377:.\Generated_Source\PSoC4/cyfitter_cfg.c **** 			{0xB4u, 0x08u},
 378:.\Generated_Source\PSoC4/cyfitter_cfg.c **** 			{0xB6u, 0x02u},
 379:.\Generated_Source\PSoC4/cyfitter_cfg.c **** 			{0xBFu, 0x04u},
 380:.\Generated_Source\PSoC4/cyfitter_cfg.c **** 			{0xC0u, 0x20u},
 381:.\Generated_Source\PSoC4/cyfitter_cfg.c **** 			{0xC1u, 0x05u},
 382:.\Generated_Source\PSoC4/cyfitter_cfg.c **** 			{0xC5u, 0xD1u},
ARM GAS  C:\Users\Admin\AppData\Local\Temp\ccGlYQxk.s 			page 16


 383:.\Generated_Source\PSoC4/cyfitter_cfg.c **** 			{0xC7u, 0x20u},
 384:.\Generated_Source\PSoC4/cyfitter_cfg.c **** 			{0xC8u, 0x23u},
 385:.\Generated_Source\PSoC4/cyfitter_cfg.c **** 			{0xC9u, 0xFFu},
 386:.\Generated_Source\PSoC4/cyfitter_cfg.c **** 			{0xCAu, 0xFFu},
 387:.\Generated_Source\PSoC4/cyfitter_cfg.c **** 			{0xCBu, 0xFFu},
 388:.\Generated_Source\PSoC4/cyfitter_cfg.c **** 			{0xCDu, 0xA0u},
 389:.\Generated_Source\PSoC4/cyfitter_cfg.c **** 			{0xCFu, 0x04u},
 390:.\Generated_Source\PSoC4/cyfitter_cfg.c **** 			{0xD0u, 0x18u},
 391:.\Generated_Source\PSoC4/cyfitter_cfg.c **** 			{0xD2u, 0x80u},
 392:.\Generated_Source\PSoC4/cyfitter_cfg.c **** 			{0xD4u, 0x05u},
 393:.\Generated_Source\PSoC4/cyfitter_cfg.c **** 			{0xD8u, 0x04u},
 394:.\Generated_Source\PSoC4/cyfitter_cfg.c **** 			{0xD9u, 0x04u},
 395:.\Generated_Source\PSoC4/cyfitter_cfg.c **** 			{0xDAu, 0x04u},
 396:.\Generated_Source\PSoC4/cyfitter_cfg.c **** 			{0xDBu, 0x04u},
 397:.\Generated_Source\PSoC4/cyfitter_cfg.c **** 			{0xDFu, 0x01u},
 398:.\Generated_Source\PSoC4/cyfitter_cfg.c **** 			{0xE0u, 0x40u},
 399:.\Generated_Source\PSoC4/cyfitter_cfg.c **** 			{0xE2u, 0xC0u},
 400:.\Generated_Source\PSoC4/cyfitter_cfg.c **** 			{0xE4u, 0x40u},
 401:.\Generated_Source\PSoC4/cyfitter_cfg.c **** 			{0xE5u, 0x40u},
 402:.\Generated_Source\PSoC4/cyfitter_cfg.c **** 			{0xE6u, 0xC0u},
 403:.\Generated_Source\PSoC4/cyfitter_cfg.c **** 			{0xE8u, 0xC0u},
 404:.\Generated_Source\PSoC4/cyfitter_cfg.c **** 			{0xEAu, 0xC0u},
 405:.\Generated_Source\PSoC4/cyfitter_cfg.c **** 			{0xECu, 0xC0u},
 406:.\Generated_Source\PSoC4/cyfitter_cfg.c **** 			{0xEEu, 0xC0u},
 407:.\Generated_Source\PSoC4/cyfitter_cfg.c **** 			{0x09u, 0x02u},
 408:.\Generated_Source\PSoC4/cyfitter_cfg.c **** 			{0x0Au, 0x01u},
 409:.\Generated_Source\PSoC4/cyfitter_cfg.c **** 			{0x0Eu, 0x20u},
 410:.\Generated_Source\PSoC4/cyfitter_cfg.c **** 			{0x0Fu, 0x08u},
 411:.\Generated_Source\PSoC4/cyfitter_cfg.c **** 			{0x10u, 0x20u},
 412:.\Generated_Source\PSoC4/cyfitter_cfg.c **** 			{0x17u, 0x80u},
 413:.\Generated_Source\PSoC4/cyfitter_cfg.c **** 			{0x18u, 0x04u},
 414:.\Generated_Source\PSoC4/cyfitter_cfg.c **** 			{0x19u, 0x08u},
 415:.\Generated_Source\PSoC4/cyfitter_cfg.c **** 			{0x1Au, 0x41u},
 416:.\Generated_Source\PSoC4/cyfitter_cfg.c **** 			{0x1Du, 0xA0u},
 417:.\Generated_Source\PSoC4/cyfitter_cfg.c **** 			{0x1Eu, 0xA0u},
 418:.\Generated_Source\PSoC4/cyfitter_cfg.c **** 			{0x1Fu, 0x20u},
 419:.\Generated_Source\PSoC4/cyfitter_cfg.c **** 			{0x22u, 0x04u},
 420:.\Generated_Source\PSoC4/cyfitter_cfg.c **** 			{0x27u, 0x08u},
 421:.\Generated_Source\PSoC4/cyfitter_cfg.c **** 			{0x2Fu, 0x20u},
 422:.\Generated_Source\PSoC4/cyfitter_cfg.c **** 			{0x30u, 0x02u},
 423:.\Generated_Source\PSoC4/cyfitter_cfg.c **** 			{0x38u, 0x04u},
 424:.\Generated_Source\PSoC4/cyfitter_cfg.c **** 			{0x3Fu, 0x80u},
 425:.\Generated_Source\PSoC4/cyfitter_cfg.c **** 			{0x40u, 0x04u},
 426:.\Generated_Source\PSoC4/cyfitter_cfg.c **** 			{0x45u, 0x20u},
 427:.\Generated_Source\PSoC4/cyfitter_cfg.c **** 			{0x48u, 0x22u},
 428:.\Generated_Source\PSoC4/cyfitter_cfg.c **** 			{0x49u, 0x01u},
 429:.\Generated_Source\PSoC4/cyfitter_cfg.c **** 			{0x4Fu, 0x89u},
 430:.\Generated_Source\PSoC4/cyfitter_cfg.c **** 			{0x50u, 0x02u},
 431:.\Generated_Source\PSoC4/cyfitter_cfg.c **** 			{0x57u, 0x40u},
 432:.\Generated_Source\PSoC4/cyfitter_cfg.c **** 			{0x59u, 0x01u},
 433:.\Generated_Source\PSoC4/cyfitter_cfg.c **** 			{0x5Au, 0x48u},
 434:.\Generated_Source\PSoC4/cyfitter_cfg.c **** 			{0x5Eu, 0x80u},
 435:.\Generated_Source\PSoC4/cyfitter_cfg.c **** 			{0x5Fu, 0x09u},
 436:.\Generated_Source\PSoC4/cyfitter_cfg.c **** 			{0x71u, 0x02u},
 437:.\Generated_Source\PSoC4/cyfitter_cfg.c **** 			{0x77u, 0x80u},
 438:.\Generated_Source\PSoC4/cyfitter_cfg.c **** 			{0x81u, 0x08u},
 439:.\Generated_Source\PSoC4/cyfitter_cfg.c **** 			{0x8Du, 0x80u},
ARM GAS  C:\Users\Admin\AppData\Local\Temp\ccGlYQxk.s 			page 17


 440:.\Generated_Source\PSoC4/cyfitter_cfg.c **** 			{0xC2u, 0x69u},
 441:.\Generated_Source\PSoC4/cyfitter_cfg.c **** 			{0xC4u, 0x84u},
 442:.\Generated_Source\PSoC4/cyfitter_cfg.c **** 			{0xCAu, 0x40u},
 443:.\Generated_Source\PSoC4/cyfitter_cfg.c **** 			{0xCCu, 0x01u},
 444:.\Generated_Source\PSoC4/cyfitter_cfg.c **** 			{0xCEu, 0x12u},
 445:.\Generated_Source\PSoC4/cyfitter_cfg.c **** 			{0xD0u, 0x24u},
 446:.\Generated_Source\PSoC4/cyfitter_cfg.c **** 			{0xD2u, 0x18u},
 447:.\Generated_Source\PSoC4/cyfitter_cfg.c **** 			{0xD6u, 0xDBu},
 448:.\Generated_Source\PSoC4/cyfitter_cfg.c **** 			{0xE2u, 0x10u},
 449:.\Generated_Source\PSoC4/cyfitter_cfg.c **** 			{0xE4u, 0x04u},
 450:.\Generated_Source\PSoC4/cyfitter_cfg.c **** 			{0x5Au, 0x80u},
 451:.\Generated_Source\PSoC4/cyfitter_cfg.c **** 			{0xD4u, 0x80u},
 452:.\Generated_Source\PSoC4/cyfitter_cfg.c **** 			{0x8Eu, 0x40u},
 453:.\Generated_Source\PSoC4/cyfitter_cfg.c **** 			{0x96u, 0x80u},
 454:.\Generated_Source\PSoC4/cyfitter_cfg.c **** 			{0x67u, 0x02u},
 455:.\Generated_Source\PSoC4/cyfitter_cfg.c **** 			{0xD6u, 0x01u},
 456:.\Generated_Source\PSoC4/cyfitter_cfg.c **** 			{0x83u, 0x01u},
 457:.\Generated_Source\PSoC4/cyfitter_cfg.c **** 			{0x97u, 0x02u},
 458:.\Generated_Source\PSoC4/cyfitter_cfg.c **** 			{0x10u, 0x01u},
 459:.\Generated_Source\PSoC4/cyfitter_cfg.c **** 			{0x11u, 0x01u},
 460:.\Generated_Source\PSoC4/cyfitter_cfg.c **** 		};
 461:.\Generated_Source\PSoC4/cyfitter_cfg.c **** 
 462:.\Generated_Source\PSoC4/cyfitter_cfg.c **** 
 463:.\Generated_Source\PSoC4/cyfitter_cfg.c **** 
 464:.\Generated_Source\PSoC4/cyfitter_cfg.c **** 		CYPACKED typedef struct {
 465:.\Generated_Source\PSoC4/cyfitter_cfg.c **** 			void CYFAR *address;
 466:.\Generated_Source\PSoC4/cyfitter_cfg.c **** 			uint16 size;
 467:.\Generated_Source\PSoC4/cyfitter_cfg.c **** 		} CYPACKED_ATTR cfg_memset_t;
 468:.\Generated_Source\PSoC4/cyfitter_cfg.c **** 
 469:.\Generated_Source\PSoC4/cyfitter_cfg.c **** 		static const cfg_memset_t CYCODE cfg_memset_list [] = {
 470:.\Generated_Source\PSoC4/cyfitter_cfg.c **** 			/* address, size */
 471:.\Generated_Source\PSoC4/cyfitter_cfg.c **** 			{(void CYFAR *)(CYDEV_UDB_P0_U0_BASE), 1024u},
 472:.\Generated_Source\PSoC4/cyfitter_cfg.c **** 			{(void CYFAR *)(CYDEV_UDB_DSI0_BASE), 1024u},
 473:.\Generated_Source\PSoC4/cyfitter_cfg.c **** 		};
 474:.\Generated_Source\PSoC4/cyfitter_cfg.c **** 
 475:.\Generated_Source\PSoC4/cyfitter_cfg.c **** 		uint8 CYDATA i;
 476:.\Generated_Source\PSoC4/cyfitter_cfg.c **** 
 477:.\Generated_Source\PSoC4/cyfitter_cfg.c **** 		/* Zero out critical memory blocks before beginning configuration */
 478:.\Generated_Source\PSoC4/cyfitter_cfg.c **** 		for (i = 0u; i < (sizeof(cfg_memset_list)/sizeof(cfg_memset_list[0])); i++)
 468              		.loc 1 478 0
 469 0138 FB1D     		add	r3, r7, #7
 470 013a 0022     		mov	r2, #0
 471 013c 1A70     		strb	r2, [r3]
 472 013e 23E0     		b	.L20
 473              	.L21:
 474              	.LBB4:
 479:.\Generated_Source\PSoC4/cyfitter_cfg.c **** 		{
 480:.\Generated_Source\PSoC4/cyfitter_cfg.c **** 			const cfg_memset_t CYCODE * CYDATA ms = &cfg_memset_list[i];
 475              		.loc 1 480 0 discriminator 2
 476 0140 FB1D     		add	r3, r7, #7
 477 0142 1A78     		ldrb	r2, [r3]
 478 0144 131C     		mov	r3, r2
 479 0146 5B00     		lsl	r3, r3, #1
 480 0148 9B18     		add	r3, r3, r2
 481 014a 5B00     		lsl	r3, r3, #1
 482 014c 524A     		ldr	r2, .L22
 483 014e 9B18     		add	r3, r3, r2
ARM GAS  C:\Users\Admin\AppData\Local\Temp\ccGlYQxk.s 			page 18


 484 0150 3B60     		str	r3, [r7]
 481:.\Generated_Source\PSoC4/cyfitter_cfg.c **** 			CYMEMZERO(ms->address, (size_t)(uint32)(ms->size));
 485              		.loc 1 481 0 discriminator 2
 486 0152 3B68     		ldr	r3, [r7]
 487 0154 1A78     		ldrb	r2, [r3]
 488 0156 5978     		ldrb	r1, [r3, #1]
 489 0158 0902     		lsl	r1, r1, #8
 490 015a 0A43     		orr	r2, r1
 491 015c 9978     		ldrb	r1, [r3, #2]
 492 015e 0904     		lsl	r1, r1, #16
 493 0160 0A43     		orr	r2, r1
 494 0162 DB78     		ldrb	r3, [r3, #3]
 495 0164 1B06     		lsl	r3, r3, #24
 496 0166 1343     		orr	r3, r2
 497 0168 1A1C     		mov	r2, r3
 498 016a 3B68     		ldr	r3, [r7]
 499 016c 1979     		ldrb	r1, [r3, #4]
 500 016e 5B79     		ldrb	r3, [r3, #5]
 501 0170 1B02     		lsl	r3, r3, #8
 502 0172 0B43     		orr	r3, r1
 503 0174 9BB2     		uxth	r3, r3
 504 0176 101C     		mov	r0, r2
 505 0178 191C     		mov	r1, r3
 506 017a FFF7FEFF 		bl	CYMEMZERO
 507              	.LBE4:
 478:.\Generated_Source\PSoC4/cyfitter_cfg.c **** 		for (i = 0u; i < (sizeof(cfg_memset_list)/sizeof(cfg_memset_list[0])); i++)
 508              		.loc 1 478 0 discriminator 2
 509 017e FB1D     		add	r3, r7, #7
 510 0180 1A78     		ldrb	r2, [r3]
 511 0182 FB1D     		add	r3, r7, #7
 512 0184 0132     		add	r2, r2, #1
 513 0186 1A70     		strb	r2, [r3]
 514              	.L20:
 478:.\Generated_Source\PSoC4/cyfitter_cfg.c **** 		for (i = 0u; i < (sizeof(cfg_memset_list)/sizeof(cfg_memset_list[0])); i++)
 515              		.loc 1 478 0 is_stmt 0 discriminator 1
 516 0188 FB1D     		add	r3, r7, #7
 517 018a 1B78     		ldrb	r3, [r3]
 518 018c 012B     		cmp	r3, #1
 519 018e D7D9     		bls	.L21
 482:.\Generated_Source\PSoC4/cyfitter_cfg.c **** 		}
 483:.\Generated_Source\PSoC4/cyfitter_cfg.c **** 
 484:.\Generated_Source\PSoC4/cyfitter_cfg.c **** 		cfg_write_bytes32(cy_cfg_addr_table, cy_cfg_data_table);
 520              		.loc 1 484 0 is_stmt 1
 521 0190 424A     		ldr	r2, .L22+4
 522 0192 434B     		ldr	r3, .L22+8
 523 0194 101C     		mov	r0, r2
 524 0196 191C     		mov	r1, r3
 525 0198 FFF7FEFF 		bl	cfg_write_bytes32
 485:.\Generated_Source\PSoC4/cyfitter_cfg.c **** 
 486:.\Generated_Source\PSoC4/cyfitter_cfg.c **** 		/* Perform normal device configuration. Order is not critical for these items. */
 487:.\Generated_Source\PSoC4/cyfitter_cfg.c **** 		CY_SET_XTND_REG16((void CYFAR *)(CYREG_UDB_BCTL0_DRV), 0x0100u);
 526              		.loc 1 487 0
 527 019c 414B     		ldr	r3, .L22+12
 528 019e 8022     		mov	r2, #128
 529 01a0 5200     		lsl	r2, r2, #1
 530 01a2 1A80     		strh	r2, [r3]
 488:.\Generated_Source\PSoC4/cyfitter_cfg.c **** 		CY_SET_XTND_REG8((void CYFAR *)(CYREG_UDB_BCTL0_DRV + 0x2u), 0x01u);
ARM GAS  C:\Users\Admin\AppData\Local\Temp\ccGlYQxk.s 			page 19


 531              		.loc 1 488 0
 532 01a4 404B     		ldr	r3, .L22+16
 533 01a6 0122     		mov	r2, #1
 534 01a8 1A70     		strb	r2, [r3]
 489:.\Generated_Source\PSoC4/cyfitter_cfg.c **** 
 490:.\Generated_Source\PSoC4/cyfitter_cfg.c **** 		/* HSIOM Starting address: CYDEV_HSIOM_BASE */
 491:.\Generated_Source\PSoC4/cyfitter_cfg.c **** 		CY_SET_XTND_REG32((void CYFAR *)(CYDEV_HSIOM_BASE), 0x00000003u);
 535              		.loc 1 491 0
 536 01aa 404B     		ldr	r3, .L22+20
 537 01ac 0322     		mov	r2, #3
 538 01ae 1A60     		str	r2, [r3]
 492:.\Generated_Source\PSoC4/cyfitter_cfg.c **** 		CY_SET_XTND_REG32((void CYFAR *)(CYREG_HSIOM_PORT_SEL2), 0x00300000u);
 539              		.loc 1 492 0
 540 01b0 3F4B     		ldr	r3, .L22+24
 541 01b2 C022     		mov	r2, #192
 542 01b4 9203     		lsl	r2, r2, #14
 543 01b6 1A60     		str	r2, [r3]
 493:.\Generated_Source\PSoC4/cyfitter_cfg.c **** 		CY_SET_XTND_REG32((void CYFAR *)(CYREG_HSIOM_PORT_SEL3), 0x0000EE00u);
 544              		.loc 1 493 0
 545 01b8 3E4B     		ldr	r3, .L22+28
 546 01ba EE22     		mov	r2, #238
 547 01bc 1202     		lsl	r2, r2, #8
 548 01be 1A60     		str	r2, [r3]
 494:.\Generated_Source\PSoC4/cyfitter_cfg.c **** 
 495:.\Generated_Source\PSoC4/cyfitter_cfg.c **** 		/* IOPINS0_0 Starting address: CYDEV_PRT0_DR */
 496:.\Generated_Source\PSoC4/cyfitter_cfg.c **** 		CY_SET_XTND_REG32((void CYFAR *)(CYREG_PRT0_DR), 0x00000081u);
 549              		.loc 1 496 0
 550 01c0 3D4B     		ldr	r3, .L22+32
 551 01c2 8122     		mov	r2, #129
 552 01c4 1A60     		str	r2, [r3]
 497:.\Generated_Source\PSoC4/cyfitter_cfg.c **** 		CY_SET_XTND_REG32((void CYFAR *)(CYREG_PRT0_PC), 0x005801B6u);
 553              		.loc 1 497 0
 554 01c6 3D4B     		ldr	r3, .L22+36
 555 01c8 3D4A     		ldr	r2, .L22+40
 556 01ca 1A60     		str	r2, [r3]
 498:.\Generated_Source\PSoC4/cyfitter_cfg.c **** 		CY_SET_XTND_REG32((void CYFAR *)(CYREG_PRT0_INTCFG), 0x0000C000u);
 557              		.loc 1 498 0
 558 01cc 3D4B     		ldr	r3, .L22+44
 559 01ce C022     		mov	r2, #192
 560 01d0 1202     		lsl	r2, r2, #8
 561 01d2 1A60     		str	r2, [r3]
 499:.\Generated_Source\PSoC4/cyfitter_cfg.c **** 
 500:.\Generated_Source\PSoC4/cyfitter_cfg.c **** 		/* IOPINS0_1 Starting address: CYDEV_PRT1_DR */
 501:.\Generated_Source\PSoC4/cyfitter_cfg.c **** 		CY_SET_XTND_REG32((void CYFAR *)(CYREG_PRT1_DR), 0x00000004u);
 562              		.loc 1 501 0
 563 01d4 3C4B     		ldr	r3, .L22+48
 564 01d6 0422     		mov	r2, #4
 565 01d8 1A60     		str	r2, [r3]
 502:.\Generated_Source\PSoC4/cyfitter_cfg.c **** 		CY_SET_XTND_REG32((void CYFAR *)(CYREG_PRT1_PC), 0x00180080u);
 566              		.loc 1 502 0
 567 01da 3C4B     		ldr	r3, .L22+52
 568 01dc 3C4A     		ldr	r2, .L22+56
 569 01de 1A60     		str	r2, [r3]
 503:.\Generated_Source\PSoC4/cyfitter_cfg.c **** 		CY_SET_XTND_REG32((void CYFAR *)(CYREG_PRT1_INTCFG), 0x00000020u);
 570              		.loc 1 503 0
 571 01e0 3C4B     		ldr	r3, .L22+60
 572 01e2 2022     		mov	r2, #32
ARM GAS  C:\Users\Admin\AppData\Local\Temp\ccGlYQxk.s 			page 20


 573 01e4 1A60     		str	r2, [r3]
 504:.\Generated_Source\PSoC4/cyfitter_cfg.c **** 
 505:.\Generated_Source\PSoC4/cyfitter_cfg.c **** 		/* IOPINS0_2 Starting address: CYDEV_PRT2_DR */
 506:.\Generated_Source\PSoC4/cyfitter_cfg.c **** 		CY_SET_XTND_REG32((void CYFAR *)(CYREG_PRT2_DR), 0x00000020u);
 574              		.loc 1 506 0
 575 01e6 3C4B     		ldr	r3, .L22+64
 576 01e8 2022     		mov	r2, #32
 577 01ea 1A60     		str	r2, [r3]
 507:.\Generated_Source\PSoC4/cyfitter_cfg.c **** 		CY_SET_XTND_REG32((void CYFAR *)(CYREG_PRT2_PC), 0x00DB0000u);
 578              		.loc 1 507 0
 579 01ec 3B4B     		ldr	r3, .L22+68
 580 01ee DB22     		mov	r2, #219
 581 01f0 1204     		lsl	r2, r2, #16
 582 01f2 1A60     		str	r2, [r3]
 508:.\Generated_Source\PSoC4/cyfitter_cfg.c **** 
 509:.\Generated_Source\PSoC4/cyfitter_cfg.c **** 		/* IOPINS0_3 Starting address: CYDEV_PRT3_DR */
 510:.\Generated_Source\PSoC4/cyfitter_cfg.c **** 		CY_SET_XTND_REG32((void CYFAR *)(CYREG_PRT3_DR), 0x00000010u);
 583              		.loc 1 510 0
 584 01f4 3A4B     		ldr	r3, .L22+72
 585 01f6 1022     		mov	r2, #16
 586 01f8 1A60     		str	r2, [r3]
 511:.\Generated_Source\PSoC4/cyfitter_cfg.c **** 		CY_SET_XTND_REG32((void CYFAR *)(CYREG_PRT3_PC), 0x00002D80u);
 587              		.loc 1 511 0
 588 01fa 3A4B     		ldr	r3, .L22+76
 589 01fc B622     		mov	r2, #182
 590 01fe 9201     		lsl	r2, r2, #6
 591 0200 1A60     		str	r2, [r3]
 512:.\Generated_Source\PSoC4/cyfitter_cfg.c **** 		CY_SET_XTND_REG32((void CYFAR *)(CYREG_PRT3_INTCFG), 0x00000200u);
 592              		.loc 1 512 0
 593 0202 394B     		ldr	r3, .L22+80
 594 0204 8022     		mov	r2, #128
 595 0206 9200     		lsl	r2, r2, #2
 596 0208 1A60     		str	r2, [r3]
 513:.\Generated_Source\PSoC4/cyfitter_cfg.c **** 
 514:.\Generated_Source\PSoC4/cyfitter_cfg.c **** 		/* UDB_PA_0 Starting address: CYDEV_UDB_PA0_BASE */
 515:.\Generated_Source\PSoC4/cyfitter_cfg.c **** 		CY_SET_XTND_REG32((void CYFAR *)(CYDEV_UDB_PA0_BASE), 0x00990000u);
 597              		.loc 1 515 0
 598 020a 384B     		ldr	r3, .L22+84
 599 020c 9922     		mov	r2, #153
 600 020e 1204     		lsl	r2, r2, #16
 601 0210 1A60     		str	r2, [r3]
 516:.\Generated_Source\PSoC4/cyfitter_cfg.c **** 		CY_SET_XTND_REG32((void CYFAR *)(CYREG_UDB_PA0_CFG4), 0x80000000u);
 602              		.loc 1 516 0
 603 0212 374B     		ldr	r3, .L22+88
 604 0214 8022     		mov	r2, #128
 605 0216 1206     		lsl	r2, r2, #24
 606 0218 1A60     		str	r2, [r3]
 517:.\Generated_Source\PSoC4/cyfitter_cfg.c **** 		CY_SET_XTND_REG32((void CYFAR *)(CYREG_UDB_PA0_CFG8), 0x00020000u);
 607              		.loc 1 517 0
 608 021a 364B     		ldr	r3, .L22+92
 609 021c 8022     		mov	r2, #128
 610 021e 9202     		lsl	r2, r2, #10
 611 0220 1A60     		str	r2, [r3]
 518:.\Generated_Source\PSoC4/cyfitter_cfg.c **** 
 519:.\Generated_Source\PSoC4/cyfitter_cfg.c **** 		/* UDB_PA_1 Starting address: CYDEV_UDB_PA1_BASE */
 520:.\Generated_Source\PSoC4/cyfitter_cfg.c **** 		CY_SET_XTND_REG32((void CYFAR *)(CYDEV_UDB_PA1_BASE), 0x00990000u);
 612              		.loc 1 520 0
ARM GAS  C:\Users\Admin\AppData\Local\Temp\ccGlYQxk.s 			page 21


 613 0222 354B     		ldr	r3, .L22+96
 614 0224 9922     		mov	r2, #153
 615 0226 1204     		lsl	r2, r2, #16
 616 0228 1A60     		str	r2, [r3]
 521:.\Generated_Source\PSoC4/cyfitter_cfg.c **** 		CY_SET_XTND_REG32((void CYFAR *)(CYREG_UDB_PA1_CFG4), 0x00200000u);
 617              		.loc 1 521 0
 618 022a 344B     		ldr	r3, .L22+100
 619 022c 8022     		mov	r2, #128
 620 022e 9203     		lsl	r2, r2, #14
 621 0230 1A60     		str	r2, [r3]
 522:.\Generated_Source\PSoC4/cyfitter_cfg.c **** 
 523:.\Generated_Source\PSoC4/cyfitter_cfg.c **** 		/* UDB_PA_2 Starting address: CYDEV_UDB_PA2_BASE */
 524:.\Generated_Source\PSoC4/cyfitter_cfg.c **** 		CY_SET_XTND_REG32((void CYFAR *)(CYDEV_UDB_PA2_BASE), 0x00990000u);
 622              		.loc 1 524 0
 623 0232 334B     		ldr	r3, .L22+104
 624 0234 9922     		mov	r2, #153
 625 0236 1204     		lsl	r2, r2, #16
 626 0238 1A60     		str	r2, [r3]
 525:.\Generated_Source\PSoC4/cyfitter_cfg.c **** 		CY_SET_XTND_REG32((void CYFAR *)(CYREG_UDB_PA2_CFG8), 0x04000000u);
 627              		.loc 1 525 0
 628 023a 324B     		ldr	r3, .L22+108
 629 023c 8022     		mov	r2, #128
 630 023e D204     		lsl	r2, r2, #19
 631 0240 1A60     		str	r2, [r3]
 526:.\Generated_Source\PSoC4/cyfitter_cfg.c **** 
 527:.\Generated_Source\PSoC4/cyfitter_cfg.c **** 		/* UDB_PA_3 Starting address: CYDEV_UDB_PA3_BASE */
 528:.\Generated_Source\PSoC4/cyfitter_cfg.c **** 		CY_SET_XTND_REG32((void CYFAR *)(CYDEV_UDB_PA3_BASE), 0x00990000u);
 632              		.loc 1 528 0
 633 0242 314B     		ldr	r3, .L22+112
 634 0244 9922     		mov	r2, #153
 635 0246 1204     		lsl	r2, r2, #16
 636 0248 1A60     		str	r2, [r3]
 529:.\Generated_Source\PSoC4/cyfitter_cfg.c **** 		CY_SET_XTND_REG32((void CYFAR *)(CYREG_UDB_PA3_CFG4), 0x02000000u);
 637              		.loc 1 529 0
 638 024a 304B     		ldr	r3, .L22+116
 639 024c 8022     		mov	r2, #128
 640 024e 9204     		lsl	r2, r2, #18
 641 0250 1A60     		str	r2, [r3]
 530:.\Generated_Source\PSoC4/cyfitter_cfg.c **** 
 531:.\Generated_Source\PSoC4/cyfitter_cfg.c **** 		/* Enable digital routing */
 532:.\Generated_Source\PSoC4/cyfitter_cfg.c **** 		CY_SET_XTND_REG8((void *)CYREG_UDB_UDBIF_BANK_CTL, CY_GET_XTND_REG8((void *)CYREG_UDB_UDBIF_BANK_
 642              		.loc 1 532 0
 643 0252 2F4B     		ldr	r3, .L22+120
 644 0254 2E4A     		ldr	r2, .L22+120
 645 0256 1278     		ldrb	r2, [r2]
 646 0258 D2B2     		uxtb	r2, r2
 647 025a 0221     		mov	r1, #2
 648 025c 0A43     		orr	r2, r1
 649 025e D2B2     		uxtb	r2, r2
 650 0260 1A70     		strb	r2, [r3]
 533:.\Generated_Source\PSoC4/cyfitter_cfg.c **** 
 534:.\Generated_Source\PSoC4/cyfitter_cfg.c **** 		/* Enable UDB array */
 535:.\Generated_Source\PSoC4/cyfitter_cfg.c **** 		CY_SET_XTND_REG8((void *)CYREG_UDB_UDBIF_WAIT_CFG, (uint8)((CY_GET_XTND_REG8((void *)CYREG_UDB_UD
 651              		.loc 1 535 0
 652 0262 2C4B     		ldr	r3, .L22+124
 653 0264 2B4A     		ldr	r2, .L22+124
 654 0266 1278     		ldrb	r2, [r2]
ARM GAS  C:\Users\Admin\AppData\Local\Temp\ccGlYQxk.s 			page 22


 655 0268 D2B2     		uxtb	r2, r2
 656 026a 3C21     		mov	r1, #60
 657 026c 8A43     		bic	r2, r1
 658 026e D2B2     		uxtb	r2, r2
 659 0270 1421     		mov	r1, #20
 660 0272 0A43     		orr	r2, r1
 661 0274 D2B2     		uxtb	r2, r2
 662 0276 1A70     		strb	r2, [r3]
 536:.\Generated_Source\PSoC4/cyfitter_cfg.c **** 		CY_SET_XTND_REG8((void *)CYREG_UDB_UDBIF_BANK_CTL, (uint8)(CY_GET_XTND_REG8((void *)CYREG_UDB_UDB
 663              		.loc 1 536 0
 664 0278 254B     		ldr	r3, .L22+120
 665 027a 254A     		ldr	r2, .L22+120
 666 027c 1278     		ldrb	r2, [r2]
 667 027e D2B2     		uxtb	r2, r2
 668 0280 1621     		mov	r1, #22
 669 0282 0A43     		orr	r2, r1
 670 0284 D2B2     		uxtb	r2, r2
 671 0286 1A70     		strb	r2, [r3]
 672              	.LBE3:
 537:.\Generated_Source\PSoC4/cyfitter_cfg.c **** 	}
 538:.\Generated_Source\PSoC4/cyfitter_cfg.c **** 
 539:.\Generated_Source\PSoC4/cyfitter_cfg.c **** 	/* Setup clocks based on selections from Clock DWR */
 540:.\Generated_Source\PSoC4/cyfitter_cfg.c **** 	ClockSetup();
 673              		.loc 1 540 0
 674 0288 FFF70CFF 		bl	ClockSetup
 541:.\Generated_Source\PSoC4/cyfitter_cfg.c **** 
 542:.\Generated_Source\PSoC4/cyfitter_cfg.c **** 	/* Perform basic analog initialization to defaults */
 543:.\Generated_Source\PSoC4/cyfitter_cfg.c **** 	AnalogSetDefault();
 675              		.loc 1 543 0
 676 028c FFF7FEFF 		bl	AnalogSetDefault
 544:.\Generated_Source\PSoC4/cyfitter_cfg.c **** 
 545:.\Generated_Source\PSoC4/cyfitter_cfg.c **** }
 677              		.loc 1 545 0
 678 0290 BD46     		mov	sp, r7
 679 0292 02B0     		add	sp, sp, #8
 680              		@ sp needed
 681 0294 80BD     		pop	{r7, pc}
 682              	.L23:
 683 0296 C046     		.align	2
 684              	.L22:
 685 0298 04000000 		.word	cfg_memset_list.4735
 686 029c 10000000 		.word	cy_cfg_addr_table.4729
 687 02a0 30000000 		.word	cy_cfg_data_table.4730
 688 02a4 00600F40 		.word	1074749440
 689 02a8 02600F40 		.word	1074749442
 690 02ac 00000140 		.word	1073807360
 691 02b0 08000140 		.word	1073807368
 692 02b4 0C000140 		.word	1073807372
 693 02b8 00000440 		.word	1074003968
 694 02bc 08000440 		.word	1074003976
 695 02c0 B6015800 		.word	5767606
 696 02c4 0C000440 		.word	1074003980
 697 02c8 00010440 		.word	1074004224
 698 02cc 08010440 		.word	1074004232
 699 02d0 80001800 		.word	1572992
 700 02d4 0C010440 		.word	1074004236
 701 02d8 00020440 		.word	1074004480
ARM GAS  C:\Users\Admin\AppData\Local\Temp\ccGlYQxk.s 			page 23


 702 02dc 08020440 		.word	1074004488
 703 02e0 00030440 		.word	1074004736
 704 02e4 08030440 		.word	1074004744
 705 02e8 0C030440 		.word	1074004748
 706 02ec 00500F40 		.word	1074745344
 707 02f0 04500F40 		.word	1074745348
 708 02f4 08500F40 		.word	1074745352
 709 02f8 10500F40 		.word	1074745360
 710 02fc 14500F40 		.word	1074745364
 711 0300 20500F40 		.word	1074745376
 712 0304 28500F40 		.word	1074745384
 713 0308 30500F40 		.word	1074745392
 714 030c 34500F40 		.word	1074745396
 715 0310 00700F40 		.word	1074753536
 716 0314 01700F40 		.word	1074753537
 717              		.cfi_endproc
 718              	.LFE7:
 719              		.size	cyfitter_cfg, .-cyfitter_cfg
 720              		.data
 721              		.align	2
 722              		.type	imo_trim_table.4708, %object
 723              		.size	imo_trim_table.4708, 4
 724              	imo_trim_table.4708:
 725 0000 C0F1FF0F 		.word	268431808
 726              		.section	.rodata
 727              		.align	2
 728              		.type	IMO_TRIM_FREQ_TABLE_ENTRIES.4709, %object
 729              		.size	IMO_TRIM_FREQ_TABLE_ENTRIES.4709, 4
 730              	IMO_TRIM_FREQ_TABLE_ENTRIES.4709:
 731 0000 04000000 		.word	4
 732              		.align	2
 733              		.type	cfg_memset_list.4735, %object
 734              		.size	cfg_memset_list.4735, 12
 735              	cfg_memset_list.4735:
 736 0004 00300F40 		.word	1074737152
 737 0008 0004     		.short	1024
 738 000a 00400F40 		.4byte	1074741248
 739 000e 0004     		.short	1024
 740              		.align	2
 741              		.type	cy_cfg_addr_table.4729, %object
 742              		.size	cy_cfg_addr_table.4729, 32
 743              	cy_cfg_addr_table.4729:
 744 0010 02000F40 		.word	1074724866
 745 0014 4C320F40 		.word	1074737740
 746 0018 2B330F40 		.word	1074737963
 747 001c 02400F40 		.word	1074741250
 748 0020 02410F40 		.word	1074741506
 749 0024 02420F40 		.word	1074741762
 750 0028 02430F40 		.word	1074742018
 751 002c 02600F40 		.word	1074749442
 752              		.align	2
 753              		.type	cy_cfg_data_table.4730, %object
 754              		.size	cy_cfg_data_table.4730, 262
 755              	cy_cfg_data_table.4730:
 756 0030 82       		.byte	-126
 757 0031 0D       		.byte	13
 758 0032 83       		.byte	-125
ARM GAS  C:\Users\Admin\AppData\Local\Temp\ccGlYQxk.s 			page 24


 759 0033 0D       		.byte	13
 760 0034 0F       		.byte	15
 761 0035 01       		.byte	1
 762 0036 14       		.byte	20
 763 0037 04       		.byte	4
 764 0038 1A       		.byte	26
 765 0039 07       		.byte	7
 766 003a 27       		.byte	39
 767 003b 01       		.byte	1
 768 003c 2E       		.byte	46
 769 003d 09       		.byte	9
 770 003e 30       		.byte	48
 771 003f 04       		.byte	4
 772 0040 32       		.byte	50
 773 0041 02       		.byte	2
 774 0042 34       		.byte	52
 775 0043 08       		.byte	8
 776 0044 35       		.byte	53
 777 0045 01       		.byte	1
 778 0046 36       		.byte	54
 779 0047 01       		.byte	1
 780 0048 3F       		.byte	63
 781 0049 10       		.byte	16
 782 004a 40       		.byte	64
 783 004b 20       		.byte	32
 784 004c 41       		.byte	65
 785 004d 05       		.byte	5
 786 004e 45       		.byte	69
 787 004f D1       		.byte	-47
 788 0050 46       		.byte	70
 789 0051 02       		.byte	2
 790 0052 48       		.byte	72
 791 0053 07       		.byte	7
 792 0054 49       		.byte	73
 793 0055 FF       		.byte	-1
 794 0056 4A       		.byte	74
 795 0057 FF       		.byte	-1
 796 0058 4B       		.byte	75
 797 0059 FF       		.byte	-1
 798 005a 4D       		.byte	77
 799 005b A0       		.byte	-96
 800 005c 4F       		.byte	79
 801 005d 04       		.byte	4
 802 005e 50       		.byte	80
 803 005f 18       		.byte	24
 804 0060 52       		.byte	82
 805 0061 80       		.byte	-128
 806 0062 54       		.byte	84
 807 0063 05       		.byte	5
 808 0064 58       		.byte	88
 809 0065 04       		.byte	4
 810 0066 59       		.byte	89
 811 0067 04       		.byte	4
 812 0068 5A       		.byte	90
 813 0069 04       		.byte	4
 814 006a 5B       		.byte	91
 815 006b 04       		.byte	4
ARM GAS  C:\Users\Admin\AppData\Local\Temp\ccGlYQxk.s 			page 25


 816 006c 5F       		.byte	95
 817 006d 01       		.byte	1
 818 006e 60       		.byte	96
 819 006f 40       		.byte	64
 820 0070 62       		.byte	98
 821 0071 C0       		.byte	-64
 822 0072 64       		.byte	100
 823 0073 40       		.byte	64
 824 0074 65       		.byte	101
 825 0075 40       		.byte	64
 826 0076 66       		.byte	102
 827 0077 C0       		.byte	-64
 828 0078 68       		.byte	104
 829 0079 C0       		.byte	-64
 830 007a 6A       		.byte	106
 831 007b C0       		.byte	-64
 832 007c 6C       		.byte	108
 833 007d C0       		.byte	-64
 834 007e 6E       		.byte	110
 835 007f C0       		.byte	-64
 836 0080 87       		.byte	-121
 837 0081 01       		.byte	1
 838 0082 92       		.byte	-110
 839 0083 09       		.byte	9
 840 0084 93       		.byte	-109
 841 0085 01       		.byte	1
 842 0086 9C       		.byte	-100
 843 0087 04       		.byte	4
 844 0088 A6       		.byte	-90
 845 0089 07       		.byte	7
 846 008a B0       		.byte	-80
 847 008b 04       		.byte	4
 848 008c B2       		.byte	-78
 849 008d 01       		.byte	1
 850 008e B3       		.byte	-77
 851 008f 01       		.byte	1
 852 0090 B4       		.byte	-76
 853 0091 08       		.byte	8
 854 0092 B6       		.byte	-74
 855 0093 02       		.byte	2
 856 0094 BF       		.byte	-65
 857 0095 04       		.byte	4
 858 0096 C0       		.byte	-64
 859 0097 20       		.byte	32
 860 0098 C1       		.byte	-63
 861 0099 05       		.byte	5
 862 009a C5       		.byte	-59
 863 009b D1       		.byte	-47
 864 009c C7       		.byte	-57
 865 009d 20       		.byte	32
 866 009e C8       		.byte	-56
 867 009f 23       		.byte	35
 868 00a0 C9       		.byte	-55
 869 00a1 FF       		.byte	-1
 870 00a2 CA       		.byte	-54
 871 00a3 FF       		.byte	-1
 872 00a4 CB       		.byte	-53
ARM GAS  C:\Users\Admin\AppData\Local\Temp\ccGlYQxk.s 			page 26


 873 00a5 FF       		.byte	-1
 874 00a6 CD       		.byte	-51
 875 00a7 A0       		.byte	-96
 876 00a8 CF       		.byte	-49
 877 00a9 04       		.byte	4
 878 00aa D0       		.byte	-48
 879 00ab 18       		.byte	24
 880 00ac D2       		.byte	-46
 881 00ad 80       		.byte	-128
 882 00ae D4       		.byte	-44
 883 00af 05       		.byte	5
 884 00b0 D8       		.byte	-40
 885 00b1 04       		.byte	4
 886 00b2 D9       		.byte	-39
 887 00b3 04       		.byte	4
 888 00b4 DA       		.byte	-38
 889 00b5 04       		.byte	4
 890 00b6 DB       		.byte	-37
 891 00b7 04       		.byte	4
 892 00b8 DF       		.byte	-33
 893 00b9 01       		.byte	1
 894 00ba E0       		.byte	-32
 895 00bb 40       		.byte	64
 896 00bc E2       		.byte	-30
 897 00bd C0       		.byte	-64
 898 00be E4       		.byte	-28
 899 00bf 40       		.byte	64
 900 00c0 E5       		.byte	-27
 901 00c1 40       		.byte	64
 902 00c2 E6       		.byte	-26
 903 00c3 C0       		.byte	-64
 904 00c4 E8       		.byte	-24
 905 00c5 C0       		.byte	-64
 906 00c6 EA       		.byte	-22
 907 00c7 C0       		.byte	-64
 908 00c8 EC       		.byte	-20
 909 00c9 C0       		.byte	-64
 910 00ca EE       		.byte	-18
 911 00cb C0       		.byte	-64
 912 00cc 09       		.byte	9
 913 00cd 02       		.byte	2
 914 00ce 0A       		.byte	10
 915 00cf 01       		.byte	1
 916 00d0 0E       		.byte	14
 917 00d1 20       		.byte	32
 918 00d2 0F       		.byte	15
 919 00d3 08       		.byte	8
 920 00d4 10       		.byte	16
 921 00d5 20       		.byte	32
 922 00d6 17       		.byte	23
 923 00d7 80       		.byte	-128
 924 00d8 18       		.byte	24
 925 00d9 04       		.byte	4
 926 00da 19       		.byte	25
 927 00db 08       		.byte	8
 928 00dc 1A       		.byte	26
 929 00dd 41       		.byte	65
ARM GAS  C:\Users\Admin\AppData\Local\Temp\ccGlYQxk.s 			page 27


 930 00de 1D       		.byte	29
 931 00df A0       		.byte	-96
 932 00e0 1E       		.byte	30
 933 00e1 A0       		.byte	-96
 934 00e2 1F       		.byte	31
 935 00e3 20       		.byte	32
 936 00e4 22       		.byte	34
 937 00e5 04       		.byte	4
 938 00e6 27       		.byte	39
 939 00e7 08       		.byte	8
 940 00e8 2F       		.byte	47
 941 00e9 20       		.byte	32
 942 00ea 30       		.byte	48
 943 00eb 02       		.byte	2
 944 00ec 38       		.byte	56
 945 00ed 04       		.byte	4
 946 00ee 3F       		.byte	63
 947 00ef 80       		.byte	-128
 948 00f0 40       		.byte	64
 949 00f1 04       		.byte	4
 950 00f2 45       		.byte	69
 951 00f3 20       		.byte	32
 952 00f4 48       		.byte	72
 953 00f5 22       		.byte	34
 954 00f6 49       		.byte	73
 955 00f7 01       		.byte	1
 956 00f8 4F       		.byte	79
 957 00f9 89       		.byte	-119
 958 00fa 50       		.byte	80
 959 00fb 02       		.byte	2
 960 00fc 57       		.byte	87
 961 00fd 40       		.byte	64
 962 00fe 59       		.byte	89
 963 00ff 01       		.byte	1
 964 0100 5A       		.byte	90
 965 0101 48       		.byte	72
 966 0102 5E       		.byte	94
 967 0103 80       		.byte	-128
 968 0104 5F       		.byte	95
 969 0105 09       		.byte	9
 970 0106 71       		.byte	113
 971 0107 02       		.byte	2
 972 0108 77       		.byte	119
 973 0109 80       		.byte	-128
 974 010a 81       		.byte	-127
 975 010b 08       		.byte	8
 976 010c 8D       		.byte	-115
 977 010d 80       		.byte	-128
 978 010e C2       		.byte	-62
 979 010f 69       		.byte	105
 980 0110 C4       		.byte	-60
 981 0111 84       		.byte	-124
 982 0112 CA       		.byte	-54
 983 0113 40       		.byte	64
 984 0114 CC       		.byte	-52
 985 0115 01       		.byte	1
 986 0116 CE       		.byte	-50
ARM GAS  C:\Users\Admin\AppData\Local\Temp\ccGlYQxk.s 			page 28


 987 0117 12       		.byte	18
 988 0118 D0       		.byte	-48
 989 0119 24       		.byte	36
 990 011a D2       		.byte	-46
 991 011b 18       		.byte	24
 992 011c D6       		.byte	-42
 993 011d DB       		.byte	-37
 994 011e E2       		.byte	-30
 995 011f 10       		.byte	16
 996 0120 E4       		.byte	-28
 997 0121 04       		.byte	4
 998 0122 5A       		.byte	90
 999 0123 80       		.byte	-128
 1000 0124 D4       		.byte	-44
 1001 0125 80       		.byte	-128
 1002 0126 8E       		.byte	-114
 1003 0127 40       		.byte	64
 1004 0128 96       		.byte	-106
 1005 0129 80       		.byte	-128
 1006 012a 67       		.byte	103
 1007 012b 02       		.byte	2
 1008 012c D6       		.byte	-42
 1009 012d 01       		.byte	1
 1010 012e 83       		.byte	-125
 1011 012f 01       		.byte	1
 1012 0130 97       		.byte	-105
 1013 0131 02       		.byte	2
 1014 0132 10       		.byte	16
 1015 0133 01       		.byte	1
 1016 0134 11       		.byte	17
 1017 0135 01       		.byte	1
 1018 0136 0000     		.text
 1019              	.Letext0:
 1020              		.file 2 "c:\\program files\\cypress\\psoc creator\\3.1\\psoc creator\\import\\gnu_cs\\arm\\4.8.4\\
 1021              		.file 3 ".\\Generated_Source\\PSoC4/cytypes.h"