ARM GAS  C:\Users\Admin\AppData\Local\Temp\ccRjRc4e.s 			page 1


   1              		.cpu cortex-m0
   2              		.fpu softvfp
   3              		.eabi_attribute 20, 1
   4              		.eabi_attribute 21, 1
   5              		.eabi_attribute 23, 3
   6              		.eabi_attribute 24, 1
   7              		.eabi_attribute 25, 1
   8              		.eabi_attribute 26, 1
   9              		.eabi_attribute 30, 6
  10              		.eabi_attribute 34, 0
  11              		.eabi_attribute 18, 4
  12              		.code	16
  13              		.file	"togglelib.c"
  14              		.text
  15              	.Ltext0:
  16              		.cfi_sections	.debug_frame
  17              		.global	ltp_count
  18              		.bss
  19              		.type	ltp_count, %object
  20              		.size	ltp_count, 1
  21              	ltp_count:
  22 0000 00       		.space	1
  23              		.global	rtp_count
  24              		.type	rtp_count, %object
  25              		.size	rtp_count, 1
  26              	rtp_count:
  27 0001 00       		.space	1
  28              		.global	__aeabi_idivmod
  29              		.section	.text.SWL_Handler,"ax",%progbits
  30              		.align	2
  31              		.global	SWL_Handler
  32              		.code	16
  33              		.thumb_func
  34              		.type	SWL_Handler, %function
  35              	SWL_Handler:
  36              	.LFB33:
  37              		.file 1 ".\\togglelib.c"
   1:.\togglelib.c **** /* ========================================
   2:.\togglelib.c ****  *
   3:.\togglelib.c ****  * Copyright Nullify, 2016
   4:.\togglelib.c ****  * All Rights Reserved
   5:.\togglelib.c ****  * UNPUBLISHED, LICENSED SOFTWARE.
   6:.\togglelib.c ****  *
   7:.\togglelib.c ****  * CONFIDENTIAL AND PROPRIETARY INFORMATION
   8:.\togglelib.c ****  * WHICH IS THE PROPERTY OF NULLIY.
   9:.\togglelib.c ****  *
  10:.\togglelib.c ****  * ========================================
  11:.\togglelib.c **** */
  12:.\togglelib.c **** #include <project.h>
  13:.\togglelib.c **** #include <stdio.h>
  14:.\togglelib.c **** #include <time.h>
  15:.\togglelib.c **** #include <stdlib.h>
  16:.\togglelib.c **** #include "lightlib.h"
  17:.\togglelib.c **** #include "togglelib.h"
  18:.\togglelib.c **** 
  19:.\togglelib.c **** 
  20:.\togglelib.c **** volatile uint8 ltp_count = 0;
ARM GAS  C:\Users\Admin\AppData\Local\Temp\ccRjRc4e.s 			page 2


  21:.\togglelib.c **** volatile uint8 rtp_count = 0;
  22:.\togglelib.c **** 
  23:.\togglelib.c **** /* Signal handler for left toggle press */
  24:.\togglelib.c **** CY_ISR( SWL_Handler ) {
  38              		.loc 1 24 0
  39              		.cfi_startproc
  40 0000 90B5     		push	{r4, r7, lr}
  41              		.cfi_def_cfa_offset 12
  42              		.cfi_offset 4, -12
  43              		.cfi_offset 7, -8
  44              		.cfi_offset 14, -4
  45 0002 83B0     		sub	sp, sp, #12
  46              		.cfi_def_cfa_offset 24
  47 0004 00AF     		add	r7, sp, #0
  48              		.cfi_def_cfa_register 7
  25:.\togglelib.c ****     uint8 new_color_left;
  26:.\togglelib.c ****     uint8 current_color_left; 
  27:.\togglelib.c ****     
  28:.\togglelib.c ****     ltp_count += 1;
  49              		.loc 1 28 0
  50 0006 214B     		ldr	r3, .L5
  51 0008 1B78     		ldrb	r3, [r3]
  52 000a DBB2     		uxtb	r3, r3
  53 000c 0133     		add	r3, r3, #1
  54 000e DAB2     		uxtb	r2, r3
  55 0010 1E4B     		ldr	r3, .L5
  56 0012 1A70     		strb	r2, [r3]
  29:.\togglelib.c ****     
  30:.\togglelib.c ****     if (ltp_count == LIGHT_CHANGE_NUM) {
  57              		.loc 1 30 0
  58 0014 1D4B     		ldr	r3, .L5
  59 0016 1B78     		ldrb	r3, [r3]
  60 0018 DBB2     		uxtb	r3, r3
  61 001a 052B     		cmp	r3, #5
  62 001c 2DD1     		bne	.L2
  31:.\togglelib.c ****         current_color_left = get_color(LEFT_LED);
  63              		.loc 1 31 0
  64 001e BC1D     		add	r4, r7, #6
  65 0020 0120     		mov	r0, #1
  66 0022 FFF7FEFF 		bl	get_color
  67 0026 031C     		mov	r3, r0
  68 0028 2370     		strb	r3, [r4]
  32:.\togglelib.c ****         new_color_left = (rand() % 7) + 1;
  69              		.loc 1 32 0
  70 002a FFF7FEFF 		bl	rand
  71 002e 031C     		mov	r3, r0
  72 0030 181C     		mov	r0, r3
  73 0032 0721     		mov	r1, #7
  74 0034 FFF7FEFF 		bl	__aeabi_idivmod
  75 0038 0B1C     		mov	r3, r1
  76 003a DAB2     		uxtb	r2, r3
  77 003c FB1D     		add	r3, r7, #7
  78 003e 0132     		add	r2, r2, #1
  79 0040 1A70     		strb	r2, [r3]
  33:.\togglelib.c ****         
  34:.\togglelib.c ****         while (new_color_left == current_color_left){
  80              		.loc 1 34 0
ARM GAS  C:\Users\Admin\AppData\Local\Temp\ccRjRc4e.s 			page 3


  81 0042 0BE0     		b	.L3
  82              	.L4:
  35:.\togglelib.c ****             new_color_left = (rand() % 7) + 1;
  83              		.loc 1 35 0
  84 0044 FFF7FEFF 		bl	rand
  85 0048 031C     		mov	r3, r0
  86 004a 181C     		mov	r0, r3
  87 004c 0721     		mov	r1, #7
  88 004e FFF7FEFF 		bl	__aeabi_idivmod
  89 0052 0B1C     		mov	r3, r1
  90 0054 DAB2     		uxtb	r2, r3
  91 0056 FB1D     		add	r3, r7, #7
  92 0058 0132     		add	r2, r2, #1
  93 005a 1A70     		strb	r2, [r3]
  94              	.L3:
  34:.\togglelib.c ****         while (new_color_left == current_color_left){
  95              		.loc 1 34 0 discriminator 1
  96 005c FA1D     		add	r2, r7, #7
  97 005e BB1D     		add	r3, r7, #6
  98 0060 1278     		ldrb	r2, [r2]
  99 0062 1B78     		ldrb	r3, [r3]
 100 0064 9A42     		cmp	r2, r3
 101 0066 EDD0     		beq	.L4
  36:.\togglelib.c ****         }
  37:.\togglelib.c ****         set_color(LEFT_LED, new_color_left);
 102              		.loc 1 37 0
 103 0068 FB1D     		add	r3, r7, #7
 104 006a 1B78     		ldrb	r3, [r3]
 105 006c 0120     		mov	r0, #1
 106 006e 191C     		mov	r1, r3
 107 0070 FFF7FEFF 		bl	set_color
  38:.\togglelib.c ****         ltp_count = 0;
 108              		.loc 1 38 0
 109 0074 054B     		ldr	r3, .L5
 110 0076 0022     		mov	r2, #0
 111 0078 1A70     		strb	r2, [r3]
 112              	.L2:
  39:.\togglelib.c ****     }
  40:.\togglelib.c ****     
  41:.\togglelib.c ****     /* Clear interrupt */
  42:.\togglelib.c ****     CyDelay(TOGGLE_DELAY);
 113              		.loc 1 42 0
 114 007a 9620     		mov	r0, #150
 115 007c FFF7FEFF 		bl	CyDelay
  43:.\togglelib.c ****     SWL_ClearInterrupt();
 116              		.loc 1 43 0
 117 0080 FFF7FEFF 		bl	SWL_ClearInterrupt
  44:.\togglelib.c **** }
 118              		.loc 1 44 0
 119 0084 BD46     		mov	sp, r7
 120 0086 03B0     		add	sp, sp, #12
 121              		@ sp needed
 122 0088 90BD     		pop	{r4, r7, pc}
 123              	.L6:
 124 008a C046     		.align	2
 125              	.L5:
 126 008c 00000000 		.word	ltp_count
ARM GAS  C:\Users\Admin\AppData\Local\Temp\ccRjRc4e.s 			page 4


 127              		.cfi_endproc
 128              	.LFE33:
 129              		.size	SWL_Handler, .-SWL_Handler
 130              		.section	.text.SWR_Handler,"ax",%progbits
 131              		.align	2
 132              		.global	SWR_Handler
 133              		.code	16
 134              		.thumb_func
 135              		.type	SWR_Handler, %function
 136              	SWR_Handler:
 137              	.LFB34:
  45:.\togglelib.c **** 
  46:.\togglelib.c **** /* Signal handler for right toggle press */
  47:.\togglelib.c **** CY_ISR( SWR_Handler ) {  
 138              		.loc 1 47 0
 139              		.cfi_startproc
 140 0000 90B5     		push	{r4, r7, lr}
 141              		.cfi_def_cfa_offset 12
 142              		.cfi_offset 4, -12
 143              		.cfi_offset 7, -8
 144              		.cfi_offset 14, -4
 145 0002 83B0     		sub	sp, sp, #12
 146              		.cfi_def_cfa_offset 24
 147 0004 00AF     		add	r7, sp, #0
 148              		.cfi_def_cfa_register 7
  48:.\togglelib.c ****     uint8 new_color_right;
  49:.\togglelib.c ****     uint8 current_color_right; 
  50:.\togglelib.c ****     
  51:.\togglelib.c ****     rtp_count += 1;
 149              		.loc 1 51 0
 150 0006 214B     		ldr	r3, .L11
 151 0008 1B78     		ldrb	r3, [r3]
 152 000a DBB2     		uxtb	r3, r3
 153 000c 0133     		add	r3, r3, #1
 154 000e DAB2     		uxtb	r2, r3
 155 0010 1E4B     		ldr	r3, .L11
 156 0012 1A70     		strb	r2, [r3]
  52:.\togglelib.c ****     
  53:.\togglelib.c ****     if (rtp_count == LIGHT_CHANGE_NUM) {
 157              		.loc 1 53 0
 158 0014 1D4B     		ldr	r3, .L11
 159 0016 1B78     		ldrb	r3, [r3]
 160 0018 DBB2     		uxtb	r3, r3
 161 001a 052B     		cmp	r3, #5
 162 001c 2DD1     		bne	.L8
  54:.\togglelib.c ****         current_color_right = get_color(RIGHT_LED);
 163              		.loc 1 54 0
 164 001e BC1D     		add	r4, r7, #6
 165 0020 0220     		mov	r0, #2
 166 0022 FFF7FEFF 		bl	get_color
 167 0026 031C     		mov	r3, r0
 168 0028 2370     		strb	r3, [r4]
  55:.\togglelib.c ****         new_color_right = (rand() % 7) + 1;
 169              		.loc 1 55 0
 170 002a FFF7FEFF 		bl	rand
 171 002e 031C     		mov	r3, r0
 172 0030 181C     		mov	r0, r3
ARM GAS  C:\Users\Admin\AppData\Local\Temp\ccRjRc4e.s 			page 5


 173 0032 0721     		mov	r1, #7
 174 0034 FFF7FEFF 		bl	__aeabi_idivmod
 175 0038 0B1C     		mov	r3, r1
 176 003a DAB2     		uxtb	r2, r3
 177 003c FB1D     		add	r3, r7, #7
 178 003e 0132     		add	r2, r2, #1
 179 0040 1A70     		strb	r2, [r3]
  56:.\togglelib.c ****         
  57:.\togglelib.c ****         while (new_color_right == current_color_right){
 180              		.loc 1 57 0
 181 0042 0BE0     		b	.L9
 182              	.L10:
  58:.\togglelib.c ****             new_color_right = (rand() % 7) + 1;
 183              		.loc 1 58 0
 184 0044 FFF7FEFF 		bl	rand
 185 0048 031C     		mov	r3, r0
 186 004a 181C     		mov	r0, r3
 187 004c 0721     		mov	r1, #7
 188 004e FFF7FEFF 		bl	__aeabi_idivmod
 189 0052 0B1C     		mov	r3, r1
 190 0054 DAB2     		uxtb	r2, r3
 191 0056 FB1D     		add	r3, r7, #7
 192 0058 0132     		add	r2, r2, #1
 193 005a 1A70     		strb	r2, [r3]
 194              	.L9:
  57:.\togglelib.c ****         while (new_color_right == current_color_right){
 195              		.loc 1 57 0 discriminator 1
 196 005c FA1D     		add	r2, r7, #7
 197 005e BB1D     		add	r3, r7, #6
 198 0060 1278     		ldrb	r2, [r2]
 199 0062 1B78     		ldrb	r3, [r3]
 200 0064 9A42     		cmp	r2, r3
 201 0066 EDD0     		beq	.L10
  59:.\togglelib.c ****         }
  60:.\togglelib.c ****         set_color(RIGHT_LED, new_color_right);
 202              		.loc 1 60 0
 203 0068 FB1D     		add	r3, r7, #7
 204 006a 1B78     		ldrb	r3, [r3]
 205 006c 0220     		mov	r0, #2
 206 006e 191C     		mov	r1, r3
 207 0070 FFF7FEFF 		bl	set_color
  61:.\togglelib.c ****         rtp_count = 0;
 208              		.loc 1 61 0
 209 0074 054B     		ldr	r3, .L11
 210 0076 0022     		mov	r2, #0
 211 0078 1A70     		strb	r2, [r3]
 212              	.L8:
  62:.\togglelib.c ****     }
  63:.\togglelib.c ****     
  64:.\togglelib.c ****     /* Clear interrupt */
  65:.\togglelib.c ****     CyDelay(TOGGLE_DELAY);
 213              		.loc 1 65 0
 214 007a 9620     		mov	r0, #150
 215 007c FFF7FEFF 		bl	CyDelay
  66:.\togglelib.c ****     SWR_ClearInterrupt();
 216              		.loc 1 66 0
 217 0080 FFF7FEFF 		bl	SWR_ClearInterrupt
ARM GAS  C:\Users\Admin\AppData\Local\Temp\ccRjRc4e.s 			page 6


  67:.\togglelib.c **** }
 218              		.loc 1 67 0
 219 0084 BD46     		mov	sp, r7
 220 0086 03B0     		add	sp, sp, #12
 221              		@ sp needed
 222 0088 90BD     		pop	{r4, r7, pc}
 223              	.L12:
 224 008a C046     		.align	2
 225              	.L11:
 226 008c 00000000 		.word	rtp_count
 227              		.cfi_endproc
 228              	.LFE34:
 229              		.size	SWR_Handler, .-SWR_Handler
 230              		.section	.text.SWB_Handler,"ax",%progbits
 231              		.align	2
 232              		.global	SWB_Handler
 233              		.code	16
 234              		.thumb_func
 235              		.type	SWB_Handler, %function
 236              	SWB_Handler:
 237              	.LFB35:
  68:.\togglelib.c **** 
  69:.\togglelib.c **** /* Signal handler for on board toggle press */
  70:.\togglelib.c **** CY_ISR( SWB_Handler ) {
 238              		.loc 1 70 0
 239              		.cfi_startproc
 240 0000 80B5     		push	{r7, lr}
 241              		.cfi_def_cfa_offset 8
 242              		.cfi_offset 7, -8
 243              		.cfi_offset 14, -4
 244 0002 00AF     		add	r7, sp, #0
 245              		.cfi_def_cfa_register 7
  71:.\togglelib.c ****     /* Flip IR Status */
  72:.\togglelib.c ****     if (get_status(IR_LED) == OFF) {
 246              		.loc 1 72 0
 247 0004 0420     		mov	r0, #4
 248 0006 FFF7FEFF 		bl	get_status
 249 000a 031C     		mov	r3, r0
 250 000c 002B     		cmp	r3, #0
 251 000e 03D1     		bne	.L14
  73:.\togglelib.c ****         turn_on(IR_LED);
 252              		.loc 1 73 0
 253 0010 0420     		mov	r0, #4
 254 0012 FFF7FEFF 		bl	turn_on
 255 0016 02E0     		b	.L15
 256              	.L14:
  74:.\togglelib.c ****     } 
  75:.\togglelib.c ****     else {
  76:.\togglelib.c ****          turn_off(IR_LED);
 257              		.loc 1 76 0
 258 0018 0420     		mov	r0, #4
 259 001a FFF7FEFF 		bl	turn_off
 260              	.L15:
  77:.\togglelib.c ****     }
  78:.\togglelib.c ****     
  79:.\togglelib.c ****     if (get_status(BOARD_LED) == OFF) {
 261              		.loc 1 79 0
ARM GAS  C:\Users\Admin\AppData\Local\Temp\ccRjRc4e.s 			page 7


 262 001e 0520     		mov	r0, #5
 263 0020 FFF7FEFF 		bl	get_status
 264 0024 031C     		mov	r3, r0
 265 0026 002B     		cmp	r3, #0
 266 0028 03D1     		bne	.L16
  80:.\togglelib.c ****         turn_on(BOARD_LED);
 267              		.loc 1 80 0
 268 002a 0520     		mov	r0, #5
 269 002c FFF7FEFF 		bl	turn_on
 270 0030 02E0     		b	.L17
 271              	.L16:
  81:.\togglelib.c ****     } 
  82:.\togglelib.c ****     else {
  83:.\togglelib.c ****          turn_off(BOARD_LED);
 272              		.loc 1 83 0
 273 0032 0520     		mov	r0, #5
 274 0034 FFF7FEFF 		bl	turn_off
 275              	.L17:
  84:.\togglelib.c ****     }
  85:.\togglelib.c ****     
  86:.\togglelib.c **** 
  87:.\togglelib.c ****     /* Clear interrupt */
  88:.\togglelib.c ****     SWB_ClearInterrupt();
 276              		.loc 1 88 0
 277 0038 FFF7FEFF 		bl	SWB_ClearInterrupt
  89:.\togglelib.c **** }
 278              		.loc 1 89 0
 279 003c BD46     		mov	sp, r7
 280              		@ sp needed
 281 003e 80BD     		pop	{r7, pc}
 282              		.cfi_endproc
 283              	.LFE35:
 284              		.size	SWB_Handler, .-SWB_Handler
 285              		.section	.text.clear_toggle_press_count,"ax",%progbits
 286              		.align	2
 287              		.global	clear_toggle_press_count
 288              		.code	16
 289              		.thumb_func
 290              		.type	clear_toggle_press_count, %function
 291              	clear_toggle_press_count:
 292              	.LFB36:
  90:.\togglelib.c **** 
  91:.\togglelib.c **** void clear_toggle_press_count() {
 293              		.loc 1 91 0
 294              		.cfi_startproc
 295 0000 80B5     		push	{r7, lr}
 296              		.cfi_def_cfa_offset 8
 297              		.cfi_offset 7, -8
 298              		.cfi_offset 14, -4
 299 0002 00AF     		add	r7, sp, #0
 300              		.cfi_def_cfa_register 7
  92:.\togglelib.c ****     /* Clear press count variables */
  93:.\togglelib.c ****     ltp_count = 0;
 301              		.loc 1 93 0
 302 0004 034B     		ldr	r3, .L19
 303 0006 0022     		mov	r2, #0
 304 0008 1A70     		strb	r2, [r3]
ARM GAS  C:\Users\Admin\AppData\Local\Temp\ccRjRc4e.s 			page 8


  94:.\togglelib.c ****     rtp_count = 0;
 305              		.loc 1 94 0
 306 000a 034B     		ldr	r3, .L19+4
 307 000c 0022     		mov	r2, #0
 308 000e 1A70     		strb	r2, [r3]
  95:.\togglelib.c **** }
 309              		.loc 1 95 0
 310 0010 BD46     		mov	sp, r7
 311              		@ sp needed
 312 0012 80BD     		pop	{r7, pc}
 313              	.L20:
 314              		.align	2
 315              	.L19:
 316 0014 00000000 		.word	ltp_count
 317 0018 00000000 		.word	rtp_count
 318              		.cfi_endproc
 319              	.LFE36:
 320              		.size	clear_toggle_press_count, .-clear_toggle_press_count
 321              		.section	.text.enable_toggle_interrupts,"ax",%progbits
 322              		.align	2
 323              		.global	enable_toggle_interrupts
 324              		.code	16
 325              		.thumb_func
 326              		.type	enable_toggle_interrupts, %function
 327              	enable_toggle_interrupts:
 328              	.LFB37:
  96:.\togglelib.c **** 
  97:.\togglelib.c **** void enable_toggle_interrupts() {
 329              		.loc 1 97 0
 330              		.cfi_startproc
 331 0000 80B5     		push	{r7, lr}
 332              		.cfi_def_cfa_offset 8
 333              		.cfi_offset 7, -8
 334              		.cfi_offset 14, -4
 335 0002 00AF     		add	r7, sp, #0
 336              		.cfi_def_cfa_register 7
  98:.\togglelib.c ****     /* Setup toggle interrupts  */
  99:.\togglelib.c ****     SWB_Int_StartEx( SWB_Handler );
 337              		.loc 1 99 0
 338 0004 0A4B     		ldr	r3, .L22
 339 0006 181C     		mov	r0, r3
 340 0008 FFF7FEFF 		bl	SWB_Int_StartEx
 100:.\togglelib.c ****     SWL_Int_StartEx( SWL_Handler );
 341              		.loc 1 100 0
 342 000c 094B     		ldr	r3, .L22+4
 343 000e 181C     		mov	r0, r3
 344 0010 FFF7FEFF 		bl	SWL_Int_StartEx
 101:.\togglelib.c ****     SWR_Int_StartEx( SWR_Handler );
 345              		.loc 1 101 0
 346 0014 084B     		ldr	r3, .L22+8
 347 0016 181C     		mov	r0, r3
 348 0018 FFF7FEFF 		bl	SWR_Int_StartEx
 102:.\togglelib.c ****     /* Seed random */
 103:.\togglelib.c ****     srand(time(NULL));
 349              		.loc 1 103 0
 350 001c 0020     		mov	r0, #0
 351 001e FFF7FEFF 		bl	time
ARM GAS  C:\Users\Admin\AppData\Local\Temp\ccRjRc4e.s 			page 9


 352 0022 031C     		mov	r3, r0
 353 0024 181C     		mov	r0, r3
 354 0026 FFF7FEFF 		bl	srand
 104:.\togglelib.c **** }...
 355              		.loc 1 104 0
 356 002a BD46     		mov	sp, r7
 357              		@ sp needed
 358 002c 80BD     		pop	{r7, pc}
 359              	.L23:
 360 002e C046     		.align	2
 361              	.L22:
 362 0030 00000000 		.word	SWB_Handler
 363 0034 00000000 		.word	SWL_Handler
 364 0038 00000000 		.word	SWR_Handler
 365              		.cfi_endproc
 366              	.LFE37:
 367              		.size	enable_toggle_interrupts, .-enable_toggle_interrupts
 368              		.text
 369              	.Letext0:
 370              		.file 2 ".\\Generated_Source\\PSoC4/cytypes.h"