ARM GAS  C:\Users\Admin\AppData\Local\Temp\ccbcsXda.s 			page 1


   1              		.cpu cortex-m0
   2              		.fpu softvfp
   3              		.eabi_attribute 20, 1
   4              		.eabi_attribute 21, 1
   5              		.eabi_attribute 23, 3
   6              		.eabi_attribute 24, 1
   7              		.eabi_attribute 25, 1
   8              		.eabi_attribute 26, 1
   9              		.eabi_attribute 30, 4
  10              		.eabi_attribute 34, 0
  11              		.eabi_attribute 18, 4
  12              		.code	16
  13              		.file	"PWM_Organizer.c"
  14              		.text
  15              	.Ltext0:
  16              		.cfi_sections	.debug_frame
  17              		.section	.text.PWM_Organizer_Enable,"ax",%progbits
  18              		.align	1
  19              		.global	PWM_Organizer_Enable
  20              		.code	16
  21              		.thumb_func
  22              		.type	PWM_Organizer_Enable, %function
  23              	PWM_Organizer_Enable:
  24              	.LFB2:
  25              		.file 1 ".\\Generated_Source\\PSoC4\\PWM_Organizer.c"
   1:.\Generated_Source\PSoC4/PWM_Organizer.c **** /*******************************************************************************
   2:.\Generated_Source\PSoC4/PWM_Organizer.c **** * File Name: PWM_Organizer.c
   3:.\Generated_Source\PSoC4/PWM_Organizer.c **** * Version 3.10
   4:.\Generated_Source\PSoC4/PWM_Organizer.c **** *
   5:.\Generated_Source\PSoC4/PWM_Organizer.c **** * Description:
   6:.\Generated_Source\PSoC4/PWM_Organizer.c **** *  The PWM User Module consist of an 8 or 16-bit counter with two 8 or 16-bit
   7:.\Generated_Source\PSoC4/PWM_Organizer.c **** *  comparitors. Each instance of this user module is capable of generating
   8:.\Generated_Source\PSoC4/PWM_Organizer.c **** *  two PWM outputs with the same period. The pulse width is selectable between
   9:.\Generated_Source\PSoC4/PWM_Organizer.c **** *  1 and 255/65535. The period is selectable between 2 and 255/65536 clocks.
  10:.\Generated_Source\PSoC4/PWM_Organizer.c **** *  The compare value output may be configured to be active when the present
  11:.\Generated_Source\PSoC4/PWM_Organizer.c **** *  counter is less than or less than/equal to the compare value.
  12:.\Generated_Source\PSoC4/PWM_Organizer.c **** *  A terminal count output is also provided. It generates a pulse one clock
  13:.\Generated_Source\PSoC4/PWM_Organizer.c **** *  width wide when the counter is equal to zero.
  14:.\Generated_Source\PSoC4/PWM_Organizer.c **** *
  15:.\Generated_Source\PSoC4/PWM_Organizer.c **** * Note:
  16:.\Generated_Source\PSoC4/PWM_Organizer.c **** *
  17:.\Generated_Source\PSoC4/PWM_Organizer.c **** *******************************************************************************
  18:.\Generated_Source\PSoC4/PWM_Organizer.c **** * Copyright 2008-2014, Cypress Semiconductor Corporation.  All rights reserved.
  19:.\Generated_Source\PSoC4/PWM_Organizer.c **** * You may use this file only in accordance with the license, terms, conditions,
  20:.\Generated_Source\PSoC4/PWM_Organizer.c **** * disclaimers, and limitations in the end user license agreement accompanying
  21:.\Generated_Source\PSoC4/PWM_Organizer.c **** * the software package with which this file was provided.
  22:.\Generated_Source\PSoC4/PWM_Organizer.c **** ********************************************************************************/
  23:.\Generated_Source\PSoC4/PWM_Organizer.c **** 
  24:.\Generated_Source\PSoC4/PWM_Organizer.c **** #include "PWM_Organizer.h"
  25:.\Generated_Source\PSoC4/PWM_Organizer.c **** 
  26:.\Generated_Source\PSoC4/PWM_Organizer.c **** /* Error message for removed <resource> through optimization */
  27:.\Generated_Source\PSoC4/PWM_Organizer.c **** #ifdef PWM_Organizer_PWMUDB_genblk1_ctrlreg__REMOVED
  28:.\Generated_Source\PSoC4/PWM_Organizer.c ****     #error PWM_v3_10 detected with a constant 0 for the enable or \
  29:.\Generated_Source\PSoC4/PWM_Organizer.c ****          constant 1 for reset. This will prevent the component from operating.
  30:.\Generated_Source\PSoC4/PWM_Organizer.c **** #endif /* PWM_Organizer_PWMUDB_genblk1_ctrlreg__REMOVED */
  31:.\Generated_Source\PSoC4/PWM_Organizer.c **** 
  32:.\Generated_Source\PSoC4/PWM_Organizer.c **** uint8 PWM_Organizer_initVar = 0u;
ARM GAS  C:\Users\Admin\AppData\Local\Temp\ccbcsXda.s 			page 2


  33:.\Generated_Source\PSoC4/PWM_Organizer.c **** 
  34:.\Generated_Source\PSoC4/PWM_Organizer.c **** 
  35:.\Generated_Source\PSoC4/PWM_Organizer.c **** /*******************************************************************************
  36:.\Generated_Source\PSoC4/PWM_Organizer.c **** * Function Name: PWM_Organizer_Start
  37:.\Generated_Source\PSoC4/PWM_Organizer.c **** ********************************************************************************
  38:.\Generated_Source\PSoC4/PWM_Organizer.c **** *
  39:.\Generated_Source\PSoC4/PWM_Organizer.c **** * Summary:
  40:.\Generated_Source\PSoC4/PWM_Organizer.c **** *  The start function initializes the pwm with the default values, the
  41:.\Generated_Source\PSoC4/PWM_Organizer.c **** *  enables the counter to begin counting.  It does not enable interrupts,
  42:.\Generated_Source\PSoC4/PWM_Organizer.c **** *  the EnableInt command should be called if interrupt generation is required.
  43:.\Generated_Source\PSoC4/PWM_Organizer.c **** *
  44:.\Generated_Source\PSoC4/PWM_Organizer.c **** * Parameters:
  45:.\Generated_Source\PSoC4/PWM_Organizer.c **** *  None
  46:.\Generated_Source\PSoC4/PWM_Organizer.c **** *
  47:.\Generated_Source\PSoC4/PWM_Organizer.c **** * Return:
  48:.\Generated_Source\PSoC4/PWM_Organizer.c **** *  None
  49:.\Generated_Source\PSoC4/PWM_Organizer.c **** *
  50:.\Generated_Source\PSoC4/PWM_Organizer.c **** * Global variables:
  51:.\Generated_Source\PSoC4/PWM_Organizer.c **** *  PWM_Organizer_initVar: Is modified when this function is called for the
  52:.\Generated_Source\PSoC4/PWM_Organizer.c **** *   first time. Is used to ensure that initialization happens only once.
  53:.\Generated_Source\PSoC4/PWM_Organizer.c **** *
  54:.\Generated_Source\PSoC4/PWM_Organizer.c **** *******************************************************************************/
  55:.\Generated_Source\PSoC4/PWM_Organizer.c **** void PWM_Organizer_Start(void) 
  56:.\Generated_Source\PSoC4/PWM_Organizer.c **** {
  57:.\Generated_Source\PSoC4/PWM_Organizer.c ****     /* If not Initialized then initialize all required hardware and software */
  58:.\Generated_Source\PSoC4/PWM_Organizer.c ****     if(PWM_Organizer_initVar == 0u)
  59:.\Generated_Source\PSoC4/PWM_Organizer.c ****     {
  60:.\Generated_Source\PSoC4/PWM_Organizer.c ****         PWM_Organizer_Init();
  61:.\Generated_Source\PSoC4/PWM_Organizer.c ****         PWM_Organizer_initVar = 1u;
  62:.\Generated_Source\PSoC4/PWM_Organizer.c ****     }
  63:.\Generated_Source\PSoC4/PWM_Organizer.c ****     PWM_Organizer_Enable();
  64:.\Generated_Source\PSoC4/PWM_Organizer.c **** 
  65:.\Generated_Source\PSoC4/PWM_Organizer.c **** }
  66:.\Generated_Source\PSoC4/PWM_Organizer.c **** 
  67:.\Generated_Source\PSoC4/PWM_Organizer.c **** 
  68:.\Generated_Source\PSoC4/PWM_Organizer.c **** /*******************************************************************************
  69:.\Generated_Source\PSoC4/PWM_Organizer.c **** * Function Name: PWM_Organizer_Init
  70:.\Generated_Source\PSoC4/PWM_Organizer.c **** ********************************************************************************
  71:.\Generated_Source\PSoC4/PWM_Organizer.c **** *
  72:.\Generated_Source\PSoC4/PWM_Organizer.c **** * Summary:
  73:.\Generated_Source\PSoC4/PWM_Organizer.c **** *  Initialize component's parameters to the parameters set by user in the
  74:.\Generated_Source\PSoC4/PWM_Organizer.c **** *  customizer of the component placed onto schematic. Usually called in
  75:.\Generated_Source\PSoC4/PWM_Organizer.c **** *  PWM_Organizer_Start().
  76:.\Generated_Source\PSoC4/PWM_Organizer.c **** *
  77:.\Generated_Source\PSoC4/PWM_Organizer.c **** * Parameters:
  78:.\Generated_Source\PSoC4/PWM_Organizer.c **** *  None
  79:.\Generated_Source\PSoC4/PWM_Organizer.c **** *
  80:.\Generated_Source\PSoC4/PWM_Organizer.c **** * Return:
  81:.\Generated_Source\PSoC4/PWM_Organizer.c **** *  None
  82:.\Generated_Source\PSoC4/PWM_Organizer.c **** *
  83:.\Generated_Source\PSoC4/PWM_Organizer.c **** *******************************************************************************/
  84:.\Generated_Source\PSoC4/PWM_Organizer.c **** void PWM_Organizer_Init(void) 
  85:.\Generated_Source\PSoC4/PWM_Organizer.c **** {
  86:.\Generated_Source\PSoC4/PWM_Organizer.c ****     #if (PWM_Organizer_UsingFixedFunction || PWM_Organizer_UseControl)
  87:.\Generated_Source\PSoC4/PWM_Organizer.c ****         uint8 ctrl;
  88:.\Generated_Source\PSoC4/PWM_Organizer.c ****     #endif /* (PWM_Organizer_UsingFixedFunction || PWM_Organizer_UseControl) */
  89:.\Generated_Source\PSoC4/PWM_Organizer.c **** 
ARM GAS  C:\Users\Admin\AppData\Local\Temp\ccbcsXda.s 			page 3


  90:.\Generated_Source\PSoC4/PWM_Organizer.c ****     #if(!PWM_Organizer_UsingFixedFunction)
  91:.\Generated_Source\PSoC4/PWM_Organizer.c ****         #if(PWM_Organizer_UseStatus)
  92:.\Generated_Source\PSoC4/PWM_Organizer.c ****             /* Interrupt State Backup for Critical Region*/
  93:.\Generated_Source\PSoC4/PWM_Organizer.c ****             uint8 PWM_Organizer_interruptState;
  94:.\Generated_Source\PSoC4/PWM_Organizer.c ****         #endif /* (PWM_Organizer_UseStatus) */
  95:.\Generated_Source\PSoC4/PWM_Organizer.c ****     #endif /* (!PWM_Organizer_UsingFixedFunction) */
  96:.\Generated_Source\PSoC4/PWM_Organizer.c **** 
  97:.\Generated_Source\PSoC4/PWM_Organizer.c ****     #if (PWM_Organizer_UsingFixedFunction)
  98:.\Generated_Source\PSoC4/PWM_Organizer.c ****         /* You are allowed to write the compare value (FF only) */
  99:.\Generated_Source\PSoC4/PWM_Organizer.c ****         PWM_Organizer_CONTROL |= PWM_Organizer_CFG0_MODE;
 100:.\Generated_Source\PSoC4/PWM_Organizer.c ****         #if (PWM_Organizer_DeadBand2_4)
 101:.\Generated_Source\PSoC4/PWM_Organizer.c ****             PWM_Organizer_CONTROL |= PWM_Organizer_CFG0_DB;
 102:.\Generated_Source\PSoC4/PWM_Organizer.c ****         #endif /* (PWM_Organizer_DeadBand2_4) */
 103:.\Generated_Source\PSoC4/PWM_Organizer.c **** 
 104:.\Generated_Source\PSoC4/PWM_Organizer.c ****         ctrl = PWM_Organizer_CONTROL3 & ((uint8 )(~PWM_Organizer_CTRL_CMPMODE1_MASK));
 105:.\Generated_Source\PSoC4/PWM_Organizer.c ****         PWM_Organizer_CONTROL3 = ctrl | PWM_Organizer_DEFAULT_COMPARE1_MODE;
 106:.\Generated_Source\PSoC4/PWM_Organizer.c **** 
 107:.\Generated_Source\PSoC4/PWM_Organizer.c ****          /* Clear and Set SYNCTC and SYNCCMP bits of RT1 register */
 108:.\Generated_Source\PSoC4/PWM_Organizer.c ****         PWM_Organizer_RT1 &= ((uint8)(~PWM_Organizer_RT1_MASK));
 109:.\Generated_Source\PSoC4/PWM_Organizer.c ****         PWM_Organizer_RT1 |= PWM_Organizer_SYNC;
 110:.\Generated_Source\PSoC4/PWM_Organizer.c **** 
 111:.\Generated_Source\PSoC4/PWM_Organizer.c ****         /*Enable DSI Sync all all inputs of the PWM*/
 112:.\Generated_Source\PSoC4/PWM_Organizer.c ****         PWM_Organizer_RT1 &= ((uint8)(~PWM_Organizer_SYNCDSI_MASK));
 113:.\Generated_Source\PSoC4/PWM_Organizer.c ****         PWM_Organizer_RT1 |= PWM_Organizer_SYNCDSI_EN;
 114:.\Generated_Source\PSoC4/PWM_Organizer.c **** 
 115:.\Generated_Source\PSoC4/PWM_Organizer.c ****     #elif (PWM_Organizer_UseControl)
 116:.\Generated_Source\PSoC4/PWM_Organizer.c ****         /* Set the default compare mode defined in the parameter */
 117:.\Generated_Source\PSoC4/PWM_Organizer.c ****         ctrl = PWM_Organizer_CONTROL & ((uint8)(~PWM_Organizer_CTRL_CMPMODE2_MASK)) &
 118:.\Generated_Source\PSoC4/PWM_Organizer.c ****                 ((uint8)(~PWM_Organizer_CTRL_CMPMODE1_MASK));
 119:.\Generated_Source\PSoC4/PWM_Organizer.c ****         PWM_Organizer_CONTROL = ctrl | PWM_Organizer_DEFAULT_COMPARE2_MODE |
 120:.\Generated_Source\PSoC4/PWM_Organizer.c ****                                    PWM_Organizer_DEFAULT_COMPARE1_MODE;
 121:.\Generated_Source\PSoC4/PWM_Organizer.c ****     #endif /* (PWM_Organizer_UsingFixedFunction) */
 122:.\Generated_Source\PSoC4/PWM_Organizer.c **** 
 123:.\Generated_Source\PSoC4/PWM_Organizer.c ****     #if (!PWM_Organizer_UsingFixedFunction)
 124:.\Generated_Source\PSoC4/PWM_Organizer.c ****         #if (PWM_Organizer_Resolution == 8)
 125:.\Generated_Source\PSoC4/PWM_Organizer.c ****             /* Set FIFO 0 to 1 byte register for period*/
 126:.\Generated_Source\PSoC4/PWM_Organizer.c ****             PWM_Organizer_AUX_CONTROLDP0 |= (PWM_Organizer_AUX_CTRL_FIFO0_CLR);
 127:.\Generated_Source\PSoC4/PWM_Organizer.c ****         #else /* (PWM_Organizer_Resolution == 16)*/
 128:.\Generated_Source\PSoC4/PWM_Organizer.c ****             /* Set FIFO 0 to 1 byte register for period */
 129:.\Generated_Source\PSoC4/PWM_Organizer.c ****             PWM_Organizer_AUX_CONTROLDP0 |= (PWM_Organizer_AUX_CTRL_FIFO0_CLR);
 130:.\Generated_Source\PSoC4/PWM_Organizer.c ****             PWM_Organizer_AUX_CONTROLDP1 |= (PWM_Organizer_AUX_CTRL_FIFO0_CLR);
 131:.\Generated_Source\PSoC4/PWM_Organizer.c ****         #endif /* (PWM_Organizer_Resolution == 8) */
 132:.\Generated_Source\PSoC4/PWM_Organizer.c **** 
 133:.\Generated_Source\PSoC4/PWM_Organizer.c ****         PWM_Organizer_WriteCounter(PWM_Organizer_INIT_PERIOD_VALUE);
 134:.\Generated_Source\PSoC4/PWM_Organizer.c ****     #endif /* (!PWM_Organizer_UsingFixedFunction) */
 135:.\Generated_Source\PSoC4/PWM_Organizer.c **** 
 136:.\Generated_Source\PSoC4/PWM_Organizer.c ****     PWM_Organizer_WritePeriod(PWM_Organizer_INIT_PERIOD_VALUE);
 137:.\Generated_Source\PSoC4/PWM_Organizer.c **** 
 138:.\Generated_Source\PSoC4/PWM_Organizer.c ****         #if (PWM_Organizer_UseOneCompareMode)
 139:.\Generated_Source\PSoC4/PWM_Organizer.c ****             PWM_Organizer_WriteCompare(PWM_Organizer_INIT_COMPARE_VALUE1);
 140:.\Generated_Source\PSoC4/PWM_Organizer.c ****         #else
 141:.\Generated_Source\PSoC4/PWM_Organizer.c ****             PWM_Organizer_WriteCompare1(PWM_Organizer_INIT_COMPARE_VALUE1);
 142:.\Generated_Source\PSoC4/PWM_Organizer.c ****             PWM_Organizer_WriteCompare2(PWM_Organizer_INIT_COMPARE_VALUE2);
 143:.\Generated_Source\PSoC4/PWM_Organizer.c ****         #endif /* (PWM_Organizer_UseOneCompareMode) */
 144:.\Generated_Source\PSoC4/PWM_Organizer.c **** 
 145:.\Generated_Source\PSoC4/PWM_Organizer.c ****         #if (PWM_Organizer_KillModeMinTime)
 146:.\Generated_Source\PSoC4/PWM_Organizer.c ****             PWM_Organizer_WriteKillTime(PWM_Organizer_MinimumKillTime);
ARM GAS  C:\Users\Admin\AppData\Local\Temp\ccbcsXda.s 			page 4


 147:.\Generated_Source\PSoC4/PWM_Organizer.c ****         #endif /* (PWM_Organizer_KillModeMinTime) */
 148:.\Generated_Source\PSoC4/PWM_Organizer.c **** 
 149:.\Generated_Source\PSoC4/PWM_Organizer.c ****         #if (PWM_Organizer_DeadBandUsed)
 150:.\Generated_Source\PSoC4/PWM_Organizer.c ****             PWM_Organizer_WriteDeadTime(PWM_Organizer_INIT_DEAD_TIME);
 151:.\Generated_Source\PSoC4/PWM_Organizer.c ****         #endif /* (PWM_Organizer_DeadBandUsed) */
 152:.\Generated_Source\PSoC4/PWM_Organizer.c **** 
 153:.\Generated_Source\PSoC4/PWM_Organizer.c ****     #if (PWM_Organizer_UseStatus || PWM_Organizer_UsingFixedFunction)
 154:.\Generated_Source\PSoC4/PWM_Organizer.c ****         PWM_Organizer_SetInterruptMode(PWM_Organizer_INIT_INTERRUPTS_MODE);
 155:.\Generated_Source\PSoC4/PWM_Organizer.c ****     #endif /* (PWM_Organizer_UseStatus || PWM_Organizer_UsingFixedFunction) */
 156:.\Generated_Source\PSoC4/PWM_Organizer.c **** 
 157:.\Generated_Source\PSoC4/PWM_Organizer.c ****     #if (PWM_Organizer_UsingFixedFunction)
 158:.\Generated_Source\PSoC4/PWM_Organizer.c ****         /* Globally Enable the Fixed Function Block chosen */
 159:.\Generated_Source\PSoC4/PWM_Organizer.c ****         PWM_Organizer_GLOBAL_ENABLE |= PWM_Organizer_BLOCK_EN_MASK;
 160:.\Generated_Source\PSoC4/PWM_Organizer.c ****         /* Set the Interrupt source to come from the status register */
 161:.\Generated_Source\PSoC4/PWM_Organizer.c ****         PWM_Organizer_CONTROL2 |= PWM_Organizer_CTRL2_IRQ_SEL;
 162:.\Generated_Source\PSoC4/PWM_Organizer.c ****     #else
 163:.\Generated_Source\PSoC4/PWM_Organizer.c ****         #if(PWM_Organizer_UseStatus)
 164:.\Generated_Source\PSoC4/PWM_Organizer.c **** 
 165:.\Generated_Source\PSoC4/PWM_Organizer.c ****             /* CyEnterCriticalRegion and CyExitCriticalRegion are used to mark following region cri
 166:.\Generated_Source\PSoC4/PWM_Organizer.c ****             /* Enter Critical Region*/
 167:.\Generated_Source\PSoC4/PWM_Organizer.c ****             PWM_Organizer_interruptState = CyEnterCriticalSection();
 168:.\Generated_Source\PSoC4/PWM_Organizer.c ****             /* Use the interrupt output of the status register for IRQ output */
 169:.\Generated_Source\PSoC4/PWM_Organizer.c ****             PWM_Organizer_STATUS_AUX_CTRL |= PWM_Organizer_STATUS_ACTL_INT_EN_MASK;
 170:.\Generated_Source\PSoC4/PWM_Organizer.c **** 
 171:.\Generated_Source\PSoC4/PWM_Organizer.c ****              /* Exit Critical Region*/
 172:.\Generated_Source\PSoC4/PWM_Organizer.c ****             CyExitCriticalSection(PWM_Organizer_interruptState);
 173:.\Generated_Source\PSoC4/PWM_Organizer.c **** 
 174:.\Generated_Source\PSoC4/PWM_Organizer.c ****             /* Clear the FIFO to enable the PWM_Organizer_STATUS_FIFOFULL
 175:.\Generated_Source\PSoC4/PWM_Organizer.c ****                    bit to be set on FIFO full. */
 176:.\Generated_Source\PSoC4/PWM_Organizer.c ****             PWM_Organizer_ClearFIFO();
 177:.\Generated_Source\PSoC4/PWM_Organizer.c ****         #endif /* (PWM_Organizer_UseStatus) */
 178:.\Generated_Source\PSoC4/PWM_Organizer.c ****     #endif /* (PWM_Organizer_UsingFixedFunction) */
 179:.\Generated_Source\PSoC4/PWM_Organizer.c **** }
 180:.\Generated_Source\PSoC4/PWM_Organizer.c **** 
 181:.\Generated_Source\PSoC4/PWM_Organizer.c **** 
 182:.\Generated_Source\PSoC4/PWM_Organizer.c **** /*******************************************************************************
 183:.\Generated_Source\PSoC4/PWM_Organizer.c **** * Function Name: PWM_Organizer_Enable
 184:.\Generated_Source\PSoC4/PWM_Organizer.c **** ********************************************************************************
 185:.\Generated_Source\PSoC4/PWM_Organizer.c **** *
 186:.\Generated_Source\PSoC4/PWM_Organizer.c **** * Summary:
 187:.\Generated_Source\PSoC4/PWM_Organizer.c **** *  Enables the PWM block operation
 188:.\Generated_Source\PSoC4/PWM_Organizer.c **** *
 189:.\Generated_Source\PSoC4/PWM_Organizer.c **** * Parameters:
 190:.\Generated_Source\PSoC4/PWM_Organizer.c **** *  None
 191:.\Generated_Source\PSoC4/PWM_Organizer.c **** *
 192:.\Generated_Source\PSoC4/PWM_Organizer.c **** * Return:
 193:.\Generated_Source\PSoC4/PWM_Organizer.c **** *  None
 194:.\Generated_Source\PSoC4/PWM_Organizer.c **** *
 195:.\Generated_Source\PSoC4/PWM_Organizer.c **** * Side Effects:
 196:.\Generated_Source\PSoC4/PWM_Organizer.c **** *  This works only if software enable mode is chosen
 197:.\Generated_Source\PSoC4/PWM_Organizer.c **** *
 198:.\Generated_Source\PSoC4/PWM_Organizer.c **** *******************************************************************************/
 199:.\Generated_Source\PSoC4/PWM_Organizer.c **** void PWM_Organizer_Enable(void) 
 200:.\Generated_Source\PSoC4/PWM_Organizer.c **** {
  26              		.loc 1 200 0
  27              		.cfi_startproc
 201:.\Generated_Source\PSoC4/PWM_Organizer.c ****     /* Globally Enable the Fixed Function Block chosen */
ARM GAS  C:\Users\Admin\AppData\Local\Temp\ccbcsXda.s 			page 5


 202:.\Generated_Source\PSoC4/PWM_Organizer.c ****     #if (PWM_Organizer_UsingFixedFunction)
 203:.\Generated_Source\PSoC4/PWM_Organizer.c ****         PWM_Organizer_GLOBAL_ENABLE |= PWM_Organizer_BLOCK_EN_MASK;
 204:.\Generated_Source\PSoC4/PWM_Organizer.c ****         PWM_Organizer_GLOBAL_STBY_ENABLE |= PWM_Organizer_BLOCK_STBY_EN_MASK;
 205:.\Generated_Source\PSoC4/PWM_Organizer.c ****     #endif /* (PWM_Organizer_UsingFixedFunction) */
 206:.\Generated_Source\PSoC4/PWM_Organizer.c **** 
 207:.\Generated_Source\PSoC4/PWM_Organizer.c ****     /* Enable the PWM from the control register  */
 208:.\Generated_Source\PSoC4/PWM_Organizer.c ****     #if (PWM_Organizer_UseControl || PWM_Organizer_UsingFixedFunction)
 209:.\Generated_Source\PSoC4/PWM_Organizer.c ****         PWM_Organizer_CONTROL |= PWM_Organizer_CTRL_ENABLE;
  28              		.loc 1 209 0
  29 0000 024B     		ldr	r3, .L2
  30 0002 8022     		mov	r2, #128
  31 0004 1978     		ldrb	r1, [r3]
 210:.\Generated_Source\PSoC4/PWM_Organizer.c ****     #endif /* (PWM_Organizer_UseControl || PWM_Organizer_UsingFixedFunction) */
 211:.\Generated_Source\PSoC4/PWM_Organizer.c **** }
  32              		.loc 1 211 0
  33              		@ sp needed
 209:.\Generated_Source\PSoC4/PWM_Organizer.c ****         PWM_Organizer_CONTROL |= PWM_Organizer_CTRL_ENABLE;
  34              		.loc 1 209 0
  35 0006 0A43     		orr	r2, r1
  36 0008 1A70     		strb	r2, [r3]
  37              		.loc 1 211 0
  38 000a 7047     		bx	lr
  39              	.L3:
  40              		.align	2
  41              	.L2:
  42 000c 71000F40 		.word	1074724977
  43              		.cfi_endproc
  44              	.LFE2:
  45              		.size	PWM_Organizer_Enable, .-PWM_Organizer_Enable
  46              		.section	.text.PWM_Organizer_Stop,"ax",%progbits
  47              		.align	1
  48              		.global	PWM_Organizer_Stop
  49              		.code	16
  50              		.thumb_func
  51              		.type	PWM_Organizer_Stop, %function
  52              	PWM_Organizer_Stop:
  53              	.LFB3:
 212:.\Generated_Source\PSoC4/PWM_Organizer.c **** 
 213:.\Generated_Source\PSoC4/PWM_Organizer.c **** 
 214:.\Generated_Source\PSoC4/PWM_Organizer.c **** /*******************************************************************************
 215:.\Generated_Source\PSoC4/PWM_Organizer.c **** * Function Name: PWM_Organizer_Stop
 216:.\Generated_Source\PSoC4/PWM_Organizer.c **** ********************************************************************************
 217:.\Generated_Source\PSoC4/PWM_Organizer.c **** *
 218:.\Generated_Source\PSoC4/PWM_Organizer.c **** * Summary:
 219:.\Generated_Source\PSoC4/PWM_Organizer.c **** *  The stop function halts the PWM, but does not change any modes or disable
 220:.\Generated_Source\PSoC4/PWM_Organizer.c **** *  interrupts.
 221:.\Generated_Source\PSoC4/PWM_Organizer.c **** *
 222:.\Generated_Source\PSoC4/PWM_Organizer.c **** * Parameters:
 223:.\Generated_Source\PSoC4/PWM_Organizer.c **** *  None
 224:.\Generated_Source\PSoC4/PWM_Organizer.c **** *
 225:.\Generated_Source\PSoC4/PWM_Organizer.c **** * Return:
 226:.\Generated_Source\PSoC4/PWM_Organizer.c **** *  None
 227:.\Generated_Source\PSoC4/PWM_Organizer.c **** *
 228:.\Generated_Source\PSoC4/PWM_Organizer.c **** * Side Effects:
 229:.\Generated_Source\PSoC4/PWM_Organizer.c **** *  If the Enable mode is set to Hardware only then this function
 230:.\Generated_Source\PSoC4/PWM_Organizer.c **** *  has no effect on the operation of the PWM
 231:.\Generated_Source\PSoC4/PWM_Organizer.c **** *
ARM GAS  C:\Users\Admin\AppData\Local\Temp\ccbcsXda.s 			page 6


 232:.\Generated_Source\PSoC4/PWM_Organizer.c **** *******************************************************************************/
 233:.\Generated_Source\PSoC4/PWM_Organizer.c **** void PWM_Organizer_Stop(void) 
 234:.\Generated_Source\PSoC4/PWM_Organizer.c **** {
  54              		.loc 1 234 0
  55              		.cfi_startproc
 235:.\Generated_Source\PSoC4/PWM_Organizer.c ****     #if (PWM_Organizer_UseControl || PWM_Organizer_UsingFixedFunction)
 236:.\Generated_Source\PSoC4/PWM_Organizer.c ****         PWM_Organizer_CONTROL &= ((uint8)(~PWM_Organizer_CTRL_ENABLE));
  56              		.loc 1 236 0
  57 0000 024B     		ldr	r3, .L5
  58 0002 7F22     		mov	r2, #127
  59 0004 1978     		ldrb	r1, [r3]
 237:.\Generated_Source\PSoC4/PWM_Organizer.c ****     #endif /* (PWM_Organizer_UseControl || PWM_Organizer_UsingFixedFunction) */
 238:.\Generated_Source\PSoC4/PWM_Organizer.c **** 
 239:.\Generated_Source\PSoC4/PWM_Organizer.c ****     /* Globally disable the Fixed Function Block chosen */
 240:.\Generated_Source\PSoC4/PWM_Organizer.c ****     #if (PWM_Organizer_UsingFixedFunction)
 241:.\Generated_Source\PSoC4/PWM_Organizer.c ****         PWM_Organizer_GLOBAL_ENABLE &= ((uint8)(~PWM_Organizer_BLOCK_EN_MASK));
 242:.\Generated_Source\PSoC4/PWM_Organizer.c ****         PWM_Organizer_GLOBAL_STBY_ENABLE &= ((uint8)(~PWM_Organizer_BLOCK_STBY_EN_MASK));
 243:.\Generated_Source\PSoC4/PWM_Organizer.c ****     #endif /* (PWM_Organizer_UsingFixedFunction) */
 244:.\Generated_Source\PSoC4/PWM_Organizer.c **** }
  60              		.loc 1 244 0
  61              		@ sp needed
 236:.\Generated_Source\PSoC4/PWM_Organizer.c ****         PWM_Organizer_CONTROL &= ((uint8)(~PWM_Organizer_CTRL_ENABLE));
  62              		.loc 1 236 0
  63 0006 0A40     		and	r2, r1
  64 0008 1A70     		strb	r2, [r3]
  65              		.loc 1 244 0
  66 000a 7047     		bx	lr
  67              	.L6:
  68              		.align	2
  69              	.L5:
  70 000c 71000F40 		.word	1074724977
  71              		.cfi_endproc
  72              	.LFE3:
  73              		.size	PWM_Organizer_Stop, .-PWM_Organizer_Stop
  74              		.section	.text.PWM_Organizer_WriteCounter,"ax",%progbits
  75              		.align	1
  76              		.global	PWM_Organizer_WriteCounter
  77              		.code	16
  78              		.thumb_func
  79              		.type	PWM_Organizer_WriteCounter, %function
  80              	PWM_Organizer_WriteCounter:
  81              	.LFB4:
 245:.\Generated_Source\PSoC4/PWM_Organizer.c **** 
 246:.\Generated_Source\PSoC4/PWM_Organizer.c **** #if (PWM_Organizer_UseOneCompareMode)
 247:.\Generated_Source\PSoC4/PWM_Organizer.c ****     #if (PWM_Organizer_CompareMode1SW)
 248:.\Generated_Source\PSoC4/PWM_Organizer.c **** 
 249:.\Generated_Source\PSoC4/PWM_Organizer.c **** 
 250:.\Generated_Source\PSoC4/PWM_Organizer.c ****         /*******************************************************************************
 251:.\Generated_Source\PSoC4/PWM_Organizer.c ****         * Function Name: PWM_Organizer_SetCompareMode
 252:.\Generated_Source\PSoC4/PWM_Organizer.c ****         ********************************************************************************
 253:.\Generated_Source\PSoC4/PWM_Organizer.c ****         *
 254:.\Generated_Source\PSoC4/PWM_Organizer.c ****         * Summary:
 255:.\Generated_Source\PSoC4/PWM_Organizer.c ****         *  This function writes the Compare Mode for the pwm output when in Dither mode,
 256:.\Generated_Source\PSoC4/PWM_Organizer.c ****         *  Center Align Mode or One Output Mode.
 257:.\Generated_Source\PSoC4/PWM_Organizer.c ****         *
 258:.\Generated_Source\PSoC4/PWM_Organizer.c ****         * Parameters:
 259:.\Generated_Source\PSoC4/PWM_Organizer.c ****         *  comparemode:  The new compare mode for the PWM output. Use the compare types
ARM GAS  C:\Users\Admin\AppData\Local\Temp\ccbcsXda.s 			page 7


 260:.\Generated_Source\PSoC4/PWM_Organizer.c ****         *                defined in the H file as input arguments.
 261:.\Generated_Source\PSoC4/PWM_Organizer.c ****         *
 262:.\Generated_Source\PSoC4/PWM_Organizer.c ****         * Return:
 263:.\Generated_Source\PSoC4/PWM_Organizer.c ****         *  None
 264:.\Generated_Source\PSoC4/PWM_Organizer.c ****         *
 265:.\Generated_Source\PSoC4/PWM_Organizer.c ****         *******************************************************************************/
 266:.\Generated_Source\PSoC4/PWM_Organizer.c ****         void PWM_Organizer_SetCompareMode(uint8 comparemode) 
 267:.\Generated_Source\PSoC4/PWM_Organizer.c ****         {
 268:.\Generated_Source\PSoC4/PWM_Organizer.c ****             #if(PWM_Organizer_UsingFixedFunction)
 269:.\Generated_Source\PSoC4/PWM_Organizer.c **** 
 270:.\Generated_Source\PSoC4/PWM_Organizer.c ****                 #if(0 != PWM_Organizer_CTRL_CMPMODE1_SHIFT)
 271:.\Generated_Source\PSoC4/PWM_Organizer.c ****                     uint8 comparemodemasked = ((uint8)((uint8)comparemode << PWM_Organizer_CTRL_CMP
 272:.\Generated_Source\PSoC4/PWM_Organizer.c ****                 #else
 273:.\Generated_Source\PSoC4/PWM_Organizer.c ****                     uint8 comparemodemasked = comparemode;
 274:.\Generated_Source\PSoC4/PWM_Organizer.c ****                 #endif /* (0 != PWM_Organizer_CTRL_CMPMODE1_SHIFT) */
 275:.\Generated_Source\PSoC4/PWM_Organizer.c **** 
 276:.\Generated_Source\PSoC4/PWM_Organizer.c ****                 PWM_Organizer_CONTROL3 &= ((uint8)(~PWM_Organizer_CTRL_CMPMODE1_MASK)); /*Clear Exi
 277:.\Generated_Source\PSoC4/PWM_Organizer.c ****                 PWM_Organizer_CONTROL3 |= comparemodemasked;
 278:.\Generated_Source\PSoC4/PWM_Organizer.c **** 
 279:.\Generated_Source\PSoC4/PWM_Organizer.c ****             #elif (PWM_Organizer_UseControl)
 280:.\Generated_Source\PSoC4/PWM_Organizer.c **** 
 281:.\Generated_Source\PSoC4/PWM_Organizer.c ****                 #if(0 != PWM_Organizer_CTRL_CMPMODE1_SHIFT)
 282:.\Generated_Source\PSoC4/PWM_Organizer.c ****                     uint8 comparemode1masked = ((uint8)((uint8)comparemode << PWM_Organizer_CTRL_CM
 283:.\Generated_Source\PSoC4/PWM_Organizer.c ****                                                 PWM_Organizer_CTRL_CMPMODE1_MASK;
 284:.\Generated_Source\PSoC4/PWM_Organizer.c ****                 #else
 285:.\Generated_Source\PSoC4/PWM_Organizer.c ****                     uint8 comparemode1masked = comparemode & PWM_Organizer_CTRL_CMPMODE1_MASK;
 286:.\Generated_Source\PSoC4/PWM_Organizer.c ****                 #endif /* (0 != PWM_Organizer_CTRL_CMPMODE1_SHIFT) */
 287:.\Generated_Source\PSoC4/PWM_Organizer.c **** 
 288:.\Generated_Source\PSoC4/PWM_Organizer.c ****                 #if(0 != PWM_Organizer_CTRL_CMPMODE2_SHIFT)
 289:.\Generated_Source\PSoC4/PWM_Organizer.c ****                     uint8 comparemode2masked = ((uint8)((uint8)comparemode << PWM_Organizer_CTRL_CM
 290:.\Generated_Source\PSoC4/PWM_Organizer.c ****                                                PWM_Organizer_CTRL_CMPMODE2_MASK;
 291:.\Generated_Source\PSoC4/PWM_Organizer.c ****                 #else
 292:.\Generated_Source\PSoC4/PWM_Organizer.c ****                     uint8 comparemode2masked = comparemode & PWM_Organizer_CTRL_CMPMODE2_MASK;
 293:.\Generated_Source\PSoC4/PWM_Organizer.c ****                 #endif /* (0 != PWM_Organizer_CTRL_CMPMODE2_SHIFT) */
 294:.\Generated_Source\PSoC4/PWM_Organizer.c **** 
 295:.\Generated_Source\PSoC4/PWM_Organizer.c ****                 /*Clear existing mode */
 296:.\Generated_Source\PSoC4/PWM_Organizer.c ****                 PWM_Organizer_CONTROL &= ((uint8)(~(PWM_Organizer_CTRL_CMPMODE1_MASK |
 297:.\Generated_Source\PSoC4/PWM_Organizer.c ****                                             PWM_Organizer_CTRL_CMPMODE2_MASK)));
 298:.\Generated_Source\PSoC4/PWM_Organizer.c ****                 PWM_Organizer_CONTROL |= (comparemode1masked | comparemode2masked);
 299:.\Generated_Source\PSoC4/PWM_Organizer.c **** 
 300:.\Generated_Source\PSoC4/PWM_Organizer.c ****             #else
 301:.\Generated_Source\PSoC4/PWM_Organizer.c ****                 uint8 temp = comparemode;
 302:.\Generated_Source\PSoC4/PWM_Organizer.c ****             #endif /* (PWM_Organizer_UsingFixedFunction) */
 303:.\Generated_Source\PSoC4/PWM_Organizer.c ****         }
 304:.\Generated_Source\PSoC4/PWM_Organizer.c ****     #endif /* PWM_Organizer_CompareMode1SW */
 305:.\Generated_Source\PSoC4/PWM_Organizer.c **** 
 306:.\Generated_Source\PSoC4/PWM_Organizer.c **** #else /* UseOneCompareMode */
 307:.\Generated_Source\PSoC4/PWM_Organizer.c **** 
 308:.\Generated_Source\PSoC4/PWM_Organizer.c ****     #if (PWM_Organizer_CompareMode1SW)
 309:.\Generated_Source\PSoC4/PWM_Organizer.c **** 
 310:.\Generated_Source\PSoC4/PWM_Organizer.c **** 
 311:.\Generated_Source\PSoC4/PWM_Organizer.c ****         /*******************************************************************************
 312:.\Generated_Source\PSoC4/PWM_Organizer.c ****         * Function Name: PWM_Organizer_SetCompareMode1
 313:.\Generated_Source\PSoC4/PWM_Organizer.c ****         ********************************************************************************
 314:.\Generated_Source\PSoC4/PWM_Organizer.c ****         *
 315:.\Generated_Source\PSoC4/PWM_Organizer.c ****         * Summary:
 316:.\Generated_Source\PSoC4/PWM_Organizer.c ****         *  This function writes the Compare Mode for the pwm or pwm1 output
ARM GAS  C:\Users\Admin\AppData\Local\Temp\ccbcsXda.s 			page 8


 317:.\Generated_Source\PSoC4/PWM_Organizer.c ****         *
 318:.\Generated_Source\PSoC4/PWM_Organizer.c ****         * Parameters:
 319:.\Generated_Source\PSoC4/PWM_Organizer.c ****         *  comparemode:  The new compare mode for the PWM output. Use the compare types
 320:.\Generated_Source\PSoC4/PWM_Organizer.c ****         *                defined in the H file as input arguments.
 321:.\Generated_Source\PSoC4/PWM_Organizer.c ****         *
 322:.\Generated_Source\PSoC4/PWM_Organizer.c ****         * Return:
 323:.\Generated_Source\PSoC4/PWM_Organizer.c ****         *  None
 324:.\Generated_Source\PSoC4/PWM_Organizer.c ****         *
 325:.\Generated_Source\PSoC4/PWM_Organizer.c ****         *******************************************************************************/
 326:.\Generated_Source\PSoC4/PWM_Organizer.c ****         void PWM_Organizer_SetCompareMode1(uint8 comparemode) 
 327:.\Generated_Source\PSoC4/PWM_Organizer.c ****         {
 328:.\Generated_Source\PSoC4/PWM_Organizer.c ****             #if(0 != PWM_Organizer_CTRL_CMPMODE1_SHIFT)
 329:.\Generated_Source\PSoC4/PWM_Organizer.c ****                 uint8 comparemodemasked = ((uint8)((uint8)comparemode << PWM_Organizer_CTRL_CMPMODE
 330:.\Generated_Source\PSoC4/PWM_Organizer.c ****                                            PWM_Organizer_CTRL_CMPMODE1_MASK;
 331:.\Generated_Source\PSoC4/PWM_Organizer.c ****             #else
 332:.\Generated_Source\PSoC4/PWM_Organizer.c ****                 uint8 comparemodemasked = comparemode & PWM_Organizer_CTRL_CMPMODE1_MASK;
 333:.\Generated_Source\PSoC4/PWM_Organizer.c ****             #endif /* (0 != PWM_Organizer_CTRL_CMPMODE1_SHIFT) */
 334:.\Generated_Source\PSoC4/PWM_Organizer.c **** 
 335:.\Generated_Source\PSoC4/PWM_Organizer.c ****             #if (PWM_Organizer_UseControl)
 336:.\Generated_Source\PSoC4/PWM_Organizer.c ****                 PWM_Organizer_CONTROL &= ((uint8)(~PWM_Organizer_CTRL_CMPMODE1_MASK)); /*Clear exis
 337:.\Generated_Source\PSoC4/PWM_Organizer.c ****                 PWM_Organizer_CONTROL |= comparemodemasked;
 338:.\Generated_Source\PSoC4/PWM_Organizer.c ****             #endif /* (PWM_Organizer_UseControl) */
 339:.\Generated_Source\PSoC4/PWM_Organizer.c ****         }
 340:.\Generated_Source\PSoC4/PWM_Organizer.c ****     #endif /* PWM_Organizer_CompareMode1SW */
 341:.\Generated_Source\PSoC4/PWM_Organizer.c **** 
 342:.\Generated_Source\PSoC4/PWM_Organizer.c **** #if (PWM_Organizer_CompareMode2SW)
 343:.\Generated_Source\PSoC4/PWM_Organizer.c **** 
 344:.\Generated_Source\PSoC4/PWM_Organizer.c **** 
 345:.\Generated_Source\PSoC4/PWM_Organizer.c ****     /*******************************************************************************
 346:.\Generated_Source\PSoC4/PWM_Organizer.c ****     * Function Name: PWM_Organizer_SetCompareMode2
 347:.\Generated_Source\PSoC4/PWM_Organizer.c ****     ********************************************************************************
 348:.\Generated_Source\PSoC4/PWM_Organizer.c ****     *
 349:.\Generated_Source\PSoC4/PWM_Organizer.c ****     * Summary:
 350:.\Generated_Source\PSoC4/PWM_Organizer.c ****     *  This function writes the Compare Mode for the pwm or pwm2 output
 351:.\Generated_Source\PSoC4/PWM_Organizer.c ****     *
 352:.\Generated_Source\PSoC4/PWM_Organizer.c ****     * Parameters:
 353:.\Generated_Source\PSoC4/PWM_Organizer.c ****     *  comparemode:  The new compare mode for the PWM output. Use the compare types
 354:.\Generated_Source\PSoC4/PWM_Organizer.c ****     *                defined in the H file as input arguments.
 355:.\Generated_Source\PSoC4/PWM_Organizer.c ****     *
 356:.\Generated_Source\PSoC4/PWM_Organizer.c ****     * Return:
 357:.\Generated_Source\PSoC4/PWM_Organizer.c ****     *  None
 358:.\Generated_Source\PSoC4/PWM_Organizer.c ****     *
 359:.\Generated_Source\PSoC4/PWM_Organizer.c ****     *******************************************************************************/
 360:.\Generated_Source\PSoC4/PWM_Organizer.c ****     void PWM_Organizer_SetCompareMode2(uint8 comparemode) 
 361:.\Generated_Source\PSoC4/PWM_Organizer.c ****     {
 362:.\Generated_Source\PSoC4/PWM_Organizer.c **** 
 363:.\Generated_Source\PSoC4/PWM_Organizer.c ****         #if(0 != PWM_Organizer_CTRL_CMPMODE2_SHIFT)
 364:.\Generated_Source\PSoC4/PWM_Organizer.c ****             uint8 comparemodemasked = ((uint8)((uint8)comparemode << PWM_Organizer_CTRL_CMPMODE2_SH
 365:.\Generated_Source\PSoC4/PWM_Organizer.c ****                                                  PWM_Organizer_CTRL_CMPMODE2_MASK;
 366:.\Generated_Source\PSoC4/PWM_Organizer.c ****         #else
 367:.\Generated_Source\PSoC4/PWM_Organizer.c ****             uint8 comparemodemasked = comparemode & PWM_Organizer_CTRL_CMPMODE2_MASK;
 368:.\Generated_Source\PSoC4/PWM_Organizer.c ****         #endif /* (0 != PWM_Organizer_CTRL_CMPMODE2_SHIFT) */
 369:.\Generated_Source\PSoC4/PWM_Organizer.c **** 
 370:.\Generated_Source\PSoC4/PWM_Organizer.c ****         #if (PWM_Organizer_UseControl)
 371:.\Generated_Source\PSoC4/PWM_Organizer.c ****             PWM_Organizer_CONTROL &= ((uint8)(~PWM_Organizer_CTRL_CMPMODE2_MASK)); /*Clear existing
 372:.\Generated_Source\PSoC4/PWM_Organizer.c ****             PWM_Organizer_CONTROL |= comparemodemasked;
 373:.\Generated_Source\PSoC4/PWM_Organizer.c ****         #endif /* (PWM_Organizer_UseControl) */
ARM GAS  C:\Users\Admin\AppData\Local\Temp\ccbcsXda.s 			page 9


 374:.\Generated_Source\PSoC4/PWM_Organizer.c ****     }
 375:.\Generated_Source\PSoC4/PWM_Organizer.c ****     #endif /*PWM_Organizer_CompareMode2SW */
 376:.\Generated_Source\PSoC4/PWM_Organizer.c **** 
 377:.\Generated_Source\PSoC4/PWM_Organizer.c **** #endif /* UseOneCompareMode */
 378:.\Generated_Source\PSoC4/PWM_Organizer.c **** 
 379:.\Generated_Source\PSoC4/PWM_Organizer.c **** 
 380:.\Generated_Source\PSoC4/PWM_Organizer.c **** #if (!PWM_Organizer_UsingFixedFunction)
 381:.\Generated_Source\PSoC4/PWM_Organizer.c **** 
 382:.\Generated_Source\PSoC4/PWM_Organizer.c **** 
 383:.\Generated_Source\PSoC4/PWM_Organizer.c ****     /*******************************************************************************
 384:.\Generated_Source\PSoC4/PWM_Organizer.c ****     * Function Name: PWM_Organizer_WriteCounter
 385:.\Generated_Source\PSoC4/PWM_Organizer.c ****     ********************************************************************************
 386:.\Generated_Source\PSoC4/PWM_Organizer.c ****     *
 387:.\Generated_Source\PSoC4/PWM_Organizer.c ****     * Summary:
 388:.\Generated_Source\PSoC4/PWM_Organizer.c ****     *  Writes a new counter value directly to the counter register. This will be
 389:.\Generated_Source\PSoC4/PWM_Organizer.c ****     *  implemented for that currently running period and only that period. This API
 390:.\Generated_Source\PSoC4/PWM_Organizer.c ****     *  is valid only for UDB implementation and not available for fixed function
 391:.\Generated_Source\PSoC4/PWM_Organizer.c ****     *  PWM implementation.
 392:.\Generated_Source\PSoC4/PWM_Organizer.c ****     *
 393:.\Generated_Source\PSoC4/PWM_Organizer.c ****     * Parameters:
 394:.\Generated_Source\PSoC4/PWM_Organizer.c ****     *  counter:  The period new period counter value.
 395:.\Generated_Source\PSoC4/PWM_Organizer.c ****     *
 396:.\Generated_Source\PSoC4/PWM_Organizer.c ****     * Return:
 397:.\Generated_Source\PSoC4/PWM_Organizer.c ****     *  None
 398:.\Generated_Source\PSoC4/PWM_Organizer.c ****     *
 399:.\Generated_Source\PSoC4/PWM_Organizer.c ****     * Side Effects:
 400:.\Generated_Source\PSoC4/PWM_Organizer.c ****     *  The PWM Period will be reloaded when a counter value will be a zero
 401:.\Generated_Source\PSoC4/PWM_Organizer.c ****     *
 402:.\Generated_Source\PSoC4/PWM_Organizer.c ****     *******************************************************************************/
 403:.\Generated_Source\PSoC4/PWM_Organizer.c ****     void PWM_Organizer_WriteCounter(uint16 counter) \
 404:.\Generated_Source\PSoC4/PWM_Organizer.c ****                                        
 405:.\Generated_Source\PSoC4/PWM_Organizer.c ****     {
  82              		.loc 1 405 0
  83              		.cfi_startproc
  84              	.LVL0:
 406:.\Generated_Source\PSoC4/PWM_Organizer.c ****         CY_SET_REG16(PWM_Organizer_COUNTER_LSB_PTR, counter);
  85              		.loc 1 406 0
  86 0000 014B     		ldr	r3, .L8
 407:.\Generated_Source\PSoC4/PWM_Organizer.c ****     }
  87              		.loc 1 407 0
  88              		@ sp needed
 406:.\Generated_Source\PSoC4/PWM_Organizer.c ****         CY_SET_REG16(PWM_Organizer_COUNTER_LSB_PTR, counter);
  89              		.loc 1 406 0
  90 0002 1880     		strh	r0, [r3]
  91              		.loc 1 407 0
  92 0004 7047     		bx	lr
  93              	.L9:
  94 0006 C046     		.align	2
  95              	.L8:
  96 0008 00100F40 		.word	1074728960
  97              		.cfi_endproc
  98              	.LFE4:
  99              		.size	PWM_Organizer_WriteCounter, .-PWM_Organizer_WriteCounter
 100              		.section	.text.PWM_Organizer_ReadCounter,"ax",%progbits
 101              		.align	1
 102              		.global	PWM_Organizer_ReadCounter
 103              		.code	16
ARM GAS  C:\Users\Admin\AppData\Local\Temp\ccbcsXda.s 			page 10


 104              		.thumb_func
 105              		.type	PWM_Organizer_ReadCounter, %function
 106              	PWM_Organizer_ReadCounter:
 107              	.LFB5:
 408:.\Generated_Source\PSoC4/PWM_Organizer.c **** 
 409:.\Generated_Source\PSoC4/PWM_Organizer.c **** 
 410:.\Generated_Source\PSoC4/PWM_Organizer.c ****     /*******************************************************************************
 411:.\Generated_Source\PSoC4/PWM_Organizer.c ****     * Function Name: PWM_Organizer_ReadCounter
 412:.\Generated_Source\PSoC4/PWM_Organizer.c ****     ********************************************************************************
 413:.\Generated_Source\PSoC4/PWM_Organizer.c ****     *
 414:.\Generated_Source\PSoC4/PWM_Organizer.c ****     * Summary:
 415:.\Generated_Source\PSoC4/PWM_Organizer.c ****     *  This function returns the current value of the counter.  It doesn't matter
 416:.\Generated_Source\PSoC4/PWM_Organizer.c ****     *  if the counter is enabled or running.
 417:.\Generated_Source\PSoC4/PWM_Organizer.c ****     *
 418:.\Generated_Source\PSoC4/PWM_Organizer.c ****     * Parameters:
 419:.\Generated_Source\PSoC4/PWM_Organizer.c ****     *  None
 420:.\Generated_Source\PSoC4/PWM_Organizer.c ****     *
 421:.\Generated_Source\PSoC4/PWM_Organizer.c ****     * Return:
 422:.\Generated_Source\PSoC4/PWM_Organizer.c ****     *  The current value of the counter.
 423:.\Generated_Source\PSoC4/PWM_Organizer.c ****     *
 424:.\Generated_Source\PSoC4/PWM_Organizer.c ****     *******************************************************************************/
 425:.\Generated_Source\PSoC4/PWM_Organizer.c ****     uint16 PWM_Organizer_ReadCounter(void) 
 426:.\Generated_Source\PSoC4/PWM_Organizer.c ****     {
 108              		.loc 1 426 0
 109              		.cfi_startproc
 427:.\Generated_Source\PSoC4/PWM_Organizer.c ****         /* Force capture by reading Accumulator */
 428:.\Generated_Source\PSoC4/PWM_Organizer.c ****         /* Must first do a software capture to be able to read the counter */
 429:.\Generated_Source\PSoC4/PWM_Organizer.c ****         /* It is up to the user code to make sure there isn't already captured data in the FIFO */
 430:.\Generated_Source\PSoC4/PWM_Organizer.c ****           (void)CY_GET_REG8(PWM_Organizer_COUNTERCAP_LSB_PTR_8BIT);
 110              		.loc 1 430 0
 111 0000 024B     		ldr	r3, .L11
 431:.\Generated_Source\PSoC4/PWM_Organizer.c **** 
 432:.\Generated_Source\PSoC4/PWM_Organizer.c ****         /* Read the data from the FIFO */
 433:.\Generated_Source\PSoC4/PWM_Organizer.c ****         return (CY_GET_REG16(PWM_Organizer_CAPTURE_LSB_PTR));
 434:.\Generated_Source\PSoC4/PWM_Organizer.c ****     }
 112              		.loc 1 434 0
 113              		@ sp needed
 430:.\Generated_Source\PSoC4/PWM_Organizer.c ****           (void)CY_GET_REG8(PWM_Organizer_COUNTERCAP_LSB_PTR_8BIT);
 114              		.loc 1 430 0
 115 0002 1B78     		ldrb	r3, [r3]
 433:.\Generated_Source\PSoC4/PWM_Organizer.c ****         return (CY_GET_REG16(PWM_Organizer_CAPTURE_LSB_PTR));
 116              		.loc 1 433 0
 117 0004 024B     		ldr	r3, .L11+4
 118 0006 1888     		ldrh	r0, [r3]
 119 0008 80B2     		uxth	r0, r0
 120              		.loc 1 434 0
 121 000a 7047     		bx	lr
 122              	.L12:
 123              		.align	2
 124              	.L11:
 125 000c 10000F40 		.word	1074724880
 126 0010 A0100F40 		.word	1074729120
 127              		.cfi_endproc
 128              	.LFE5:
 129              		.size	PWM_Organizer_ReadCounter, .-PWM_Organizer_ReadCounter
 130              		.section	.text.PWM_Organizer_ClearFIFO,"ax",%progbits
 131              		.align	1
ARM GAS  C:\Users\Admin\AppData\Local\Temp\ccbcsXda.s 			page 11


 132              		.global	PWM_Organizer_ClearFIFO
 133              		.code	16
 134              		.thumb_func
 135              		.type	PWM_Organizer_ClearFIFO, %function
 136              	PWM_Organizer_ClearFIFO:
 137              	.LFB6:
 435:.\Generated_Source\PSoC4/PWM_Organizer.c **** 
 436:.\Generated_Source\PSoC4/PWM_Organizer.c ****     #if (PWM_Organizer_UseStatus)
 437:.\Generated_Source\PSoC4/PWM_Organizer.c **** 
 438:.\Generated_Source\PSoC4/PWM_Organizer.c **** 
 439:.\Generated_Source\PSoC4/PWM_Organizer.c ****         /*******************************************************************************
 440:.\Generated_Source\PSoC4/PWM_Organizer.c ****         * Function Name: PWM_Organizer_ClearFIFO
 441:.\Generated_Source\PSoC4/PWM_Organizer.c ****         ********************************************************************************
 442:.\Generated_Source\PSoC4/PWM_Organizer.c ****         *
 443:.\Generated_Source\PSoC4/PWM_Organizer.c ****         * Summary:
 444:.\Generated_Source\PSoC4/PWM_Organizer.c ****         *  This function clears all capture data from the capture FIFO
 445:.\Generated_Source\PSoC4/PWM_Organizer.c ****         *
 446:.\Generated_Source\PSoC4/PWM_Organizer.c ****         * Parameters:
 447:.\Generated_Source\PSoC4/PWM_Organizer.c ****         *  None
 448:.\Generated_Source\PSoC4/PWM_Organizer.c ****         *
 449:.\Generated_Source\PSoC4/PWM_Organizer.c ****         * Return:
 450:.\Generated_Source\PSoC4/PWM_Organizer.c ****         *  None
 451:.\Generated_Source\PSoC4/PWM_Organizer.c ****         *
 452:.\Generated_Source\PSoC4/PWM_Organizer.c ****         *******************************************************************************/
 453:.\Generated_Source\PSoC4/PWM_Organizer.c ****         void PWM_Organizer_ClearFIFO(void) 
 454:.\Generated_Source\PSoC4/PWM_Organizer.c ****         {
 138              		.loc 1 454 0
 139              		.cfi_startproc
 140              	.L14:
 141              	.LBB14:
 142              	.LBB15:
 455:.\Generated_Source\PSoC4/PWM_Organizer.c ****             while(0u != (PWM_Organizer_ReadStatusRegister() & PWM_Organizer_STATUS_FIFONEMPTY))
 456:.\Generated_Source\PSoC4/PWM_Organizer.c ****             {
 457:.\Generated_Source\PSoC4/PWM_Organizer.c ****                 (void)PWM_Organizer_ReadCapture();
 458:.\Generated_Source\PSoC4/PWM_Organizer.c ****             }
 459:.\Generated_Source\PSoC4/PWM_Organizer.c ****         }
 460:.\Generated_Source\PSoC4/PWM_Organizer.c **** 
 461:.\Generated_Source\PSoC4/PWM_Organizer.c ****     #endif /* PWM_Organizer_UseStatus */
 462:.\Generated_Source\PSoC4/PWM_Organizer.c **** 
 463:.\Generated_Source\PSoC4/PWM_Organizer.c **** #endif /* !PWM_Organizer_UsingFixedFunction */
 464:.\Generated_Source\PSoC4/PWM_Organizer.c **** 
 465:.\Generated_Source\PSoC4/PWM_Organizer.c **** 
 466:.\Generated_Source\PSoC4/PWM_Organizer.c **** /*******************************************************************************
 467:.\Generated_Source\PSoC4/PWM_Organizer.c **** * Function Name: PWM_Organizer_WritePeriod
 468:.\Generated_Source\PSoC4/PWM_Organizer.c **** ********************************************************************************
 469:.\Generated_Source\PSoC4/PWM_Organizer.c **** *
 470:.\Generated_Source\PSoC4/PWM_Organizer.c **** * Summary:
 471:.\Generated_Source\PSoC4/PWM_Organizer.c **** *  This function is used to change the period of the counter.  The new period
 472:.\Generated_Source\PSoC4/PWM_Organizer.c **** *  will be loaded the next time terminal count is detected.
 473:.\Generated_Source\PSoC4/PWM_Organizer.c **** *
 474:.\Generated_Source\PSoC4/PWM_Organizer.c **** * Parameters:
 475:.\Generated_Source\PSoC4/PWM_Organizer.c **** *  period:  Period value. May be between 1 and (2^Resolution)-1.  A value of 0
 476:.\Generated_Source\PSoC4/PWM_Organizer.c **** *           will result in the counter remaining at zero.
 477:.\Generated_Source\PSoC4/PWM_Organizer.c **** *
 478:.\Generated_Source\PSoC4/PWM_Organizer.c **** * Return:
 479:.\Generated_Source\PSoC4/PWM_Organizer.c **** *  None
 480:.\Generated_Source\PSoC4/PWM_Organizer.c **** *
ARM GAS  C:\Users\Admin\AppData\Local\Temp\ccbcsXda.s 			page 12


 481:.\Generated_Source\PSoC4/PWM_Organizer.c **** *******************************************************************************/
 482:.\Generated_Source\PSoC4/PWM_Organizer.c **** void PWM_Organizer_WritePeriod(uint16 period) 
 483:.\Generated_Source\PSoC4/PWM_Organizer.c **** {
 484:.\Generated_Source\PSoC4/PWM_Organizer.c ****     #if(PWM_Organizer_UsingFixedFunction)
 485:.\Generated_Source\PSoC4/PWM_Organizer.c ****         CY_SET_REG16(PWM_Organizer_PERIOD_LSB_PTR, (uint16)period);
 486:.\Generated_Source\PSoC4/PWM_Organizer.c ****     #else
 487:.\Generated_Source\PSoC4/PWM_Organizer.c ****         CY_SET_REG16(PWM_Organizer_PERIOD_LSB_PTR, period);
 488:.\Generated_Source\PSoC4/PWM_Organizer.c ****     #endif /* (PWM_Organizer_UsingFixedFunction) */
 489:.\Generated_Source\PSoC4/PWM_Organizer.c **** }
 490:.\Generated_Source\PSoC4/PWM_Organizer.c **** 
 491:.\Generated_Source\PSoC4/PWM_Organizer.c **** #if (PWM_Organizer_UseOneCompareMode)
 492:.\Generated_Source\PSoC4/PWM_Organizer.c **** 
 493:.\Generated_Source\PSoC4/PWM_Organizer.c **** 
 494:.\Generated_Source\PSoC4/PWM_Organizer.c ****     /*******************************************************************************
 495:.\Generated_Source\PSoC4/PWM_Organizer.c ****     * Function Name: PWM_Organizer_WriteCompare
 496:.\Generated_Source\PSoC4/PWM_Organizer.c ****     ********************************************************************************
 497:.\Generated_Source\PSoC4/PWM_Organizer.c ****     *
 498:.\Generated_Source\PSoC4/PWM_Organizer.c ****     * Summary:
 499:.\Generated_Source\PSoC4/PWM_Organizer.c ****     *  This funtion is used to change the compare1 value when the PWM is in Dither
 500:.\Generated_Source\PSoC4/PWM_Organizer.c ****     *  mode. The compare output will reflect the new value on the next UDB clock.
 501:.\Generated_Source\PSoC4/PWM_Organizer.c ****     *  The compare output will be driven high when the present counter value is
 502:.\Generated_Source\PSoC4/PWM_Organizer.c ****     *  compared to the compare value based on the compare mode defined in
 503:.\Generated_Source\PSoC4/PWM_Organizer.c ****     *  Dither Mode.
 504:.\Generated_Source\PSoC4/PWM_Organizer.c ****     *
 505:.\Generated_Source\PSoC4/PWM_Organizer.c ****     * Parameters:
 506:.\Generated_Source\PSoC4/PWM_Organizer.c ****     *  compare:  New compare value.
 507:.\Generated_Source\PSoC4/PWM_Organizer.c ****     *
 508:.\Generated_Source\PSoC4/PWM_Organizer.c ****     * Return:
 509:.\Generated_Source\PSoC4/PWM_Organizer.c ****     *  None
 510:.\Generated_Source\PSoC4/PWM_Organizer.c ****     *
 511:.\Generated_Source\PSoC4/PWM_Organizer.c ****     * Side Effects:
 512:.\Generated_Source\PSoC4/PWM_Organizer.c ****     *  This function is only available if the PWM mode parameter is set to
 513:.\Generated_Source\PSoC4/PWM_Organizer.c ****     *  Dither Mode, Center Aligned Mode or One Output Mode
 514:.\Generated_Source\PSoC4/PWM_Organizer.c ****     *
 515:.\Generated_Source\PSoC4/PWM_Organizer.c ****     *******************************************************************************/
 516:.\Generated_Source\PSoC4/PWM_Organizer.c ****     void PWM_Organizer_WriteCompare(uint16 compare) \
 517:.\Generated_Source\PSoC4/PWM_Organizer.c ****                                        
 518:.\Generated_Source\PSoC4/PWM_Organizer.c ****     {
 519:.\Generated_Source\PSoC4/PWM_Organizer.c ****         #if(PWM_Organizer_UsingFixedFunction)
 520:.\Generated_Source\PSoC4/PWM_Organizer.c ****             CY_SET_REG16(PWM_Organizer_COMPARE1_LSB_PTR, (uint16)compare);
 521:.\Generated_Source\PSoC4/PWM_Organizer.c ****         #else
 522:.\Generated_Source\PSoC4/PWM_Organizer.c ****             CY_SET_REG16(PWM_Organizer_COMPARE1_LSB_PTR, compare);
 523:.\Generated_Source\PSoC4/PWM_Organizer.c ****         #endif /* (PWM_Organizer_UsingFixedFunction) */
 524:.\Generated_Source\PSoC4/PWM_Organizer.c **** 
 525:.\Generated_Source\PSoC4/PWM_Organizer.c ****         #if (PWM_Organizer_PWMMode == PWM_Organizer__B_PWM__DITHER)
 526:.\Generated_Source\PSoC4/PWM_Organizer.c ****             #if(PWM_Organizer_UsingFixedFunction)
 527:.\Generated_Source\PSoC4/PWM_Organizer.c ****                 CY_SET_REG16(PWM_Organizer_COMPARE2_LSB_PTR, (uint16)(compare + 1u));
 528:.\Generated_Source\PSoC4/PWM_Organizer.c ****             #else
 529:.\Generated_Source\PSoC4/PWM_Organizer.c ****                 CY_SET_REG16(PWM_Organizer_COMPARE2_LSB_PTR, (compare + 1u));
 530:.\Generated_Source\PSoC4/PWM_Organizer.c ****             #endif /* (PWM_Organizer_UsingFixedFunction) */
 531:.\Generated_Source\PSoC4/PWM_Organizer.c ****         #endif /* (PWM_Organizer_PWMMode == PWM_Organizer__B_PWM__DITHER) */
 532:.\Generated_Source\PSoC4/PWM_Organizer.c ****     }
 533:.\Generated_Source\PSoC4/PWM_Organizer.c **** 
 534:.\Generated_Source\PSoC4/PWM_Organizer.c **** 
 535:.\Generated_Source\PSoC4/PWM_Organizer.c **** #else
 536:.\Generated_Source\PSoC4/PWM_Organizer.c **** 
 537:.\Generated_Source\PSoC4/PWM_Organizer.c **** 
ARM GAS  C:\Users\Admin\AppData\Local\Temp\ccbcsXda.s 			page 13


 538:.\Generated_Source\PSoC4/PWM_Organizer.c ****     /*******************************************************************************
 539:.\Generated_Source\PSoC4/PWM_Organizer.c ****     * Function Name: PWM_Organizer_WriteCompare1
 540:.\Generated_Source\PSoC4/PWM_Organizer.c ****     ********************************************************************************
 541:.\Generated_Source\PSoC4/PWM_Organizer.c ****     *
 542:.\Generated_Source\PSoC4/PWM_Organizer.c ****     * Summary:
 543:.\Generated_Source\PSoC4/PWM_Organizer.c ****     *  This funtion is used to change the compare1 value.  The compare output will
 544:.\Generated_Source\PSoC4/PWM_Organizer.c ****     *  reflect the new value on the next UDB clock.  The compare output will be
 545:.\Generated_Source\PSoC4/PWM_Organizer.c ****     *  driven high when the present counter value is less than or less than or
 546:.\Generated_Source\PSoC4/PWM_Organizer.c ****     *  equal to the compare register, depending on the mode.
 547:.\Generated_Source\PSoC4/PWM_Organizer.c ****     *
 548:.\Generated_Source\PSoC4/PWM_Organizer.c ****     * Parameters:
 549:.\Generated_Source\PSoC4/PWM_Organizer.c ****     *  compare:  New compare value.
 550:.\Generated_Source\PSoC4/PWM_Organizer.c ****     *
 551:.\Generated_Source\PSoC4/PWM_Organizer.c ****     * Return:
 552:.\Generated_Source\PSoC4/PWM_Organizer.c ****     *  None
 553:.\Generated_Source\PSoC4/PWM_Organizer.c ****     *
 554:.\Generated_Source\PSoC4/PWM_Organizer.c ****     *******************************************************************************/
 555:.\Generated_Source\PSoC4/PWM_Organizer.c ****     void PWM_Organizer_WriteCompare1(uint16 compare) \
 556:.\Generated_Source\PSoC4/PWM_Organizer.c ****                                         
 557:.\Generated_Source\PSoC4/PWM_Organizer.c ****     {
 558:.\Generated_Source\PSoC4/PWM_Organizer.c ****         #if(PWM_Organizer_UsingFixedFunction)
 559:.\Generated_Source\PSoC4/PWM_Organizer.c ****             CY_SET_REG16(PWM_Organizer_COMPARE1_LSB_PTR, (uint16)compare);
 560:.\Generated_Source\PSoC4/PWM_Organizer.c ****         #else
 561:.\Generated_Source\PSoC4/PWM_Organizer.c ****             CY_SET_REG16(PWM_Organizer_COMPARE1_LSB_PTR, compare);
 562:.\Generated_Source\PSoC4/PWM_Organizer.c ****         #endif /* (PWM_Organizer_UsingFixedFunction) */
 563:.\Generated_Source\PSoC4/PWM_Organizer.c ****     }
 564:.\Generated_Source\PSoC4/PWM_Organizer.c **** 
 565:.\Generated_Source\PSoC4/PWM_Organizer.c **** 
 566:.\Generated_Source\PSoC4/PWM_Organizer.c ****     /*******************************************************************************
 567:.\Generated_Source\PSoC4/PWM_Organizer.c ****     * Function Name: PWM_Organizer_WriteCompare2
 568:.\Generated_Source\PSoC4/PWM_Organizer.c ****     ********************************************************************************
 569:.\Generated_Source\PSoC4/PWM_Organizer.c ****     *
 570:.\Generated_Source\PSoC4/PWM_Organizer.c ****     * Summary:
 571:.\Generated_Source\PSoC4/PWM_Organizer.c ****     *  This funtion is used to change the compare value, for compare1 output.
 572:.\Generated_Source\PSoC4/PWM_Organizer.c ****     *  The compare output will reflect the new value on the next UDB clock.
 573:.\Generated_Source\PSoC4/PWM_Organizer.c ****     *  The compare output will be driven high when the present counter value is
 574:.\Generated_Source\PSoC4/PWM_Organizer.c ****     *  less than or less than or equal to the compare register, depending on the
 575:.\Generated_Source\PSoC4/PWM_Organizer.c ****     *  mode.
 576:.\Generated_Source\PSoC4/PWM_Organizer.c ****     *
 577:.\Generated_Source\PSoC4/PWM_Organizer.c ****     * Parameters:
 578:.\Generated_Source\PSoC4/PWM_Organizer.c ****     *  compare:  New compare value.
 579:.\Generated_Source\PSoC4/PWM_Organizer.c ****     *
 580:.\Generated_Source\PSoC4/PWM_Organizer.c ****     * Return:
 581:.\Generated_Source\PSoC4/PWM_Organizer.c ****     *  None
 582:.\Generated_Source\PSoC4/PWM_Organizer.c ****     *
 583:.\Generated_Source\PSoC4/PWM_Organizer.c ****     *******************************************************************************/
 584:.\Generated_Source\PSoC4/PWM_Organizer.c ****     void PWM_Organizer_WriteCompare2(uint16 compare) \
 585:.\Generated_Source\PSoC4/PWM_Organizer.c ****                                         
 586:.\Generated_Source\PSoC4/PWM_Organizer.c ****     {
 587:.\Generated_Source\PSoC4/PWM_Organizer.c ****         #if(PWM_Organizer_UsingFixedFunction)
 588:.\Generated_Source\PSoC4/PWM_Organizer.c ****             CY_SET_REG16(PWM_Organizer_COMPARE2_LSB_PTR, compare);
 589:.\Generated_Source\PSoC4/PWM_Organizer.c ****         #else
 590:.\Generated_Source\PSoC4/PWM_Organizer.c ****             CY_SET_REG16(PWM_Organizer_COMPARE2_LSB_PTR, compare);
 591:.\Generated_Source\PSoC4/PWM_Organizer.c ****         #endif /* (PWM_Organizer_UsingFixedFunction) */
 592:.\Generated_Source\PSoC4/PWM_Organizer.c ****     }
 593:.\Generated_Source\PSoC4/PWM_Organizer.c **** #endif /* UseOneCompareMode */
 594:.\Generated_Source\PSoC4/PWM_Organizer.c **** 
ARM GAS  C:\Users\Admin\AppData\Local\Temp\ccbcsXda.s 			page 14


 595:.\Generated_Source\PSoC4/PWM_Organizer.c **** #if (PWM_Organizer_DeadBandUsed)
 596:.\Generated_Source\PSoC4/PWM_Organizer.c **** 
 597:.\Generated_Source\PSoC4/PWM_Organizer.c **** 
 598:.\Generated_Source\PSoC4/PWM_Organizer.c ****     /*******************************************************************************
 599:.\Generated_Source\PSoC4/PWM_Organizer.c ****     * Function Name: PWM_Organizer_WriteDeadTime
 600:.\Generated_Source\PSoC4/PWM_Organizer.c ****     ********************************************************************************
 601:.\Generated_Source\PSoC4/PWM_Organizer.c ****     *
 602:.\Generated_Source\PSoC4/PWM_Organizer.c ****     * Summary:
 603:.\Generated_Source\PSoC4/PWM_Organizer.c ****     *  This function writes the dead-band counts to the corresponding register
 604:.\Generated_Source\PSoC4/PWM_Organizer.c ****     *
 605:.\Generated_Source\PSoC4/PWM_Organizer.c ****     * Parameters:
 606:.\Generated_Source\PSoC4/PWM_Organizer.c ****     *  deadtime:  Number of counts for dead time
 607:.\Generated_Source\PSoC4/PWM_Organizer.c ****     *
 608:.\Generated_Source\PSoC4/PWM_Organizer.c ****     * Return:
 609:.\Generated_Source\PSoC4/PWM_Organizer.c ****     *  None
 610:.\Generated_Source\PSoC4/PWM_Organizer.c ****     *
 611:.\Generated_Source\PSoC4/PWM_Organizer.c ****     *******************************************************************************/
 612:.\Generated_Source\PSoC4/PWM_Organizer.c ****     void PWM_Organizer_WriteDeadTime(uint8 deadtime) 
 613:.\Generated_Source\PSoC4/PWM_Organizer.c ****     {
 614:.\Generated_Source\PSoC4/PWM_Organizer.c ****         /* If using the Dead Band 1-255 mode then just write the register */
 615:.\Generated_Source\PSoC4/PWM_Organizer.c ****         #if(!PWM_Organizer_DeadBand2_4)
 616:.\Generated_Source\PSoC4/PWM_Organizer.c ****             CY_SET_REG8(PWM_Organizer_DEADBAND_COUNT_PTR, deadtime);
 617:.\Generated_Source\PSoC4/PWM_Organizer.c ****         #else
 618:.\Generated_Source\PSoC4/PWM_Organizer.c ****             /* Otherwise the data has to be masked and offset */
 619:.\Generated_Source\PSoC4/PWM_Organizer.c ****             /* Clear existing data */
 620:.\Generated_Source\PSoC4/PWM_Organizer.c ****             PWM_Organizer_DEADBAND_COUNT &= ((uint8)(~PWM_Organizer_DEADBAND_COUNT_MASK));
 621:.\Generated_Source\PSoC4/PWM_Organizer.c **** 
 622:.\Generated_Source\PSoC4/PWM_Organizer.c ****             /* Set new dead time */
 623:.\Generated_Source\PSoC4/PWM_Organizer.c ****             #if(PWM_Organizer_DEADBAND_COUNT_SHIFT)
 624:.\Generated_Source\PSoC4/PWM_Organizer.c ****                 PWM_Organizer_DEADBAND_COUNT |= ((uint8)((uint8)deadtime << PWM_Organizer_DEADBAND_
 625:.\Generated_Source\PSoC4/PWM_Organizer.c ****                                                     PWM_Organizer_DEADBAND_COUNT_MASK;
 626:.\Generated_Source\PSoC4/PWM_Organizer.c ****             #else
 627:.\Generated_Source\PSoC4/PWM_Organizer.c ****                 PWM_Organizer_DEADBAND_COUNT |= deadtime & PWM_Organizer_DEADBAND_COUNT_MASK;
 628:.\Generated_Source\PSoC4/PWM_Organizer.c ****             #endif /* (PWM_Organizer_DEADBAND_COUNT_SHIFT) */
 629:.\Generated_Source\PSoC4/PWM_Organizer.c **** 
 630:.\Generated_Source\PSoC4/PWM_Organizer.c ****         #endif /* (!PWM_Organizer_DeadBand2_4) */
 631:.\Generated_Source\PSoC4/PWM_Organizer.c ****     }
 632:.\Generated_Source\PSoC4/PWM_Organizer.c **** 
 633:.\Generated_Source\PSoC4/PWM_Organizer.c **** 
 634:.\Generated_Source\PSoC4/PWM_Organizer.c ****     /*******************************************************************************
 635:.\Generated_Source\PSoC4/PWM_Organizer.c ****     * Function Name: PWM_Organizer_ReadDeadTime
 636:.\Generated_Source\PSoC4/PWM_Organizer.c ****     ********************************************************************************
 637:.\Generated_Source\PSoC4/PWM_Organizer.c ****     *
 638:.\Generated_Source\PSoC4/PWM_Organizer.c ****     * Summary:
 639:.\Generated_Source\PSoC4/PWM_Organizer.c ****     *  This function reads the dead-band counts from the corresponding register
 640:.\Generated_Source\PSoC4/PWM_Organizer.c ****     *
 641:.\Generated_Source\PSoC4/PWM_Organizer.c ****     * Parameters:
 642:.\Generated_Source\PSoC4/PWM_Organizer.c ****     *  None
 643:.\Generated_Source\PSoC4/PWM_Organizer.c ****     *
 644:.\Generated_Source\PSoC4/PWM_Organizer.c ****     * Return:
 645:.\Generated_Source\PSoC4/PWM_Organizer.c ****     *  Dead Band Counts
 646:.\Generated_Source\PSoC4/PWM_Organizer.c ****     *
 647:.\Generated_Source\PSoC4/PWM_Organizer.c ****     *******************************************************************************/
 648:.\Generated_Source\PSoC4/PWM_Organizer.c ****     uint8 PWM_Organizer_ReadDeadTime(void) 
 649:.\Generated_Source\PSoC4/PWM_Organizer.c ****     {
 650:.\Generated_Source\PSoC4/PWM_Organizer.c ****         /* If using the Dead Band 1-255 mode then just read the register */
 651:.\Generated_Source\PSoC4/PWM_Organizer.c ****         #if(!PWM_Organizer_DeadBand2_4)
ARM GAS  C:\Users\Admin\AppData\Local\Temp\ccbcsXda.s 			page 15


 652:.\Generated_Source\PSoC4/PWM_Organizer.c ****             return (CY_GET_REG8(PWM_Organizer_DEADBAND_COUNT_PTR));
 653:.\Generated_Source\PSoC4/PWM_Organizer.c ****         #else
 654:.\Generated_Source\PSoC4/PWM_Organizer.c **** 
 655:.\Generated_Source\PSoC4/PWM_Organizer.c ****             /* Otherwise the data has to be masked and offset */
 656:.\Generated_Source\PSoC4/PWM_Organizer.c ****             #if(PWM_Organizer_DEADBAND_COUNT_SHIFT)
 657:.\Generated_Source\PSoC4/PWM_Organizer.c ****                 return ((uint8)(((uint8)(PWM_Organizer_DEADBAND_COUNT & PWM_Organizer_DEADBAND_COUN
 658:.\Generated_Source\PSoC4/PWM_Organizer.c ****                                                                            PWM_Organizer_DEADBAND_C
 659:.\Generated_Source\PSoC4/PWM_Organizer.c ****             #else
 660:.\Generated_Source\PSoC4/PWM_Organizer.c ****                 return (PWM_Organizer_DEADBAND_COUNT & PWM_Organizer_DEADBAND_COUNT_MASK);
 661:.\Generated_Source\PSoC4/PWM_Organizer.c ****             #endif /* (PWM_Organizer_DEADBAND_COUNT_SHIFT) */
 662:.\Generated_Source\PSoC4/PWM_Organizer.c ****         #endif /* (!PWM_Organizer_DeadBand2_4) */
 663:.\Generated_Source\PSoC4/PWM_Organizer.c ****     }
 664:.\Generated_Source\PSoC4/PWM_Organizer.c **** #endif /* DeadBandUsed */
 665:.\Generated_Source\PSoC4/PWM_Organizer.c **** 
 666:.\Generated_Source\PSoC4/PWM_Organizer.c **** #if (PWM_Organizer_UseStatus || PWM_Organizer_UsingFixedFunction)
 667:.\Generated_Source\PSoC4/PWM_Organizer.c **** 
 668:.\Generated_Source\PSoC4/PWM_Organizer.c **** 
 669:.\Generated_Source\PSoC4/PWM_Organizer.c ****     /*******************************************************************************
 670:.\Generated_Source\PSoC4/PWM_Organizer.c ****     * Function Name: PWM_Organizer_SetInterruptMode
 671:.\Generated_Source\PSoC4/PWM_Organizer.c ****     ********************************************************************************
 672:.\Generated_Source\PSoC4/PWM_Organizer.c ****     *
 673:.\Generated_Source\PSoC4/PWM_Organizer.c ****     * Summary:
 674:.\Generated_Source\PSoC4/PWM_Organizer.c ****     *  This function configures the interrupts mask control of theinterrupt
 675:.\Generated_Source\PSoC4/PWM_Organizer.c ****     *  source status register.
 676:.\Generated_Source\PSoC4/PWM_Organizer.c ****     *
 677:.\Generated_Source\PSoC4/PWM_Organizer.c ****     * Parameters:
 678:.\Generated_Source\PSoC4/PWM_Organizer.c ****     *  uint8 interruptMode: Bit field containing the interrupt sources enabled
 679:.\Generated_Source\PSoC4/PWM_Organizer.c ****     *
 680:.\Generated_Source\PSoC4/PWM_Organizer.c ****     * Return:
 681:.\Generated_Source\PSoC4/PWM_Organizer.c ****     *  None
 682:.\Generated_Source\PSoC4/PWM_Organizer.c ****     *
 683:.\Generated_Source\PSoC4/PWM_Organizer.c ****     *******************************************************************************/
 684:.\Generated_Source\PSoC4/PWM_Organizer.c ****     void PWM_Organizer_SetInterruptMode(uint8 interruptMode) 
 685:.\Generated_Source\PSoC4/PWM_Organizer.c ****     {
 686:.\Generated_Source\PSoC4/PWM_Organizer.c ****         CY_SET_REG8(PWM_Organizer_STATUS_MASK_PTR, interruptMode);
 687:.\Generated_Source\PSoC4/PWM_Organizer.c ****     }
 688:.\Generated_Source\PSoC4/PWM_Organizer.c **** 
 689:.\Generated_Source\PSoC4/PWM_Organizer.c **** 
 690:.\Generated_Source\PSoC4/PWM_Organizer.c ****     /*******************************************************************************
 691:.\Generated_Source\PSoC4/PWM_Organizer.c ****     * Function Name: PWM_Organizer_ReadStatusRegister
 692:.\Generated_Source\PSoC4/PWM_Organizer.c ****     ********************************************************************************
 693:.\Generated_Source\PSoC4/PWM_Organizer.c ****     *
 694:.\Generated_Source\PSoC4/PWM_Organizer.c ****     * Summary:
 695:.\Generated_Source\PSoC4/PWM_Organizer.c ****     *  This function returns the current state of the status register.
 696:.\Generated_Source\PSoC4/PWM_Organizer.c ****     *
 697:.\Generated_Source\PSoC4/PWM_Organizer.c ****     * Parameters:
 698:.\Generated_Source\PSoC4/PWM_Organizer.c ****     *  None
 699:.\Generated_Source\PSoC4/PWM_Organizer.c ****     *
 700:.\Generated_Source\PSoC4/PWM_Organizer.c ****     * Return:
 701:.\Generated_Source\PSoC4/PWM_Organizer.c ****     *  uint8 : Current status register value. The status register bits are:
 702:.\Generated_Source\PSoC4/PWM_Organizer.c ****     *  [7:6] : Unused(0)
 703:.\Generated_Source\PSoC4/PWM_Organizer.c ****     *  [5]   : Kill event output
 704:.\Generated_Source\PSoC4/PWM_Organizer.c ****     *  [4]   : FIFO not empty
 705:.\Generated_Source\PSoC4/PWM_Organizer.c ****     *  [3]   : FIFO full
 706:.\Generated_Source\PSoC4/PWM_Organizer.c ****     *  [2]   : Terminal count
 707:.\Generated_Source\PSoC4/PWM_Organizer.c ****     *  [1]   : Compare output 2
 708:.\Generated_Source\PSoC4/PWM_Organizer.c ****     *  [0]   : Compare output 1
ARM GAS  C:\Users\Admin\AppData\Local\Temp\ccbcsXda.s 			page 16


 709:.\Generated_Source\PSoC4/PWM_Organizer.c ****     *
 710:.\Generated_Source\PSoC4/PWM_Organizer.c ****     *******************************************************************************/
 711:.\Generated_Source\PSoC4/PWM_Organizer.c ****     uint8 PWM_Organizer_ReadStatusRegister(void) 
 712:.\Generated_Source\PSoC4/PWM_Organizer.c ****     {
 713:.\Generated_Source\PSoC4/PWM_Organizer.c ****         return (CY_GET_REG8(PWM_Organizer_STATUS_PTR));
 143              		.loc 1 713 0 discriminator 1
 144 0000 034B     		ldr	r3, .L18
 145 0002 1B78     		ldrb	r3, [r3]
 146              	.LBE15:
 147              	.LBE14:
 455:.\Generated_Source\PSoC4/PWM_Organizer.c ****             while(0u != (PWM_Organizer_ReadStatusRegister() & PWM_Organizer_STATUS_FIFONEMPTY))
 148              		.loc 1 455 0 discriminator 1
 149 0004 DA06     		lsl	r2, r3, #27
 150 0006 02D5     		bpl	.L17
 151              	.LBB16:
 152              	.LBB17:
 714:.\Generated_Source\PSoC4/PWM_Organizer.c ****     }
 715:.\Generated_Source\PSoC4/PWM_Organizer.c **** 
 716:.\Generated_Source\PSoC4/PWM_Organizer.c **** #endif /* (PWM_Organizer_UseStatus || PWM_Organizer_UsingFixedFunction) */
 717:.\Generated_Source\PSoC4/PWM_Organizer.c **** 
 718:.\Generated_Source\PSoC4/PWM_Organizer.c **** 
 719:.\Generated_Source\PSoC4/PWM_Organizer.c **** #if (PWM_Organizer_UseControl)
 720:.\Generated_Source\PSoC4/PWM_Organizer.c **** 
 721:.\Generated_Source\PSoC4/PWM_Organizer.c **** 
 722:.\Generated_Source\PSoC4/PWM_Organizer.c ****     /*******************************************************************************
 723:.\Generated_Source\PSoC4/PWM_Organizer.c ****     * Function Name: PWM_Organizer_ReadControlRegister
 724:.\Generated_Source\PSoC4/PWM_Organizer.c ****     ********************************************************************************
 725:.\Generated_Source\PSoC4/PWM_Organizer.c ****     *
 726:.\Generated_Source\PSoC4/PWM_Organizer.c ****     * Summary:
 727:.\Generated_Source\PSoC4/PWM_Organizer.c ****     *  Returns the current state of the control register. This API is available
 728:.\Generated_Source\PSoC4/PWM_Organizer.c ****     *  only if the control register is not removed.
 729:.\Generated_Source\PSoC4/PWM_Organizer.c ****     *
 730:.\Generated_Source\PSoC4/PWM_Organizer.c ****     * Parameters:
 731:.\Generated_Source\PSoC4/PWM_Organizer.c ****     *  None
 732:.\Generated_Source\PSoC4/PWM_Organizer.c ****     *
 733:.\Generated_Source\PSoC4/PWM_Organizer.c ****     * Return:
 734:.\Generated_Source\PSoC4/PWM_Organizer.c ****     *  uint8 : Current control register value
 735:.\Generated_Source\PSoC4/PWM_Organizer.c ****     *
 736:.\Generated_Source\PSoC4/PWM_Organizer.c ****     *******************************************************************************/
 737:.\Generated_Source\PSoC4/PWM_Organizer.c ****     uint8 PWM_Organizer_ReadControlRegister(void) 
 738:.\Generated_Source\PSoC4/PWM_Organizer.c ****     {
 739:.\Generated_Source\PSoC4/PWM_Organizer.c ****         uint8 result;
 740:.\Generated_Source\PSoC4/PWM_Organizer.c **** 
 741:.\Generated_Source\PSoC4/PWM_Organizer.c ****         result = CY_GET_REG8(PWM_Organizer_CONTROL_PTR);
 742:.\Generated_Source\PSoC4/PWM_Organizer.c ****         return (result);
 743:.\Generated_Source\PSoC4/PWM_Organizer.c ****     }
 744:.\Generated_Source\PSoC4/PWM_Organizer.c **** 
 745:.\Generated_Source\PSoC4/PWM_Organizer.c **** 
 746:.\Generated_Source\PSoC4/PWM_Organizer.c ****     /*******************************************************************************
 747:.\Generated_Source\PSoC4/PWM_Organizer.c ****     * Function Name: PWM_Organizer_WriteControlRegister
 748:.\Generated_Source\PSoC4/PWM_Organizer.c ****     ********************************************************************************
 749:.\Generated_Source\PSoC4/PWM_Organizer.c ****     *
 750:.\Generated_Source\PSoC4/PWM_Organizer.c ****     * Summary:
 751:.\Generated_Source\PSoC4/PWM_Organizer.c ****     *  Sets the bit field of the control register. This API is available only if
 752:.\Generated_Source\PSoC4/PWM_Organizer.c ****     *  the control register is not removed.
 753:.\Generated_Source\PSoC4/PWM_Organizer.c ****     *
 754:.\Generated_Source\PSoC4/PWM_Organizer.c ****     * Parameters:
ARM GAS  C:\Users\Admin\AppData\Local\Temp\ccbcsXda.s 			page 17


 755:.\Generated_Source\PSoC4/PWM_Organizer.c ****     *  uint8 control: Control register bit field, The status register bits are:
 756:.\Generated_Source\PSoC4/PWM_Organizer.c ****     *  [7]   : PWM Enable
 757:.\Generated_Source\PSoC4/PWM_Organizer.c ****     *  [6]   : Reset
 758:.\Generated_Source\PSoC4/PWM_Organizer.c ****     *  [5:3] : Compare Mode2
 759:.\Generated_Source\PSoC4/PWM_Organizer.c ****     *  [2:0] : Compare Mode2
 760:.\Generated_Source\PSoC4/PWM_Organizer.c ****     *
 761:.\Generated_Source\PSoC4/PWM_Organizer.c ****     * Return:
 762:.\Generated_Source\PSoC4/PWM_Organizer.c ****     *  None
 763:.\Generated_Source\PSoC4/PWM_Organizer.c ****     *
 764:.\Generated_Source\PSoC4/PWM_Organizer.c ****     *******************************************************************************/
 765:.\Generated_Source\PSoC4/PWM_Organizer.c ****     void PWM_Organizer_WriteControlRegister(uint8 control) 
 766:.\Generated_Source\PSoC4/PWM_Organizer.c ****     {
 767:.\Generated_Source\PSoC4/PWM_Organizer.c ****         CY_SET_REG8(PWM_Organizer_CONTROL_PTR, control);
 768:.\Generated_Source\PSoC4/PWM_Organizer.c ****     }
 769:.\Generated_Source\PSoC4/PWM_Organizer.c **** 
 770:.\Generated_Source\PSoC4/PWM_Organizer.c **** #endif /* (PWM_Organizer_UseControl) */
 771:.\Generated_Source\PSoC4/PWM_Organizer.c **** 
 772:.\Generated_Source\PSoC4/PWM_Organizer.c **** 
 773:.\Generated_Source\PSoC4/PWM_Organizer.c **** #if (!PWM_Organizer_UsingFixedFunction)
 774:.\Generated_Source\PSoC4/PWM_Organizer.c **** 
 775:.\Generated_Source\PSoC4/PWM_Organizer.c **** 
 776:.\Generated_Source\PSoC4/PWM_Organizer.c ****     /*******************************************************************************
 777:.\Generated_Source\PSoC4/PWM_Organizer.c ****     * Function Name: PWM_Organizer_ReadCapture
 778:.\Generated_Source\PSoC4/PWM_Organizer.c ****     ********************************************************************************
 779:.\Generated_Source\PSoC4/PWM_Organizer.c ****     *
 780:.\Generated_Source\PSoC4/PWM_Organizer.c ****     * Summary:
 781:.\Generated_Source\PSoC4/PWM_Organizer.c ****     *  Reads the capture value from the capture FIFO.
 782:.\Generated_Source\PSoC4/PWM_Organizer.c ****     *
 783:.\Generated_Source\PSoC4/PWM_Organizer.c ****     * Parameters:
 784:.\Generated_Source\PSoC4/PWM_Organizer.c ****     *  None
 785:.\Generated_Source\PSoC4/PWM_Organizer.c ****     *
 786:.\Generated_Source\PSoC4/PWM_Organizer.c ****     * Return:
 787:.\Generated_Source\PSoC4/PWM_Organizer.c ****     *  uint8/uint16: The current capture value
 788:.\Generated_Source\PSoC4/PWM_Organizer.c ****     *
 789:.\Generated_Source\PSoC4/PWM_Organizer.c ****     *******************************************************************************/
 790:.\Generated_Source\PSoC4/PWM_Organizer.c ****     uint16 PWM_Organizer_ReadCapture(void) 
 791:.\Generated_Source\PSoC4/PWM_Organizer.c ****     {
 792:.\Generated_Source\PSoC4/PWM_Organizer.c ****         return (CY_GET_REG16(PWM_Organizer_CAPTURE_LSB_PTR));
 153              		.loc 1 792 0
 154 0008 024B     		ldr	r3, .L18+4
 155 000a 1B88     		ldrh	r3, [r3]
 156 000c F8E7     		b	.L14
 157              	.L17:
 158              	.LBE17:
 159              	.LBE16:
 459:.\Generated_Source\PSoC4/PWM_Organizer.c ****         }
 160              		.loc 1 459 0
 161              		@ sp needed
 162 000e 7047     		bx	lr
 163              	.L19:
 164              		.align	2
 165              	.L18:
 166 0010 61000F40 		.word	1074724961
 167 0014 A0100F40 		.word	1074729120
 168              		.cfi_endproc
 169              	.LFE6:
 170              		.size	PWM_Organizer_ClearFIFO, .-PWM_Organizer_ClearFIFO
ARM GAS  C:\Users\Admin\AppData\Local\Temp\ccbcsXda.s 			page 18


 171              		.section	.text.PWM_Organizer_Init,"ax",%progbits
 172              		.align	1
 173              		.global	PWM_Organizer_Init
 174              		.code	16
 175              		.thumb_func
 176              		.type	PWM_Organizer_Init, %function
 177              	PWM_Organizer_Init:
 178              	.LFB1:
  85:.\Generated_Source\PSoC4/PWM_Organizer.c **** {
 179              		.loc 1 85 0
 180              		.cfi_startproc
 181 0000 10B5     		push	{r4, lr}
 182              		.cfi_def_cfa_offset 8
 183              		.cfi_offset 4, -8
 184              		.cfi_offset 14, -4
 117:.\Generated_Source\PSoC4/PWM_Organizer.c ****         ctrl = PWM_Organizer_CONTROL & ((uint8)(~PWM_Organizer_CTRL_CMPMODE2_MASK)) &
 185              		.loc 1 117 0
 186 0002 124B     		ldr	r3, .L21
 187 0004 3F21     		mov	r1, #63
 188 0006 1A78     		ldrb	r2, [r3]
 189              	.LVL1:
 130:.\Generated_Source\PSoC4/PWM_Organizer.c ****             PWM_Organizer_AUX_CONTROLDP1 |= (PWM_Organizer_AUX_CTRL_FIFO0_CLR);
 190              		.loc 1 130 0
 191 0008 114C     		ldr	r4, .L21+4
 117:.\Generated_Source\PSoC4/PWM_Organizer.c ****         ctrl = PWM_Organizer_CONTROL & ((uint8)(~PWM_Organizer_CTRL_CMPMODE2_MASK)) &
 192              		.loc 1 117 0
 193 000a 8A43     		bic	r2, r1
 194              	.LVL2:
 119:.\Generated_Source\PSoC4/PWM_Organizer.c ****         PWM_Organizer_CONTROL = ctrl | PWM_Organizer_DEFAULT_COMPARE2_MODE |
 195              		.loc 1 119 0
 196 000c 0921     		mov	r1, #9
 197 000e 0A43     		orr	r2, r1
 198 0010 1A70     		strb	r2, [r3]
 129:.\Generated_Source\PSoC4/PWM_Organizer.c ****             PWM_Organizer_AUX_CONTROLDP0 |= (PWM_Organizer_AUX_CTRL_FIFO0_CLR);
 199              		.loc 1 129 0
 200 0012 104A     		ldr	r2, .L21+8
 201 0014 0123     		mov	r3, #1
 202 0016 1178     		ldrb	r1, [r2]
 179:.\Generated_Source\PSoC4/PWM_Organizer.c **** }
 203              		.loc 1 179 0
 204              		@ sp needed
 129:.\Generated_Source\PSoC4/PWM_Organizer.c ****             PWM_Organizer_AUX_CONTROLDP0 |= (PWM_Organizer_AUX_CTRL_FIFO0_CLR);
 205              		.loc 1 129 0
 206 0018 1943     		orr	r1, r3
 207 001a 1170     		strb	r1, [r2]
 130:.\Generated_Source\PSoC4/PWM_Organizer.c ****             PWM_Organizer_AUX_CONTROLDP1 |= (PWM_Organizer_AUX_CTRL_FIFO0_CLR);
 208              		.loc 1 130 0
 209 001c 2278     		ldrb	r2, [r4]
 210 001e 1343     		orr	r3, r2
 211              	.LBB18:
 212              	.LBB19:
 406:.\Generated_Source\PSoC4/PWM_Organizer.c ****         CY_SET_REG16(PWM_Organizer_COUNTER_LSB_PTR, counter);
 213              		.loc 1 406 0
 214 0020 0D4A     		ldr	r2, .L21+12
 215              	.LBE19:
 216              	.LBE18:
 130:.\Generated_Source\PSoC4/PWM_Organizer.c ****             PWM_Organizer_AUX_CONTROLDP1 |= (PWM_Organizer_AUX_CTRL_FIFO0_CLR);
ARM GAS  C:\Users\Admin\AppData\Local\Temp\ccbcsXda.s 			page 19


 217              		.loc 1 130 0
 218 0022 2370     		strb	r3, [r4]
 219              	.LVL3:
 220              	.LBB21:
 221              	.LBB20:
 406:.\Generated_Source\PSoC4/PWM_Organizer.c ****         CY_SET_REG16(PWM_Organizer_COUNTER_LSB_PTR, counter);
 222              		.loc 1 406 0
 223 0024 C823     		mov	r3, #200
 224 0026 1380     		strh	r3, [r2]
 225              	.LVL4:
 226              	.LBE20:
 227              	.LBE21:
 228              	.LBB22:
 229              	.LBB23:
 487:.\Generated_Source\PSoC4/PWM_Organizer.c ****         CY_SET_REG16(PWM_Organizer_PERIOD_LSB_PTR, period);
 230              		.loc 1 487 0
 231 0028 0C4A     		ldr	r2, .L21+16
 232 002a 1380     		strh	r3, [r2]
 233              	.LVL5:
 234              	.LBE23:
 235              	.LBE22:
 236              	.LBB24:
 237              	.LBB25:
 522:.\Generated_Source\PSoC4/PWM_Organizer.c ****             CY_SET_REG16(PWM_Organizer_COMPARE1_LSB_PTR, compare);
 238              		.loc 1 522 0
 239 002c 0C4A     		ldr	r2, .L21+20
 240 002e 1380     		strh	r3, [r2]
 241              	.LVL6:
 242              	.LBE25:
 243              	.LBE24:
 244              	.LBB26:
 245              	.LBB27:
 686:.\Generated_Source\PSoC4/PWM_Organizer.c ****         CY_SET_REG8(PWM_Organizer_STATUS_MASK_PTR, interruptMode);
 246              		.loc 1 686 0
 247 0030 0C4B     		ldr	r3, .L21+24
 248 0032 0422     		mov	r2, #4
 249 0034 1A70     		strb	r2, [r3]
 250              	.LBE27:
 251              	.LBE26:
 167:.\Generated_Source\PSoC4/PWM_Organizer.c ****             PWM_Organizer_interruptState = CyEnterCriticalSection();
 252              		.loc 1 167 0
 253 0036 FFF7FEFF 		bl	CyEnterCriticalSection
 254              	.LVL7:
 169:.\Generated_Source\PSoC4/PWM_Organizer.c ****             PWM_Organizer_STATUS_AUX_CTRL |= PWM_Organizer_STATUS_ACTL_INT_EN_MASK;
 255              		.loc 1 169 0
 256 003a 2378     		ldrb	r3, [r4]
 257 003c 1022     		mov	r2, #16
 258 003e 1343     		orr	r3, r2
 259 0040 2370     		strb	r3, [r4]
 172:.\Generated_Source\PSoC4/PWM_Organizer.c ****             CyExitCriticalSection(PWM_Organizer_interruptState);
 260              		.loc 1 172 0
 261 0042 FFF7FEFF 		bl	CyExitCriticalSection
 262              	.LVL8:
 176:.\Generated_Source\PSoC4/PWM_Organizer.c ****             PWM_Organizer_ClearFIFO();
 263              		.loc 1 176 0
 264 0046 FFF7FEFF 		bl	PWM_Organizer_ClearFIFO
 265              	.LVL9:
ARM GAS  C:\Users\Admin\AppData\Local\Temp\ccbcsXda.s 			page 20


 179:.\Generated_Source\PSoC4/PWM_Organizer.c **** }
 266              		.loc 1 179 0
 267 004a 10BD     		pop	{r4, pc}
 268              	.L22:
 269              		.align	2
 270              	.L21:
 271 004c 71000F40 		.word	1074724977
 272 0050 91000F40 		.word	1074725009
 273 0054 90000F40 		.word	1074725008
 274 0058 00100F40 		.word	1074728960
 275 005c 80100F40 		.word	1074729088
 276 0060 40100F40 		.word	1074729024
 277 0064 81000F40 		.word	1074724993
 278              		.cfi_endproc
 279              	.LFE1:
 280              		.size	PWM_Organizer_Init, .-PWM_Organizer_Init
 281              		.section	.text.PWM_Organizer_Start,"ax",%progbits
 282              		.align	1
 283              		.global	PWM_Organizer_Start
 284              		.code	16
 285              		.thumb_func
 286              		.type	PWM_Organizer_Start, %function
 287              	PWM_Organizer_Start:
 288              	.LFB0:
  56:.\Generated_Source\PSoC4/PWM_Organizer.c **** {
 289              		.loc 1 56 0
 290              		.cfi_startproc
 291 0000 10B5     		push	{r4, lr}
 292              		.cfi_def_cfa_offset 8
 293              		.cfi_offset 4, -8
 294              		.cfi_offset 14, -4
  58:.\Generated_Source\PSoC4/PWM_Organizer.c ****     if(PWM_Organizer_initVar == 0u)
 295              		.loc 1 58 0
 296 0002 054C     		ldr	r4, .L25
 297 0004 2378     		ldrb	r3, [r4]
 298 0006 002B     		cmp	r3, #0
 299 0008 03D1     		bne	.L24
  60:.\Generated_Source\PSoC4/PWM_Organizer.c ****         PWM_Organizer_Init();
 300              		.loc 1 60 0
 301 000a FFF7FEFF 		bl	PWM_Organizer_Init
 302              	.LVL10:
  61:.\Generated_Source\PSoC4/PWM_Organizer.c ****         PWM_Organizer_initVar = 1u;
 303              		.loc 1 61 0
 304 000e 0123     		mov	r3, #1
 305 0010 2370     		strb	r3, [r4]
 306              	.L24:
  63:.\Generated_Source\PSoC4/PWM_Organizer.c ****     PWM_Organizer_Enable();
 307              		.loc 1 63 0
 308 0012 FFF7FEFF 		bl	PWM_Organizer_Enable
 309              	.LVL11:
  65:.\Generated_Source\PSoC4/PWM_Organizer.c **** }
 310              		.loc 1 65 0
 311              		@ sp needed
 312 0016 10BD     		pop	{r4, pc}
 313              	.L26:
 314              		.align	2
 315              	.L25:
ARM GAS  C:\Users\Admin\AppData\Local\Temp\ccbcsXda.s 			page 21


 316 0018 00000000 		.word	.LANCHOR0
 317              		.cfi_endproc
 318              	.LFE0:
 319              		.size	PWM_Organizer_Start, .-PWM_Organizer_Start
 320              		.section	.text.PWM_Organizer_WritePeriod,"ax",%progbits
 321              		.align	1
 322              		.global	PWM_Organizer_WritePeriod
 323              		.code	16
 324              		.thumb_func
 325              		.type	PWM_Organizer_WritePeriod, %function
 326              	PWM_Organizer_WritePeriod:
 327              	.LFB7:
 483:.\Generated_Source\PSoC4/PWM_Organizer.c **** {
 328              		.loc 1 483 0
 329              		.cfi_startproc
 330              	.LVL12:
 487:.\Generated_Source\PSoC4/PWM_Organizer.c ****         CY_SET_REG16(PWM_Organizer_PERIOD_LSB_PTR, period);
 331              		.loc 1 487 0
 332 0000 014B     		ldr	r3, .L28
 489:.\Generated_Source\PSoC4/PWM_Organizer.c **** }
 333              		.loc 1 489 0
 334              		@ sp needed
 487:.\Generated_Source\PSoC4/PWM_Organizer.c ****         CY_SET_REG16(PWM_Organizer_PERIOD_LSB_PTR, period);
 335              		.loc 1 487 0
 336 0002 1880     		strh	r0, [r3]
 489:.\Generated_Source\PSoC4/PWM_Organizer.c **** }
 337              		.loc 1 489 0
 338 0004 7047     		bx	lr
 339              	.L29:
 340 0006 C046     		.align	2
 341              	.L28:
 342 0008 80100F40 		.word	1074729088
 343              		.cfi_endproc
 344              	.LFE7:
 345              		.size	PWM_Organizer_WritePeriod, .-PWM_Organizer_WritePeriod
 346              		.section	.text.PWM_Organizer_WriteCompare,"ax",%progbits
 347              		.align	1
 348              		.global	PWM_Organizer_WriteCompare
 349              		.code	16
 350              		.thumb_func
 351              		.type	PWM_Organizer_WriteCompare, %function
 352              	PWM_Organizer_WriteCompare:
 353              	.LFB8:
 518:.\Generated_Source\PSoC4/PWM_Organizer.c ****     {
 354              		.loc 1 518 0
 355              		.cfi_startproc
 356              	.LVL13:
 522:.\Generated_Source\PSoC4/PWM_Organizer.c ****             CY_SET_REG16(PWM_Organizer_COMPARE1_LSB_PTR, compare);
 357              		.loc 1 522 0
 358 0000 014B     		ldr	r3, .L31
 532:.\Generated_Source\PSoC4/PWM_Organizer.c ****     }
 359              		.loc 1 532 0
 360              		@ sp needed
 522:.\Generated_Source\PSoC4/PWM_Organizer.c ****             CY_SET_REG16(PWM_Organizer_COMPARE1_LSB_PTR, compare);
 361              		.loc 1 522 0
 362 0002 1880     		strh	r0, [r3]
 532:.\Generated_Source\PSoC4/PWM_Organizer.c ****     }
ARM GAS  C:\Users\Admin\AppData\Local\Temp\ccbcsXda.s 			page 22


 363              		.loc 1 532 0
 364 0004 7047     		bx	lr
 365              	.L32:
 366 0006 C046     		.align	2
 367              	.L31:
 368 0008 40100F40 		.word	1074729024
 369              		.cfi_endproc
 370              	.LFE8:
 371              		.size	PWM_Organizer_WriteCompare, .-PWM_Organizer_WriteCompare
 372              		.section	.text.PWM_Organizer_SetInterruptMode,"ax",%progbits
 373              		.align	1
 374              		.global	PWM_Organizer_SetInterruptMode
 375              		.code	16
 376              		.thumb_func
 377              		.type	PWM_Organizer_SetInterruptMode, %function
 378              	PWM_Organizer_SetInterruptMode:
 379              	.LFB9:
 685:.\Generated_Source\PSoC4/PWM_Organizer.c ****     {
 380              		.loc 1 685 0
 381              		.cfi_startproc
 382              	.LVL14:
 686:.\Generated_Source\PSoC4/PWM_Organizer.c ****         CY_SET_REG8(PWM_Organizer_STATUS_MASK_PTR, interruptMode);
 383              		.loc 1 686 0
 384 0000 014B     		ldr	r3, .L34
 687:.\Generated_Source\PSoC4/PWM_Organizer.c ****     }
 385              		.loc 1 687 0
 386              		@ sp needed
 686:.\Generated_Source\PSoC4/PWM_Organizer.c ****         CY_SET_REG8(PWM_Organizer_STATUS_MASK_PTR, interruptMode);
 387              		.loc 1 686 0
 388 0002 1870     		strb	r0, [r3]
 687:.\Generated_Source\PSoC4/PWM_Organizer.c ****     }
 389              		.loc 1 687 0
 390 0004 7047     		bx	lr
 391              	.L35:
 392 0006 C046     		.align	2
 393              	.L34:
 394 0008 81000F40 		.word	1074724993
 395              		.cfi_endproc
 396              	.LFE9:
 397              		.size	PWM_Organizer_SetInterruptMode, .-PWM_Organizer_SetInterruptMode
 398              		.section	.text.PWM_Organizer_ReadStatusRegister,"ax",%progbits
 399              		.align	1
 400              		.global	PWM_Organizer_ReadStatusRegister
 401              		.code	16
 402              		.thumb_func
 403              		.type	PWM_Organizer_ReadStatusRegister, %function
 404              	PWM_Organizer_ReadStatusRegister:
 405              	.LFB10:
 712:.\Generated_Source\PSoC4/PWM_Organizer.c ****     {
 406              		.loc 1 712 0
 407              		.cfi_startproc
 713:.\Generated_Source\PSoC4/PWM_Organizer.c ****         return (CY_GET_REG8(PWM_Organizer_STATUS_PTR));
 408              		.loc 1 713 0
 409 0000 014B     		ldr	r3, .L37
 714:.\Generated_Source\PSoC4/PWM_Organizer.c ****     }
 410              		.loc 1 714 0
 411              		@ sp needed
ARM GAS  C:\Users\Admin\AppData\Local\Temp\ccbcsXda.s 			page 23


 713:.\Generated_Source\PSoC4/PWM_Organizer.c ****         return (CY_GET_REG8(PWM_Organizer_STATUS_PTR));
 412              		.loc 1 713 0
 413 0002 1878     		ldrb	r0, [r3]
 414 0004 C0B2     		uxtb	r0, r0
 714:.\Generated_Source\PSoC4/PWM_Organizer.c ****     }
 415              		.loc 1 714 0
 416 0006 7047     		bx	lr
 417              	.L38:
 418              		.align	2
 419              	.L37:
 420 0008 61000F40 		.word	1074724961
 421              		.cfi_endproc
 422              	.LFE10:
 423              		.size	PWM_Organizer_ReadStatusRegister, .-PWM_Organizer_ReadStatusRegister
 424              		.section	.text.PWM_Organizer_ReadControlRegister,"ax",%progbits
 425              		.align	1
 426              		.global	PWM_Organizer_ReadControlRegister
 427              		.code	16
 428              		.thumb_func
 429              		.type	PWM_Organizer_ReadControlRegister, %function
 430              	PWM_Organizer_ReadControlRegister:
 431              	.LFB11:
 738:.\Generated_Source\PSoC4/PWM_Organizer.c ****     {
 432              		.loc 1 738 0
 433              		.cfi_startproc
 741:.\Generated_Source\PSoC4/PWM_Organizer.c ****         result = CY_GET_REG8(PWM_Organizer_CONTROL_PTR);
 434              		.loc 1 741 0
 435 0000 014B     		ldr	r3, .L40
 743:.\Generated_Source\PSoC4/PWM_Organizer.c ****     }
 436              		.loc 1 743 0
 437              		@ sp needed
 741:.\Generated_Source\PSoC4/PWM_Organizer.c ****         result = CY_GET_REG8(PWM_Organizer_CONTROL_PTR);
 438              		.loc 1 741 0
 439 0002 1878     		ldrb	r0, [r3]
 440 0004 C0B2     		uxtb	r0, r0
 441              	.LVL15:
 743:.\Generated_Source\PSoC4/PWM_Organizer.c ****     }
 442              		.loc 1 743 0
 443 0006 7047     		bx	lr
 444              	.L41:
 445              		.align	2
 446              	.L40:
 447 0008 71000F40 		.word	1074724977
 448              		.cfi_endproc
 449              	.LFE11:
 450              		.size	PWM_Organizer_ReadControlRegister, .-PWM_Organizer_ReadControlRegister
 451              		.section	.text.PWM_Organizer_WriteControlRegister,"ax",%progbits
 452              		.align	1
 453              		.global	PWM_Organizer_WriteControlRegister
 454              		.code	16
 455              		.thumb_func
 456              		.type	PWM_Organizer_WriteControlRegister, %function
 457              	PWM_Organizer_WriteControlRegister:
 458              	.LFB12:
 766:.\Generated_Source\PSoC4/PWM_Organizer.c ****     {
 459              		.loc 1 766 0
 460              		.cfi_startproc
ARM GAS  C:\Users\Admin\AppData\Local\Temp\ccbcsXda.s 			page 24


 461              	.LVL16:
 767:.\Generated_Source\PSoC4/PWM_Organizer.c ****         CY_SET_REG8(PWM_Organizer_CONTROL_PTR, control);
 462              		.loc 1 767 0
 463 0000 014B     		ldr	r3, .L43
 768:.\Generated_Source\PSoC4/PWM_Organizer.c ****     }
 464              		.loc 1 768 0
 465              		@ sp needed
 767:.\Generated_Source\PSoC4/PWM_Organizer.c ****         CY_SET_REG8(PWM_Organizer_CONTROL_PTR, control);
 466              		.loc 1 767 0
 467 0002 1870     		strb	r0, [r3]
 768:.\Generated_Source\PSoC4/PWM_Organizer.c ****     }
 468              		.loc 1 768 0
 469 0004 7047     		bx	lr
 470              	.L44:
 471 0006 C046     		.align	2
 472              	.L43:
 473 0008 71000F40 		.word	1074724977
 474              		.cfi_endproc
 475              	.LFE12:
 476              		.size	PWM_Organizer_WriteControlRegister, .-PWM_Organizer_WriteControlRegister
 477              		.section	.text.PWM_Organizer_ReadCapture,"ax",%progbits
 478              		.align	1
 479              		.global	PWM_Organizer_ReadCapture
 480              		.code	16
 481              		.thumb_func
 482              		.type	PWM_Organizer_ReadCapture, %function
 483              	PWM_Organizer_ReadCapture:
 484              	.LFB13:
 791:.\Generated_Source\PSoC4/PWM_Organizer.c ****     {
 485              		.loc 1 791 0
 486              		.cfi_startproc
 487              		.loc 1 792 0
 488 0000 014B     		ldr	r3, .L46
 793:.\Generated_Source\PSoC4/PWM_Organizer.c ****     }
 489              		.loc 1 793 0
 490              		@ sp needed
 792:.\Generated_Source\PSoC4/PWM_Organizer.c ****         return (CY_GET_REG16(PWM_Organizer_CAPTURE_LSB_PTR));
 491              		.loc 1 792 0
 492 0002 1888     		ldrh	r0, [r3]
 493 0004 80B2     		uxth	r0, r0
 494              		.loc 1 793 0
 495 0006 7047     		bx	lr
 496              	.L47:
 497              		.align	2
 498              	.L46:
 499 0008 A0100F40 		.word	1074729120
 500              		.cfi_endproc
 501              	.LFE13:
 502              		.size	PWM_Organizer_ReadCapture, .-PWM_Organizer_ReadCapture
 503              		.section	.text.PWM_Organizer_ReadCompare,"ax",%progbits
 504              		.align	1
 505              		.global	PWM_Organizer_ReadCompare
 506              		.code	16
 507              		.thumb_func
 508              		.type	PWM_Organizer_ReadCompare, %function
 509              	PWM_Organizer_ReadCompare:
 510              	.LFB14:
ARM GAS  C:\Users\Admin\AppData\Local\Temp\ccbcsXda.s 			page 25


 794:.\Generated_Source\PSoC4/PWM_Organizer.c **** 
 795:.\Generated_Source\PSoC4/PWM_Organizer.c **** #endif /* (!PWM_Organizer_UsingFixedFunction) */
 796:.\Generated_Source\PSoC4/PWM_Organizer.c **** 
 797:.\Generated_Source\PSoC4/PWM_Organizer.c **** 
 798:.\Generated_Source\PSoC4/PWM_Organizer.c **** #if (PWM_Organizer_UseOneCompareMode)
 799:.\Generated_Source\PSoC4/PWM_Organizer.c **** 
 800:.\Generated_Source\PSoC4/PWM_Organizer.c **** 
 801:.\Generated_Source\PSoC4/PWM_Organizer.c ****     /*******************************************************************************
 802:.\Generated_Source\PSoC4/PWM_Organizer.c ****     * Function Name: PWM_Organizer_ReadCompare
 803:.\Generated_Source\PSoC4/PWM_Organizer.c ****     ********************************************************************************
 804:.\Generated_Source\PSoC4/PWM_Organizer.c ****     *
 805:.\Generated_Source\PSoC4/PWM_Organizer.c ****     * Summary:
 806:.\Generated_Source\PSoC4/PWM_Organizer.c ****     *  Reads the compare value for the compare output when the PWM Mode parameter is
 807:.\Generated_Source\PSoC4/PWM_Organizer.c ****     *  set to Dither mode, Center Aligned mode, or One Output mode.
 808:.\Generated_Source\PSoC4/PWM_Organizer.c ****     *
 809:.\Generated_Source\PSoC4/PWM_Organizer.c ****     * Parameters:
 810:.\Generated_Source\PSoC4/PWM_Organizer.c ****     *  None
 811:.\Generated_Source\PSoC4/PWM_Organizer.c ****     *
 812:.\Generated_Source\PSoC4/PWM_Organizer.c ****     * Return:
 813:.\Generated_Source\PSoC4/PWM_Organizer.c ****     *  uint8/uint16: Current compare value
 814:.\Generated_Source\PSoC4/PWM_Organizer.c ****     *
 815:.\Generated_Source\PSoC4/PWM_Organizer.c ****     *******************************************************************************/
 816:.\Generated_Source\PSoC4/PWM_Organizer.c ****     uint16 PWM_Organizer_ReadCompare(void) 
 817:.\Generated_Source\PSoC4/PWM_Organizer.c ****     {
 511              		.loc 1 817 0
 512              		.cfi_startproc
 818:.\Generated_Source\PSoC4/PWM_Organizer.c ****         #if(PWM_Organizer_UsingFixedFunction)
 819:.\Generated_Source\PSoC4/PWM_Organizer.c ****             return ((uint16)CY_GET_REG16(PWM_Organizer_COMPARE1_LSB_PTR));
 820:.\Generated_Source\PSoC4/PWM_Organizer.c ****         #else
 821:.\Generated_Source\PSoC4/PWM_Organizer.c ****             return (CY_GET_REG16(PWM_Organizer_COMPARE1_LSB_PTR));
 513              		.loc 1 821 0
 514 0000 014B     		ldr	r3, .L49
 822:.\Generated_Source\PSoC4/PWM_Organizer.c ****         #endif /* (PWM_Organizer_UsingFixedFunction) */
 823:.\Generated_Source\PSoC4/PWM_Organizer.c ****     }
 515              		.loc 1 823 0
 516              		@ sp needed
 821:.\Generated_Source\PSoC4/PWM_Organizer.c ****             return (CY_GET_REG16(PWM_Organizer_COMPARE1_LSB_PTR));
 517              		.loc 1 821 0
 518 0002 1888     		ldrh	r0, [r3]
 519 0004 80B2     		uxth	r0, r0
 520              		.loc 1 823 0
 521 0006 7047     		bx	lr
 522              	.L50:
 523              		.align	2
 524              	.L49:
 525 0008 40100F40 		.word	1074729024
 526              		.cfi_endproc
 527              	.LFE14:
 528              		.size	PWM_Organizer_ReadCompare, .-PWM_Organizer_ReadCompare
 529              		.section	.text.PWM_Organizer_ReadPeriod,"ax",%progbits
 530              		.align	1
 531              		.global	PWM_Organizer_ReadPeriod
 532              		.code	16
 533              		.thumb_func
 534              		.type	PWM_Organizer_ReadPeriod, %function
 535              	PWM_Organizer_ReadPeriod:
 536              	.LFB15:
ARM GAS  C:\Users\Admin\AppData\Local\Temp\ccbcsXda.s 			page 26


 824:.\Generated_Source\PSoC4/PWM_Organizer.c **** 
 825:.\Generated_Source\PSoC4/PWM_Organizer.c **** #else
 826:.\Generated_Source\PSoC4/PWM_Organizer.c **** 
 827:.\Generated_Source\PSoC4/PWM_Organizer.c **** 
 828:.\Generated_Source\PSoC4/PWM_Organizer.c ****     /*******************************************************************************
 829:.\Generated_Source\PSoC4/PWM_Organizer.c ****     * Function Name: PWM_Organizer_ReadCompare1
 830:.\Generated_Source\PSoC4/PWM_Organizer.c ****     ********************************************************************************
 831:.\Generated_Source\PSoC4/PWM_Organizer.c ****     *
 832:.\Generated_Source\PSoC4/PWM_Organizer.c ****     * Summary:
 833:.\Generated_Source\PSoC4/PWM_Organizer.c ****     *  Reads the compare value for the compare1 output.
 834:.\Generated_Source\PSoC4/PWM_Organizer.c ****     *
 835:.\Generated_Source\PSoC4/PWM_Organizer.c ****     * Parameters:
 836:.\Generated_Source\PSoC4/PWM_Organizer.c ****     *  None
 837:.\Generated_Source\PSoC4/PWM_Organizer.c ****     *
 838:.\Generated_Source\PSoC4/PWM_Organizer.c ****     * Return:
 839:.\Generated_Source\PSoC4/PWM_Organizer.c ****     *  uint8/uint16: Current compare value.
 840:.\Generated_Source\PSoC4/PWM_Organizer.c ****     *
 841:.\Generated_Source\PSoC4/PWM_Organizer.c ****     *******************************************************************************/
 842:.\Generated_Source\PSoC4/PWM_Organizer.c ****     uint16 PWM_Organizer_ReadCompare1(void) 
 843:.\Generated_Source\PSoC4/PWM_Organizer.c ****     {
 844:.\Generated_Source\PSoC4/PWM_Organizer.c ****         return (CY_GET_REG16(PWM_Organizer_COMPARE1_LSB_PTR));
 845:.\Generated_Source\PSoC4/PWM_Organizer.c ****     }
 846:.\Generated_Source\PSoC4/PWM_Organizer.c **** 
 847:.\Generated_Source\PSoC4/PWM_Organizer.c **** 
 848:.\Generated_Source\PSoC4/PWM_Organizer.c ****     /*******************************************************************************
 849:.\Generated_Source\PSoC4/PWM_Organizer.c ****     * Function Name: PWM_Organizer_ReadCompare2
 850:.\Generated_Source\PSoC4/PWM_Organizer.c ****     ********************************************************************************
 851:.\Generated_Source\PSoC4/PWM_Organizer.c ****     *
 852:.\Generated_Source\PSoC4/PWM_Organizer.c ****     * Summary:
 853:.\Generated_Source\PSoC4/PWM_Organizer.c ****     *  Reads the compare value for the compare2 output.
 854:.\Generated_Source\PSoC4/PWM_Organizer.c ****     *
 855:.\Generated_Source\PSoC4/PWM_Organizer.c ****     * Parameters:
 856:.\Generated_Source\PSoC4/PWM_Organizer.c ****     *  None
 857:.\Generated_Source\PSoC4/PWM_Organizer.c ****     *
 858:.\Generated_Source\PSoC4/PWM_Organizer.c ****     * Return:
 859:.\Generated_Source\PSoC4/PWM_Organizer.c ****     *  uint8/uint16: Current compare value.
 860:.\Generated_Source\PSoC4/PWM_Organizer.c ****     *
 861:.\Generated_Source\PSoC4/PWM_Organizer.c ****     *******************************************************************************/
 862:.\Generated_Source\PSoC4/PWM_Organizer.c ****     uint16 PWM_Organizer_ReadCompare2(void) 
 863:.\Generated_Source\PSoC4/PWM_Organizer.c ****     {
 864:.\Generated_Source\PSoC4/PWM_Organizer.c ****         return (CY_GET_REG16(PWM_Organizer_COMPARE2_LSB_PTR));
 865:.\Generated_Source\PSoC4/PWM_Organizer.c ****     }
 866:.\Generated_Source\PSoC4/PWM_Organizer.c **** 
 867:.\Generated_Source\PSoC4/PWM_Organizer.c **** #endif /* (PWM_Organizer_UseOneCompareMode) */
 868:.\Generated_Source\PSoC4/PWM_Organizer.c **** 
 869:.\Generated_Source\PSoC4/PWM_Organizer.c **** 
 870:.\Generated_Source\PSoC4/PWM_Organizer.c **** /*******************************************************************************
 871:.\Generated_Source\PSoC4/PWM_Organizer.c **** * Function Name: PWM_Organizer_ReadPeriod
 872:.\Generated_Source\PSoC4/PWM_Organizer.c **** ********************************************************************************
 873:.\Generated_Source\PSoC4/PWM_Organizer.c **** *
 874:.\Generated_Source\PSoC4/PWM_Organizer.c **** * Summary:
 875:.\Generated_Source\PSoC4/PWM_Organizer.c **** *  Reads the period value used by the PWM hardware.
 876:.\Generated_Source\PSoC4/PWM_Organizer.c **** *
 877:.\Generated_Source\PSoC4/PWM_Organizer.c **** * Parameters:
 878:.\Generated_Source\PSoC4/PWM_Organizer.c **** *  None
 879:.\Generated_Source\PSoC4/PWM_Organizer.c **** *
 880:.\Generated_Source\PSoC4/PWM_Organizer.c **** * Return:
ARM GAS  C:\Users\Admin\AppData\Local\Temp\ccbcsXda.s 			page 27


 881:.\Generated_Source\PSoC4/PWM_Organizer.c **** *  uint8/16: Period value
 882:.\Generated_Source\PSoC4/PWM_Organizer.c **** *
 883:.\Generated_Source\PSoC4/PWM_Organizer.c **** *******************************************************************************/
 884:.\Generated_Source\PSoC4/PWM_Organizer.c **** uint16 PWM_Organizer_ReadPeriod(void) 
 885:.\Generated_Source\PSoC4/PWM_Organizer.c **** {
 537              		.loc 1 885 0
 538              		.cfi_startproc
 886:.\Generated_Source\PSoC4/PWM_Organizer.c ****     #if(PWM_Organizer_UsingFixedFunction)
 887:.\Generated_Source\PSoC4/PWM_Organizer.c ****         return ((uint16)CY_GET_REG16(PWM_Organizer_PERIOD_LSB_PTR));
 888:.\Generated_Source\PSoC4/PWM_Organizer.c ****     #else
 889:.\Generated_Source\PSoC4/PWM_Organizer.c ****         return (CY_GET_REG16(PWM_Organizer_PERIOD_LSB_PTR));
 539              		.loc 1 889 0
 540 0000 014B     		ldr	r3, .L52
 890:.\Generated_Source\PSoC4/PWM_Organizer.c ****     #endif /* (PWM_Organizer_UsingFixedFunction) */
 891:.\Generated_Source\PSoC4/PWM_Organizer.c **** }
 541              		.loc 1 891 0
 542              		@ sp needed
 889:.\Generated_Source\PSoC4/PWM_Organizer.c ****         return (CY_GET_REG16(PWM_Organizer_PERIOD_LSB_PTR));
 543              		.loc 1 889 0
 544 0002 1888     		ldrh	r0, [r3]
 545 0004 80B2     		uxth	r0, r0
 546              		.loc 1 891 0
 547 0006 7047     		bx	lr
 548              	.L53:
 549              		.align	2
 550              	.L52:
 551 0008 80100F40 		.word	1074729088
 552              		.cfi_endproc
 553              	.LFE15:
 554              		.size	PWM_Organizer_ReadPeriod, .-PWM_Organizer_ReadPeriod
 555              		.global	PWM_Organizer_initVar
 556              		.bss
 557              		.set	.LANCHOR0,. + 0
 558              		.type	PWM_Organizer_initVar, %object
 559              		.size	PWM_Organizer_initVar, 1
 560              	PWM_Organizer_initVar:
 561 0000 00       		.space	1
 562              		.text
 563              	.Letext0:
 564              		.file 2 ".\\Generated_Source\\PSoC4\\cytypes.h"
 565              		.file 3 ".\\Generated_Source\\PSoC4\\CyLib.h"