ARM GAS  C:\Users\Admin\AppData\Local\Temp\ccFp0W1R.s 			page 1


   1              		.cpu cortex-m0
   2              		.fpu softvfp
   3              		.eabi_attribute 20, 1
   4              		.eabi_attribute 21, 1
   5              		.eabi_attribute 23, 3
   6              		.eabi_attribute 24, 1
   7              		.eabi_attribute 25, 1
   8              		.eabi_attribute 26, 1
   9              		.eabi_attribute 30, 4
  10              		.eabi_attribute 34, 0
  11              		.eabi_attribute 18, 4
  12              		.code	16
  13              		.file	"substitution.c"
  14              		.text
  15              	.Ltext0:
  16              		.cfi_sections	.debug_frame
  17              		.section	.text.blink_char,"ax",%progbits
  18              		.align	1
  19              		.global	blink_char
  20              		.code	16
  21              		.thumb_func
  22              		.type	blink_char, %function
  23              	blink_char:
  24              	.LFB33:
  25              		.file 1 ".\\substitution.c"
   1:.\substitution.c **** /* ========================================
   2:.\substitution.c ****  *
   3:.\substitution.c ****  * Copyright Nullify, 2016
   4:.\substitution.c ****  * All Rights Reserved
   5:.\substitution.c ****  * UNPUBLISHED, LICENSED SOFTWARE.
   6:.\substitution.c ****  *
   7:.\substitution.c ****  * CONFIDENTIAL AND PROPRIETARY INFORMATION
   8:.\substitution.c ****  * WHICH IS THE PROPERTY OF NULLIY.
   9:.\substitution.c ****  *
  10:.\substitution.c ****  * ========================================
  11:.\substitution.c **** */
  12:.\substitution.c **** #include <project.h>
  13:.\substitution.c **** #include <string.h>
  14:.\substitution.c **** #include "lightlib.h"
  15:.\substitution.c **** #include "substitution.h"
  16:.\substitution.c **** #include "state.h"
  17:.\substitution.c **** 
  18:.\substitution.c **** 
  19:.\substitution.c **** void blink_char(void) {
  26              		.loc 1 19 0
  27              		.cfi_startproc
  28 0000 08B5     		push	{r3, lr}
  29              		.cfi_def_cfa_offset 8
  30              		.cfi_offset 3, -8
  31              		.cfi_offset 14, -4
  20:.\substitution.c ****     /* Verify state */
  21:.\substitution.c ****     if(!verify_state(SUBSTITUTION)) {
  32              		.loc 1 21 0
  33 0002 0320     		mov	r0, #3
  34 0004 FFF7FEFF 		bl	verify_state
  35              	.LVL0:
  36 0008 0028     		cmp	r0, #0
ARM GAS  C:\Users\Admin\AppData\Local\Temp\ccFp0W1R.s 			page 2


  37 000a 0DD0     		beq	.L1
  38              	.LBB4:
  39              	.LBB5:
  22:.\substitution.c ****         return;
  23:.\substitution.c ****     }
  24:.\substitution.c ****     turn_on(LEFT_LED);
  40              		.loc 1 24 0
  41 000c 0120     		mov	r0, #1
  42 000e FFF7FEFF 		bl	turn_on
  43              	.LVL1:
  25:.\substitution.c ****     CyDelay(CHAR_ON_TIME);
  44              		.loc 1 25 0
  45 0012 FA20     		mov	r0, #250
  46 0014 4000     		lsl	r0, r0, #1
  47 0016 FFF7FEFF 		bl	CyDelay
  48              	.LVL2:
  26:.\substitution.c ****     turn_off(LEFT_LED);
  49              		.loc 1 26 0
  50 001a 0120     		mov	r0, #1
  51 001c FFF7FEFF 		bl	turn_off
  52              	.LVL3:
  27:.\substitution.c ****     CyDelay(CHAR_OFF_TIME);
  53              		.loc 1 27 0
  54 0020 FA20     		mov	r0, #250
  55 0022 4000     		lsl	r0, r0, #1
  56 0024 FFF7FEFF 		bl	CyDelay
  57              	.LVL4:
  58              	.L1:
  59              	.LBE5:
  60              	.LBE4:
  28:.\substitution.c **** }
  61              		.loc 1 28 0
  62              		@ sp needed
  63 0028 08BD     		pop	{r3, pc}
  64              		.cfi_endproc
  65              	.LFE33:
  66              		.size	blink_char, .-blink_char
  67              		.section	.text.new_char,"ax",%progbits
  68              		.align	1
  69              		.global	new_char
  70              		.code	16
  71              		.thumb_func
  72              		.type	new_char, %function
  73              	new_char:
  74              	.LFB34:
  29:.\substitution.c **** 
  30:.\substitution.c **** void new_char(void) {
  75              		.loc 1 30 0
  76              		.cfi_startproc
  77 0000 08B5     		push	{r3, lr}
  78              		.cfi_def_cfa_offset 8
  79              		.cfi_offset 3, -8
  80              		.cfi_offset 14, -4
  31:.\substitution.c ****     /* Verify state */
  32:.\substitution.c ****     if(!verify_state(SUBSTITUTION)) {
  81              		.loc 1 32 0
  82 0002 0320     		mov	r0, #3
ARM GAS  C:\Users\Admin\AppData\Local\Temp\ccFp0W1R.s 			page 3


  83 0004 FFF7FEFF 		bl	verify_state
  84              	.LVL5:
  85 0008 0028     		cmp	r0, #0
  86 000a 0DD0     		beq	.L7
  87              	.LBB8:
  88              	.LBB9:
  33:.\substitution.c ****         return;
  34:.\substitution.c ****     }
  35:.\substitution.c ****     turn_on(RIGHT_LED);
  89              		.loc 1 35 0
  90 000c 0220     		mov	r0, #2
  91 000e FFF7FEFF 		bl	turn_on
  92              	.LVL6:
  36:.\substitution.c ****     CyDelay(CHAR_ON_TIME);
  93              		.loc 1 36 0
  94 0012 FA20     		mov	r0, #250
  95 0014 4000     		lsl	r0, r0, #1
  96 0016 FFF7FEFF 		bl	CyDelay
  97              	.LVL7:
  37:.\substitution.c ****     turn_off(RIGHT_LED);
  98              		.loc 1 37 0
  99 001a 0220     		mov	r0, #2
 100 001c FFF7FEFF 		bl	turn_off
 101              	.LVL8:
  38:.\substitution.c ****     CyDelay(CHAR_OFF_TIME);
 102              		.loc 1 38 0
 103 0020 FA20     		mov	r0, #250
 104 0022 4000     		lsl	r0, r0, #1
 105 0024 FFF7FEFF 		bl	CyDelay
 106              	.LVL9:
 107              	.L7:
 108              	.LBE9:
 109              	.LBE8:
  39:.\substitution.c **** }
 110              		.loc 1 39 0
 111              		@ sp needed
 112 0028 08BD     		pop	{r3, pc}
 113              		.cfi_endproc
 114              	.LFE34:
 115              		.size	new_char, .-new_char
 116              		.section	.text.new_message_substitution,"ax",%progbits
 117              		.align	1
 118              		.global	new_message_substitution
 119              		.code	16
 120              		.thumb_func
 121              		.type	new_message_substitution, %function
 122              	new_message_substitution:
 123              	.LFB35:
  40:.\substitution.c **** 
  41:.\substitution.c **** void new_message_substitution(void) {
 124              		.loc 1 41 0
 125              		.cfi_startproc
 126 0000 38B5     		push	{r3, r4, r5, lr}
 127              		.cfi_def_cfa_offset 16
 128              		.cfi_offset 3, -16
 129              		.cfi_offset 4, -12
 130              		.cfi_offset 5, -8
ARM GAS  C:\Users\Admin\AppData\Local\Temp\ccFp0W1R.s 			page 4


 131              		.cfi_offset 14, -4
  42:.\substitution.c ****     unsigned int i;
  43:.\substitution.c ****     uint8 original_color;
  44:.\substitution.c ****     original_color = get_color(LEFT_LED);
 132              		.loc 1 44 0
 133 0002 0120     		mov	r0, #1
 134 0004 FFF7FEFF 		bl	get_color
 135              	.LVL10:
  45:.\substitution.c ****     set_color(LEFT_RIGHT_LED, WHITE);
 136              		.loc 1 45 0
 137 0008 0721     		mov	r1, #7
  44:.\substitution.c ****     original_color = get_color(LEFT_LED);
 138              		.loc 1 44 0
 139 000a 051C     		mov	r5, r0
 140              	.LVL11:
 141              		.loc 1 45 0
 142 000c 0320     		mov	r0, #3
 143              	.LVL12:
 144 000e FFF7FEFF 		bl	set_color
 145              	.LVL13:
 146 0012 0524     		mov	r4, #5
 147              	.LVL14:
 148              	.L15:
  46:.\substitution.c ****     for (i=0; i<NEW_MESSAGE_NUMBER; i++) {
  47:.\substitution.c ****         /* Verify state */
  48:.\substitution.c ****         if(!verify_state(SUBSTITUTION)) {
 149              		.loc 1 48 0
 150 0014 0320     		mov	r0, #3
 151 0016 FFF7FEFF 		bl	verify_state
 152              	.LVL15:
 153 001a 0028     		cmp	r0, #0
 154 001c 12D0     		beq	.L12
  49:.\substitution.c ****             return;
  50:.\substitution.c ****         }
  51:.\substitution.c ****        turn_on(LEFT_RIGHT_LED);
 155              		.loc 1 51 0
 156 001e 0320     		mov	r0, #3
 157 0020 FFF7FEFF 		bl	turn_on
 158              	.LVL16:
  52:.\substitution.c ****        CyDelay(RESET_DELAY);
 159              		.loc 1 52 0
 160 0024 FA20     		mov	r0, #250
 161 0026 FFF7FEFF 		bl	CyDelay
 162              	.LVL17:
  53:.\substitution.c ****        turn_off(LEFT_RIGHT_LED);
 163              		.loc 1 53 0
 164 002a 0320     		mov	r0, #3
 165 002c FFF7FEFF 		bl	turn_off
 166              	.LVL18:
 167 0030 013C     		sub	r4, r4, #1
 168              	.LVL19:
  54:.\substitution.c ****        CyDelay(RESET_DELAY);
 169              		.loc 1 54 0
 170 0032 FA20     		mov	r0, #250
 171 0034 FFF7FEFF 		bl	CyDelay
 172              	.LVL20:
  46:.\substitution.c ****     for (i=0; i<NEW_MESSAGE_NUMBER; i++) {
ARM GAS  C:\Users\Admin\AppData\Local\Temp\ccFp0W1R.s 			page 5


 173              		.loc 1 46 0
 174 0038 002C     		cmp	r4, #0
 175 003a EBD1     		bne	.L15
  55:.\substitution.c ****     }
  56:.\substitution.c ****     set_color(LEFT_RIGHT_LED, original_color);
 176              		.loc 1 56 0
 177 003c 0320     		mov	r0, #3
 178 003e 291C     		mov	r1, r5
 179 0040 FFF7FEFF 		bl	set_color
 180              	.LVL21:
 181              	.L12:
  57:.\substitution.c **** }
 182              		.loc 1 57 0
 183              		@ sp needed
 184              	.LVL22:
 185 0044 38BD     		pop	{r3, r4, r5, pc}
 186              		.cfi_endproc
 187              	.LFE35:
 188              		.size	new_message_substitution, .-new_message_substitution
 189              		.section	.text.substitution_encode,"ax",%progbits
 190              		.align	1
 191              		.global	substitution_encode
 192              		.code	16
 193              		.thumb_func
 194              		.type	substitution_encode, %function
 195              	substitution_encode:
 196              	.LFB36:
  58:.\substitution.c **** 
  59:.\substitution.c **** 
  60:.\substitution.c **** void substitution_encode(char c){
 197              		.loc 1 60 0
 198              		.cfi_startproc
 199              	.LVL23:
 200 0000 10B5     		push	{r4, lr}
 201              		.cfi_def_cfa_offset 8
 202              		.cfi_offset 4, -8
 203              		.cfi_offset 14, -4
 204              		.loc 1 60 0
 205 0002 041C     		mov	r4, r0
  61:.\substitution.c ****     int i;
  62:.\substitution.c ****     /* Verify state */
  63:.\substitution.c ****     if(!verify_state(SUBSTITUTION)) {
 206              		.loc 1 63 0
 207 0004 0320     		mov	r0, #3
 208              	.LVL24:
 209 0006 FFF7FEFF 		bl	verify_state
 210              	.LVL25:
 211 000a 0028     		cmp	r0, #0
 212 000c 00D1     		bne	.LCB155
 213 000e BEE0     		b	.L19	@long jump
 214              	.LCB155:
  64:.\substitution.c ****         return;
  65:.\substitution.c ****     }
  66:.\substitution.c ****     switch(c) {
 215              		.loc 1 66 0
 216 0010 201C     		mov	r0, r4
 217 0012 4138     		sub	r0, r0, #65
ARM GAS  C:\Users\Admin\AppData\Local\Temp\ccFp0W1R.s 			page 6


 218 0014 3928     		cmp	r0, #57
 219 0016 00D9     		bls	.LCB159
 220 0018 B9E0     		b	.L19	@long jump
 221              	.LCB159:
 222 001a FFF7FEFF 		bl	__gnu_thumb1_case_uqi
 223              	.L22:
 224 001e 27       		.byte	(.L132-.L22)/2
 225 001f 25       		.byte	(.L133-.L22)/2
 226 0020 23       		.byte	(.L134-.L22)/2
 227 0021 21       		.byte	(.L135-.L22)/2
 228 0022 1F       		.byte	(.L136-.L22)/2
 229 0023 1D       		.byte	(.L27-.L22)/2
 230 0024 2C       		.byte	(.L28-.L22)/2
 231 0025 33       		.byte	(.L29-.L22)/2
 232 0026 3A       		.byte	(.L30-.L22)/2
 233 0027 41       		.byte	(.L31-.L22)/2
 234 0028 48       		.byte	(.L32-.L22)/2
 235 0029 4F       		.byte	(.L33-.L22)/2
 236 002a 56       		.byte	(.L34-.L22)/2
 237 002b 5D       		.byte	(.L35-.L22)/2
 238 002c 64       		.byte	(.L36-.L22)/2
 239 002d 6B       		.byte	(.L37-.L22)/2
 240 002e 72       		.byte	(.L38-.L22)/2
 241 002f 79       		.byte	(.L39-.L22)/2
 242 0030 80       		.byte	(.L40-.L22)/2
 243 0031 87       		.byte	(.L41-.L22)/2
 244 0032 8E       		.byte	(.L42-.L22)/2
 245 0033 95       		.byte	(.L43-.L22)/2
 246 0034 9C       		.byte	(.L44-.L22)/2
 247 0035 A3       		.byte	(.L45-.L22)/2
 248 0036 AA       		.byte	(.L46-.L22)/2
 249 0037 B1       		.byte	(.L47-.L22)/2
 250 0038 B8       		.byte	(.L19-.L22)/2
 251 0039 B8       		.byte	(.L19-.L22)/2
 252 003a B8       		.byte	(.L19-.L22)/2
 253 003b B8       		.byte	(.L19-.L22)/2
 254 003c B8       		.byte	(.L19-.L22)/2
 255 003d B8       		.byte	(.L19-.L22)/2
 256 003e 27       		.byte	(.L132-.L22)/2
 257 003f 25       		.byte	(.L133-.L22)/2
 258 0040 23       		.byte	(.L134-.L22)/2
 259 0041 21       		.byte	(.L135-.L22)/2
 260 0042 1F       		.byte	(.L136-.L22)/2
 261 0043 1D       		.byte	(.L27-.L22)/2
 262 0044 2C       		.byte	(.L28-.L22)/2
 263 0045 33       		.byte	(.L29-.L22)/2
 264 0046 3A       		.byte	(.L30-.L22)/2
 265 0047 41       		.byte	(.L31-.L22)/2
 266 0048 48       		.byte	(.L32-.L22)/2
 267 0049 4F       		.byte	(.L33-.L22)/2
 268 004a 56       		.byte	(.L34-.L22)/2
 269 004b 5D       		.byte	(.L35-.L22)/2
 270 004c 64       		.byte	(.L36-.L22)/2
 271 004d 6B       		.byte	(.L37-.L22)/2
 272 004e 72       		.byte	(.L38-.L22)/2
 273 004f 79       		.byte	(.L39-.L22)/2
 274 0050 80       		.byte	(.L40-.L22)/2
ARM GAS  C:\Users\Admin\AppData\Local\Temp\ccFp0W1R.s 			page 7


 275 0051 87       		.byte	(.L41-.L22)/2
 276 0052 8E       		.byte	(.L42-.L22)/2
 277 0053 95       		.byte	(.L43-.L22)/2
 278 0054 9C       		.byte	(.L44-.L22)/2
 279 0055 A3       		.byte	(.L45-.L22)/2
 280 0056 AA       		.byte	(.L46-.L22)/2
 281 0057 B1       		.byte	(.L47-.L22)/2
 282              		.p2align 1
 283              	.L27:
 284              	.LVL26:
  67:.\substitution.c ****       case 'A':
  68:.\substitution.c ****       case 'a':
  69:.\substitution.c ****         for (i=0; i<1; i++) {
  70:.\substitution.c ****          blink_char();   
  71:.\substitution.c ****         }
  72:.\substitution.c ****         new_char();
  73:.\substitution.c ****         break;
  74:.\substitution.c ****       case 'B':
  75:.\substitution.c ****       case 'b':
  76:.\substitution.c ****         for (i=0; i<2; i++) {
  77:.\substitution.c ****          blink_char();   
  78:.\substitution.c ****         }
  79:.\substitution.c ****         new_char();
  80:.\substitution.c ****         break;
  81:.\substitution.c ****       case 'C':
  82:.\substitution.c ****       case 'c':
  83:.\substitution.c ****         for (i=0; i<3; i++) {
  84:.\substitution.c ****          blink_char();   
  85:.\substitution.c ****         }
  86:.\substitution.c ****         new_char();
  87:.\substitution.c ****         break;
  88:.\substitution.c ****       case 'D':
  89:.\substitution.c ****       case 'd':
  90:.\substitution.c ****         for (i=0; i<4; i++) {
  91:.\substitution.c ****          blink_char();   
  92:.\substitution.c ****         }
  93:.\substitution.c ****         new_char();
  94:.\substitution.c ****         break;
  95:.\substitution.c ****        case 'E':
  96:.\substitution.c ****        case 'e':
  97:.\substitution.c ****         for (i=0; i<5; i++) {
  98:.\substitution.c ****          blink_char();   
  99:.\substitution.c ****         }
 100:.\substitution.c ****         new_char();
 101:.\substitution.c ****         break;
 102:.\substitution.c ****        case 'F':
 103:.\substitution.c ****        case 'f':
 104:.\substitution.c ****         for (i=0; i<6; i++) {
 105:.\substitution.c ****          blink_char();   
 285              		.loc 1 105 0
 286 0058 FFF7FEFF 		bl	blink_char
 287              	.LVL27:
 288              	.L136:
 289 005c FFF7FEFF 		bl	blink_char
 290              	.LVL28:
 291              	.L135:
 292 0060 FFF7FEFF 		bl	blink_char
ARM GAS  C:\Users\Admin\AppData\Local\Temp\ccFp0W1R.s 			page 8


 293              	.LVL29:
 294              	.L134:
 295 0064 FFF7FEFF 		bl	blink_char
 296              	.LVL30:
 297              	.L133:
 298 0068 FFF7FEFF 		bl	blink_char
 299              	.LVL31:
 300              	.L132:
 301 006c FFF7FEFF 		bl	blink_char
 302              	.LVL32:
 303              	.L48:
 106:.\substitution.c ****         }
 107:.\substitution.c ****         new_char();
 304              		.loc 1 107 0
 305 0070 FFF7FEFF 		bl	new_char
 306              	.LVL33:
 108:.\substitution.c ****         break;
 307              		.loc 1 108 0
 308 0074 8BE0     		b	.L19
 309              	.L28:
  66:.\substitution.c ****     switch(c) {
 310              		.loc 1 66 0
 311 0076 0724     		mov	r4, #7
 312              	.L49:
 313              	.LVL34:
 314 0078 013C     		sub	r4, r4, #1
 315              	.LVL35:
 109:.\substitution.c ****        case 'G':
 110:.\substitution.c ****        case 'g':
 111:.\substitution.c ****         for (i=0; i<7; i++) {
 112:.\substitution.c ****          blink_char();   
 316              		.loc 1 112 0 discriminator 2
 317 007a FFF7FEFF 		bl	blink_char
 318              	.LVL36:
 111:.\substitution.c ****         for (i=0; i<7; i++) {
 319              		.loc 1 111 0 discriminator 2
 320 007e 002C     		cmp	r4, #0
 321 0080 FAD1     		bne	.L49
 322 0082 F5E7     		b	.L48
 323              	.L29:
  66:.\substitution.c ****     switch(c) {
 324              		.loc 1 66 0
 325 0084 0824     		mov	r4, #8
 326              	.L50:
 327              	.LVL37:
 328 0086 013C     		sub	r4, r4, #1
 329              	.LVL38:
 113:.\substitution.c ****         }
 114:.\substitution.c ****         new_char();
 115:.\substitution.c ****         break;
 116:.\substitution.c ****        case 'H':
 117:.\substitution.c ****        case 'h':
 118:.\substitution.c ****         for (i=0; i<8; i++) {
 119:.\substitution.c ****          blink_char();   
 330              		.loc 1 119 0 discriminator 2
 331 0088 FFF7FEFF 		bl	blink_char
 332              	.LVL39:
ARM GAS  C:\Users\Admin\AppData\Local\Temp\ccFp0W1R.s 			page 9


 118:.\substitution.c ****         for (i=0; i<8; i++) {
 333              		.loc 1 118 0 discriminator 2
 334 008c 002C     		cmp	r4, #0
 335 008e FAD1     		bne	.L50
 336 0090 EEE7     		b	.L48
 337              	.L30:
  66:.\substitution.c ****     switch(c) {
 338              		.loc 1 66 0
 339 0092 0924     		mov	r4, #9
 340              	.L51:
 341              	.LVL40:
 342 0094 013C     		sub	r4, r4, #1
 343              	.LVL41:
 120:.\substitution.c ****         }
 121:.\substitution.c ****         new_char();
 122:.\substitution.c ****         break;
 123:.\substitution.c ****        case 'I':
 124:.\substitution.c ****        case 'i':
 125:.\substitution.c ****         for (i=0; i<9; i++) {
 126:.\substitution.c ****          blink_char();   
 344              		.loc 1 126 0 discriminator 2
 345 0096 FFF7FEFF 		bl	blink_char
 346              	.LVL42:
 125:.\substitution.c ****         for (i=0; i<9; i++) {
 347              		.loc 1 125 0 discriminator 2
 348 009a 002C     		cmp	r4, #0
 349 009c FAD1     		bne	.L51
 350 009e E7E7     		b	.L48
 351              	.L31:
  66:.\substitution.c ****     switch(c) {
 352              		.loc 1 66 0
 353 00a0 0A24     		mov	r4, #10
 354              	.L52:
 355              	.LVL43:
 356 00a2 013C     		sub	r4, r4, #1
 357              	.LVL44:
 127:.\substitution.c ****         }
 128:.\substitution.c ****         new_char();
 129:.\substitution.c ****         break;
 130:.\substitution.c ****        case 'J':
 131:.\substitution.c ****        case 'j':
 132:.\substitution.c ****         for (i=0; i<10; i++) {
 133:.\substitution.c ****          blink_char();   
 358              		.loc 1 133 0 discriminator 2
 359 00a4 FFF7FEFF 		bl	blink_char
 360              	.LVL45:
 132:.\substitution.c ****         for (i=0; i<10; i++) {
 361              		.loc 1 132 0 discriminator 2
 362 00a8 002C     		cmp	r4, #0
 363 00aa FAD1     		bne	.L52
 364 00ac E0E7     		b	.L48
 365              	.L32:
  66:.\substitution.c ****     switch(c) {
 366              		.loc 1 66 0
 367 00ae 0B24     		mov	r4, #11
 368              	.L53:
 369              	.LVL46:
ARM GAS  C:\Users\Admin\AppData\Local\Temp\ccFp0W1R.s 			page 10


 370 00b0 013C     		sub	r4, r4, #1
 371              	.LVL47:
 134:.\substitution.c ****         }
 135:.\substitution.c ****         new_char();
 136:.\substitution.c ****         break;
 137:.\substitution.c ****        case 'K':
 138:.\substitution.c ****        case 'k':
 139:.\substitution.c ****         for (i=0; i<11; i++) {
 140:.\substitution.c ****          blink_char();   
 372              		.loc 1 140 0 discriminator 2
 373 00b2 FFF7FEFF 		bl	blink_char
 374              	.LVL48:
 139:.\substitution.c ****         for (i=0; i<11; i++) {
 375              		.loc 1 139 0 discriminator 2
 376 00b6 002C     		cmp	r4, #0
 377 00b8 FAD1     		bne	.L53
 378 00ba D9E7     		b	.L48
 379              	.L33:
  66:.\substitution.c ****     switch(c) {
 380              		.loc 1 66 0
 381 00bc 0C24     		mov	r4, #12
 382              	.L54:
 383              	.LVL49:
 384 00be 013C     		sub	r4, r4, #1
 385              	.LVL50:
 141:.\substitution.c ****         }
 142:.\substitution.c ****         new_char();
 143:.\substitution.c ****         break;
 144:.\substitution.c ****        case 'L':
 145:.\substitution.c ****        case 'l':
 146:.\substitution.c ****         for (i=0; i<12; i++) {
 147:.\substitution.c ****          blink_char();   
 386              		.loc 1 147 0 discriminator 2
 387 00c0 FFF7FEFF 		bl	blink_char
 388              	.LVL51:
 146:.\substitution.c ****         for (i=0; i<12; i++) {
 389              		.loc 1 146 0 discriminator 2
 390 00c4 002C     		cmp	r4, #0
 391 00c6 FAD1     		bne	.L54
 392 00c8 D2E7     		b	.L48
 393              	.L34:
  66:.\substitution.c ****     switch(c) {
 394              		.loc 1 66 0
 395 00ca 0D24     		mov	r4, #13
 396              	.L55:
 397              	.LVL52:
 398 00cc 013C     		sub	r4, r4, #1
 399              	.LVL53:
 148:.\substitution.c ****         }
 149:.\substitution.c ****         new_char();
 150:.\substitution.c ****         break;
 151:.\substitution.c ****        case 'M':
 152:.\substitution.c ****        case 'm':
 153:.\substitution.c ****         for (i=0; i<13; i++) {
 154:.\substitution.c ****          blink_char();   
 400              		.loc 1 154 0 discriminator 2
 401 00ce FFF7FEFF 		bl	blink_char
ARM GAS  C:\Users\Admin\AppData\Local\Temp\ccFp0W1R.s 			page 11


 402              	.LVL54:
 153:.\substitution.c ****         for (i=0; i<13; i++) {
 403              		.loc 1 153 0 discriminator 2
 404 00d2 002C     		cmp	r4, #0
 405 00d4 FAD1     		bne	.L55
 406 00d6 CBE7     		b	.L48
 407              	.L35:
  66:.\substitution.c ****     switch(c) {
 408              		.loc 1 66 0
 409 00d8 0E24     		mov	r4, #14
 410              	.L56:
 411              	.LVL55:
 412 00da 013C     		sub	r4, r4, #1
 413              	.LVL56:
 155:.\substitution.c ****         }
 156:.\substitution.c ****         new_char();
 157:.\substitution.c ****         break;
 158:.\substitution.c ****        case 'N':
 159:.\substitution.c ****        case 'n':
 160:.\substitution.c ****         for (i=0; i<14; i++) {
 161:.\substitution.c ****          blink_char();   
 414              		.loc 1 161 0 discriminator 2
 415 00dc FFF7FEFF 		bl	blink_char
 416              	.LVL57:
 160:.\substitution.c ****         for (i=0; i<14; i++) {
 417              		.loc 1 160 0 discriminator 2
 418 00e0 002C     		cmp	r4, #0
 419 00e2 FAD1     		bne	.L56
 420 00e4 C4E7     		b	.L48
 421              	.L36:
  66:.\substitution.c ****     switch(c) {
 422              		.loc 1 66 0
 423 00e6 0F24     		mov	r4, #15
 424              	.L57:
 425              	.LVL58:
 426 00e8 013C     		sub	r4, r4, #1
 427              	.LVL59:
 162:.\substitution.c ****         }
 163:.\substitution.c ****         new_char();
 164:.\substitution.c ****         break;
 165:.\substitution.c ****        case 'O':
 166:.\substitution.c ****        case 'o':
 167:.\substitution.c ****         for (i=0; i<15; i++) {
 168:.\substitution.c ****          blink_char();   
 428              		.loc 1 168 0 discriminator 2
 429 00ea FFF7FEFF 		bl	blink_char
 430              	.LVL60:
 167:.\substitution.c ****         for (i=0; i<15; i++) {
 431              		.loc 1 167 0 discriminator 2
 432 00ee 002C     		cmp	r4, #0
 433 00f0 FAD1     		bne	.L57
 434 00f2 BDE7     		b	.L48
 435              	.L37:
  66:.\substitution.c ****     switch(c) {
 436              		.loc 1 66 0
 437 00f4 1024     		mov	r4, #16
 438              	.L58:
ARM GAS  C:\Users\Admin\AppData\Local\Temp\ccFp0W1R.s 			page 12


 439              	.LVL61:
 440 00f6 013C     		sub	r4, r4, #1
 441              	.LVL62:
 169:.\substitution.c ****         }
 170:.\substitution.c ****         new_char();
 171:.\substitution.c ****         break;
 172:.\substitution.c ****        case 'P':
 173:.\substitution.c ****        case 'p':
 174:.\substitution.c ****         for (i=0; i<16; i++) {
 175:.\substitution.c ****          blink_char();   
 442              		.loc 1 175 0 discriminator 2
 443 00f8 FFF7FEFF 		bl	blink_char
 444              	.LVL63:
 174:.\substitution.c ****         for (i=0; i<16; i++) {
 445              		.loc 1 174 0 discriminator 2
 446 00fc 002C     		cmp	r4, #0
 447 00fe FAD1     		bne	.L58
 448 0100 B6E7     		b	.L48
 449              	.L38:
  66:.\substitution.c ****     switch(c) {
 450              		.loc 1 66 0
 451 0102 1124     		mov	r4, #17
 452              	.L59:
 453              	.LVL64:
 454 0104 013C     		sub	r4, r4, #1
 455              	.LVL65:
 176:.\substitution.c ****         }
 177:.\substitution.c ****         new_char();
 178:.\substitution.c ****         break;
 179:.\substitution.c ****        case 'Q':
 180:.\substitution.c ****        case 'q':
 181:.\substitution.c ****         for (i=0; i<17; i++) {
 182:.\substitution.c ****          blink_char();   
 456              		.loc 1 182 0 discriminator 2
 457 0106 FFF7FEFF 		bl	blink_char
 458              	.LVL66:
 181:.\substitution.c ****         for (i=0; i<17; i++) {
 459              		.loc 1 181 0 discriminator 2
 460 010a 002C     		cmp	r4, #0
 461 010c FAD1     		bne	.L59
 462 010e AFE7     		b	.L48
 463              	.L39:
  66:.\substitution.c ****     switch(c) {
 464              		.loc 1 66 0
 465 0110 1224     		mov	r4, #18
 466              	.L60:
 467              	.LVL67:
 468 0112 013C     		sub	r4, r4, #1
 469              	.LVL68:
 183:.\substitution.c ****         }
 184:.\substitution.c ****         new_char();
 185:.\substitution.c ****         break;
 186:.\substitution.c ****        case 'R':
 187:.\substitution.c ****        case 'r':
 188:.\substitution.c ****         for (i=0; i<18; i++) {
 189:.\substitution.c ****          blink_char();   
 470              		.loc 1 189 0 discriminator 2
ARM GAS  C:\Users\Admin\AppData\Local\Temp\ccFp0W1R.s 			page 13


 471 0114 FFF7FEFF 		bl	blink_char
 472              	.LVL69:
 188:.\substitution.c ****         for (i=0; i<18; i++) {
 473              		.loc 1 188 0 discriminator 2
 474 0118 002C     		cmp	r4, #0
 475 011a FAD1     		bne	.L60
 476 011c A8E7     		b	.L48
 477              	.L40:
  66:.\substitution.c ****     switch(c) {
 478              		.loc 1 66 0
 479 011e 1324     		mov	r4, #19
 480              	.L61:
 481              	.LVL70:
 482 0120 013C     		sub	r4, r4, #1
 483              	.LVL71:
 190:.\substitution.c ****         }
 191:.\substitution.c ****         new_char();
 192:.\substitution.c ****         break;
 193:.\substitution.c ****        case 'S':
 194:.\substitution.c ****        case 's':
 195:.\substitution.c ****         for (i=0; i<19; i++) {
 196:.\substitution.c ****          blink_char();   
 484              		.loc 1 196 0 discriminator 2
 485 0122 FFF7FEFF 		bl	blink_char
 486              	.LVL72:
 195:.\substitution.c ****         for (i=0; i<19; i++) {
 487              		.loc 1 195 0 discriminator 2
 488 0126 002C     		cmp	r4, #0
 489 0128 FAD1     		bne	.L61
 490 012a A1E7     		b	.L48
 491              	.L41:
  66:.\substitution.c ****     switch(c) {
 492              		.loc 1 66 0
 493 012c 1424     		mov	r4, #20
 494              	.L62:
 495              	.LVL73:
 496 012e 013C     		sub	r4, r4, #1
 497              	.LVL74:
 197:.\substitution.c ****         }
 198:.\substitution.c ****         new_char();
 199:.\substitution.c ****         break;
 200:.\substitution.c ****        case 'T':
 201:.\substitution.c ****        case 't':
 202:.\substitution.c ****         for (i=0; i<20; i++) {
 203:.\substitution.c ****          blink_char();   
 498              		.loc 1 203 0 discriminator 2
 499 0130 FFF7FEFF 		bl	blink_char
 500              	.LVL75:
 202:.\substitution.c ****         for (i=0; i<20; i++) {
 501              		.loc 1 202 0 discriminator 2
 502 0134 002C     		cmp	r4, #0
 503 0136 FAD1     		bne	.L62
 504 0138 9AE7     		b	.L48
 505              	.L42:
  66:.\substitution.c ****     switch(c) {
 506              		.loc 1 66 0
 507 013a 1524     		mov	r4, #21
ARM GAS  C:\Users\Admin\AppData\Local\Temp\ccFp0W1R.s 			page 14


 508              	.L63:
 509              	.LVL76:
 510 013c 013C     		sub	r4, r4, #1
 511              	.LVL77:
 204:.\substitution.c ****         }
 205:.\substitution.c ****         new_char();
 206:.\substitution.c ****         break;
 207:.\substitution.c ****        case 'U':
 208:.\substitution.c ****        case 'u':
 209:.\substitution.c ****         for (i=0; i<21; i++) {
 210:.\substitution.c ****          blink_char();   
 512              		.loc 1 210 0 discriminator 2
 513 013e FFF7FEFF 		bl	blink_char
 514              	.LVL78:
 209:.\substitution.c ****         for (i=0; i<21; i++) {
 515              		.loc 1 209 0 discriminator 2
 516 0142 002C     		cmp	r4, #0
 517 0144 FAD1     		bne	.L63
 518 0146 93E7     		b	.L48
 519              	.L43:
  66:.\substitution.c ****     switch(c) {
 520              		.loc 1 66 0
 521 0148 1624     		mov	r4, #22
 522              	.L64:
 523              	.LVL79:
 524 014a 013C     		sub	r4, r4, #1
 525              	.LVL80:
 211:.\substitution.c ****         }
 212:.\substitution.c ****         new_char();
 213:.\substitution.c ****         break;
 214:.\substitution.c ****        case 'V':
 215:.\substitution.c ****        case 'v':
 216:.\substitution.c ****         for (i=0; i<22; i++) {
 217:.\substitution.c ****          blink_char();   
 526              		.loc 1 217 0 discriminator 2
 527 014c FFF7FEFF 		bl	blink_char
 528              	.LVL81:
 216:.\substitution.c ****         for (i=0; i<22; i++) {
 529              		.loc 1 216 0 discriminator 2
 530 0150 002C     		cmp	r4, #0
 531 0152 FAD1     		bne	.L64
 532 0154 8CE7     		b	.L48
 533              	.L44:
  66:.\substitution.c ****     switch(c) {
 534              		.loc 1 66 0
 535 0156 1724     		mov	r4, #23
 536              	.L65:
 537              	.LVL82:
 538 0158 013C     		sub	r4, r4, #1
 539              	.LVL83:
 218:.\substitution.c ****         }
 219:.\substitution.c ****         new_char();
 220:.\substitution.c ****         break;
 221:.\substitution.c ****        case 'W':
 222:.\substitution.c ****        case 'w':
 223:.\substitution.c ****         for (i=0; i<23; i++) {
 224:.\substitution.c ****          blink_char();   
ARM GAS  C:\Users\Admin\AppData\Local\Temp\ccFp0W1R.s 			page 15


 540              		.loc 1 224 0 discriminator 2
 541 015a FFF7FEFF 		bl	blink_char
 542              	.LVL84:
 223:.\substitution.c ****         for (i=0; i<23; i++) {
 543              		.loc 1 223 0 discriminator 2
 544 015e 002C     		cmp	r4, #0
 545 0160 FAD1     		bne	.L65
 546 0162 85E7     		b	.L48
 547              	.L45:
  66:.\substitution.c ****     switch(c) {
 548              		.loc 1 66 0
 549 0164 1824     		mov	r4, #24
 550              	.L66:
 551              	.LVL85:
 552 0166 013C     		sub	r4, r4, #1
 553              	.LVL86:
 225:.\substitution.c ****         }
 226:.\substitution.c ****         new_char();
 227:.\substitution.c ****         break;
 228:.\substitution.c ****        case 'X':
 229:.\substitution.c ****        case 'x':
 230:.\substitution.c ****         for (i=0; i<24; i++) {
 231:.\substitution.c ****          blink_char();   
 554              		.loc 1 231 0 discriminator 2
 555 0168 FFF7FEFF 		bl	blink_char
 556              	.LVL87:
 230:.\substitution.c ****         for (i=0; i<24; i++) {
 557              		.loc 1 230 0 discriminator 2
 558 016c 002C     		cmp	r4, #0
 559 016e FAD1     		bne	.L66
 560 0170 7EE7     		b	.L48
 561              	.L46:
  66:.\substitution.c ****     switch(c) {
 562              		.loc 1 66 0
 563 0172 1924     		mov	r4, #25
 564              	.L67:
 565              	.LVL88:
 566 0174 013C     		sub	r4, r4, #1
 567              	.LVL89:
 232:.\substitution.c ****         }
 233:.\substitution.c ****         new_char();
 234:.\substitution.c ****         break;
 235:.\substitution.c ****        case 'Y':
 236:.\substitution.c ****        case 'y':
 237:.\substitution.c ****         for (i=0; i<25; i++) {
 238:.\substitution.c ****          blink_char();   
 568              		.loc 1 238 0 discriminator 2
 569 0176 FFF7FEFF 		bl	blink_char
 570              	.LVL90:
 237:.\substitution.c ****         for (i=0; i<25; i++) {
 571              		.loc 1 237 0 discriminator 2
 572 017a 002C     		cmp	r4, #0
 573 017c FAD1     		bne	.L67
 574 017e 77E7     		b	.L48
 575              	.L47:
  66:.\substitution.c ****     switch(c) {
 576              		.loc 1 66 0
ARM GAS  C:\Users\Admin\AppData\Local\Temp\ccFp0W1R.s 			page 16


 577 0180 1A24     		mov	r4, #26
 578              	.L68:
 579              	.LVL91:
 580 0182 013C     		sub	r4, r4, #1
 581              	.LVL92:
 239:.\substitution.c ****         }
 240:.\substitution.c ****         new_char();
 241:.\substitution.c ****         break;
 242:.\substitution.c ****        case 'Z':
 243:.\substitution.c ****        case 'z':
 244:.\substitution.c ****         for (i=0; i<26; i++) {
 245:.\substitution.c ****          blink_char();   
 582              		.loc 1 245 0 discriminator 2
 583 0184 FFF7FEFF 		bl	blink_char
 584              	.LVL93:
 244:.\substitution.c ****         for (i=0; i<26; i++) {
 585              		.loc 1 244 0 discriminator 2
 586 0188 002C     		cmp	r4, #0
 587 018a FAD1     		bne	.L68
 588 018c 70E7     		b	.L48
 589              	.L19:
 246:.\substitution.c ****         }
 247:.\substitution.c ****         new_char();
 248:.\substitution.c ****         break;
 249:.\substitution.c ****        case '\n':
 250:.\substitution.c ****         break;
 251:.\substitution.c ****    }
 252:.\substitution.c **** }
 590              		.loc 1 252 0
 591              		@ sp needed
 592 018e 10BD     		pop	{r4, pc}
 593              		.cfi_endproc
 594              	.LFE36:
 595              		.size	substitution_encode, .-substitution_encode
 596              		.section	.text.substitution_message,"ax",%progbits
 597              		.align	1
 598              		.global	substitution_message
 599              		.code	16
 600              		.thumb_func
 601              		.type	substitution_message, %function
 602              	substitution_message:
 603              	.LFB37:
 253:.\substitution.c **** 
 254:.\substitution.c **** void substitution_message(char* message) {
 604              		.loc 1 254 0
 605              		.cfi_startproc
 606              	.LVL94:
 607 0000 38B5     		push	{r3, r4, r5, lr}
 608              		.cfi_def_cfa_offset 16
 609              		.cfi_offset 3, -16
 610              		.cfi_offset 4, -12
 611              		.cfi_offset 5, -8
 612              		.cfi_offset 14, -4
 613              		.loc 1 254 0
 614 0002 051C     		mov	r5, r0
 255:.\substitution.c ****     unsigned int i;
 256:.\substitution.c ****     
ARM GAS  C:\Users\Admin\AppData\Local\Temp\ccFp0W1R.s 			page 17


 257:.\substitution.c ****     new_message_substitution();
 615              		.loc 1 257 0
 616 0004 FFF7FEFF 		bl	new_message_substitution
 617              	.LVL95:
 258:.\substitution.c ****     
 259:.\substitution.c ****     for (i=0; i < strlen(message); i++) {
 618              		.loc 1 259 0
 619 0008 0024     		mov	r4, #0
 620              	.LVL96:
 621              	.L138:
 622              		.loc 1 259 0 is_stmt 0 discriminator 1
 623 000a 281C     		mov	r0, r5
 624 000c FFF7FEFF 		bl	strlen
 625              	.LVL97:
 626 0010 8442     		cmp	r4, r0
 627 0012 09D2     		bcs	.L137
 260:.\substitution.c ****         /* Verify state */
 261:.\substitution.c ****         if(!verify_state(SUBSTITUTION)) {
 628              		.loc 1 261 0 is_stmt 1
 629 0014 0320     		mov	r0, #3
 630 0016 FFF7FEFF 		bl	verify_state
 631              	.LVL98:
 632 001a 0028     		cmp	r0, #0
 633 001c 04D0     		beq	.L137
 262:.\substitution.c ****             return;
 263:.\substitution.c ****         }
 264:.\substitution.c ****         substitution_encode(message[i]);
 634              		.loc 1 264 0
 635 001e 285D     		ldrb	r0, [r5, r4]
 636 0020 FFF7FEFF 		bl	substitution_encode
 637              	.LVL99:
 259:.\substitution.c ****     for (i=0; i < strlen(message); i++) {
 638              		.loc 1 259 0
 639 0024 0134     		add	r4, r4, #1
 640              	.LVL100:
 641 0026 F0E7     		b	.L138
 642              	.L137:
 265:.\substitution.c ****     }
 266:.\substitution.c **** }
 643              		.loc 1 266 0
 644              		@ sp needed
 645              	.LVL101:
 646              	.LVL102:
 647 0028 38BD     		pop	{r3, r4, r5, pc}
 648              		.cfi_endproc
 649              	.LFE37:
 650              		.size	substitution_message, .-substitution_message
 651              		.text
 652              	.Letext0:
 653              		.file 2 ".\\Generated_Source\\PSoC4/cytypes.h"
 654              		.file 3 "c:\\program files\\cypress\\psoc creator\\3.1\\psoc creator\\import\\gnu_cs\\arm\\4.8.4\\
 655              		.file 4 ".\\lightlib.h"
 656              		.file 5 ".\\Generated_Source\\PSoC4/CyLib.h"
 657              		.file 6 ".\\state.h"
 658              		.file 7 "c:\\program files\\cypress\\psoc creator\\3.1\\psoc creator\\import\\gnu_cs\\arm\\4.8.4\\