ARM GAS  C:\Users\Admin\AppData\Local\Temp\ccfS5D5q.s 			page 1


   1              		.cpu cortex-m0
   2              		.fpu softvfp
   3              		.eabi_attribute 20, 1
   4              		.eabi_attribute 21, 1
   5              		.eabi_attribute 23, 3
   6              		.eabi_attribute 24, 1
   7              		.eabi_attribute 25, 1
   8              		.eabi_attribute 26, 1
   9              		.eabi_attribute 30, 4
  10              		.eabi_attribute 34, 0
  11              		.eabi_attribute 18, 4
  12              		.code	16
  13              		.file	"togglelib.c"
  14              		.text
  15              	.Ltext0:
  16              		.cfi_sections	.debug_frame
  17              		.section	.text.SWB_Handler,"ax",%progbits
  18              		.align	1
  19              		.global	SWB_Handler
  20              		.code	16
  21              		.thumb_func
  22              		.type	SWB_Handler, %function
  23              	SWB_Handler:
  24              	.LFB35:
  25              		.file 1 ".\\togglelib.c"
   1:.\togglelib.c **** /* ========================================
   2:.\togglelib.c ****  *
   3:.\togglelib.c ****  * Copyright Nullify, 2016
   4:.\togglelib.c ****  * All Rights Reserved
   5:.\togglelib.c ****  * UNPUBLISHED, LICENSED SOFTWARE.
   6:.\togglelib.c ****  *
   7:.\togglelib.c ****  * CONFIDENTIAL AND PROPRIETARY INFORMATION
   8:.\togglelib.c ****  * WHICH IS THE PROPERTY OF NULLIY.
   9:.\togglelib.c ****  *
  10:.\togglelib.c ****  * ========================================
  11:.\togglelib.c **** */
  12:.\togglelib.c **** #include <project.h>
  13:.\togglelib.c **** #include <stdio.h>
  14:.\togglelib.c **** #include <time.h>
  15:.\togglelib.c **** #include <stdlib.h>
  16:.\togglelib.c **** #include "lightlib.h"
  17:.\togglelib.c **** #include "togglelib.h"
  18:.\togglelib.c **** #include "state.h"
  19:.\togglelib.c **** 
  20:.\togglelib.c **** /* Global Structures used to signal state change for badge  */
  21:.\togglelib.c **** volatile struct Magic_Toggle_Sequence Morse_Sequence;
  22:.\togglelib.c **** volatile struct Magic_Toggle_Sequence Binary_Sequence;
  23:.\togglelib.c **** volatile struct Magic_Toggle_Sequence Substitution_Sequence;
  24:.\togglelib.c **** volatile struct Magic_Toggle_Sequence Final_Stage_Sequence;
  25:.\togglelib.c **** volatile struct Magic_Toggle_Sequence Organizer_Sequence;
  26:.\togglelib.c **** 
  27:.\togglelib.c **** /* Signal handler for left toggle press */
  28:.\togglelib.c **** CY_ISR( SWL_Handler ) {
  29:.\togglelib.c ****     uint8* sequance; 
  30:.\togglelib.c ****     uint8 index;
  31:.\togglelib.c ****     
  32:.\togglelib.c ****     /* Determine what state the badge is currently in */
ARM GAS  C:\Users\Admin\AppData\Local\Temp\ccfS5D5q.s 			page 2


  33:.\togglelib.c ****     switch(badge_state) {
  34:.\togglelib.c ****         case MORSE:
  35:.\togglelib.c ****             sequance = get_magic_toggle_sequance(BINARY);
  36:.\togglelib.c ****             index = get_magic_toggle_index(BINARY);
  37:.\togglelib.c ****             
  38:.\togglelib.c ****             /* Check if the toggle is the next value in the sequance */
  39:.\togglelib.c ****             if (sequance[index] == LEFT_TOGGLE) {
  40:.\togglelib.c ****                 index += 1;
  41:.\togglelib.c ****             }
  42:.\togglelib.c ****             else {
  43:.\togglelib.c ****                 index = 0;
  44:.\togglelib.c ****             }
  45:.\togglelib.c ****                    
  46:.\togglelib.c ****            /* If the sequance is found change the state of the badge */
  47:.\togglelib.c ****            if (index == strlen(sequance)){
  48:.\togglelib.c ****             badge_state = BINARY;
  49:.\togglelib.c ****             index = 0;
  50:.\togglelib.c ****            }
  51:.\togglelib.c ****         
  52:.\togglelib.c ****            /* Update the value in the toggle struct */
  53:.\togglelib.c ****             set_magic_toggle_index(BINARY, index);
  54:.\togglelib.c ****         break;
  55:.\togglelib.c ****         case BINARY:
  56:.\togglelib.c ****             sequance = get_magic_toggle_sequance(SUBSTITUTION);
  57:.\togglelib.c ****             index = get_magic_toggle_index(SUBSTITUTION);
  58:.\togglelib.c ****             
  59:.\togglelib.c ****             /* Check if the toggle is the next value in the sequance */
  60:.\togglelib.c ****             if (sequance[index] == LEFT_TOGGLE) {
  61:.\togglelib.c ****                 index += 1;
  62:.\togglelib.c ****             }
  63:.\togglelib.c ****             else {
  64:.\togglelib.c ****                 index = 0;
  65:.\togglelib.c ****             }
  66:.\togglelib.c ****                    
  67:.\togglelib.c ****            /* If the sequance is found change the state of the badge */
  68:.\togglelib.c ****            if (index == strlen(sequance)){
  69:.\togglelib.c ****             badge_state = SUBSTITUTION;
  70:.\togglelib.c ****             index = 0;
  71:.\togglelib.c ****            }
  72:.\togglelib.c ****         
  73:.\togglelib.c ****            /* Update the value in the toggle struct */
  74:.\togglelib.c ****             set_magic_toggle_index(SUBSTITUTION, index);
  75:.\togglelib.c ****         break;
  76:.\togglelib.c ****         case SUBSTITUTION:
  77:.\togglelib.c ****             sequance = get_magic_toggle_sequance(FINAL);
  78:.\togglelib.c ****             index = get_magic_toggle_index(FINAL);
  79:.\togglelib.c ****             
  80:.\togglelib.c ****             /* Check if the toggle is the next value in the sequance */
  81:.\togglelib.c ****             if (sequance[index] == LEFT_TOGGLE) {
  82:.\togglelib.c ****                 index += 1;
  83:.\togglelib.c ****             }
  84:.\togglelib.c ****             else {
  85:.\togglelib.c ****                 index = 0;
  86:.\togglelib.c ****             }
  87:.\togglelib.c ****                    
  88:.\togglelib.c ****            /* If the sequance is found change the state of the badge */
  89:.\togglelib.c ****            if (index == strlen(sequance)){
ARM GAS  C:\Users\Admin\AppData\Local\Temp\ccfS5D5q.s 			page 3


  90:.\togglelib.c ****             badge_state = FINAL;
  91:.\togglelib.c ****             index = 0;
  92:.\togglelib.c ****            }
  93:.\togglelib.c ****         
  94:.\togglelib.c ****            /* Update the value in the toggle struct */
  95:.\togglelib.c ****             set_magic_toggle_index(FINAL, index);
  96:.\togglelib.c ****         break; 
  97:.\togglelib.c ****         case FINAL:
  98:.\togglelib.c ****             sequance = get_magic_toggle_sequance(ORGANIZER);
  99:.\togglelib.c ****             index = get_magic_toggle_index(ORGANIZER);
 100:.\togglelib.c ****             
 101:.\togglelib.c ****             /* Check if the toggle is the next value in the sequance */
 102:.\togglelib.c ****             if (sequance[index] == LEFT_TOGGLE) {
 103:.\togglelib.c ****                 index += 1;
 104:.\togglelib.c ****             }
 105:.\togglelib.c ****             else {
 106:.\togglelib.c ****                 index = 0;
 107:.\togglelib.c ****             }
 108:.\togglelib.c ****                    
 109:.\togglelib.c ****            /* If the sequance is found change the state of the badge */
 110:.\togglelib.c ****            if (index == strlen(sequance)){
 111:.\togglelib.c ****             badge_state = ORGANIZER;
 112:.\togglelib.c ****             index = 0;
 113:.\togglelib.c ****             PWM_Organizer_Start();
 114:.\togglelib.c ****            }
 115:.\togglelib.c ****         
 116:.\togglelib.c ****            /* Update the value in the toggle struct */
 117:.\togglelib.c ****             set_magic_toggle_index(ORGANIZER, index);
 118:.\togglelib.c ****         break;
 119:.\togglelib.c ****         case ORGANIZER:
 120:.\togglelib.c ****             sequance = get_magic_toggle_sequance(MORSE);
 121:.\togglelib.c ****             index = get_magic_toggle_index(MORSE);
 122:.\togglelib.c ****             
 123:.\togglelib.c ****             /* Check if the toggle is the next value in the sequance */
 124:.\togglelib.c ****             if (sequance[index] == LEFT_TOGGLE) {
 125:.\togglelib.c ****                 index += 1;
 126:.\togglelib.c ****             }
 127:.\togglelib.c ****             else {
 128:.\togglelib.c ****                 index = 0;
 129:.\togglelib.c ****             }
 130:.\togglelib.c ****                    
 131:.\togglelib.c ****            /* If the sequance is found change the state of the badge */
 132:.\togglelib.c ****            if (index == strlen(sequance)){
 133:.\togglelib.c ****             badge_state = MORSE;
 134:.\togglelib.c ****             index = 0;
 135:.\togglelib.c ****             PWM_Organizer_Stop();
 136:.\togglelib.c ****            }
 137:.\togglelib.c ****         
 138:.\togglelib.c ****            /* Update the value in the toggle struct */
 139:.\togglelib.c ****             set_magic_toggle_index(MORSE, index);
 140:.\togglelib.c ****         break;    
 141:.\togglelib.c ****     }
 142:.\togglelib.c ****     /* Delay for a long press and clear interrupt */
 143:.\togglelib.c ****     CyDelay(TOGGLE_DELAY);
 144:.\togglelib.c ****     SWL_ClearInterrupt();
 145:.\togglelib.c **** }
 146:.\togglelib.c **** 
ARM GAS  C:\Users\Admin\AppData\Local\Temp\ccfS5D5q.s 			page 4


 147:.\togglelib.c **** /* Signal handler for right toggle press */
 148:.\togglelib.c **** CY_ISR( SWR_Handler ) {
 149:.\togglelib.c ****     uint8* sequance; 
 150:.\togglelib.c ****     uint8 index;
 151:.\togglelib.c ****     
 152:.\togglelib.c ****     /* Determine what state the badge is currently in */
 153:.\togglelib.c ****     switch(badge_state) {
 154:.\togglelib.c ****         case MORSE:
 155:.\togglelib.c ****             sequance = get_magic_toggle_sequance(BINARY);
 156:.\togglelib.c ****             index = get_magic_toggle_index(BINARY);
 157:.\togglelib.c ****             
 158:.\togglelib.c ****             /* Check if the toggle is the next value in the sequance */
 159:.\togglelib.c ****             if (sequance[index] == RIGHT_TOGGLE) {
 160:.\togglelib.c ****                 index += 1;
 161:.\togglelib.c ****             }
 162:.\togglelib.c ****             else {
 163:.\togglelib.c ****                 index = 0;
 164:.\togglelib.c ****             }
 165:.\togglelib.c ****                    
 166:.\togglelib.c ****            /* If the sequance is found change the state of the badge */
 167:.\togglelib.c ****            if (index == strlen(sequance)){
 168:.\togglelib.c ****             badge_state = BINARY;
 169:.\togglelib.c ****             index = 0;
 170:.\togglelib.c ****            }
 171:.\togglelib.c ****         
 172:.\togglelib.c ****            /* Update the value in the toggle struct */
 173:.\togglelib.c ****             set_magic_toggle_index(BINARY, index);
 174:.\togglelib.c ****         break;
 175:.\togglelib.c ****         case BINARY:
 176:.\togglelib.c ****             sequance = get_magic_toggle_sequance(SUBSTITUTION);
 177:.\togglelib.c ****             index = get_magic_toggle_index(SUBSTITUTION);
 178:.\togglelib.c ****             
 179:.\togglelib.c ****             /* Check if the toggle is the next value in the sequance */
 180:.\togglelib.c ****             if (sequance[index] == RIGHT_TOGGLE) {
 181:.\togglelib.c ****                 index += 1;
 182:.\togglelib.c ****             }
 183:.\togglelib.c ****             else {
 184:.\togglelib.c ****                 index = 0;
 185:.\togglelib.c ****             }
 186:.\togglelib.c ****                    
 187:.\togglelib.c ****            /* If the sequance is found change the state of the badge */
 188:.\togglelib.c ****            if (index == strlen(sequance)){
 189:.\togglelib.c ****             badge_state = SUBSTITUTION;
 190:.\togglelib.c ****             index = 0;
 191:.\togglelib.c ****            }
 192:.\togglelib.c ****         
 193:.\togglelib.c ****            /* Update the value in the toggle struct */
 194:.\togglelib.c ****             set_magic_toggle_index(SUBSTITUTION, index);
 195:.\togglelib.c ****         break;
 196:.\togglelib.c ****         case SUBSTITUTION:
 197:.\togglelib.c ****             sequance = get_magic_toggle_sequance(FINAL);
 198:.\togglelib.c ****             index = get_magic_toggle_index(FINAL);
 199:.\togglelib.c ****             
 200:.\togglelib.c ****             /* Check if the toggle is the next value in the sequance */
 201:.\togglelib.c ****             if (sequance[index] == RIGHT_TOGGLE) {
 202:.\togglelib.c ****                 index += 1;
 203:.\togglelib.c ****             }
ARM GAS  C:\Users\Admin\AppData\Local\Temp\ccfS5D5q.s 			page 5


 204:.\togglelib.c ****             else {
 205:.\togglelib.c ****                 index = 0;
 206:.\togglelib.c ****             }
 207:.\togglelib.c ****                    
 208:.\togglelib.c ****            /* If the sequance is found change the state of the badge */
 209:.\togglelib.c ****            if (index == strlen(sequance)){
 210:.\togglelib.c ****             badge_state = FINAL;
 211:.\togglelib.c ****             index = 0;
 212:.\togglelib.c ****            }
 213:.\togglelib.c ****         
 214:.\togglelib.c ****            /* Update the value in the toggle struct */
 215:.\togglelib.c ****             set_magic_toggle_index(FINAL, index);
 216:.\togglelib.c ****         break;
 217:.\togglelib.c ****         case FINAL:
 218:.\togglelib.c ****             sequance = get_magic_toggle_sequance(ORGANIZER);
 219:.\togglelib.c ****             index = get_magic_toggle_index(ORGANIZER);
 220:.\togglelib.c ****             
 221:.\togglelib.c ****             /* Check if the toggle is the next value in the sequance */
 222:.\togglelib.c ****             if (sequance[index] == RIGHT_TOGGLE) {
 223:.\togglelib.c ****                 index += 1;
 224:.\togglelib.c ****             }
 225:.\togglelib.c ****             else {
 226:.\togglelib.c ****                 index = 0;
 227:.\togglelib.c ****             }
 228:.\togglelib.c ****                    
 229:.\togglelib.c ****            /* If the sequance is found change the state of the badge */
 230:.\togglelib.c ****            if (index == strlen(sequance)){
 231:.\togglelib.c ****             badge_state = ORGANIZER;
 232:.\togglelib.c ****             index = 0;
 233:.\togglelib.c ****             PWM_Organizer_Start();
 234:.\togglelib.c ****            }
 235:.\togglelib.c ****         
 236:.\togglelib.c ****            /* Update the value in the toggle struct */
 237:.\togglelib.c ****             set_magic_toggle_index(ORGANIZER, index);
 238:.\togglelib.c ****         break;
 239:.\togglelib.c ****         case ORGANIZER:
 240:.\togglelib.c ****             sequance = get_magic_toggle_sequance(MORSE);
 241:.\togglelib.c ****             index = get_magic_toggle_index(MORSE);
 242:.\togglelib.c ****             
 243:.\togglelib.c ****             /* Check if the toggle is the next value in the sequance */
 244:.\togglelib.c ****             if (sequance[index] == RIGHT_TOGGLE) {
 245:.\togglelib.c ****                 index += 1;
 246:.\togglelib.c ****             }
 247:.\togglelib.c ****             else {
 248:.\togglelib.c ****                 index = 0;
 249:.\togglelib.c ****             }
 250:.\togglelib.c ****                    
 251:.\togglelib.c ****            /* If the sequance is found change the state of the badge */
 252:.\togglelib.c ****            if (index == strlen(sequance)){
 253:.\togglelib.c ****             badge_state = MORSE;
 254:.\togglelib.c ****             index = 0;
 255:.\togglelib.c ****             PWM_Organizer_Stop();
 256:.\togglelib.c ****            }
 257:.\togglelib.c ****         
 258:.\togglelib.c ****            /* Update the value in the toggle struct */
 259:.\togglelib.c ****             set_magic_toggle_index(MORSE, index);
 260:.\togglelib.c ****         break;
ARM GAS  C:\Users\Admin\AppData\Local\Temp\ccfS5D5q.s 			page 6


 261:.\togglelib.c ****         
 262:.\togglelib.c ****     }
 263:.\togglelib.c ****     
 264:.\togglelib.c ****     /* Delay for a long press and clear interrupt */
 265:.\togglelib.c ****     CyDelay(TOGGLE_DELAY);
 266:.\togglelib.c ****     SWR_ClearInterrupt();
 267:.\togglelib.c **** }
 268:.\togglelib.c **** 
 269:.\togglelib.c **** /* Signal handler for on board toggle press */
 270:.\togglelib.c **** CY_ISR( SWB_Handler ) {
  26              		.loc 1 270 0
  27              		.cfi_startproc
  28 0000 08B5     		push	{r3, lr}
  29              		.cfi_def_cfa_offset 8
  30              		.cfi_offset 3, -8
  31              		.cfi_offset 14, -4
 271:.\togglelib.c ****     /* Flip IR Status */
 272:.\togglelib.c ****     if (get_status(IR_LED) == OFF) {
  32              		.loc 1 272 0
  33 0002 0420     		mov	r0, #4
  34 0004 FFF7FEFF 		bl	get_status
  35              	.LVL0:
  36 0008 0028     		cmp	r0, #0
  37 000a 03D1     		bne	.L2
 273:.\togglelib.c ****         turn_on(IR_LED);
  38              		.loc 1 273 0
  39 000c 0420     		mov	r0, #4
  40 000e FFF7FEFF 		bl	turn_on
  41              	.LVL1:
  42 0012 02E0     		b	.L3
  43              	.L2:
 274:.\togglelib.c ****     } 
 275:.\togglelib.c ****     else {
 276:.\togglelib.c ****          turn_off(IR_LED);
  44              		.loc 1 276 0
  45 0014 0420     		mov	r0, #4
  46 0016 FFF7FEFF 		bl	turn_off
  47              	.LVL2:
  48              	.L3:
 277:.\togglelib.c ****     }
 278:.\togglelib.c ****     
 279:.\togglelib.c ****     if (get_status(BOARD_LED) == OFF) {
  49              		.loc 1 279 0
  50 001a 0520     		mov	r0, #5
  51 001c FFF7FEFF 		bl	get_status
  52              	.LVL3:
  53 0020 0028     		cmp	r0, #0
  54 0022 03D1     		bne	.L4
 280:.\togglelib.c ****         turn_on(BOARD_LED);
  55              		.loc 1 280 0
  56 0024 0520     		mov	r0, #5
  57 0026 FFF7FEFF 		bl	turn_on
  58              	.LVL4:
  59 002a 02E0     		b	.L5
  60              	.L4:
 281:.\togglelib.c ****     } 
 282:.\togglelib.c ****     else {
ARM GAS  C:\Users\Admin\AppData\Local\Temp\ccfS5D5q.s 			page 7


 283:.\togglelib.c ****          turn_off(BOARD_LED);
  61              		.loc 1 283 0
  62 002c 0520     		mov	r0, #5
  63 002e FFF7FEFF 		bl	turn_off
  64              	.LVL5:
  65              	.L5:
 284:.\togglelib.c ****     }
 285:.\togglelib.c ****     
 286:.\togglelib.c **** 
 287:.\togglelib.c ****     /* Clear interrupt */
 288:.\togglelib.c ****     SWB_ClearInterrupt();
  66              		.loc 1 288 0
  67 0032 FFF7FEFF 		bl	SWB_ClearInterrupt
  68              	.LVL6:
 289:.\togglelib.c **** }
  69              		.loc 1 289 0
  70              		@ sp needed
  71 0036 08BD     		pop	{r3, pc}
  72              		.cfi_endproc
  73              	.LFE35:
  74              		.size	SWB_Handler, .-SWB_Handler
  75              		.global	__aeabi_idivmod
  76              		.section	.text.ORG_Handler,"ax",%progbits
  77              		.align	1
  78              		.global	ORG_Handler
  79              		.code	16
  80              		.thumb_func
  81              		.type	ORG_Handler, %function
  82              	ORG_Handler:
  83              	.LFB36:
 290:.\togglelib.c **** 
 291:.\togglelib.c **** /* Signal handler for organizer lights */
 292:.\togglelib.c **** CY_ISR( ORG_Handler ) {
  84              		.loc 1 292 0
  85              		.cfi_startproc
  86 0000 F8B5     		push	{r3, r4, r5, r6, r7, lr}
  87              		.cfi_def_cfa_offset 24
  88              		.cfi_offset 3, -24
  89              		.cfi_offset 4, -20
  90              		.cfi_offset 5, -16
  91              		.cfi_offset 6, -12
  92              		.cfi_offset 7, -8
  93              		.cfi_offset 14, -4
 293:.\togglelib.c ****     /* */
 294:.\togglelib.c ****     uint8 current_color_left = get_color(LEFT_LED);
  94              		.loc 1 294 0
  95 0002 0120     		mov	r0, #1
  96 0004 FFF7FEFF 		bl	get_color
  97              	.LVL7:
  98 0008 071C     		mov	r7, r0
  99              	.LVL8:
 295:.\togglelib.c ****     uint8 current_color_right = get_color(RIGHT_LED);
 100              		.loc 1 295 0
 101 000a 0220     		mov	r0, #2
 102              	.LVL9:
 103 000c FFF7FEFF 		bl	get_color
 104              	.LVL10:
ARM GAS  C:\Users\Admin\AppData\Local\Temp\ccfS5D5q.s 			page 8


 105 0010 061C     		mov	r6, r0
 106              	.LVL11:
 296:.\togglelib.c ****     uint32 rand_num_left = (rand() % 7) + 1;
 107              		.loc 1 296 0
 108 0012 FFF7FEFF 		bl	rand
 109              	.LVL12:
 110 0016 0721     		mov	r1, #7
 111 0018 FFF7FEFF 		bl	__aeabi_idivmod
 112              	.LVL13:
 113 001c 4D1C     		add	r5, r1, #1
 114              	.LVL14:
 297:.\togglelib.c ****     uint32 rand_num_right = (rand() % 7) + 1;
 115              		.loc 1 297 0
 116 001e FFF7FEFF 		bl	rand
 117              	.LVL15:
 118 0022 0721     		mov	r1, #7
 119 0024 FFF7FEFF 		bl	__aeabi_idivmod
 120              	.LVL16:
 121 0028 4C1C     		add	r4, r1, #1
 122              	.LVL17:
 123              	.L8:
 298:.\togglelib.c ****     
 299:.\togglelib.c ****     while (current_color_left == rand_num_left){
 124              		.loc 1 299 0 discriminator 1
 125 002a AF42     		cmp	r7, r5
 126 002c 06D1     		bne	.L10
 300:.\togglelib.c ****         rand_num_left = (rand() % 7) + 1;
 127              		.loc 1 300 0
 128 002e FFF7FEFF 		bl	rand
 129              	.LVL18:
 130 0032 0721     		mov	r1, #7
 131 0034 FFF7FEFF 		bl	__aeabi_idivmod
 132              	.LVL19:
 133 0038 4D1C     		add	r5, r1, #1
 134              	.LVL20:
 135 003a F6E7     		b	.L8
 136              	.L10:
 301:.\togglelib.c ****     }
 302:.\togglelib.c ****     
 303:.\togglelib.c ****    while (current_color_right == rand_num_right){
 137              		.loc 1 303 0 discriminator 1
 138 003c A642     		cmp	r6, r4
 139 003e 06D1     		bne	.L12
 304:.\togglelib.c ****         rand_num_right = (rand() % 7) + 1;
 140              		.loc 1 304 0
 141 0040 FFF7FEFF 		bl	rand
 142              	.LVL21:
 143 0044 0721     		mov	r1, #7
 144 0046 FFF7FEFF 		bl	__aeabi_idivmod
 145              	.LVL22:
 146 004a 4C1C     		add	r4, r1, #1
 147              	.LVL23:
 148 004c F6E7     		b	.L10
 149              	.L12:
 305:.\togglelib.c ****     }
 306:.\togglelib.c ****     
 307:.\togglelib.c ****     set_color(LEFT_LED, rand_num_left);
ARM GAS  C:\Users\Admin\AppData\Local\Temp\ccfS5D5q.s 			page 9


 150              		.loc 1 307 0
 151 004e E9B2     		uxtb	r1, r5
 152 0050 0120     		mov	r0, #1
 153 0052 FFF7FEFF 		bl	set_color
 154              	.LVL24:
 308:.\togglelib.c ****     set_color(RIGHT_LED, rand_num_right);
 155              		.loc 1 308 0
 156 0056 E1B2     		uxtb	r1, r4
 157 0058 0220     		mov	r0, #2
 158 005a FFF7FEFF 		bl	set_color
 159              	.LVL25:
 309:.\togglelib.c ****     turn_off(LEFT_RIGHT_LED);
 160              		.loc 1 309 0
 161 005e 0320     		mov	r0, #3
 162 0060 FFF7FEFF 		bl	turn_off
 163              	.LVL26:
 310:.\togglelib.c ****     turn_on(LEFT_RIGHT_LED);
 164              		.loc 1 310 0
 165 0064 0320     		mov	r0, #3
 166 0066 FFF7FEFF 		bl	turn_on
 167              	.LVL27:
 311:.\togglelib.c ****     
 312:.\togglelib.c ****     ORG_Int_ClearPending();
 313:.\togglelib.c ****     PWM_Organizer_ReadStatusRegister();
 314:.\togglelib.c **** }
 168              		.loc 1 314 0
 169              		@ sp needed
 312:.\togglelib.c ****     ORG_Int_ClearPending();
 170              		.loc 1 312 0
 171 006a FFF7FEFF 		bl	ORG_Int_ClearPending
 172              	.LVL28:
 313:.\togglelib.c ****     PWM_Organizer_ReadStatusRegister();
 173              		.loc 1 313 0
 174 006e FFF7FEFF 		bl	PWM_Organizer_ReadStatusRegister
 175              	.LVL29:
 176              	.LVL30:
 177              	.LVL31:
 178              	.LVL32:
 179              	.LVL33:
 180              		.loc 1 314 0
 181 0072 F8BD     		pop	{r3, r4, r5, r6, r7, pc}
 182              		.cfi_endproc
 183              	.LFE36:
 184              		.size	ORG_Handler, .-ORG_Handler
 185              		.section	.text.SWL_Handler,"ax",%progbits
 186              		.align	1
 187              		.global	SWL_Handler
 188              		.code	16
 189              		.thumb_func
 190              		.type	SWL_Handler, %function
 191              	SWL_Handler:
 192              	.LFB33:
  28:.\togglelib.c **** CY_ISR( SWL_Handler ) {
 193              		.loc 1 28 0
 194              		.cfi_startproc
 195 0000 70B5     		push	{r4, r5, r6, lr}
 196              		.cfi_def_cfa_offset 16
ARM GAS  C:\Users\Admin\AppData\Local\Temp\ccfS5D5q.s 			page 10


 197              		.cfi_offset 4, -16
 198              		.cfi_offset 5, -12
 199              		.cfi_offset 6, -8
 200              		.cfi_offset 14, -4
  33:.\togglelib.c ****     switch(badge_state) {
 201              		.loc 1 33 0
 202 0002 364C     		ldr	r4, .L38
 203 0004 2078     		ldrb	r0, [r4]
 204 0006 0138     		sub	r0, r0, #1
 205 0008 0428     		cmp	r0, #4
 206 000a 61D8     		bhi	.L14
 207 000c FFF7FEFF 		bl	__gnu_thumb1_case_uqi
 208              	.L16:
 209 0010 03       		.byte	(.L15-.L16)/2
 210 0011 14       		.byte	(.L17-.L16)/2
 211 0012 25       		.byte	(.L18-.L16)/2
 212 0013 37       		.byte	(.L19-.L16)/2
 213 0014 4B       		.byte	(.L20-.L16)/2
 214 0015 00       		.p2align 1
 215              	.L15:
 216              	.LVL34:
 217              	.LBB32:
 218              	.LBB33:
 315:.\togglelib.c **** 
 316:.\togglelib.c **** /* Sets the magic toogle sequence of the global toggle state change structure */
 317:.\togglelib.c **** void set_magic_toggle_sequance(uint8 state_flag, uint8* sequance) {
 318:.\togglelib.c ****     switch(state_flag) {
 319:.\togglelib.c ****         case MORSE:
 320:.\togglelib.c ****             memmove(Morse_Sequence.sequance, sequance, MAX_SEQUENCE_SIZE);
 321:.\togglelib.c ****         break;
 322:.\togglelib.c ****         case BINARY:
 323:.\togglelib.c ****             memmove(Binary_Sequence.sequance, sequance, MAX_SEQUENCE_SIZE);
 324:.\togglelib.c ****         break;
 325:.\togglelib.c ****         case SUBSTITUTION:
 326:.\togglelib.c ****             memmove(Substitution_Sequence.sequance, sequance, MAX_SEQUENCE_SIZE);
 327:.\togglelib.c ****         break;
 328:.\togglelib.c ****         case FINAL:
 329:.\togglelib.c ****             memmove(Final_Stage_Sequence.sequance, sequance, MAX_SEQUENCE_SIZE);
 330:.\togglelib.c ****         break;
 331:.\togglelib.c ****         case ORGANIZER:
 332:.\togglelib.c ****             memmove(Organizer_Sequence.sequance, sequance, MAX_SEQUENCE_SIZE);
 333:.\togglelib.c ****         break;
 334:.\togglelib.c ****     }   
 335:.\togglelib.c ****     
 336:.\togglelib.c **** }
 337:.\togglelib.c **** 
 338:.\togglelib.c **** /* Gets the magic toogle sequence of the global toggle state change structure */
 339:.\togglelib.c **** uint8* get_magic_toggle_sequance(uint8 state_flag) {
 340:.\togglelib.c ****     switch(state_flag) {
 341:.\togglelib.c ****         case MORSE:
 342:.\togglelib.c ****             return Morse_Sequence.sequance;
 343:.\togglelib.c ****         break;
 344:.\togglelib.c ****         case BINARY:
 345:.\togglelib.c ****              return Binary_Sequence.sequance;
 346:.\togglelib.c ****         break;
 347:.\togglelib.c ****         case SUBSTITUTION:
 348:.\togglelib.c ****              return Substitution_Sequence.sequance;
ARM GAS  C:\Users\Admin\AppData\Local\Temp\ccfS5D5q.s 			page 11


 349:.\togglelib.c ****         break;
 350:.\togglelib.c ****         case FINAL:
 351:.\togglelib.c ****              return Final_Stage_Sequence.sequance;
 352:.\togglelib.c ****         break;
 353:.\togglelib.c ****         case ORGANIZER:
 354:.\togglelib.c ****              return Organizer_Sequence.sequance;
 355:.\togglelib.c ****         break;
 356:.\togglelib.c ****     }
 357:.\togglelib.c ****     return NULL;
 358:.\togglelib.c **** }
 359:.\togglelib.c **** 
 360:.\togglelib.c **** /* Sets the index of the magic toogle sequence of the global toggle state change structure */
 361:.\togglelib.c **** void set_magic_toggle_index(uint8 state_flag, uint8 value) {
 362:.\togglelib.c ****     switch(state_flag) {
 363:.\togglelib.c ****         case MORSE:
 364:.\togglelib.c ****             Morse_Sequence.index = value;
 365:.\togglelib.c ****         break;
 366:.\togglelib.c ****         case BINARY:
 367:.\togglelib.c ****             Binary_Sequence.index = value;
 368:.\togglelib.c ****         break;
 369:.\togglelib.c ****         case SUBSTITUTION:
 370:.\togglelib.c ****             Substitution_Sequence.index = value;
 371:.\togglelib.c ****         break;
 372:.\togglelib.c ****         case FINAL:
 373:.\togglelib.c ****             Final_Stage_Sequence.index = value;
 374:.\togglelib.c ****         break;
 375:.\togglelib.c ****         case ORGANIZER:
 376:.\togglelib.c ****             Organizer_Sequence.index = value;
 377:.\togglelib.c ****         break;
 378:.\togglelib.c ****     }
 379:.\togglelib.c **** }
 380:.\togglelib.c **** 
 381:.\togglelib.c **** /* Gets the index of the magic toogle sequence of the global toggle state change structure */
 382:.\togglelib.c **** uint8 get_magic_toggle_index(uint8 state_flag) {
 383:.\togglelib.c ****         switch(state_flag) {
 384:.\togglelib.c ****         case MORSE:
 385:.\togglelib.c ****             return Morse_Sequence.index;
 386:.\togglelib.c ****         break;
 387:.\togglelib.c ****         case BINARY:
 388:.\togglelib.c ****             return Binary_Sequence.index;
 219              		.loc 1 388 0
 220 0016 3248     		ldr	r0, .L38+4
 221              	.LBE33:
 222              	.LBE32:
  43:.\togglelib.c ****                 index = 0;
 223              		.loc 1 43 0
 224 0018 0025     		mov	r5, #0
 225              	.LBB35:
 226              	.LBB34:
 227              		.loc 1 388 0
 228 001a 037D     		ldrb	r3, [r0, #20]
 229 001c 061C     		mov	r6, r0
 230 001e DBB2     		uxtb	r3, r3
 231              	.LBE34:
 232              	.LBE35:
  39:.\togglelib.c ****             if (sequance[index] == LEFT_TOGGLE) {
 233              		.loc 1 39 0
ARM GAS  C:\Users\Admin\AppData\Local\Temp\ccfS5D5q.s 			page 12


 234 0020 C25C     		ldrb	r2, [r0, r3]
 235 0022 012A     		cmp	r2, #1
 236 0024 01D1     		bne	.L21
  40:.\togglelib.c ****                 index += 1;
 237              		.loc 1 40 0
 238 0026 5D1C     		add	r5, r3, #1
 239 0028 EDB2     		uxtb	r5, r5
 240              	.LVL35:
 241              	.L21:
  47:.\togglelib.c ****            if (index == strlen(sequance)){
 242              		.loc 1 47 0
 243 002a 301C     		mov	r0, r6
 244 002c FFF7FEFF 		bl	strlen
 245              	.LVL36:
  48:.\togglelib.c ****             badge_state = BINARY;
 246              		.loc 1 48 0
 247 0030 0223     		mov	r3, #2
  47:.\togglelib.c ****            if (index == strlen(sequance)){
 248              		.loc 1 47 0
 249 0032 8542     		cmp	r5, r0
 250 0034 4BD1     		bne	.L30
 251 0036 20E0     		b	.L37
 252              	.LVL37:
 253              	.L17:
 254              	.LBB36:
 255              	.LBB37:
 389:.\togglelib.c ****         break;
 390:.\togglelib.c ****         case SUBSTITUTION:
 391:.\togglelib.c ****             return Substitution_Sequence.index;
 256              		.loc 1 391 0
 257 0038 2A48     		ldr	r0, .L38+8
 258              	.LBE37:
 259              	.LBE36:
  64:.\togglelib.c ****                 index = 0;
 260              		.loc 1 64 0
 261 003a 0025     		mov	r5, #0
 262              	.LBB39:
 263              	.LBB38:
 264              		.loc 1 391 0
 265 003c 037D     		ldrb	r3, [r0, #20]
 266 003e 061C     		mov	r6, r0
 267 0040 DBB2     		uxtb	r3, r3
 268              	.LBE38:
 269              	.LBE39:
  60:.\togglelib.c ****             if (sequance[index] == LEFT_TOGGLE) {
 270              		.loc 1 60 0
 271 0042 C25C     		ldrb	r2, [r0, r3]
 272 0044 012A     		cmp	r2, #1
 273 0046 01D1     		bne	.L23
  61:.\togglelib.c ****                 index += 1;
 274              		.loc 1 61 0
 275 0048 5D1C     		add	r5, r3, #1
 276 004a EDB2     		uxtb	r5, r5
 277              	.LVL38:
 278              	.L23:
  68:.\togglelib.c ****            if (index == strlen(sequance)){
 279              		.loc 1 68 0
ARM GAS  C:\Users\Admin\AppData\Local\Temp\ccfS5D5q.s 			page 13


 280 004c 301C     		mov	r0, r6
 281 004e FFF7FEFF 		bl	strlen
 282              	.LVL39:
  69:.\togglelib.c ****             badge_state = SUBSTITUTION;
 283              		.loc 1 69 0
 284 0052 0323     		mov	r3, #3
  68:.\togglelib.c ****            if (index == strlen(sequance)){
 285              		.loc 1 68 0
 286 0054 8542     		cmp	r5, r0
 287 0056 3AD1     		bne	.L30
 288 0058 0FE0     		b	.L37
 289              	.LVL40:
 290              	.L18:
 291              	.LBB40:
 292              	.LBB41:
 392:.\togglelib.c ****         break;
 393:.\togglelib.c ****         case FINAL:
 394:.\togglelib.c ****             return Final_Stage_Sequence.index;
 293              		.loc 1 394 0
 294 005a 2348     		ldr	r0, .L38+12
 295              	.LBE41:
 296              	.LBE40:
  85:.\togglelib.c ****                 index = 0;
 297              		.loc 1 85 0
 298 005c 0025     		mov	r5, #0
 299              	.LBB43:
 300              	.LBB42:
 301              		.loc 1 394 0
 302 005e 037D     		ldrb	r3, [r0, #20]
 303 0060 061C     		mov	r6, r0
 304 0062 DBB2     		uxtb	r3, r3
 305              	.LBE42:
 306              	.LBE43:
  81:.\togglelib.c ****             if (sequance[index] == LEFT_TOGGLE) {
 307              		.loc 1 81 0
 308 0064 C25C     		ldrb	r2, [r0, r3]
 309 0066 012A     		cmp	r2, #1
 310 0068 01D1     		bne	.L25
  82:.\togglelib.c ****                 index += 1;
 311              		.loc 1 82 0
 312 006a 5D1C     		add	r5, r3, #1
 313 006c EDB2     		uxtb	r5, r5
 314              	.LVL41:
 315              	.L25:
  89:.\togglelib.c ****            if (index == strlen(sequance)){
 316              		.loc 1 89 0
 317 006e 301C     		mov	r0, r6
 318 0070 FFF7FEFF 		bl	strlen
 319              	.LVL42:
 320 0074 8542     		cmp	r5, r0
 321 0076 2AD1     		bne	.L30
  90:.\togglelib.c ****             badge_state = FINAL;
 322              		.loc 1 90 0
 323 0078 0423     		mov	r3, #4
 324              	.LVL43:
 325              	.L37:
 326 007a 2370     		strb	r3, [r4]
ARM GAS  C:\Users\Admin\AppData\Local\Temp\ccfS5D5q.s 			page 14


 327              	.LVL44:
 328 007c 26E0     		b	.L36
 329              	.LVL45:
 330              	.L19:
 331              	.LBB44:
 332              	.LBB45:
 395:.\togglelib.c ****         break;
 396:.\togglelib.c ****         case ORGANIZER:
 397:.\togglelib.c ****             return Organizer_Sequence.index;
 333              		.loc 1 397 0
 334 007e 1B48     		ldr	r0, .L38+16
 335              	.LBE45:
 336              	.LBE44:
 106:.\togglelib.c ****                 index = 0;
 337              		.loc 1 106 0
 338 0080 0025     		mov	r5, #0
 339              	.LBB47:
 340              	.LBB46:
 341              		.loc 1 397 0
 342 0082 037D     		ldrb	r3, [r0, #20]
 343 0084 061C     		mov	r6, r0
 344 0086 DBB2     		uxtb	r3, r3
 345              	.LBE46:
 346              	.LBE47:
 102:.\togglelib.c ****             if (sequance[index] == LEFT_TOGGLE) {
 347              		.loc 1 102 0
 348 0088 C25C     		ldrb	r2, [r0, r3]
 349 008a 012A     		cmp	r2, #1
 350 008c 01D1     		bne	.L27
 103:.\togglelib.c ****                 index += 1;
 351              		.loc 1 103 0
 352 008e 5D1C     		add	r5, r3, #1
 353 0090 EDB2     		uxtb	r5, r5
 354              	.LVL46:
 355              	.L27:
 110:.\togglelib.c ****            if (index == strlen(sequance)){
 356              		.loc 1 110 0
 357 0092 301C     		mov	r0, r6
 358 0094 FFF7FEFF 		bl	strlen
 359              	.LVL47:
 360 0098 8542     		cmp	r5, r0
 361 009a 18D1     		bne	.L30
 111:.\togglelib.c ****             badge_state = ORGANIZER;
 362              		.loc 1 111 0
 363 009c 0523     		mov	r3, #5
 364 009e 2370     		strb	r3, [r4]
 365              	.LVL48:
 113:.\togglelib.c ****             PWM_Organizer_Start();
 366              		.loc 1 113 0
 367 00a0 FFF7FEFF 		bl	PWM_Organizer_Start
 368              	.LVL49:
 369 00a4 12E0     		b	.L36
 370              	.LVL50:
 371              	.L20:
 372              	.LBB48:
 373              	.LBB49:
 385:.\togglelib.c ****             return Morse_Sequence.index;
ARM GAS  C:\Users\Admin\AppData\Local\Temp\ccfS5D5q.s 			page 15


 374              		.loc 1 385 0
 375 00a6 1248     		ldr	r0, .L38+20
 376              	.LBE49:
 377              	.LBE48:
 128:.\togglelib.c ****                 index = 0;
 378              		.loc 1 128 0
 379 00a8 0025     		mov	r5, #0
 380              	.LBB51:
 381              	.LBB50:
 385:.\togglelib.c ****             return Morse_Sequence.index;
 382              		.loc 1 385 0
 383 00aa 037D     		ldrb	r3, [r0, #20]
 384 00ac 061C     		mov	r6, r0
 385 00ae DBB2     		uxtb	r3, r3
 386              	.LBE50:
 387              	.LBE51:
 124:.\togglelib.c ****             if (sequance[index] == LEFT_TOGGLE) {
 388              		.loc 1 124 0
 389 00b0 C25C     		ldrb	r2, [r0, r3]
 390 00b2 012A     		cmp	r2, #1
 391 00b4 01D1     		bne	.L29
 125:.\togglelib.c ****                 index += 1;
 392              		.loc 1 125 0
 393 00b6 5D1C     		add	r5, r3, #1
 394 00b8 EDB2     		uxtb	r5, r5
 395              	.LVL51:
 396              	.L29:
 132:.\togglelib.c ****            if (index == strlen(sequance)){
 397              		.loc 1 132 0
 398 00ba 301C     		mov	r0, r6
 399 00bc FFF7FEFF 		bl	strlen
 400              	.LVL52:
 401 00c0 8542     		cmp	r5, r0
 402 00c2 04D1     		bne	.L30
 133:.\togglelib.c ****             badge_state = MORSE;
 403              		.loc 1 133 0
 404 00c4 0123     		mov	r3, #1
 405 00c6 2370     		strb	r3, [r4]
 406              	.LVL53:
 135:.\togglelib.c ****             PWM_Organizer_Stop();
 407              		.loc 1 135 0
 408 00c8 FFF7FEFF 		bl	PWM_Organizer_Stop
 409              	.LVL54:
 410              	.L36:
 134:.\togglelib.c ****             index = 0;
 411              		.loc 1 134 0
 412 00cc 0025     		mov	r5, #0
 413              	.LVL55:
 414              	.L30:
 415              	.LBB52:
 416              	.LBB53:
 364:.\togglelib.c ****             Morse_Sequence.index = value;
 417              		.loc 1 364 0
 418 00ce 3575     		strb	r5, [r6, #20]
 419              	.LVL56:
 420              	.L14:
 421              	.LBE53:
ARM GAS  C:\Users\Admin\AppData\Local\Temp\ccfS5D5q.s 			page 16


 422              	.LBE52:
 143:.\togglelib.c ****     CyDelay(TOGGLE_DELAY);
 423              		.loc 1 143 0
 424 00d0 9620     		mov	r0, #150
 425 00d2 FFF7FEFF 		bl	CyDelay
 426              	.LVL57:
 145:.\togglelib.c **** }
 427              		.loc 1 145 0
 428              		@ sp needed
 144:.\togglelib.c ****     SWL_ClearInterrupt();
 429              		.loc 1 144 0
 430 00d6 FFF7FEFF 		bl	SWL_ClearInterrupt
 431              	.LVL58:
 145:.\togglelib.c **** }
 432              		.loc 1 145 0
 433 00da 70BD     		pop	{r4, r5, r6, pc}
 434              	.L39:
 435              		.align	2
 436              	.L38:
 437 00dc 00000000 		.word	badge_state
 438 00e0 00000000 		.word	Binary_Sequence
 439 00e4 00000000 		.word	Substitution_Sequence
 440 00e8 00000000 		.word	Final_Stage_Sequence
 441 00ec 00000000 		.word	Organizer_Sequence
 442 00f0 00000000 		.word	Morse_Sequence
 443              		.cfi_endproc
 444              	.LFE33:
 445              		.size	SWL_Handler, .-SWL_Handler
 446              		.section	.text.SWR_Handler,"ax",%progbits
 447              		.align	1
 448              		.global	SWR_Handler
 449              		.code	16
 450              		.thumb_func
 451              		.type	SWR_Handler, %function
 452              	SWR_Handler:
 453              	.LFB34:
 148:.\togglelib.c **** CY_ISR( SWR_Handler ) {
 454              		.loc 1 148 0
 455              		.cfi_startproc
 456 0000 70B5     		push	{r4, r5, r6, lr}
 457              		.cfi_def_cfa_offset 16
 458              		.cfi_offset 4, -16
 459              		.cfi_offset 5, -12
 460              		.cfi_offset 6, -8
 461              		.cfi_offset 14, -4
 153:.\togglelib.c ****     switch(badge_state) {
 462              		.loc 1 153 0
 463 0002 364C     		ldr	r4, .L65
 464 0004 2078     		ldrb	r0, [r4]
 465 0006 0138     		sub	r0, r0, #1
 466 0008 0428     		cmp	r0, #4
 467 000a 61D8     		bhi	.L41
 468 000c FFF7FEFF 		bl	__gnu_thumb1_case_uqi
 469              	.L43:
 470 0010 03       		.byte	(.L42-.L43)/2
 471 0011 14       		.byte	(.L44-.L43)/2
 472 0012 25       		.byte	(.L45-.L43)/2
ARM GAS  C:\Users\Admin\AppData\Local\Temp\ccfS5D5q.s 			page 17


 473 0013 37       		.byte	(.L46-.L43)/2
 474 0014 4B       		.byte	(.L47-.L43)/2
 475 0015 00       		.p2align 1
 476              	.L42:
 477              	.LVL59:
 478              	.LBB84:
 479              	.LBB85:
 388:.\togglelib.c ****             return Binary_Sequence.index;
 480              		.loc 1 388 0
 481 0016 3248     		ldr	r0, .L65+4
 482              	.LBE85:
 483              	.LBE84:
 163:.\togglelib.c ****                 index = 0;
 484              		.loc 1 163 0
 485 0018 0025     		mov	r5, #0
 486              	.LBB87:
 487              	.LBB86:
 388:.\togglelib.c ****             return Binary_Sequence.index;
 488              		.loc 1 388 0
 489 001a 037D     		ldrb	r3, [r0, #20]
 490 001c 061C     		mov	r6, r0
 491 001e DBB2     		uxtb	r3, r3
 492              	.LBE86:
 493              	.LBE87:
 159:.\togglelib.c ****             if (sequance[index] == RIGHT_TOGGLE) {
 494              		.loc 1 159 0
 495 0020 C25C     		ldrb	r2, [r0, r3]
 496 0022 022A     		cmp	r2, #2
 497 0024 01D1     		bne	.L48
 160:.\togglelib.c ****                 index += 1;
 498              		.loc 1 160 0
 499 0026 5D1C     		add	r5, r3, #1
 500 0028 EDB2     		uxtb	r5, r5
 501              	.LVL60:
 502              	.L48:
 167:.\togglelib.c ****            if (index == strlen(sequance)){
 503              		.loc 1 167 0
 504 002a 301C     		mov	r0, r6
 505 002c FFF7FEFF 		bl	strlen
 506              	.LVL61:
 168:.\togglelib.c ****             badge_state = BINARY;
 507              		.loc 1 168 0
 508 0030 0223     		mov	r3, #2
 167:.\togglelib.c ****            if (index == strlen(sequance)){
 509              		.loc 1 167 0
 510 0032 8542     		cmp	r5, r0
 511 0034 4BD1     		bne	.L57
 512 0036 20E0     		b	.L64
 513              	.LVL62:
 514              	.L44:
 515              	.LBB88:
 516              	.LBB89:
 391:.\togglelib.c ****             return Substitution_Sequence.index;
 517              		.loc 1 391 0
 518 0038 2A48     		ldr	r0, .L65+8
 519              	.LBE89:
 520              	.LBE88:
ARM GAS  C:\Users\Admin\AppData\Local\Temp\ccfS5D5q.s 			page 18


 184:.\togglelib.c ****                 index = 0;
 521              		.loc 1 184 0
 522 003a 0025     		mov	r5, #0
 523              	.LBB91:
 524              	.LBB90:
 391:.\togglelib.c ****             return Substitution_Sequence.index;
 525              		.loc 1 391 0
 526 003c 037D     		ldrb	r3, [r0, #20]
 527 003e 061C     		mov	r6, r0
 528 0040 DBB2     		uxtb	r3, r3
 529              	.LBE90:
 530              	.LBE91:
 180:.\togglelib.c ****             if (sequance[index] == RIGHT_TOGGLE) {
 531              		.loc 1 180 0
 532 0042 C25C     		ldrb	r2, [r0, r3]
 533 0044 022A     		cmp	r2, #2
 534 0046 01D1     		bne	.L50
 181:.\togglelib.c ****                 index += 1;
 535              		.loc 1 181 0
 536 0048 5D1C     		add	r5, r3, #1
 537 004a EDB2     		uxtb	r5, r5
 538              	.LVL63:
 539              	.L50:
 188:.\togglelib.c ****            if (index == strlen(sequance)){
 540              		.loc 1 188 0
 541 004c 301C     		mov	r0, r6
 542 004e FFF7FEFF 		bl	strlen
 543              	.LVL64:
 189:.\togglelib.c ****             badge_state = SUBSTITUTION;
 544              		.loc 1 189 0
 545 0052 0323     		mov	r3, #3
 188:.\togglelib.c ****            if (index == strlen(sequance)){
 546              		.loc 1 188 0
 547 0054 8542     		cmp	r5, r0
 548 0056 3AD1     		bne	.L57
 549 0058 0FE0     		b	.L64
 550              	.LVL65:
 551              	.L45:
 552              	.LBB92:
 553              	.LBB93:
 394:.\togglelib.c ****             return Final_Stage_Sequence.index;
 554              		.loc 1 394 0
 555 005a 2348     		ldr	r0, .L65+12
 556              	.LBE93:
 557              	.LBE92:
 205:.\togglelib.c ****                 index = 0;
 558              		.loc 1 205 0
 559 005c 0025     		mov	r5, #0
 560              	.LBB95:
 561              	.LBB94:
 394:.\togglelib.c ****             return Final_Stage_Sequence.index;
 562              		.loc 1 394 0
 563 005e 037D     		ldrb	r3, [r0, #20]
 564 0060 061C     		mov	r6, r0
 565 0062 DBB2     		uxtb	r3, r3
 566              	.LBE94:
 567              	.LBE95:
ARM GAS  C:\Users\Admin\AppData\Local\Temp\ccfS5D5q.s 			page 19


 201:.\togglelib.c ****             if (sequance[index] == RIGHT_TOGGLE) {
 568              		.loc 1 201 0
 569 0064 C25C     		ldrb	r2, [r0, r3]
 570 0066 022A     		cmp	r2, #2
 571 0068 01D1     		bne	.L52
 202:.\togglelib.c ****                 index += 1;
 572              		.loc 1 202 0
 573 006a 5D1C     		add	r5, r3, #1
 574 006c EDB2     		uxtb	r5, r5
 575              	.LVL66:
 576              	.L52:
 209:.\togglelib.c ****            if (index == strlen(sequance)){
 577              		.loc 1 209 0
 578 006e 301C     		mov	r0, r6
 579 0070 FFF7FEFF 		bl	strlen
 580              	.LVL67:
 581 0074 8542     		cmp	r5, r0
 582 0076 2AD1     		bne	.L57
 210:.\togglelib.c ****             badge_state = FINAL;
 583              		.loc 1 210 0
 584 0078 0423     		mov	r3, #4
 585              	.LVL68:
 586              	.L64:
 587 007a 2370     		strb	r3, [r4]
 588              	.LVL69:
 589 007c 26E0     		b	.L63
 590              	.LVL70:
 591              	.L46:
 592              	.LBB96:
 593              	.LBB97:
 594              		.loc 1 397 0
 595 007e 1B48     		ldr	r0, .L65+16
 596              	.LBE97:
 597              	.LBE96:
 226:.\togglelib.c ****                 index = 0;
 598              		.loc 1 226 0
 599 0080 0025     		mov	r5, #0
 600              	.LBB99:
 601              	.LBB98:
 602              		.loc 1 397 0
 603 0082 037D     		ldrb	r3, [r0, #20]
 604 0084 061C     		mov	r6, r0
 605 0086 DBB2     		uxtb	r3, r3
 606              	.LBE98:
 607              	.LBE99:
 222:.\togglelib.c ****             if (sequance[index] == RIGHT_TOGGLE) {
 608              		.loc 1 222 0
 609 0088 C25C     		ldrb	r2, [r0, r3]
 610 008a 022A     		cmp	r2, #2
 611 008c 01D1     		bne	.L54
 223:.\togglelib.c ****                 index += 1;
 612              		.loc 1 223 0
 613 008e 5D1C     		add	r5, r3, #1
 614 0090 EDB2     		uxtb	r5, r5
 615              	.LVL71:
 616              	.L54:
 230:.\togglelib.c ****            if (index == strlen(sequance)){
ARM GAS  C:\Users\Admin\AppData\Local\Temp\ccfS5D5q.s 			page 20


 617              		.loc 1 230 0
 618 0092 301C     		mov	r0, r6
 619 0094 FFF7FEFF 		bl	strlen
 620              	.LVL72:
 621 0098 8542     		cmp	r5, r0
 622 009a 18D1     		bne	.L57
 231:.\togglelib.c ****             badge_state = ORGANIZER;
 623              		.loc 1 231 0
 624 009c 0523     		mov	r3, #5
 625 009e 2370     		strb	r3, [r4]
 626              	.LVL73:
 233:.\togglelib.c ****             PWM_Organizer_Start();
 627              		.loc 1 233 0
 628 00a0 FFF7FEFF 		bl	PWM_Organizer_Start
 629              	.LVL74:
 630 00a4 12E0     		b	.L63
 631              	.LVL75:
 632              	.L47:
 633              	.LBB100:
 634              	.LBB101:
 385:.\togglelib.c ****             return Morse_Sequence.index;
 635              		.loc 1 385 0
 636 00a6 1248     		ldr	r0, .L65+20
 637              	.LBE101:
 638              	.LBE100:
 248:.\togglelib.c ****                 index = 0;
 639              		.loc 1 248 0
 640 00a8 0025     		mov	r5, #0
 641              	.LBB103:
 642              	.LBB102:
 385:.\togglelib.c ****             return Morse_Sequence.index;
 643              		.loc 1 385 0
 644 00aa 037D     		ldrb	r3, [r0, #20]
 645 00ac 061C     		mov	r6, r0
 646 00ae DBB2     		uxtb	r3, r3
 647              	.LBE102:
 648              	.LBE103:
 244:.\togglelib.c ****             if (sequance[index] == RIGHT_TOGGLE) {
 649              		.loc 1 244 0
 650 00b0 C25C     		ldrb	r2, [r0, r3]
 651 00b2 022A     		cmp	r2, #2
 652 00b4 01D1     		bne	.L56
 245:.\togglelib.c ****                 index += 1;
 653              		.loc 1 245 0
 654 00b6 5D1C     		add	r5, r3, #1
 655 00b8 EDB2     		uxtb	r5, r5
 656              	.LVL76:
 657              	.L56:
 252:.\togglelib.c ****            if (index == strlen(sequance)){
 658              		.loc 1 252 0
 659 00ba 301C     		mov	r0, r6
 660 00bc FFF7FEFF 		bl	strlen
 661              	.LVL77:
 662 00c0 8542     		cmp	r5, r0
 663 00c2 04D1     		bne	.L57
 253:.\togglelib.c ****             badge_state = MORSE;
 664              		.loc 1 253 0
ARM GAS  C:\Users\Admin\AppData\Local\Temp\ccfS5D5q.s 			page 21


 665 00c4 0123     		mov	r3, #1
 666 00c6 2370     		strb	r3, [r4]
 667              	.LVL78:
 255:.\togglelib.c ****             PWM_Organizer_Stop();
 668              		.loc 1 255 0
 669 00c8 FFF7FEFF 		bl	PWM_Organizer_Stop
 670              	.LVL79:
 671              	.L63:
 254:.\togglelib.c ****             index = 0;
 672              		.loc 1 254 0
 673 00cc 0025     		mov	r5, #0
 674              	.LVL80:
 675              	.L57:
 676              	.LBB104:
 677              	.LBB105:
 364:.\togglelib.c ****             Morse_Sequence.index = value;
 678              		.loc 1 364 0
 679 00ce 3575     		strb	r5, [r6, #20]
 680              	.LVL81:
 681              	.L41:
 682              	.LBE105:
 683              	.LBE104:
 265:.\togglelib.c ****     CyDelay(TOGGLE_DELAY);
 684              		.loc 1 265 0
 685 00d0 9620     		mov	r0, #150
 686 00d2 FFF7FEFF 		bl	CyDelay
 687              	.LVL82:
 267:.\togglelib.c **** }
 688              		.loc 1 267 0
 689              		@ sp needed
 266:.\togglelib.c ****     SWR_ClearInterrupt();
 690              		.loc 1 266 0
 691 00d6 FFF7FEFF 		bl	SWR_ClearInterrupt
 692              	.LVL83:
 267:.\togglelib.c **** }
 693              		.loc 1 267 0
 694 00da 70BD     		pop	{r4, r5, r6, pc}
 695              	.L66:
 696              		.align	2
 697              	.L65:
 698 00dc 00000000 		.word	badge_state
 699 00e0 00000000 		.word	Binary_Sequence
 700 00e4 00000000 		.word	Substitution_Sequence
 701 00e8 00000000 		.word	Final_Stage_Sequence
 702 00ec 00000000 		.word	Organizer_Sequence
 703 00f0 00000000 		.word	Morse_Sequence
 704              		.cfi_endproc
 705              	.LFE34:
 706              		.size	SWR_Handler, .-SWR_Handler
 707              		.section	.text.set_magic_toggle_sequance,"ax",%progbits
 708              		.align	1
 709              		.global	set_magic_toggle_sequance
 710              		.code	16
 711              		.thumb_func
 712              		.type	set_magic_toggle_sequance, %function
 713              	set_magic_toggle_sequance:
 714              	.LFB37:
ARM GAS  C:\Users\Admin\AppData\Local\Temp\ccfS5D5q.s 			page 22


 317:.\togglelib.c **** void set_magic_toggle_sequance(uint8 state_flag, uint8* sequance) {
 715              		.loc 1 317 0
 716              		.cfi_startproc
 717              	.LVL84:
 318:.\togglelib.c ****     switch(state_flag) {
 718              		.loc 1 318 0
 719 0000 0138     		sub	r0, r0, #1
 720              	.LVL85:
 317:.\togglelib.c **** void set_magic_toggle_sequance(uint8 state_flag, uint8* sequance) {
 721              		.loc 1 317 0
 722 0002 08B5     		push	{r3, lr}
 723              		.cfi_def_cfa_offset 8
 724              		.cfi_offset 3, -8
 725              		.cfi_offset 14, -4
 318:.\togglelib.c ****     switch(state_flag) {
 726              		.loc 1 318 0
 727 0004 0428     		cmp	r0, #4
 728 0006 10D8     		bhi	.L67
 729 0008 FFF7FEFF 		bl	__gnu_thumb1_case_uqi
 730              	.L70:
 731 000c 03       		.byte	(.L69-.L70)/2
 732 000d 05       		.byte	(.L71-.L70)/2
 733 000e 07       		.byte	(.L72-.L70)/2
 734 000f 09       		.byte	(.L73-.L70)/2
 735 0010 0B       		.byte	(.L74-.L70)/2
 736 0011 00       		.p2align 1
 737              	.L69:
 320:.\togglelib.c ****             memmove(Morse_Sequence.sequance, sequance, MAX_SEQUENCE_SIZE);
 738              		.loc 1 320 0
 739 0012 0648     		ldr	r0, .L76
 740 0014 06E0     		b	.L75
 741              	.L71:
 323:.\togglelib.c ****             memmove(Binary_Sequence.sequance, sequance, MAX_SEQUENCE_SIZE);
 742              		.loc 1 323 0
 743 0016 0648     		ldr	r0, .L76+4
 744 0018 04E0     		b	.L75
 745              	.L72:
 326:.\togglelib.c ****             memmove(Substitution_Sequence.sequance, sequance, MAX_SEQUENCE_SIZE);
 746              		.loc 1 326 0
 747 001a 0648     		ldr	r0, .L76+8
 748 001c 02E0     		b	.L75
 749              	.L73:
 329:.\togglelib.c ****             memmove(Final_Stage_Sequence.sequance, sequance, MAX_SEQUENCE_SIZE);
 750              		.loc 1 329 0
 751 001e 0648     		ldr	r0, .L76+12
 752 0020 00E0     		b	.L75
 753              	.L74:
 332:.\togglelib.c ****             memmove(Organizer_Sequence.sequance, sequance, MAX_SEQUENCE_SIZE);
 754              		.loc 1 332 0
 755 0022 0648     		ldr	r0, .L76+16
 756              	.L75:
 757 0024 1422     		mov	r2, #20
 758 0026 FFF7FEFF 		bl	memmove
 759              	.LVL86:
 760              	.L67:
 336:.\togglelib.c **** }
 761              		.loc 1 336 0
ARM GAS  C:\Users\Admin\AppData\Local\Temp\ccfS5D5q.s 			page 23


 762              		@ sp needed
 763 002a 08BD     		pop	{r3, pc}
 764              	.L77:
 765              		.align	2
 766              	.L76:
 767 002c 00000000 		.word	Morse_Sequence
 768 0030 00000000 		.word	Binary_Sequence
 769 0034 00000000 		.word	Substitution_Sequence
 770 0038 00000000 		.word	Final_Stage_Sequence
 771 003c 00000000 		.word	Organizer_Sequence
 772              		.cfi_endproc
 773              	.LFE37:
 774              		.size	set_magic_toggle_sequance, .-set_magic_toggle_sequance
 775              		.section	.text.get_magic_toggle_sequance,"ax",%progbits
 776              		.align	1
 777              		.global	get_magic_toggle_sequance
 778              		.code	16
 779              		.thumb_func
 780              		.type	get_magic_toggle_sequance, %function
 781              	get_magic_toggle_sequance:
 782              	.LFB38:
 339:.\togglelib.c **** uint8* get_magic_toggle_sequance(uint8 state_flag) {
 783              		.loc 1 339 0
 784              		.cfi_startproc
 785              	.LVL87:
 786 0000 431E     		sub	r3, r0, #1
 787 0002 DBB2     		uxtb	r3, r3
 339:.\togglelib.c **** uint8* get_magic_toggle_sequance(uint8 state_flag) {
 788              		.loc 1 339 0
 789 0004 0020     		mov	r0, #0
 790              	.LVL88:
 791 0006 042B     		cmp	r3, #4
 792 0008 02D8     		bhi	.L79
 793 000a 024A     		ldr	r2, .L81
 794 000c 9B00     		lsl	r3, r3, #2
 795 000e 9858     		ldr	r0, [r3, r2]
 796              	.L79:
 358:.\togglelib.c **** }
 797              		.loc 1 358 0
 798              		@ sp needed
 799 0010 7047     		bx	lr
 800              	.L82:
 801 0012 C046     		.align	2
 802              	.L81:
 803 0014 00000000 		.word	.LANCHOR0
 804              		.cfi_endproc
 805              	.LFE38:
 806              		.size	get_magic_toggle_sequance, .-get_magic_toggle_sequance
 807              		.section	.text.set_magic_toggle_index,"ax",%progbits
 808              		.align	1
 809              		.global	set_magic_toggle_index
 810              		.code	16
 811              		.thumb_func
 812              		.type	set_magic_toggle_index, %function
 813              	set_magic_toggle_index:
 814              	.LFB39:
 361:.\togglelib.c **** void set_magic_toggle_index(uint8 state_flag, uint8 value) {
ARM GAS  C:\Users\Admin\AppData\Local\Temp\ccfS5D5q.s 			page 24


 815              		.loc 1 361 0
 816              		.cfi_startproc
 817              	.LVL89:
 362:.\togglelib.c ****     switch(state_flag) {
 818              		.loc 1 362 0
 819 0000 0138     		sub	r0, r0, #1
 820              	.LVL90:
 361:.\togglelib.c **** void set_magic_toggle_index(uint8 state_flag, uint8 value) {
 821              		.loc 1 361 0
 822 0002 00B5     		push	{lr}
 823              		.cfi_def_cfa_offset 4
 824              		.cfi_offset 14, -4
 362:.\togglelib.c ****     switch(state_flag) {
 825              		.loc 1 362 0
 826 0004 0428     		cmp	r0, #4
 827 0006 0ED8     		bhi	.L83
 828 0008 FFF7FEFF 		bl	__gnu_thumb1_case_uqi
 829              	.L86:
 830 000c 03       		.byte	(.L85-.L86)/2
 831 000d 05       		.byte	(.L87-.L86)/2
 832 000e 07       		.byte	(.L88-.L86)/2
 833 000f 09       		.byte	(.L89-.L86)/2
 834 0010 0B       		.byte	(.L90-.L86)/2
 835 0011 00       		.p2align 1
 836              	.L85:
 364:.\togglelib.c ****             Morse_Sequence.index = value;
 837              		.loc 1 364 0
 838 0012 054B     		ldr	r3, .L92
 839 0014 06E0     		b	.L91
 840              	.L87:
 367:.\togglelib.c ****             Binary_Sequence.index = value;
 841              		.loc 1 367 0
 842 0016 054B     		ldr	r3, .L92+4
 843 0018 04E0     		b	.L91
 844              	.L88:
 370:.\togglelib.c ****             Substitution_Sequence.index = value;
 845              		.loc 1 370 0
 846 001a 054B     		ldr	r3, .L92+8
 847 001c 02E0     		b	.L91
 848              	.L89:
 373:.\togglelib.c ****             Final_Stage_Sequence.index = value;
 849              		.loc 1 373 0
 850 001e 054B     		ldr	r3, .L92+12
 851 0020 00E0     		b	.L91
 852              	.L90:
 376:.\togglelib.c ****             Organizer_Sequence.index = value;
 853              		.loc 1 376 0
 854 0022 054B     		ldr	r3, .L92+16
 855              	.L91:
 856 0024 1975     		strb	r1, [r3, #20]
 857              	.L83:
 379:.\togglelib.c **** }
 858              		.loc 1 379 0
 859              		@ sp needed
 860 0026 00BD     		pop	{pc}
 861              	.L93:
 862              		.align	2
ARM GAS  C:\Users\Admin\AppData\Local\Temp\ccfS5D5q.s 			page 25


 863              	.L92:
 864 0028 00000000 		.word	Morse_Sequence
 865 002c 00000000 		.word	Binary_Sequence
 866 0030 00000000 		.word	Substitution_Sequence
 867 0034 00000000 		.word	Final_Stage_Sequence
 868 0038 00000000 		.word	Organizer_Sequence
 869              		.cfi_endproc
 870              	.LFE39:
 871              		.size	set_magic_toggle_index, .-set_magic_toggle_index
 872              		.section	.text.get_magic_toggle_index,"ax",%progbits
 873              		.align	1
 874              		.global	get_magic_toggle_index
 875              		.code	16
 876              		.thumb_func
 877              		.type	get_magic_toggle_index, %function
 878              	get_magic_toggle_index:
 879              	.LFB40:
 382:.\togglelib.c **** uint8 get_magic_toggle_index(uint8 state_flag) {
 880              		.loc 1 382 0
 881              		.cfi_startproc
 882              	.LVL91:
 383:.\togglelib.c ****         switch(state_flag) {
 883              		.loc 1 383 0
 884 0000 0138     		sub	r0, r0, #1
 885              	.LVL92:
 382:.\togglelib.c **** uint8 get_magic_toggle_index(uint8 state_flag) {
 886              		.loc 1 382 0
 887 0002 00B5     		push	{lr}
 888              		.cfi_def_cfa_offset 4
 889              		.cfi_offset 14, -4
 398:.\togglelib.c ****         break;
 399:.\togglelib.c ****     }
 400:.\togglelib.c ****     return -1;
 890              		.loc 1 400 0
 891 0004 FF23     		mov	r3, #255
 383:.\togglelib.c ****         switch(state_flag) {
 892              		.loc 1 383 0
 893 0006 0428     		cmp	r0, #4
 894 0008 0FD8     		bhi	.L95
 895 000a FFF7FEFF 		bl	__gnu_thumb1_case_uqi
 896              	.L97:
 897 000e 03       		.byte	(.L96-.L97)/2
 898 000f 05       		.byte	(.L98-.L97)/2
 899 0010 07       		.byte	(.L99-.L97)/2
 900 0011 09       		.byte	(.L100-.L97)/2
 901 0012 0B       		.byte	(.L101-.L97)/2
 902 0013 00       		.p2align 1
 903              	.L96:
 385:.\togglelib.c ****             return Morse_Sequence.index;
 904              		.loc 1 385 0
 905 0014 064B     		ldr	r3, .L104
 906 0016 06E0     		b	.L103
 907              	.L98:
 388:.\togglelib.c ****             return Binary_Sequence.index;
 908              		.loc 1 388 0
 909 0018 064B     		ldr	r3, .L104+4
 910 001a 04E0     		b	.L103
ARM GAS  C:\Users\Admin\AppData\Local\Temp\ccfS5D5q.s 			page 26


 911              	.L99:
 391:.\togglelib.c ****             return Substitution_Sequence.index;
 912              		.loc 1 391 0
 913 001c 064B     		ldr	r3, .L104+8
 914 001e 02E0     		b	.L103
 915              	.L100:
 394:.\togglelib.c ****             return Final_Stage_Sequence.index;
 916              		.loc 1 394 0
 917 0020 064B     		ldr	r3, .L104+12
 918 0022 00E0     		b	.L103
 919              	.L101:
 397:.\togglelib.c ****             return Organizer_Sequence.index;
 920              		.loc 1 397 0
 921 0024 064B     		ldr	r3, .L104+16
 922              	.L103:
 923 0026 1B7D     		ldrb	r3, [r3, #20]
 924 0028 DBB2     		uxtb	r3, r3
 925              	.L95:
 401:.\togglelib.c **** }
 926              		.loc 1 401 0
 927 002a 181C     		mov	r0, r3
 928              		@ sp needed
 929 002c 00BD     		pop	{pc}
 930              	.L105:
 931 002e C046     		.align	2
 932              	.L104:
 933 0030 00000000 		.word	Morse_Sequence
 934 0034 00000000 		.word	Binary_Sequence
 935 0038 00000000 		.word	Substitution_Sequence
 936 003c 00000000 		.word	Final_Stage_Sequence
 937 0040 00000000 		.word	Organizer_Sequence
 938              		.cfi_endproc
 939              	.LFE40:
 940              		.size	get_magic_toggle_index, .-get_magic_toggle_index
 941              		.section	.text.init_magic_toggle_sequance,"ax",%progbits
 942              		.align	1
 943              		.global	init_magic_toggle_sequance
 944              		.code	16
 945              		.thumb_func
 946              		.type	init_magic_toggle_sequance, %function
 947              	init_magic_toggle_sequance:
 948              	.LFB41:
 402:.\togglelib.c **** 
 403:.\togglelib.c **** /* Initialize the magic toogle structures */
 404:.\togglelib.c **** void init_magic_toggle_sequance(uint8 state_flag, uint8* sequance) {
 949              		.loc 1 404 0
 950              		.cfi_startproc
 951              	.LVL93:
 952 0000 10B5     		push	{r4, lr}
 953              		.cfi_def_cfa_offset 8
 954              		.cfi_offset 4, -8
 955              		.cfi_offset 14, -4
 956              		.loc 1 404 0
 957 0002 041C     		mov	r4, r0
 405:.\togglelib.c ****     set_magic_toggle_sequance(state_flag, sequance);
 958              		.loc 1 405 0
 959 0004 FFF7FEFF 		bl	set_magic_toggle_sequance
ARM GAS  C:\Users\Admin\AppData\Local\Temp\ccfS5D5q.s 			page 27


 960              	.LVL94:
 406:.\togglelib.c ****     set_magic_toggle_index(state_flag, 0);
 961              		.loc 1 406 0
 962 0008 201C     		mov	r0, r4
 963 000a 0021     		mov	r1, #0
 964 000c FFF7FEFF 		bl	set_magic_toggle_index
 965              	.LVL95:
 407:.\togglelib.c **** }
 966              		.loc 1 407 0
 967              		@ sp needed
 968 0010 10BD     		pop	{r4, pc}
 969              		.cfi_endproc
 970              	.LFE41:
 971              		.size	init_magic_toggle_sequance, .-init_magic_toggle_sequance
 972              		.section	.text.enable_toggle_interrupts,"ax",%progbits
 973              		.align	1
 974              		.global	enable_toggle_interrupts
 975              		.code	16
 976              		.thumb_func
 977              		.type	enable_toggle_interrupts, %function
 978              	enable_toggle_interrupts:
 979              	.LFB42:
 408:.\togglelib.c **** 
 409:.\togglelib.c **** void enable_toggle_interrupts() {
 980              		.loc 1 409 0
 981              		.cfi_startproc
 982 0000 08B5     		push	{r3, lr}
 983              		.cfi_def_cfa_offset 8
 984              		.cfi_offset 3, -8
 985              		.cfi_offset 14, -4
 410:.\togglelib.c ****     /* Setup toggle interrupts  */
 411:.\togglelib.c ****     SWB_Int_StartEx( SWB_Handler );
 986              		.loc 1 411 0
 987 0002 0948     		ldr	r0, .L108
 988 0004 FFF7FEFF 		bl	SWB_Int_StartEx
 989              	.LVL96:
 412:.\togglelib.c ****     SWL_Int_StartEx( SWL_Handler );
 990              		.loc 1 412 0
 991 0008 0848     		ldr	r0, .L108+4
 992 000a FFF7FEFF 		bl	SWL_Int_StartEx
 993              	.LVL97:
 413:.\togglelib.c ****     SWR_Int_StartEx( SWR_Handler );
 994              		.loc 1 413 0
 995 000e 0848     		ldr	r0, .L108+8
 996 0010 FFF7FEFF 		bl	SWR_Int_StartEx
 997              	.LVL98:
 414:.\togglelib.c ****     ORG_Int_StartEx( ORG_Handler );
 998              		.loc 1 414 0
 999 0014 0748     		ldr	r0, .L108+12
 1000 0016 FFF7FEFF 		bl	ORG_Int_StartEx
 1001              	.LVL99:
 415:.\togglelib.c ****     /* Seed random */
 416:.\togglelib.c ****     srand(time(NULL));
 1002              		.loc 1 416 0
 1003 001a 0020     		mov	r0, #0
 1004 001c FFF7FEFF 		bl	time
 1005              	.LVL100:
ARM GAS  C:\Users\Admin\AppData\Local\Temp\ccfS5D5q.s 			page 28


 1006 0020 FFF7FEFF 		bl	srand
 1007              	.LVL101:
 417:.\togglelib.c **** }...
 1008              		.loc 1 417 0
 1009              		@ sp needed
 1010 0024 08BD     		pop	{r3, pc}
 1011              	.L109:
 1012 0026 C046     		.align	2
 1013              	.L108:
 1014 0028 00000000 		.word	SWB_Handler
 1015 002c 00000000 		.word	SWL_Handler
 1016 0030 00000000 		.word	SWR_Handler
 1017 0034 00000000 		.word	ORG_Handler
 1018              		.cfi_endproc
 1019              	.LFE42:
 1020              		.size	enable_toggle_interrupts, .-enable_toggle_interrupts
 1021              		.comm	Organizer_Sequence,21,1
 1022              		.comm	Final_Stage_Sequence,21,1
 1023              		.comm	Substitution_Sequence,21,1
 1024              		.comm	Binary_Sequence,21,1
 1025              		.comm	Morse_Sequence,21,1
 1026              		.section	.rodata
 1027              		.align	2
 1028              		.set	.LANCHOR0,. + 0
 1029              		.type	CSWTCH.6, %object
 1030              		.size	CSWTCH.6, 20
 1031              	CSWTCH.6:
 1032 0000 00000000 		.word	Morse_Sequence
 1033 0004 00000000 		.word	Binary_Sequence
 1034 0008 00000000 		.word	Substitution_Sequence
 1035 000c 00000000 		.word	Final_Stage_Sequence
 1036 0010 00000000 		.word	Organizer_Sequence
 1037              		.text
 1038              	.Letext0:
 1039              		.file 2 ".\\Generated_Source\\PSoC4/cytypes.h"
 1040              		.file 3 "c:\\program files\\cypress\\psoc creator\\3.1\\psoc creator\\import\\gnu_cs\\arm\\4.8.4\\
 1041              		.file 4 "c:\\program files\\cypress\\psoc creator\\3.1\\psoc creator\\import\\gnu_cs\\arm\\4.8.4\\
 1042              		.file 5 ".\\togglelib.h"
 1043              		.file 6 ".\\state.h"
 1044              		.file 7 ".\\lightlib.h"
 1045              		.file 8 ".\\Generated_Source\\PSoC4/SWB.h"
 1046              		.file 9 "c:\\program files\\cypress\\psoc creator\\3.1\\psoc creator\\import\\gnu_cs\\arm\\4.8.4\\
 1047              		.file 10 ".\\Generated_Source\\PSoC4/PWM_Organizer.h"
 1048              		.file 11 "c:\\program files\\cypress\\psoc creator\\3.1\\psoc creator\\import\\gnu_cs\\arm\\4.8.4\
 1049              		.file 12 ".\\Generated_Source\\PSoC4/ORG_Int.h"
 1050              		.file 13 ".\\Generated_Source\\PSoC4/CyLib.h"
 1051              		.file 14 ".\\Generated_Source\\PSoC4/SWL.h"
 1052              		.file 15 ".\\Generated_Source\\PSoC4/SWR.h"
 1053              		.file 16 ".\\Generated_Source\\PSoC4/SWB_Int.h"
 1054              		.file 17 ".\\Generated_Source\\PSoC4/SWL_Int.h"
 1055              		.file 18 ".\\Generated_Source\\PSoC4/SWR_Int.h"
 1056              		.file 19 "c:\\program files\\cypress\\psoc creator\\3.1\\psoc creator\\import\\gnu_cs\\arm\\4.8.4\