ARM GAS  C:\Users\Admin\AppData\Local\Temp\ccYFKPSd.s 			page 1


   1              		.cpu cortex-m0
   2              		.fpu softvfp
   3              		.eabi_attribute 20, 1
   4              		.eabi_attribute 21, 1
   5              		.eabi_attribute 23, 3
   6              		.eabi_attribute 24, 1
   7              		.eabi_attribute 25, 1
   8              		.eabi_attribute 26, 1
   9              		.eabi_attribute 30, 6
  10              		.eabi_attribute 34, 0
  11              		.eabi_attribute 18, 4
  12              		.code	16
  13              		.file	"main.c"
  14              		.text
  15              	.Ltext0:
  16              		.cfi_sections	.debug_frame
  17              		.section	.rodata
  18              		.align	2
  19              	.LC1:
  20 0000 534F530A 		.ascii	"SOS\012\000"
  20      00
  21 0005 000000   		.section	.text.main,"ax",%progbits
  22              		.align	2
  23              		.global	main
  24              		.code	16
  25              		.thumb_func
  26              		.type	main, %function
  27              	main:
  28              	.LFB33:
  29              		.file 1 ".\\main.c"
   1:.\main.c      **** /* ========================================
   2:.\main.c      ****  *
   3:.\main.c      ****  * Red Badge source code. The volunteer badge
   4:.\main.c      ****  * is used to send encoded morse code message.
   5:.\main.c      ****  *
   6:.\main.c      ****  * Author(s): Ryan Grandgenett <rmgrandgenett@unomaha.edu>
   7:.\main.c      ****  *
   8:.\main.c      ****  * Eye Color: Red
   9:.\main.c      ****  * Stage1: Morse Code
  10:.\main.c      ****  * Stage2: Binary
  11:.\main.c      ****  * Stage3: Substitution
  12:.\main.c      ****  * Stage4: Serial
  13:.\main.c      ****  * Stage5: Organizer
  14:.\main.c      ****  *
  15:.\main.c      ****  * Serial: Print the morse code output
  16:.\main.c      ****  *
  17:.\main.c      ****  * Copyright Nullify, 2016
  18:.\main.c      ****  * All Rights Reserved
  19:.\main.c      ****  * UNPUBLISHED, LICENSED SOFTWARE.
  20:.\main.c      ****  *
  21:.\main.c      ****  * CONFIDENTIAL AND PROPRIETARY INFORMATION
  22:.\main.c      ****  * WHICH IS THE PROPERTY OF NULLIY.
  23:.\main.c      ****  *
  24:.\main.c      ****  * ========================================
  25:.\main.c      **** */
  26:.\main.c      **** #include <project.h>
  27:.\main.c      **** #include <string.h>
ARM GAS  C:\Users\Admin\AppData\Local\Temp\ccYFKPSd.s 			page 2


  28:.\main.c      **** #include <stdio.h>
  29:.\main.c      **** #include "lightlib.h"
  30:.\main.c      **** #include "togglelib.h"
  31:.\main.c      **** #include "state.h"
  32:.\main.c      **** #include "morse.h"
  33:.\main.c      **** #include "binary.h"
  34:.\main.c      **** #include "substitution.h"
  35:.\main.c      **** 
  36:.\main.c      **** int main()
  37:.\main.c      **** {
  30              		.loc 1 37 0
  31              		.cfi_startproc
  32 0000 80B5     		push	{r7, lr}
  33              		.cfi_def_cfa_offset 8
  34              		.cfi_offset 7, -8
  35              		.cfi_offset 14, -4
  36 0002 94B0     		sub	sp, sp, #80
  37              		.cfi_def_cfa_offset 88
  38 0004 00AF     		add	r7, sp, #0
  39              		.cfi_def_cfa_register 7
  38:.\main.c      ****     uint8 morse_sequance[MAX_SEQUENCE_SIZE] = {LEFT_TOGGLE, LEFT_TOGGLE, LEFT_TOGGLE, LEFT_TOGGLE, 
  40              		.loc 1 38 0
  41 0006 3B1C     		mov	r3, r7
  42 0008 3C33     		add	r3, r3, #60
  43 000a 0022     		mov	r2, #0
  44 000c 1A60     		str	r2, [r3]
  45 000e 0022     		mov	r2, #0
  46 0010 5A60     		str	r2, [r3, #4]
  47 0012 0022     		mov	r2, #0
  48 0014 9A60     		str	r2, [r3, #8]
  49 0016 0022     		mov	r2, #0
  50 0018 DA60     		str	r2, [r3, #12]
  51 001a 0022     		mov	r2, #0
  52 001c 1A61     		str	r2, [r3, #16]
  53 001e 3B1C     		mov	r3, r7
  54 0020 3C33     		add	r3, r3, #60
  55 0022 0122     		mov	r2, #1
  56 0024 1A70     		strb	r2, [r3]
  57 0026 3B1C     		mov	r3, r7
  58 0028 3C33     		add	r3, r3, #60
  59 002a 0122     		mov	r2, #1
  60 002c 5A70     		strb	r2, [r3, #1]
  61 002e 3B1C     		mov	r3, r7
  62 0030 3C33     		add	r3, r3, #60
  63 0032 0122     		mov	r2, #1
  64 0034 9A70     		strb	r2, [r3, #2]
  65 0036 3B1C     		mov	r3, r7
  66 0038 3C33     		add	r3, r3, #60
  67 003a 0122     		mov	r2, #1
  68 003c DA70     		strb	r2, [r3, #3]
  39:.\main.c      ****     uint8 binary_sequance[MAX_SEQUENCE_SIZE] = {RIGHT_TOGGLE, RIGHT_TOGGLE, RIGHT_TOGGLE, RIGHT_TOG
  69              		.loc 1 39 0
  70 003e 3B1C     		mov	r3, r7
  71 0040 2833     		add	r3, r3, #40
  72 0042 0022     		mov	r2, #0
  73 0044 1A60     		str	r2, [r3]
  74 0046 0022     		mov	r2, #0
ARM GAS  C:\Users\Admin\AppData\Local\Temp\ccYFKPSd.s 			page 3


  75 0048 5A60     		str	r2, [r3, #4]
  76 004a 0022     		mov	r2, #0
  77 004c 9A60     		str	r2, [r3, #8]
  78 004e 0022     		mov	r2, #0
  79 0050 DA60     		str	r2, [r3, #12]
  80 0052 0022     		mov	r2, #0
  81 0054 1A61     		str	r2, [r3, #16]
  82 0056 3B1C     		mov	r3, r7
  83 0058 2833     		add	r3, r3, #40
  84 005a 0222     		mov	r2, #2
  85 005c 1A70     		strb	r2, [r3]
  86 005e 3B1C     		mov	r3, r7
  87 0060 2833     		add	r3, r3, #40
  88 0062 0222     		mov	r2, #2
  89 0064 5A70     		strb	r2, [r3, #1]
  90 0066 3B1C     		mov	r3, r7
  91 0068 2833     		add	r3, r3, #40
  92 006a 0222     		mov	r2, #2
  93 006c 9A70     		strb	r2, [r3, #2]
  94 006e 3B1C     		mov	r3, r7
  95 0070 2833     		add	r3, r3, #40
  96 0072 0222     		mov	r2, #2
  97 0074 DA70     		strb	r2, [r3, #3]
  40:.\main.c      ****     uint8 substitution_sequance[MAX_SEQUENCE_SIZE] = {LEFT_TOGGLE, LEFT_TOGGLE, LEFT_TOGGLE, LEFT_T
  98              		.loc 1 40 0
  99 0076 3B1C     		mov	r3, r7
 100 0078 1433     		add	r3, r3, #20
 101 007a 0022     		mov	r2, #0
 102 007c 1A60     		str	r2, [r3]
 103 007e 0022     		mov	r2, #0
 104 0080 5A60     		str	r2, [r3, #4]
 105 0082 0022     		mov	r2, #0
 106 0084 9A60     		str	r2, [r3, #8]
 107 0086 0022     		mov	r2, #0
 108 0088 DA60     		str	r2, [r3, #12]
 109 008a 0022     		mov	r2, #0
 110 008c 1A61     		str	r2, [r3, #16]
 111 008e 3B1C     		mov	r3, r7
 112 0090 1433     		add	r3, r3, #20
 113 0092 0122     		mov	r2, #1
 114 0094 1A70     		strb	r2, [r3]
 115 0096 3B1C     		mov	r3, r7
 116 0098 1433     		add	r3, r3, #20
 117 009a 0122     		mov	r2, #1
 118 009c 5A70     		strb	r2, [r3, #1]
 119 009e 3B1C     		mov	r3, r7
 120 00a0 1433     		add	r3, r3, #20
 121 00a2 0122     		mov	r2, #1
 122 00a4 9A70     		strb	r2, [r3, #2]
 123 00a6 3B1C     		mov	r3, r7
 124 00a8 1433     		add	r3, r3, #20
 125 00aa 0122     		mov	r2, #1
 126 00ac DA70     		strb	r2, [r3, #3]
  41:.\main.c      ****     uint8 organizer_sequance[MAX_SEQUENCE_SIZE] = {RIGHT_TOGGLE, RIGHT_TOGGLE, RIGHT_TOGGLE, RIGHT_
 127              		.loc 1 41 0
 128 00ae 3B1C     		mov	r3, r7
 129 00b0 0022     		mov	r2, #0
ARM GAS  C:\Users\Admin\AppData\Local\Temp\ccYFKPSd.s 			page 4


 130 00b2 1A60     		str	r2, [r3]
 131 00b4 0022     		mov	r2, #0
 132 00b6 5A60     		str	r2, [r3, #4]
 133 00b8 0022     		mov	r2, #0
 134 00ba 9A60     		str	r2, [r3, #8]
 135 00bc 0022     		mov	r2, #0
 136 00be DA60     		str	r2, [r3, #12]
 137 00c0 0022     		mov	r2, #0
 138 00c2 1A61     		str	r2, [r3, #16]
 139 00c4 3B1C     		mov	r3, r7
 140 00c6 0222     		mov	r2, #2
 141 00c8 1A70     		strb	r2, [r3]
 142 00ca 3B1C     		mov	r3, r7
 143 00cc 0222     		mov	r2, #2
 144 00ce 5A70     		strb	r2, [r3, #1]
 145 00d0 3B1C     		mov	r3, r7
 146 00d2 0222     		mov	r2, #2
 147 00d4 9A70     		strb	r2, [r3, #2]
 148 00d6 3B1C     		mov	r3, r7
 149 00d8 0222     		mov	r2, #2
 150 00da DA70     		strb	r2, [r3, #3]
  42:.\main.c      **** 
  43:.\main.c      ****     /* Enable interrupts (needed for toggles and organizer PWRM) */
  44:.\main.c      ****     CyGlobalIntEnable;
 151              		.loc 1 44 0
 152              	@ 44 ".\main.c" 1
 153 00dc 62B6     		CPSIE   i
 154              	@ 0 "" 2
  45:.\main.c      **** 
  46:.\main.c      ****     /* Enable toggle buttons */
  47:.\main.c      ****     enable_toggle_interrupts();
 155              		.loc 1 47 0
 156              		.code	16
 157 00de FFF7FEFF 		bl	enable_toggle_interrupts
  48:.\main.c      **** 
  49:.\main.c      ****     /* Initialize LEDs to off and default color value */
  50:.\main.c      ****     init_led(RED);
 158              		.loc 1 50 0
 159 00e2 0120     		mov	r0, #1
 160 00e4 FFF7FEFF 		bl	init_led
  51:.\main.c      ****       
  52:.\main.c      ****     /* Set the toggle button magic sequences */
  53:.\main.c      ****     init_magic_toggle_sequance(MORSE, morse_sequance);
 161              		.loc 1 53 0
 162 00e8 3B1C     		mov	r3, r7
 163 00ea 3C33     		add	r3, r3, #60
 164 00ec 0120     		mov	r0, #1
 165 00ee 191C     		mov	r1, r3
 166 00f0 FFF7FEFF 		bl	init_magic_toggle_sequance
  54:.\main.c      ****     init_magic_toggle_sequance(BINARY, binary_sequance);
 167              		.loc 1 54 0
 168 00f4 3B1C     		mov	r3, r7
 169 00f6 2833     		add	r3, r3, #40
 170 00f8 0220     		mov	r0, #2
 171 00fa 191C     		mov	r1, r3
 172 00fc FFF7FEFF 		bl	init_magic_toggle_sequance
  55:.\main.c      ****     init_magic_toggle_sequance(SUBSTITUTION, substitution_sequance);
ARM GAS  C:\Users\Admin\AppData\Local\Temp\ccYFKPSd.s 			page 5


 173              		.loc 1 55 0
 174 0100 3B1C     		mov	r3, r7
 175 0102 1433     		add	r3, r3, #20
 176 0104 0320     		mov	r0, #3
 177 0106 191C     		mov	r1, r3
 178 0108 FFF7FEFF 		bl	init_magic_toggle_sequance
  56:.\main.c      ****     init_magic_toggle_sequance(ORGANIZER, organizer_sequance);
 179              		.loc 1 56 0
 180 010c 3B1C     		mov	r3, r7
 181 010e 0420     		mov	r0, #4
 182 0110 191C     		mov	r1, r3
 183 0112 FFF7FEFF 		bl	init_magic_toggle_sequance
  57:.\main.c      ****     
  58:.\main.c      ****     /* Set the default state to volunteer badge settings */
  59:.\main.c      ****      badge_state = MORSE;
 184              		.loc 1 59 0
 185 0116 174B     		ldr	r3, .L9
 186 0118 0122     		mov	r2, #1
 187 011a 1A70     		strb	r2, [r3]
 188              	.L8:
  60:.\main.c      ****     
  61:.\main.c      ****     for(;;)
  62:.\main.c      ****     {   switch(badge_state) {
 189              		.loc 1 62 0
 190 011c 154B     		ldr	r3, .L9
 191 011e 1B78     		ldrb	r3, [r3]
 192 0120 DBB2     		uxtb	r3, r3
 193 0122 022B     		cmp	r3, #2
 194 0124 11D0     		beq	.L3
 195 0126 02DC     		bgt	.L4
 196 0128 012B     		cmp	r3, #1
 197 012a 05D0     		beq	.L5
  63:.\main.c      ****         case MORSE:
  64:.\main.c      ****             init_led(RED);
  65:.\main.c      ****             morse_message(LEFT_RIGHT_LED, "SOS\n");
  66:.\main.c      ****         break;
  67:.\main.c      ****         case BINARY:
  68:.\main.c      ****             init_led(MAGENTA);
  69:.\main.c      ****             binary_message("SOS\n");
  70:.\main.c      ****         break;
  71:.\main.c      ****         case SUBSTITUTION:
  72:.\main.c      ****             init_led(YELLOW);
  73:.\main.c      ****             substitution_message("SOS\n");
  74:.\main.c      ****         break;
  75:.\main.c      ****         case ORGANIZER:
  76:.\main.c      ****             CySysPmSleep();
  77:.\main.c      ****         break;
  78:.\main.c      ****         /* Else we are in the ORGANIZER state so let the PWM do all the work  */
  79:.\main.c      ****         }      
  80:.\main.c      ****     }
 198              		.loc 1 80 0
 199 012c F6E7     		b	.L8
 200              	.L4:
  62:.\main.c      ****     {   switch(badge_state) {
 201              		.loc 1 62 0
 202 012e 032B     		cmp	r3, #3
 203 0130 13D0     		beq	.L6
ARM GAS  C:\Users\Admin\AppData\Local\Temp\ccYFKPSd.s 			page 6


 204 0132 042B     		cmp	r3, #4
 205 0134 19D0     		beq	.L7
 206              		.loc 1 80 0
 207 0136 F1E7     		b	.L8
 208              	.L5:
  64:.\main.c      ****             init_led(RED);
 209              		.loc 1 64 0
 210 0138 0120     		mov	r0, #1
 211 013a FFF7FEFF 		bl	init_led
  65:.\main.c      ****             morse_message(LEFT_RIGHT_LED, "SOS\n");
 212              		.loc 1 65 0
 213 013e 0E4B     		ldr	r3, .L9+4
 214 0140 0320     		mov	r0, #3
 215 0142 191C     		mov	r1, r3
 216 0144 FFF7FEFF 		bl	morse_message
  66:.\main.c      ****         break;
 217              		.loc 1 66 0
 218 0148 12E0     		b	.L2
 219              	.L3:
  68:.\main.c      ****             init_led(MAGENTA);
 220              		.loc 1 68 0
 221 014a 0320     		mov	r0, #3
 222 014c FFF7FEFF 		bl	init_led
  69:.\main.c      ****             binary_message("SOS\n");
 223              		.loc 1 69 0
 224 0150 094B     		ldr	r3, .L9+4
 225 0152 181C     		mov	r0, r3
 226 0154 FFF7FEFF 		bl	binary_message
  70:.\main.c      ****         break;
 227              		.loc 1 70 0
 228 0158 0AE0     		b	.L2
 229              	.L6:
  72:.\main.c      ****             init_led(YELLOW);
 230              		.loc 1 72 0
 231 015a 0520     		mov	r0, #5
 232 015c FFF7FEFF 		bl	init_led
  73:.\main.c      ****             substitution_message("SOS\n");
 233              		.loc 1 73 0
 234 0160 054B     		ldr	r3, .L9+4
 235 0162 181C     		mov	r0, r3
 236 0164 FFF7FEFF 		bl	substitution_message
  74:.\main.c      ****         break;
 237              		.loc 1 74 0
 238 0168 02E0     		b	.L2
 239              	.L7:
  76:.\main.c      ****             CySysPmSleep();
 240              		.loc 1 76 0
 241 016a FFF7FEFF 		bl	CySysPmSleep
  77:.\main.c      ****         break;
 242              		.loc 1 77 0
 243 016e C046     		mov	r8, r8
 244              	.L2:
 245              		.loc 1 80 0
 246 0170 D4E7     		b	.L8
 247              	.L10:
 248 0172 C046     		.align	2
 249              	.L9:
ARM GAS  C:\Users\Admin\AppData\Local\Temp\ccYFKPSd.s 			page 7


 250 0174 00000000 		.word	badge_state
 251 0178 00000000 		.word	.LC1
 252              		.cfi_endproc
 253              	.LFE33:
 254              		.size	main, .-main
 255              		.text
 256              	.Letext0:
 257              		.file 2 ".\\Generated_Source\\PSoC4/cytypes.h"
 258              		.file 3 ".\\state.h"