ARM GAS  C:\Users\Admin\AppData\Local\Temp\ccP0iBuc.s 			page 1


   1              		.cpu cortex-m0
   2              		.fpu softvfp
   3              		.eabi_attribute 20, 1
   4              		.eabi_attribute 21, 1
   5              		.eabi_attribute 23, 3
   6              		.eabi_attribute 24, 1
   7              		.eabi_attribute 25, 1
   8              		.eabi_attribute 26, 1
   9              		.eabi_attribute 30, 6
  10              		.eabi_attribute 34, 0
  11              		.eabi_attribute 18, 4
  12              		.code	16
  13              		.file	"cyfitter_cfg.c"
  14              		.text
  15              	.Ltext0:
  16              		.cfi_sections	.debug_frame
  17              		.section	.text.CYMEMZERO,"ax",%progbits
  18              		.align	2
  19              		.code	16
  20              		.thumb_func
  21              		.type	CYMEMZERO, %function
  22              	CYMEMZERO:
  23              	.LFB0:
  24              		.file 1 ".\\Generated_Source\\PSoC4\\cyfitter_cfg.c"
   1:.\Generated_Source\PSoC4/cyfitter_cfg.c **** /*******************************************************************************
   2:.\Generated_Source\PSoC4/cyfitter_cfg.c **** * FILENAME: cyfitter_cfg.c
   3:.\Generated_Source\PSoC4/cyfitter_cfg.c **** * PSoC Creator  3.1 SP1
   4:.\Generated_Source\PSoC4/cyfitter_cfg.c **** *
   5:.\Generated_Source\PSoC4/cyfitter_cfg.c **** * Description:
   6:.\Generated_Source\PSoC4/cyfitter_cfg.c **** * This file is automatically generated by PSoC Creator with device 
   7:.\Generated_Source\PSoC4/cyfitter_cfg.c **** * initialization code.  Except for the user defined sections in
   8:.\Generated_Source\PSoC4/cyfitter_cfg.c **** * CyClockStartupError(), this file should not be modified.
   9:.\Generated_Source\PSoC4/cyfitter_cfg.c **** *
  10:.\Generated_Source\PSoC4/cyfitter_cfg.c **** ********************************************************************************
  11:.\Generated_Source\PSoC4/cyfitter_cfg.c **** * Copyright 2013, Cypress Semiconductor Corporation.  All rights reserved.
  12:.\Generated_Source\PSoC4/cyfitter_cfg.c **** * You may use this file only in accordance with the license, terms, conditions, 
  13:.\Generated_Source\PSoC4/cyfitter_cfg.c **** * disclaimers, and limitations in the end user license agreement accompanying 
  14:.\Generated_Source\PSoC4/cyfitter_cfg.c **** * the software package with which this file was provided.
  15:.\Generated_Source\PSoC4/cyfitter_cfg.c **** ********************************************************************************/
  16:.\Generated_Source\PSoC4/cyfitter_cfg.c **** 
  17:.\Generated_Source\PSoC4/cyfitter_cfg.c **** #include <string.h>
  18:.\Generated_Source\PSoC4/cyfitter_cfg.c **** #include <cytypes.h>
  19:.\Generated_Source\PSoC4/cyfitter_cfg.c **** #include <cydevice_trm.h>
  20:.\Generated_Source\PSoC4/cyfitter_cfg.c **** #include <cyfitter.h>
  21:.\Generated_Source\PSoC4/cyfitter_cfg.c **** #include <CyLib.h>
  22:.\Generated_Source\PSoC4/cyfitter_cfg.c **** #include <cyfitter_cfg.h>
  23:.\Generated_Source\PSoC4/cyfitter_cfg.c **** 
  24:.\Generated_Source\PSoC4/cyfitter_cfg.c **** 
  25:.\Generated_Source\PSoC4/cyfitter_cfg.c **** #if defined(__GNUC__) || defined(__ARMCC_VERSION)
  26:.\Generated_Source\PSoC4/cyfitter_cfg.c ****     #define CYPACKED 
  27:.\Generated_Source\PSoC4/cyfitter_cfg.c ****     #define CYPACKED_ATTR __attribute__ ((packed))
  28:.\Generated_Source\PSoC4/cyfitter_cfg.c ****     #define CYALIGNED __attribute__ ((aligned))
  29:.\Generated_Source\PSoC4/cyfitter_cfg.c ****     #define CY_CFG_UNUSED __attribute__ ((unused))
  30:.\Generated_Source\PSoC4/cyfitter_cfg.c ****     #define CY_CFG_SECTION __attribute__ ((section(".psocinit")))
  31:.\Generated_Source\PSoC4/cyfitter_cfg.c ****     
  32:.\Generated_Source\PSoC4/cyfitter_cfg.c ****     #if defined(__ARMCC_VERSION)
  33:.\Generated_Source\PSoC4/cyfitter_cfg.c ****         #define CY_CFG_MEMORY_BARRIER() __memory_changed()
ARM GAS  C:\Users\Admin\AppData\Local\Temp\ccP0iBuc.s 			page 2


  34:.\Generated_Source\PSoC4/cyfitter_cfg.c ****     #else
  35:.\Generated_Source\PSoC4/cyfitter_cfg.c ****         #define CY_CFG_MEMORY_BARRIER() __sync_synchronize()
  36:.\Generated_Source\PSoC4/cyfitter_cfg.c ****     #endif
  37:.\Generated_Source\PSoC4/cyfitter_cfg.c ****     
  38:.\Generated_Source\PSoC4/cyfitter_cfg.c **** #elif defined(__ICCARM__)
  39:.\Generated_Source\PSoC4/cyfitter_cfg.c ****     #include <intrinsics.h>
  40:.\Generated_Source\PSoC4/cyfitter_cfg.c **** 
  41:.\Generated_Source\PSoC4/cyfitter_cfg.c ****     #define CYPACKED __packed
  42:.\Generated_Source\PSoC4/cyfitter_cfg.c ****     #define CYPACKED_ATTR 
  43:.\Generated_Source\PSoC4/cyfitter_cfg.c ****     #define CYALIGNED _Pragma("data_alignment=4")
  44:.\Generated_Source\PSoC4/cyfitter_cfg.c ****     #define CY_CFG_UNUSED _Pragma("diag_suppress=Pe177")
  45:.\Generated_Source\PSoC4/cyfitter_cfg.c ****     #define CY_CFG_SECTION _Pragma("location=\".psocinit\"")
  46:.\Generated_Source\PSoC4/cyfitter_cfg.c ****     
  47:.\Generated_Source\PSoC4/cyfitter_cfg.c ****     #define CY_CFG_MEMORY_BARRIER() __DMB()
  48:.\Generated_Source\PSoC4/cyfitter_cfg.c ****     
  49:.\Generated_Source\PSoC4/cyfitter_cfg.c **** #else
  50:.\Generated_Source\PSoC4/cyfitter_cfg.c ****     #error Unsupported toolchain
  51:.\Generated_Source\PSoC4/cyfitter_cfg.c **** #endif
  52:.\Generated_Source\PSoC4/cyfitter_cfg.c **** 
  53:.\Generated_Source\PSoC4/cyfitter_cfg.c **** 
  54:.\Generated_Source\PSoC4/cyfitter_cfg.c **** CY_CFG_UNUSED
  55:.\Generated_Source\PSoC4/cyfitter_cfg.c **** static void CYMEMZERO(void *s, size_t n);
  56:.\Generated_Source\PSoC4/cyfitter_cfg.c **** CY_CFG_UNUSED
  57:.\Generated_Source\PSoC4/cyfitter_cfg.c **** static void CYMEMZERO(void *s, size_t n)
  58:.\Generated_Source\PSoC4/cyfitter_cfg.c **** {
  25              		.loc 1 58 0
  26              		.cfi_startproc
  27 0000 80B5     		push	{r7, lr}
  28              		.cfi_def_cfa_offset 8
  29              		.cfi_offset 7, -8
  30              		.cfi_offset 14, -4
  31 0002 82B0     		sub	sp, sp, #8
  32              		.cfi_def_cfa_offset 16
  33 0004 00AF     		add	r7, sp, #0
  34              		.cfi_def_cfa_register 7
  35 0006 7860     		str	r0, [r7, #4]
  36 0008 3960     		str	r1, [r7]
  59:.\Generated_Source\PSoC4/cyfitter_cfg.c **** 	(void)memset(s, 0, n);
  37              		.loc 1 59 0
  38 000a 7A68     		ldr	r2, [r7, #4]
  39 000c 3B68     		ldr	r3, [r7]
  40 000e 101C     		mov	r0, r2
  41 0010 0021     		mov	r1, #0
  42 0012 1A1C     		mov	r2, r3
  43 0014 FFF7FEFF 		bl	memset
  60:.\Generated_Source\PSoC4/cyfitter_cfg.c **** }
  44              		.loc 1 60 0
  45 0018 BD46     		mov	sp, r7
  46 001a 02B0     		add	sp, sp, #8
  47              		@ sp needed
  48 001c 80BD     		pop	{r7, pc}
  49              		.cfi_endproc
  50              	.LFE0:
  51              		.size	CYMEMZERO, .-CYMEMZERO
  52 001e C046     		.section	.text.CYCONFIGCPY,"ax",%progbits
  53              		.align	2
  54              		.code	16
ARM GAS  C:\Users\Admin\AppData\Local\Temp\ccP0iBuc.s 			page 3


  55              		.thumb_func
  56              		.type	CYCONFIGCPY, %function
  57              	CYCONFIGCPY:
  58              	.LFB1:
  61:.\Generated_Source\PSoC4/cyfitter_cfg.c **** CY_CFG_UNUSED
  62:.\Generated_Source\PSoC4/cyfitter_cfg.c **** static void CYCONFIGCPY(void *dest, const void *src, size_t n);
  63:.\Generated_Source\PSoC4/cyfitter_cfg.c **** CY_CFG_UNUSED
  64:.\Generated_Source\PSoC4/cyfitter_cfg.c **** static void CYCONFIGCPY(void *dest, const void *src, size_t n)
  65:.\Generated_Source\PSoC4/cyfitter_cfg.c **** {
  59              		.loc 1 65 0
  60              		.cfi_startproc
  61 0000 80B5     		push	{r7, lr}
  62              		.cfi_def_cfa_offset 8
  63              		.cfi_offset 7, -8
  64              		.cfi_offset 14, -4
  65 0002 84B0     		sub	sp, sp, #16
  66              		.cfi_def_cfa_offset 24
  67 0004 00AF     		add	r7, sp, #0
  68              		.cfi_def_cfa_register 7
  69 0006 F860     		str	r0, [r7, #12]
  70 0008 B960     		str	r1, [r7, #8]
  71 000a 7A60     		str	r2, [r7, #4]
  66:.\Generated_Source\PSoC4/cyfitter_cfg.c **** 	(void)memcpy(dest, src, n);
  72              		.loc 1 66 0
  73 000c F968     		ldr	r1, [r7, #12]
  74 000e BA68     		ldr	r2, [r7, #8]
  75 0010 7B68     		ldr	r3, [r7, #4]
  76 0012 081C     		mov	r0, r1
  77 0014 111C     		mov	r1, r2
  78 0016 1A1C     		mov	r2, r3
  79 0018 FFF7FEFF 		bl	memcpy
  67:.\Generated_Source\PSoC4/cyfitter_cfg.c **** }
  80              		.loc 1 67 0
  81 001c BD46     		mov	sp, r7
  82 001e 04B0     		add	sp, sp, #16
  83              		@ sp needed
  84 0020 80BD     		pop	{r7, pc}
  85              		.cfi_endproc
  86              	.LFE1:
  87              		.size	CYCONFIGCPY, .-CYCONFIGCPY
  88 0022 C046     		.section	.text.CYCONFIGCPYCODE,"ax",%progbits
  89              		.align	2
  90              		.code	16
  91              		.thumb_func
  92              		.type	CYCONFIGCPYCODE, %function
  93              	CYCONFIGCPYCODE:
  94              	.LFB2:
  68:.\Generated_Source\PSoC4/cyfitter_cfg.c **** CY_CFG_UNUSED
  69:.\Generated_Source\PSoC4/cyfitter_cfg.c **** static void CYCONFIGCPYCODE(void *dest, const void *src, size_t n);
  70:.\Generated_Source\PSoC4/cyfitter_cfg.c **** CY_CFG_UNUSED
  71:.\Generated_Source\PSoC4/cyfitter_cfg.c **** static void CYCONFIGCPYCODE(void *dest, const void *src, size_t n)
  72:.\Generated_Source\PSoC4/cyfitter_cfg.c **** {
  95              		.loc 1 72 0
  96              		.cfi_startproc
  97 0000 80B5     		push	{r7, lr}
  98              		.cfi_def_cfa_offset 8
  99              		.cfi_offset 7, -8
ARM GAS  C:\Users\Admin\AppData\Local\Temp\ccP0iBuc.s 			page 4


 100              		.cfi_offset 14, -4
 101 0002 84B0     		sub	sp, sp, #16
 102              		.cfi_def_cfa_offset 24
 103 0004 00AF     		add	r7, sp, #0
 104              		.cfi_def_cfa_register 7
 105 0006 F860     		str	r0, [r7, #12]
 106 0008 B960     		str	r1, [r7, #8]
 107 000a 7A60     		str	r2, [r7, #4]
  73:.\Generated_Source\PSoC4/cyfitter_cfg.c **** 	(void)memcpy(dest, src, n);
 108              		.loc 1 73 0
 109 000c F968     		ldr	r1, [r7, #12]
 110 000e BA68     		ldr	r2, [r7, #8]
 111 0010 7B68     		ldr	r3, [r7, #4]
 112 0012 081C     		mov	r0, r1
 113 0014 111C     		mov	r1, r2
 114 0016 1A1C     		mov	r2, r3
 115 0018 FFF7FEFF 		bl	memcpy
  74:.\Generated_Source\PSoC4/cyfitter_cfg.c **** }
 116              		.loc 1 74 0
 117 001c BD46     		mov	sp, r7
 118 001e 04B0     		add	sp, sp, #16
 119              		@ sp needed
 120 0020 80BD     		pop	{r7, pc}
 121              		.cfi_endproc
 122              	.LFE2:
 123              		.size	CYCONFIGCPYCODE, .-CYCONFIGCPYCODE
 124 0022 C046     		.section	.text.cfg_write_bytes32,"ax",%progbits
 125              		.align	2
 126              		.code	16
 127              		.thumb_func
 128              		.type	cfg_write_bytes32, %function
 129              	cfg_write_bytes32:
 130              	.LFB3:
  75:.\Generated_Source\PSoC4/cyfitter_cfg.c **** 
  76:.\Generated_Source\PSoC4/cyfitter_cfg.c **** 
  77:.\Generated_Source\PSoC4/cyfitter_cfg.c **** 
  78:.\Generated_Source\PSoC4/cyfitter_cfg.c **** /* Clock startup error codes                                                   */
  79:.\Generated_Source\PSoC4/cyfitter_cfg.c **** #define CYCLOCKSTART_NO_ERROR    0u
  80:.\Generated_Source\PSoC4/cyfitter_cfg.c **** #define CYCLOCKSTART_XTAL_ERROR  1u
  81:.\Generated_Source\PSoC4/cyfitter_cfg.c **** #define CYCLOCKSTART_32KHZ_ERROR 2u
  82:.\Generated_Source\PSoC4/cyfitter_cfg.c **** #define CYCLOCKSTART_PLL_ERROR   3u
  83:.\Generated_Source\PSoC4/cyfitter_cfg.c **** 
  84:.\Generated_Source\PSoC4/cyfitter_cfg.c **** #ifdef CY_NEED_CYCLOCKSTARTUPERROR
  85:.\Generated_Source\PSoC4/cyfitter_cfg.c **** /*******************************************************************************
  86:.\Generated_Source\PSoC4/cyfitter_cfg.c **** * Function Name: CyClockStartupError
  87:.\Generated_Source\PSoC4/cyfitter_cfg.c **** ********************************************************************************
  88:.\Generated_Source\PSoC4/cyfitter_cfg.c **** * Summary:
  89:.\Generated_Source\PSoC4/cyfitter_cfg.c **** *  If an error is encountered during clock configuration (crystal startup error,
  90:.\Generated_Source\PSoC4/cyfitter_cfg.c **** *  PLL lock error, etc.), the system will end up here.  Unless reimplemented by
  91:.\Generated_Source\PSoC4/cyfitter_cfg.c **** *  the customer, this function will stop in an infinite loop.
  92:.\Generated_Source\PSoC4/cyfitter_cfg.c **** *
  93:.\Generated_Source\PSoC4/cyfitter_cfg.c **** * Parameters:
  94:.\Generated_Source\PSoC4/cyfitter_cfg.c **** *   void
  95:.\Generated_Source\PSoC4/cyfitter_cfg.c **** *
  96:.\Generated_Source\PSoC4/cyfitter_cfg.c **** * Return:
  97:.\Generated_Source\PSoC4/cyfitter_cfg.c **** *   void
  98:.\Generated_Source\PSoC4/cyfitter_cfg.c **** *
ARM GAS  C:\Users\Admin\AppData\Local\Temp\ccP0iBuc.s 			page 5


  99:.\Generated_Source\PSoC4/cyfitter_cfg.c **** *******************************************************************************/
 100:.\Generated_Source\PSoC4/cyfitter_cfg.c **** CY_CFG_UNUSED
 101:.\Generated_Source\PSoC4/cyfitter_cfg.c **** static void CyClockStartupError(uint8 errorCode);
 102:.\Generated_Source\PSoC4/cyfitter_cfg.c **** CY_CFG_UNUSED
 103:.\Generated_Source\PSoC4/cyfitter_cfg.c **** static void CyClockStartupError(uint8 errorCode)
 104:.\Generated_Source\PSoC4/cyfitter_cfg.c **** {
 105:.\Generated_Source\PSoC4/cyfitter_cfg.c ****     /* To remove the compiler warning if errorCode not used.                */
 106:.\Generated_Source\PSoC4/cyfitter_cfg.c ****     errorCode = errorCode;
 107:.\Generated_Source\PSoC4/cyfitter_cfg.c **** 
 108:.\Generated_Source\PSoC4/cyfitter_cfg.c ****     /* `#START CyClockStartupError` */
 109:.\Generated_Source\PSoC4/cyfitter_cfg.c **** 
 110:.\Generated_Source\PSoC4/cyfitter_cfg.c ****     /* If we have a clock startup error (bad MHz crystal, PLL lock, etc.),  */
 111:.\Generated_Source\PSoC4/cyfitter_cfg.c ****     /* we will end up here to allow the customer to implement something to  */
 112:.\Generated_Source\PSoC4/cyfitter_cfg.c ****     /* deal with the clock condition.                                       */
 113:.\Generated_Source\PSoC4/cyfitter_cfg.c **** 
 114:.\Generated_Source\PSoC4/cyfitter_cfg.c ****     /* `#END` */
 115:.\Generated_Source\PSoC4/cyfitter_cfg.c **** 
 116:.\Generated_Source\PSoC4/cyfitter_cfg.c ****     /* If nothing else, stop here since the clocks have not started         */
 117:.\Generated_Source\PSoC4/cyfitter_cfg.c ****     /* correctly.                                                           */
 118:.\Generated_Source\PSoC4/cyfitter_cfg.c ****     while(1) {}
 119:.\Generated_Source\PSoC4/cyfitter_cfg.c **** }
 120:.\Generated_Source\PSoC4/cyfitter_cfg.c **** #endif
 121:.\Generated_Source\PSoC4/cyfitter_cfg.c **** 
 122:.\Generated_Source\PSoC4/cyfitter_cfg.c **** #define CY_CFG_BASE_ADDR_COUNT 10u
 123:.\Generated_Source\PSoC4/cyfitter_cfg.c **** CYPACKED typedef struct
 124:.\Generated_Source\PSoC4/cyfitter_cfg.c **** {
 125:.\Generated_Source\PSoC4/cyfitter_cfg.c **** 	uint8 offset;
 126:.\Generated_Source\PSoC4/cyfitter_cfg.c **** 	uint8 value;
 127:.\Generated_Source\PSoC4/cyfitter_cfg.c **** } CYPACKED_ATTR cy_cfg_addrvalue_t;
 128:.\Generated_Source\PSoC4/cyfitter_cfg.c **** 
 129:.\Generated_Source\PSoC4/cyfitter_cfg.c **** 
 130:.\Generated_Source\PSoC4/cyfitter_cfg.c **** 
 131:.\Generated_Source\PSoC4/cyfitter_cfg.c **** /*******************************************************************************
 132:.\Generated_Source\PSoC4/cyfitter_cfg.c **** * Function Name: cfg_write_bytes32
 133:.\Generated_Source\PSoC4/cyfitter_cfg.c **** ********************************************************************************
 134:.\Generated_Source\PSoC4/cyfitter_cfg.c **** * Summary:
 135:.\Generated_Source\PSoC4/cyfitter_cfg.c **** *  This function is used for setting up the chip configuration areas that
 136:.\Generated_Source\PSoC4/cyfitter_cfg.c **** *  contain relatively sparse data.
 137:.\Generated_Source\PSoC4/cyfitter_cfg.c **** *
 138:.\Generated_Source\PSoC4/cyfitter_cfg.c **** * Parameters:
 139:.\Generated_Source\PSoC4/cyfitter_cfg.c **** *   void
 140:.\Generated_Source\PSoC4/cyfitter_cfg.c **** *
 141:.\Generated_Source\PSoC4/cyfitter_cfg.c **** * Return:
 142:.\Generated_Source\PSoC4/cyfitter_cfg.c **** *   void
 143:.\Generated_Source\PSoC4/cyfitter_cfg.c **** *
 144:.\Generated_Source\PSoC4/cyfitter_cfg.c **** *******************************************************************************/
 145:.\Generated_Source\PSoC4/cyfitter_cfg.c **** static void cfg_write_bytes32(const uint32 addr_table[], const cy_cfg_addrvalue_t data_table[]);
 146:.\Generated_Source\PSoC4/cyfitter_cfg.c **** static void cfg_write_bytes32(const uint32 addr_table[], const cy_cfg_addrvalue_t data_table[])
 147:.\Generated_Source\PSoC4/cyfitter_cfg.c **** {
 131              		.loc 1 147 0
 132              		.cfi_startproc
 133 0000 80B5     		push	{r7, lr}
 134              		.cfi_def_cfa_offset 8
 135              		.cfi_offset 7, -8
 136              		.cfi_offset 14, -4
 137 0002 86B0     		sub	sp, sp, #24
 138              		.cfi_def_cfa_offset 32
ARM GAS  C:\Users\Admin\AppData\Local\Temp\ccP0iBuc.s 			page 6


 139 0004 00AF     		add	r7, sp, #0
 140              		.cfi_def_cfa_register 7
 141 0006 7860     		str	r0, [r7, #4]
 142 0008 3960     		str	r1, [r7]
 148:.\Generated_Source\PSoC4/cyfitter_cfg.c **** 	/* For 32-bit little-endian architectures */
 149:.\Generated_Source\PSoC4/cyfitter_cfg.c **** 	uint32 i, j = 0u;
 143              		.loc 1 149 0
 144 000a 0023     		mov	r3, #0
 145 000c 3B61     		str	r3, [r7, #16]
 150:.\Generated_Source\PSoC4/cyfitter_cfg.c **** 	for (i = 0u; i < CY_CFG_BASE_ADDR_COUNT; i++)
 146              		.loc 1 150 0
 147 000e 0023     		mov	r3, #0
 148 0010 7B61     		str	r3, [r7, #20]
 149 0012 2EE0     		b	.L5
 150              	.L8:
 151              	.LBB2:
 151:.\Generated_Source\PSoC4/cyfitter_cfg.c **** 	{
 152:.\Generated_Source\PSoC4/cyfitter_cfg.c **** 		uint32 baseAddr = addr_table[i];
 152              		.loc 1 152 0
 153 0014 7B69     		ldr	r3, [r7, #20]
 154 0016 9B00     		lsl	r3, r3, #2
 155 0018 7A68     		ldr	r2, [r7, #4]
 156 001a D318     		add	r3, r2, r3
 157 001c 1B68     		ldr	r3, [r3]
 158 001e BB60     		str	r3, [r7, #8]
 153:.\Generated_Source\PSoC4/cyfitter_cfg.c **** 		uint8 count = (uint8)baseAddr;
 159              		.loc 1 153 0
 160 0020 3B1C     		mov	r3, r7
 161 0022 0F33     		add	r3, r3, #15
 162 0024 BA68     		ldr	r2, [r7, #8]
 163 0026 1A70     		strb	r2, [r3]
 154:.\Generated_Source\PSoC4/cyfitter_cfg.c **** 		baseAddr &= 0xFFFFFF00u;
 164              		.loc 1 154 0
 165 0028 BB68     		ldr	r3, [r7, #8]
 166 002a FF22     		mov	r2, #255
 167 002c 9343     		bic	r3, r2
 168 002e BB60     		str	r3, [r7, #8]
 155:.\Generated_Source\PSoC4/cyfitter_cfg.c **** 		while (count != 0u)
 169              		.loc 1 155 0
 170 0030 17E0     		b	.L6
 171              	.L7:
 156:.\Generated_Source\PSoC4/cyfitter_cfg.c **** 		{
 157:.\Generated_Source\PSoC4/cyfitter_cfg.c **** 			CY_SET_XTND_REG8((void CYFAR *)(baseAddr + data_table[j].offset), data_table[j].value);
 172              		.loc 1 157 0
 173 0032 3B69     		ldr	r3, [r7, #16]
 174 0034 5B00     		lsl	r3, r3, #1
 175 0036 3A68     		ldr	r2, [r7]
 176 0038 D318     		add	r3, r2, r3
 177 003a 1B78     		ldrb	r3, [r3]
 178 003c 1A1C     		mov	r2, r3
 179 003e BB68     		ldr	r3, [r7, #8]
 180 0040 D318     		add	r3, r2, r3
 181 0042 3A69     		ldr	r2, [r7, #16]
 182 0044 5200     		lsl	r2, r2, #1
 183 0046 3968     		ldr	r1, [r7]
 184 0048 8A18     		add	r2, r1, r2
 185 004a 5278     		ldrb	r2, [r2, #1]
ARM GAS  C:\Users\Admin\AppData\Local\Temp\ccP0iBuc.s 			page 7


 186 004c 1A70     		strb	r2, [r3]
 158:.\Generated_Source\PSoC4/cyfitter_cfg.c **** 			j++;
 187              		.loc 1 158 0
 188 004e 3B69     		ldr	r3, [r7, #16]
 189 0050 0133     		add	r3, r3, #1
 190 0052 3B61     		str	r3, [r7, #16]
 159:.\Generated_Source\PSoC4/cyfitter_cfg.c **** 			count--;
 191              		.loc 1 159 0
 192 0054 3B1C     		mov	r3, r7
 193 0056 0F33     		add	r3, r3, #15
 194 0058 1A78     		ldrb	r2, [r3]
 195 005a 3B1C     		mov	r3, r7
 196 005c 0F33     		add	r3, r3, #15
 197 005e 013A     		sub	r2, r2, #1
 198 0060 1A70     		strb	r2, [r3]
 199              	.L6:
 155:.\Generated_Source\PSoC4/cyfitter_cfg.c **** 		while (count != 0u)
 200              		.loc 1 155 0 discriminator 1
 201 0062 3B1C     		mov	r3, r7
 202 0064 0F33     		add	r3, r3, #15
 203 0066 1B78     		ldrb	r3, [r3]
 204 0068 002B     		cmp	r3, #0
 205 006a E2D1     		bne	.L7
 206              	.LBE2:
 150:.\Generated_Source\PSoC4/cyfitter_cfg.c **** 	for (i = 0u; i < CY_CFG_BASE_ADDR_COUNT; i++)
 207              		.loc 1 150 0
 208 006c 7B69     		ldr	r3, [r7, #20]
 209 006e 0133     		add	r3, r3, #1
 210 0070 7B61     		str	r3, [r7, #20]
 211              	.L5:
 150:.\Generated_Source\PSoC4/cyfitter_cfg.c **** 	for (i = 0u; i < CY_CFG_BASE_ADDR_COUNT; i++)
 212              		.loc 1 150 0 is_stmt 0 discriminator 1
 213 0072 7B69     		ldr	r3, [r7, #20]
 214 0074 092B     		cmp	r3, #9
 215 0076 CDD9     		bls	.L8
 160:.\Generated_Source\PSoC4/cyfitter_cfg.c **** 		}
 161:.\Generated_Source\PSoC4/cyfitter_cfg.c **** 	}
 162:.\Generated_Source\PSoC4/cyfitter_cfg.c **** }
 216              		.loc 1 162 0 is_stmt 1
 217 0078 BD46     		mov	sp, r7
 218 007a 06B0     		add	sp, sp, #24
 219              		@ sp needed
 220 007c 80BD     		pop	{r7, pc}
 221              		.cfi_endproc
 222              	.LFE3:
 223              		.size	cfg_write_bytes32, .-cfg_write_bytes32
 224 007e C046     		.section	.psocinit,"ax",%progbits
 225              		.align	2
 226              		.code	16
 227              		.thumb_func
 228              		.type	SetIMOBGTrims, %function
 229              	SetIMOBGTrims:
 230              	.LFB4:
 163:.\Generated_Source\PSoC4/cyfitter_cfg.c **** 
 164:.\Generated_Source\PSoC4/cyfitter_cfg.c **** /*******************************************************************************
 165:.\Generated_Source\PSoC4/cyfitter_cfg.c **** * Function Name: SetIMOBGTrims
 166:.\Generated_Source\PSoC4/cyfitter_cfg.c **** ********************************************************************************
ARM GAS  C:\Users\Admin\AppData\Local\Temp\ccP0iBuc.s 			page 8


 167:.\Generated_Source\PSoC4/cyfitter_cfg.c **** *
 168:.\Generated_Source\PSoC4/cyfitter_cfg.c **** * Summary:
 169:.\Generated_Source\PSoC4/cyfitter_cfg.c **** *   Performs the configuration of the bandgap trim for the IMO based on the given
 170:.\Generated_Source\PSoC4/cyfitter_cfg.c **** *   expected frequency of the IMO. 
 171:.\Generated_Source\PSoC4/cyfitter_cfg.c **** *
 172:.\Generated_Source\PSoC4/cyfitter_cfg.c **** * Parameters:
 173:.\Generated_Source\PSoC4/cyfitter_cfg.c **** *   imoFreq: Frequency for operation of the IMO.
 174:.\Generated_Source\PSoC4/cyfitter_cfg.c **** *
 175:.\Generated_Source\PSoC4/cyfitter_cfg.c **** * Return:
 176:.\Generated_Source\PSoC4/cyfitter_cfg.c **** *   void
 177:.\Generated_Source\PSoC4/cyfitter_cfg.c **** *
 178:.\Generated_Source\PSoC4/cyfitter_cfg.c **** *******************************************************************************/
 179:.\Generated_Source\PSoC4/cyfitter_cfg.c **** static void SetIMOBGTrims(uint8 imoFreq);
 180:.\Generated_Source\PSoC4/cyfitter_cfg.c **** CY_CFG_SECTION
 181:.\Generated_Source\PSoC4/cyfitter_cfg.c **** static void SetIMOBGTrims(uint8 imoFreq)
 182:.\Generated_Source\PSoC4/cyfitter_cfg.c **** {
 231              		.loc 1 182 0
 232              		.cfi_startproc
 233 0000 80B5     		push	{r7, lr}
 234              		.cfi_def_cfa_offset 8
 235              		.cfi_offset 7, -8
 236              		.cfi_offset 14, -4
 237 0002 84B0     		sub	sp, sp, #16
 238              		.cfi_def_cfa_offset 24
 239 0004 00AF     		add	r7, sp, #0
 240              		.cfi_def_cfa_register 7
 241 0006 021C     		mov	r2, r0
 242 0008 FB1D     		add	r3, r7, #7
 243 000a 1A70     		strb	r2, [r3]
 183:.\Generated_Source\PSoC4/cyfitter_cfg.c **** 	CYPACKED typedef struct {
 184:.\Generated_Source\PSoC4/cyfitter_cfg.c **** 		uint8 freq;
 185:.\Generated_Source\PSoC4/cyfitter_cfg.c **** 		uint8 absolute;
 186:.\Generated_Source\PSoC4/cyfitter_cfg.c **** 		uint8 tmpco;
 187:.\Generated_Source\PSoC4/cyfitter_cfg.c **** 	} CYPACKED_ATTR imo_trim_entry_t;
 188:.\Generated_Source\PSoC4/cyfitter_cfg.c **** 
 189:.\Generated_Source\PSoC4/cyfitter_cfg.c **** 	CYPACKED typedef struct {
 190:.\Generated_Source\PSoC4/cyfitter_cfg.c **** 		imo_trim_entry_t entries[4];
 191:.\Generated_Source\PSoC4/cyfitter_cfg.c **** 	} CYPACKED_ATTR imo_trim_table_t;
 192:.\Generated_Source\PSoC4/cyfitter_cfg.c **** 
 193:.\Generated_Source\PSoC4/cyfitter_cfg.c **** 	static const imo_trim_table_t *imo_trim_table = (const imo_trim_table_t *)CYREG_SFLASH_IMO_MAXF0;
 194:.\Generated_Source\PSoC4/cyfitter_cfg.c **** 	static const uint32 IMO_TRIM_FREQ_TABLE_ENTRIES = sizeof(imo_trim_table->entries)/sizeof(imo_trim_
 195:.\Generated_Source\PSoC4/cyfitter_cfg.c **** 
 196:.\Generated_Source\PSoC4/cyfitter_cfg.c **** 	int32 imoTrimIndex;
 197:.\Generated_Source\PSoC4/cyfitter_cfg.c **** 	uint8 setAbs;
 198:.\Generated_Source\PSoC4/cyfitter_cfg.c **** 	uint8 setTmpCo;
 199:.\Generated_Source\PSoC4/cyfitter_cfg.c **** 
 200:.\Generated_Source\PSoC4/cyfitter_cfg.c **** 	/* Traverse the SFLASH IMO frequency-dependent bandgap trim table to
 201:.\Generated_Source\PSoC4/cyfitter_cfg.c **** 	 * locate the appropriate value to trim the IMO bandgap based on freq. */
 202:.\Generated_Source\PSoC4/cyfitter_cfg.c **** 	setAbs = CY_GET_REG8((const void *)CYREG_SFLASH_IMO_ABS4);
 244              		.loc 1 202 0
 245 000c 204A     		ldr	r2, .L13
 246 000e 3B1C     		mov	r3, r7
 247 0010 0B33     		add	r3, r3, #11
 248 0012 1278     		ldrb	r2, [r2]
 249 0014 1A70     		strb	r2, [r3]
 203:.\Generated_Source\PSoC4/cyfitter_cfg.c **** 	setTmpCo = CY_GET_REG8((const void *)CYREG_SFLASH_IMO_TMPCO4);
 250              		.loc 1 203 0
ARM GAS  C:\Users\Admin\AppData\Local\Temp\ccP0iBuc.s 			page 9


 251 0016 1F4A     		ldr	r2, .L13+4
 252 0018 3B1C     		mov	r3, r7
 253 001a 0A33     		add	r3, r3, #10
 254 001c 1278     		ldrb	r2, [r2]
 255 001e 1A70     		strb	r2, [r3]
 204:.\Generated_Source\PSoC4/cyfitter_cfg.c **** 	for (imoTrimIndex = ((int32)IMO_TRIM_FREQ_TABLE_ENTRIES)-1;
 256              		.loc 1 204 0
 257 0020 0423     		mov	r3, #4
 258 0022 013B     		sub	r3, r3, #1
 259 0024 FB60     		str	r3, [r7, #12]
 260 0026 18E0     		b	.L10
 261              	.L12:
 205:.\Generated_Source\PSoC4/cyfitter_cfg.c **** 	     (imoTrimIndex >= 0) && (imoFreq <= imo_trim_table->entries[imoTrimIndex].freq);
 206:.\Generated_Source\PSoC4/cyfitter_cfg.c **** 	     imoTrimIndex--)
 207:.\Generated_Source\PSoC4/cyfitter_cfg.c **** 	{
 208:.\Generated_Source\PSoC4/cyfitter_cfg.c **** 		setAbs = imo_trim_table->entries[imoTrimIndex].absolute;
 262              		.loc 1 208 0
 263 0028 1B4B     		ldr	r3, .L13+8
 264 002a 1868     		ldr	r0, [r3]
 265 002c 391C     		mov	r1, r7
 266 002e 0B31     		add	r1, r1, #11
 267 0030 FA68     		ldr	r2, [r7, #12]
 268 0032 131C     		mov	r3, r2
 269 0034 5B00     		lsl	r3, r3, #1
 270 0036 9B18     		add	r3, r3, r2
 271 0038 C318     		add	r3, r0, r3
 272 003a 5B78     		ldrb	r3, [r3, #1]
 273 003c 0B70     		strb	r3, [r1]
 209:.\Generated_Source\PSoC4/cyfitter_cfg.c **** 		setTmpCo = imo_trim_table->entries[imoTrimIndex].tmpco;
 274              		.loc 1 209 0
 275 003e 164B     		ldr	r3, .L13+8
 276 0040 1868     		ldr	r0, [r3]
 277 0042 391C     		mov	r1, r7
 278 0044 0A31     		add	r1, r1, #10
 279 0046 FA68     		ldr	r2, [r7, #12]
 280 0048 131C     		mov	r3, r2
 281 004a 5B00     		lsl	r3, r3, #1
 282 004c 9B18     		add	r3, r3, r2
 283 004e C318     		add	r3, r0, r3
 284 0050 9B78     		ldrb	r3, [r3, #2]
 285 0052 0B70     		strb	r3, [r1]
 206:.\Generated_Source\PSoC4/cyfitter_cfg.c **** 	     imoTrimIndex--)
 286              		.loc 1 206 0
 287 0054 FB68     		ldr	r3, [r7, #12]
 288 0056 013B     		sub	r3, r3, #1
 289 0058 FB60     		str	r3, [r7, #12]
 290              	.L10:
 204:.\Generated_Source\PSoC4/cyfitter_cfg.c **** 	for (imoTrimIndex = ((int32)IMO_TRIM_FREQ_TABLE_ENTRIES)-1;
 291              		.loc 1 204 0 discriminator 1
 292 005a FB68     		ldr	r3, [r7, #12]
 293 005c 002B     		cmp	r3, #0
 294 005e 0ADB     		blt	.L11
 205:.\Generated_Source\PSoC4/cyfitter_cfg.c **** 	     (imoTrimIndex >= 0) && (imoFreq <= imo_trim_table->entries[imoTrimIndex].freq);
 295              		.loc 1 205 0
 296 0060 0D4B     		ldr	r3, .L13+8
 297 0062 1968     		ldr	r1, [r3]
 298 0064 FA68     		ldr	r2, [r7, #12]
ARM GAS  C:\Users\Admin\AppData\Local\Temp\ccP0iBuc.s 			page 10


 299 0066 131C     		mov	r3, r2
 300 0068 5B00     		lsl	r3, r3, #1
 301 006a 9B18     		add	r3, r3, r2
 302 006c 5B5C     		ldrb	r3, [r3, r1]
 303 006e FA1D     		add	r2, r7, #7
 304 0070 1278     		ldrb	r2, [r2]
 305 0072 9A42     		cmp	r2, r3
 306 0074 D8D9     		bls	.L12
 307              	.L11:
 210:.\Generated_Source\PSoC4/cyfitter_cfg.c **** 	}
 211:.\Generated_Source\PSoC4/cyfitter_cfg.c **** 
 212:.\Generated_Source\PSoC4/cyfitter_cfg.c **** 	CY_SET_REG32((void *)CYREG_PWR_BG_TRIM4, setAbs);
 308              		.loc 1 212 0
 309 0076 094B     		ldr	r3, .L13+12
 310 0078 3A1C     		mov	r2, r7
 311 007a 0B32     		add	r2, r2, #11
 312 007c 1278     		ldrb	r2, [r2]
 313 007e 1A60     		str	r2, [r3]
 213:.\Generated_Source\PSoC4/cyfitter_cfg.c **** 	CY_SET_REG32((void *)CYREG_PWR_BG_TRIM5, setTmpCo);
 314              		.loc 1 213 0
 315 0080 074B     		ldr	r3, .L13+16
 316 0082 3A1C     		mov	r2, r7
 317 0084 0A32     		add	r2, r2, #10
 318 0086 1278     		ldrb	r2, [r2]
 319 0088 1A60     		str	r2, [r3]
 214:.\Generated_Source\PSoC4/cyfitter_cfg.c **** }
 320              		.loc 1 214 0
 321 008a BD46     		mov	sp, r7
 322 008c 04B0     		add	sp, sp, #16
 323              		@ sp needed
 324 008e 80BD     		pop	{r7, pc}
 325              	.L14:
 326              		.align	2
 327              	.L13:
 328 0090 CCF1FF0F 		.word	268431820
 329 0094 CDF1FF0F 		.word	268431821
 330 0098 00000000 		.word	imo_trim_table.4708
 331 009c 1CFF0B40 		.word	1074528028
 332 00a0 20FF0B40 		.word	1074528032
 333              		.cfi_endproc
 334              	.LFE4:
 335              		.size	SetIMOBGTrims, .-SetIMOBGTrims
 336              		.align	2
 337              		.code	16
 338              		.thumb_func
 339              		.type	ClockSetup, %function
 340              	ClockSetup:
 341              	.LFB5:
 215:.\Generated_Source\PSoC4/cyfitter_cfg.c **** 
 216:.\Generated_Source\PSoC4/cyfitter_cfg.c **** 
 217:.\Generated_Source\PSoC4/cyfitter_cfg.c **** 
 218:.\Generated_Source\PSoC4/cyfitter_cfg.c **** /*******************************************************************************
 219:.\Generated_Source\PSoC4/cyfitter_cfg.c **** * Function Name: ClockSetup
 220:.\Generated_Source\PSoC4/cyfitter_cfg.c **** ********************************************************************************
 221:.\Generated_Source\PSoC4/cyfitter_cfg.c **** *
 222:.\Generated_Source\PSoC4/cyfitter_cfg.c **** * Summary:
 223:.\Generated_Source\PSoC4/cyfitter_cfg.c **** *   Performs the initialization of all of the clocks in the device based on the
ARM GAS  C:\Users\Admin\AppData\Local\Temp\ccP0iBuc.s 			page 11


 224:.\Generated_Source\PSoC4/cyfitter_cfg.c **** *   settings in the Clock tab of the DWR.  This includes enabling the requested
 225:.\Generated_Source\PSoC4/cyfitter_cfg.c **** *   clocks and setting the necessary dividers to produce the desired frequency. 
 226:.\Generated_Source\PSoC4/cyfitter_cfg.c **** *
 227:.\Generated_Source\PSoC4/cyfitter_cfg.c **** * Parameters:
 228:.\Generated_Source\PSoC4/cyfitter_cfg.c **** *   void
 229:.\Generated_Source\PSoC4/cyfitter_cfg.c **** *
 230:.\Generated_Source\PSoC4/cyfitter_cfg.c **** * Return:
 231:.\Generated_Source\PSoC4/cyfitter_cfg.c **** *   void
 232:.\Generated_Source\PSoC4/cyfitter_cfg.c **** *
 233:.\Generated_Source\PSoC4/cyfitter_cfg.c **** *******************************************************************************/
 234:.\Generated_Source\PSoC4/cyfitter_cfg.c **** static void ClockSetup(void);
 235:.\Generated_Source\PSoC4/cyfitter_cfg.c **** CY_CFG_SECTION
 236:.\Generated_Source\PSoC4/cyfitter_cfg.c **** static void ClockSetup(void)
 237:.\Generated_Source\PSoC4/cyfitter_cfg.c **** {
 342              		.loc 1 237 0
 343              		.cfi_startproc
 344 00a4 80B5     		push	{r7, lr}
 345              		.cfi_def_cfa_offset 8
 346              		.cfi_offset 7, -8
 347              		.cfi_offset 14, -4
 348 00a6 00AF     		add	r7, sp, #0
 349              		.cfi_def_cfa_register 7
 238:.\Generated_Source\PSoC4/cyfitter_cfg.c **** 	/* Enable HALF_EN before trimming for the flash accelerator. */
 239:.\Generated_Source\PSoC4/cyfitter_cfg.c **** 	CY_SET_REG32((void CYXDATA *)(CYREG_CLK_SELECT), (CY_GET_REG32((void *)CYREG_CLK_SELECT) | 0x00040
 350              		.loc 1 239 0
 351 00a8 164B     		ldr	r3, .L16
 352 00aa 164A     		ldr	r2, .L16
 353 00ac 1268     		ldr	r2, [r2]
 354 00ae 8021     		mov	r1, #128
 355 00b0 C902     		lsl	r1, r1, #11
 356 00b2 0A43     		orr	r2, r1
 357 00b4 1A60     		str	r2, [r3]
 240:.\Generated_Source\PSoC4/cyfitter_cfg.c **** 
 241:.\Generated_Source\PSoC4/cyfitter_cfg.c **** 	/* Trim IMO BG based on desired frequency. */
 242:.\Generated_Source\PSoC4/cyfitter_cfg.c **** 	SetIMOBGTrims(24u);
 358              		.loc 1 242 0
 359 00b6 1820     		mov	r0, #24
 360 00b8 FFF7A2FF 		bl	SetIMOBGTrims
 243:.\Generated_Source\PSoC4/cyfitter_cfg.c **** 
 244:.\Generated_Source\PSoC4/cyfitter_cfg.c **** 	/* Going less than or equal to 24MHz, so update the clock speed then adjust trim value. */
 245:.\Generated_Source\PSoC4/cyfitter_cfg.c **** 	CY_SET_REG32((void CYXDATA *)(CYREG_CLK_IMO_TRIM2), (25u));
 361              		.loc 1 245 0
 362 00bc 124B     		ldr	r3, .L16+4
 363 00be 1922     		mov	r2, #25
 364 00c0 1A60     		str	r2, [r3]
 246:.\Generated_Source\PSoC4/cyfitter_cfg.c **** 	CyDelayCycles(5u);
 365              		.loc 1 246 0
 366 00c2 0520     		mov	r0, #5
 367 00c4 FFF7FEFF 		bl	CyDelayCycles
 247:.\Generated_Source\PSoC4/cyfitter_cfg.c **** 	CY_SET_REG32((void CYXDATA *)(CYREG_CLK_IMO_TRIM1), (CY_GET_REG8((void *)CYREG_SFLASH_IMO_TRIM21))
 368              		.loc 1 247 0
 369 00c8 104B     		ldr	r3, .L16+8
 370 00ca 114A     		ldr	r2, .L16+12
 371 00cc 1278     		ldrb	r2, [r2]
 372 00ce D2B2     		uxtb	r2, r2
 373 00d0 1A60     		str	r2, [r3]
 248:.\Generated_Source\PSoC4/cyfitter_cfg.c **** 	CyDelayUs(5u);
ARM GAS  C:\Users\Admin\AppData\Local\Temp\ccP0iBuc.s 			page 12


 374              		.loc 1 248 0
 375 00d2 0520     		mov	r0, #5
 376 00d4 FFF7FEFF 		bl	CyDelayUs
 249:.\Generated_Source\PSoC4/cyfitter_cfg.c **** 
 250:.\Generated_Source\PSoC4/cyfitter_cfg.c **** 	/* Disable HALF_EN since it is not required at this IMO frequency. */
 251:.\Generated_Source\PSoC4/cyfitter_cfg.c **** 	CY_SET_REG32((void CYXDATA *)(CYREG_CLK_SELECT), (CY_GET_REG32((void *)CYREG_CLK_SELECT) & 0xFFFBF
 377              		.loc 1 251 0
 378 00d8 0A4B     		ldr	r3, .L16
 379 00da 0A4A     		ldr	r2, .L16
 380 00dc 1168     		ldr	r1, [r2]
 381 00de 0D4A     		ldr	r2, .L16+16
 382 00e0 0A40     		and	r2, r1
 383 00e2 1A60     		str	r2, [r3]
 252:.\Generated_Source\PSoC4/cyfitter_cfg.c **** 	/* CYDEV_CLK_ILO_CONFIG Starting address: CYDEV_CLK_ILO_CONFIG */
 253:.\Generated_Source\PSoC4/cyfitter_cfg.c **** 	CY_SET_XTND_REG32((void CYFAR *)(CYREG_CLK_ILO_CONFIG), 0x80000006u);
 384              		.loc 1 253 0
 385 00e4 0C4B     		ldr	r3, .L16+20
 386 00e6 0D4A     		ldr	r2, .L16+24
 387 00e8 1A60     		str	r2, [r3]
 254:.\Generated_Source\PSoC4/cyfitter_cfg.c **** 
 255:.\Generated_Source\PSoC4/cyfitter_cfg.c **** 
 256:.\Generated_Source\PSoC4/cyfitter_cfg.c **** 	/* CYDEV_CLK_SELECT00 Starting address: CYDEV_CLK_SELECT00 */
 257:.\Generated_Source\PSoC4/cyfitter_cfg.c **** 	CY_SET_XTND_REG32((void CYFAR *)(CYREG_CLK_SELECT12), 0x00000010u);
 388              		.loc 1 257 0
 389 00ea 0D4B     		ldr	r3, .L16+28
 390 00ec 1022     		mov	r2, #16
 391 00ee 1A60     		str	r2, [r3]
 258:.\Generated_Source\PSoC4/cyfitter_cfg.c **** 
 259:.\Generated_Source\PSoC4/cyfitter_cfg.c **** 	/* CYDEV_CLK_IMO_CONFIG Starting address: CYDEV_CLK_IMO_CONFIG */
 260:.\Generated_Source\PSoC4/cyfitter_cfg.c **** 	CY_SET_XTND_REG32((void CYFAR *)(CYREG_CLK_IMO_CONFIG), 0x80000000u);
 392              		.loc 1 260 0
 393 00f0 0C4B     		ldr	r3, .L16+32
 394 00f2 8022     		mov	r2, #128
 395 00f4 1206     		lsl	r2, r2, #24
 396 00f6 1A60     		str	r2, [r3]
 261:.\Generated_Source\PSoC4/cyfitter_cfg.c **** 
 262:.\Generated_Source\PSoC4/cyfitter_cfg.c **** 	/* CYDEV_CLK_DIVIDER_A00 Starting address: CYDEV_CLK_DIVIDER_A00 */
 263:.\Generated_Source\PSoC4/cyfitter_cfg.c **** 	CY_SET_XTND_REG32((void CYFAR *)(CYREG_CLK_DIVIDER_A00), 0x8000176Fu);
 397              		.loc 1 263 0
 398 00f8 0B4B     		ldr	r3, .L16+36
 399 00fa 0C4A     		ldr	r2, .L16+40
 400 00fc 1A60     		str	r2, [r3]
 264:.\Generated_Source\PSoC4/cyfitter_cfg.c **** 
 265:.\Generated_Source\PSoC4/cyfitter_cfg.c **** }
 401              		.loc 1 265 0
 402 00fe BD46     		mov	sp, r7
 403              		@ sp needed
 404 0100 80BD     		pop	{r7, pc}
 405              	.L17:
 406 0102 C046     		.align	2
 407              	.L16:
 408 0104 00010B40 		.word	1074462976
 409 0108 2CFF0B40 		.word	1074528044
 410 010c 28FF0B40 		.word	1074528040
 411 0110 E5F1FF0F 		.word	268431845
 412 0114 FFFFFBFF 		.word	-262145
 413 0118 04010B40 		.word	1074462980
ARM GAS  C:\Users\Admin\AppData\Local\Temp\ccP0iBuc.s 			page 13


 414 011c 06000080 		.word	-2147483642
 415 0120 30020240 		.word	1073873456
 416 0124 08010B40 		.word	1074462984
 417 0128 00000240 		.word	1073872896
 418 012c 6F170080 		.word	-2147477649
 419              		.cfi_endproc
 420              	.LFE5:
 421              		.size	ClockSetup, .-ClockSetup
 422              		.section	.text.AnalogSetDefault,"ax",%progbits
 423              		.align	2
 424              		.code	16
 425              		.thumb_func
 426              		.type	AnalogSetDefault, %function
 427              	AnalogSetDefault:
 428              	.LFB6:
 266:.\Generated_Source\PSoC4/cyfitter_cfg.c **** 
 267:.\Generated_Source\PSoC4/cyfitter_cfg.c **** 
 268:.\Generated_Source\PSoC4/cyfitter_cfg.c **** /* Analog API Functions */
 269:.\Generated_Source\PSoC4/cyfitter_cfg.c **** 
 270:.\Generated_Source\PSoC4/cyfitter_cfg.c **** 
 271:.\Generated_Source\PSoC4/cyfitter_cfg.c **** /*******************************************************************************
 272:.\Generated_Source\PSoC4/cyfitter_cfg.c **** * Function Name: AnalogSetDefault
 273:.\Generated_Source\PSoC4/cyfitter_cfg.c **** ********************************************************************************
 274:.\Generated_Source\PSoC4/cyfitter_cfg.c **** *
 275:.\Generated_Source\PSoC4/cyfitter_cfg.c **** * Summary:
 276:.\Generated_Source\PSoC4/cyfitter_cfg.c **** *  Sets up the analog portions of the chip to default values based on chip
 277:.\Generated_Source\PSoC4/cyfitter_cfg.c **** *  configuration options from the project.
 278:.\Generated_Source\PSoC4/cyfitter_cfg.c **** *
 279:.\Generated_Source\PSoC4/cyfitter_cfg.c **** * Parameters:
 280:.\Generated_Source\PSoC4/cyfitter_cfg.c **** *  void
 281:.\Generated_Source\PSoC4/cyfitter_cfg.c **** *
 282:.\Generated_Source\PSoC4/cyfitter_cfg.c **** * Return:
 283:.\Generated_Source\PSoC4/cyfitter_cfg.c **** *  void
 284:.\Generated_Source\PSoC4/cyfitter_cfg.c **** *
 285:.\Generated_Source\PSoC4/cyfitter_cfg.c **** *******************************************************************************/
 286:.\Generated_Source\PSoC4/cyfitter_cfg.c **** static void AnalogSetDefault(void);
 287:.\Generated_Source\PSoC4/cyfitter_cfg.c **** static void AnalogSetDefault(void)
 288:.\Generated_Source\PSoC4/cyfitter_cfg.c **** {
 429              		.loc 1 288 0
 430              		.cfi_startproc
 431 0000 80B5     		push	{r7, lr}
 432              		.cfi_def_cfa_offset 8
 433              		.cfi_offset 7, -8
 434              		.cfi_offset 14, -4
 435 0002 00AF     		add	r7, sp, #0
 436              		.cfi_def_cfa_register 7
 289:.\Generated_Source\PSoC4/cyfitter_cfg.c **** }
 437              		.loc 1 289 0
 438 0004 BD46     		mov	sp, r7
 439              		@ sp needed
 440 0006 80BD     		pop	{r7, pc}
 441              		.cfi_endproc
 442              	.LFE6:
 443              		.size	AnalogSetDefault, .-AnalogSetDefault
 444              		.section	.psocinit
 445              		.align	2
 446              		.global	cyfitter_cfg
ARM GAS  C:\Users\Admin\AppData\Local\Temp\ccP0iBuc.s 			page 14


 447              		.code	16
 448              		.thumb_func
 449              		.type	cyfitter_cfg, %function
 450              	cyfitter_cfg:
 451              	.LFB7:
 290:.\Generated_Source\PSoC4/cyfitter_cfg.c **** 
 291:.\Generated_Source\PSoC4/cyfitter_cfg.c **** #define CY_AMUX_UNUSED CYREG_CM0_ROM_DWT
 292:.\Generated_Source\PSoC4/cyfitter_cfg.c **** 
 293:.\Generated_Source\PSoC4/cyfitter_cfg.c **** 
 294:.\Generated_Source\PSoC4/cyfitter_cfg.c **** /*******************************************************************************
 295:.\Generated_Source\PSoC4/cyfitter_cfg.c **** * Function Name: cyfitter_cfg
 296:.\Generated_Source\PSoC4/cyfitter_cfg.c **** ********************************************************************************
 297:.\Generated_Source\PSoC4/cyfitter_cfg.c **** * Summary:
 298:.\Generated_Source\PSoC4/cyfitter_cfg.c **** *  This function is called by the start-up code for the selected device. It
 299:.\Generated_Source\PSoC4/cyfitter_cfg.c **** *  performs all of the necessary device configuration based on the design
 300:.\Generated_Source\PSoC4/cyfitter_cfg.c **** *  settings.  This includes settings from the Design Wide Resources (DWR) such
 301:.\Generated_Source\PSoC4/cyfitter_cfg.c **** *  as Clocks and Pins as well as any component configuration that is necessary.
 302:.\Generated_Source\PSoC4/cyfitter_cfg.c **** *
 303:.\Generated_Source\PSoC4/cyfitter_cfg.c **** * Parameters:  
 304:.\Generated_Source\PSoC4/cyfitter_cfg.c **** *   void
 305:.\Generated_Source\PSoC4/cyfitter_cfg.c **** *
 306:.\Generated_Source\PSoC4/cyfitter_cfg.c **** * Return:
 307:.\Generated_Source\PSoC4/cyfitter_cfg.c **** *   void
 308:.\Generated_Source\PSoC4/cyfitter_cfg.c **** *
 309:.\Generated_Source\PSoC4/cyfitter_cfg.c **** *******************************************************************************/
 310:.\Generated_Source\PSoC4/cyfitter_cfg.c **** CY_CFG_SECTION
 311:.\Generated_Source\PSoC4/cyfitter_cfg.c **** void cyfitter_cfg(void)
 312:.\Generated_Source\PSoC4/cyfitter_cfg.c **** {
 452              		.loc 1 312 0
 453              		.cfi_startproc
 454 0130 80B5     		push	{r7, lr}
 455              		.cfi_def_cfa_offset 8
 456              		.cfi_offset 7, -8
 457              		.cfi_offset 14, -4
 458 0132 82B0     		sub	sp, sp, #8
 459              		.cfi_def_cfa_offset 16
 460 0134 00AF     		add	r7, sp, #0
 461              		.cfi_def_cfa_register 7
 313:.\Generated_Source\PSoC4/cyfitter_cfg.c **** 	/* Disable interrupts by default. Let user enable if/when they want. */
 314:.\Generated_Source\PSoC4/cyfitter_cfg.c **** 	CyGlobalIntDisable;
 462              		.loc 1 314 0
 463              	@ 314 ".\Generated_Source\PSoC4\cyfitter_cfg.c" 1
 464 0136 72B6     		CPSID   i
 465              	@ 0 "" 2
 315:.\Generated_Source\PSoC4/cyfitter_cfg.c **** 
 316:.\Generated_Source\PSoC4/cyfitter_cfg.c **** 	/* Enable the clock in the interrupt controller for the routed interrupts */
 317:.\Generated_Source\PSoC4/cyfitter_cfg.c **** 	CY_SET_REG8((void *)CYREG_UDB_UDBIF_INT_CLK_CTL, 0x01u);
 466              		.loc 1 317 0
 467              		.code	16
 468 0138 5A4B     		ldr	r3, .L22
 469 013a 0122     		mov	r2, #1
 470 013c 1A70     		strb	r2, [r3]
 471              	.LBB3:
 318:.\Generated_Source\PSoC4/cyfitter_cfg.c **** 	{
 319:.\Generated_Source\PSoC4/cyfitter_cfg.c **** 		static const uint32 CYCODE cy_cfg_addr_table[] = {
 320:.\Generated_Source\PSoC4/cyfitter_cfg.c **** 			0x400F0003u, /* Base address: 0x400F0000 Count: 3 */
 321:.\Generated_Source\PSoC4/cyfitter_cfg.c **** 			0x400F303Au, /* Base address: 0x400F3000 Count: 58 */
ARM GAS  C:\Users\Admin\AppData\Local\Temp\ccP0iBuc.s 			page 15


 322:.\Generated_Source\PSoC4/cyfitter_cfg.c **** 			0x400F311Du, /* Base address: 0x400F3100 Count: 29 */
 323:.\Generated_Source\PSoC4/cyfitter_cfg.c **** 			0x400F324Fu, /* Base address: 0x400F3200 Count: 79 */
 324:.\Generated_Source\PSoC4/cyfitter_cfg.c **** 			0x400F332Eu, /* Base address: 0x400F3300 Count: 46 */
 325:.\Generated_Source\PSoC4/cyfitter_cfg.c **** 			0x400F4006u, /* Base address: 0x400F4000 Count: 6 */
 326:.\Generated_Source\PSoC4/cyfitter_cfg.c **** 			0x400F4102u, /* Base address: 0x400F4100 Count: 2 */
 327:.\Generated_Source\PSoC4/cyfitter_cfg.c **** 			0x400F4202u, /* Base address: 0x400F4200 Count: 2 */
 328:.\Generated_Source\PSoC4/cyfitter_cfg.c **** 			0x400F4302u, /* Base address: 0x400F4300 Count: 2 */
 329:.\Generated_Source\PSoC4/cyfitter_cfg.c **** 			0x400F6002u, /* Base address: 0x400F6000 Count: 2 */
 330:.\Generated_Source\PSoC4/cyfitter_cfg.c **** 		};
 331:.\Generated_Source\PSoC4/cyfitter_cfg.c **** 
 332:.\Generated_Source\PSoC4/cyfitter_cfg.c **** 		static const cy_cfg_addrvalue_t CYCODE cy_cfg_data_table[] = {
 333:.\Generated_Source\PSoC4/cyfitter_cfg.c **** 			{0x81u, 0x0Du},
 334:.\Generated_Source\PSoC4/cyfitter_cfg.c **** 			{0x82u, 0x0Du},
 335:.\Generated_Source\PSoC4/cyfitter_cfg.c **** 			{0x83u, 0x0Du},
 336:.\Generated_Source\PSoC4/cyfitter_cfg.c **** 			{0x40u, 0x30u},
 337:.\Generated_Source\PSoC4/cyfitter_cfg.c **** 			{0x41u, 0x04u},
 338:.\Generated_Source\PSoC4/cyfitter_cfg.c **** 			{0x49u, 0xFFu},
 339:.\Generated_Source\PSoC4/cyfitter_cfg.c **** 			{0x4Au, 0xFFu},
 340:.\Generated_Source\PSoC4/cyfitter_cfg.c **** 			{0x4Bu, 0xFFu},
 341:.\Generated_Source\PSoC4/cyfitter_cfg.c **** 			{0x4Du, 0xA0u},
 342:.\Generated_Source\PSoC4/cyfitter_cfg.c **** 			{0x4Fu, 0x04u},
 343:.\Generated_Source\PSoC4/cyfitter_cfg.c **** 			{0x50u, 0x18u},
 344:.\Generated_Source\PSoC4/cyfitter_cfg.c **** 			{0x5Au, 0x04u},
 345:.\Generated_Source\PSoC4/cyfitter_cfg.c **** 			{0x5Fu, 0x01u},
 346:.\Generated_Source\PSoC4/cyfitter_cfg.c **** 			{0x60u, 0x40u},
 347:.\Generated_Source\PSoC4/cyfitter_cfg.c **** 			{0x62u, 0xC0u},
 348:.\Generated_Source\PSoC4/cyfitter_cfg.c **** 			{0x64u, 0x40u},
 349:.\Generated_Source\PSoC4/cyfitter_cfg.c **** 			{0x65u, 0x40u},
 350:.\Generated_Source\PSoC4/cyfitter_cfg.c **** 			{0x66u, 0xC0u},
 351:.\Generated_Source\PSoC4/cyfitter_cfg.c **** 			{0x68u, 0xC0u},
 352:.\Generated_Source\PSoC4/cyfitter_cfg.c **** 			{0x6Au, 0xC0u},
 353:.\Generated_Source\PSoC4/cyfitter_cfg.c **** 			{0x6Cu, 0xC0u},
 354:.\Generated_Source\PSoC4/cyfitter_cfg.c **** 			{0x6Eu, 0xC0u},
 355:.\Generated_Source\PSoC4/cyfitter_cfg.c **** 			{0x82u, 0x02u},
 356:.\Generated_Source\PSoC4/cyfitter_cfg.c **** 			{0x87u, 0x03u},
 357:.\Generated_Source\PSoC4/cyfitter_cfg.c **** 			{0x96u, 0x02u},
 358:.\Generated_Source\PSoC4/cyfitter_cfg.c **** 			{0x99u, 0x02u},
 359:.\Generated_Source\PSoC4/cyfitter_cfg.c **** 			{0xAEu, 0x01u},
 360:.\Generated_Source\PSoC4/cyfitter_cfg.c **** 			{0xB2u, 0x01u},
 361:.\Generated_Source\PSoC4/cyfitter_cfg.c **** 			{0xB3u, 0x01u},
 362:.\Generated_Source\PSoC4/cyfitter_cfg.c **** 			{0xB4u, 0x02u},
 363:.\Generated_Source\PSoC4/cyfitter_cfg.c **** 			{0xB7u, 0x02u},
 364:.\Generated_Source\PSoC4/cyfitter_cfg.c **** 			{0xBEu, 0x10u},
 365:.\Generated_Source\PSoC4/cyfitter_cfg.c **** 			{0xC0u, 0x30u},
 366:.\Generated_Source\PSoC4/cyfitter_cfg.c **** 			{0xC1u, 0x04u},
 367:.\Generated_Source\PSoC4/cyfitter_cfg.c **** 			{0xC5u, 0xD1u},
 368:.\Generated_Source\PSoC4/cyfitter_cfg.c **** 			{0xC6u, 0x02u},
 369:.\Generated_Source\PSoC4/cyfitter_cfg.c **** 			{0xC8u, 0x07u},
 370:.\Generated_Source\PSoC4/cyfitter_cfg.c **** 			{0xC9u, 0xFFu},
 371:.\Generated_Source\PSoC4/cyfitter_cfg.c **** 			{0xCAu, 0xFFu},
 372:.\Generated_Source\PSoC4/cyfitter_cfg.c **** 			{0xCBu, 0xFFu},
 373:.\Generated_Source\PSoC4/cyfitter_cfg.c **** 			{0xCDu, 0xAFu},
 374:.\Generated_Source\PSoC4/cyfitter_cfg.c **** 			{0xCEu, 0x0Fu},
 375:.\Generated_Source\PSoC4/cyfitter_cfg.c **** 			{0xCFu, 0x04u},
 376:.\Generated_Source\PSoC4/cyfitter_cfg.c **** 			{0xD0u, 0x18u},
 377:.\Generated_Source\PSoC4/cyfitter_cfg.c **** 			{0xD2u, 0x80u},
 378:.\Generated_Source\PSoC4/cyfitter_cfg.c **** 			{0xD4u, 0x05u},
ARM GAS  C:\Users\Admin\AppData\Local\Temp\ccP0iBuc.s 			page 16


 379:.\Generated_Source\PSoC4/cyfitter_cfg.c **** 			{0xD6u, 0x04u},
 380:.\Generated_Source\PSoC4/cyfitter_cfg.c **** 			{0xD8u, 0x04u},
 381:.\Generated_Source\PSoC4/cyfitter_cfg.c **** 			{0xD9u, 0x04u},
 382:.\Generated_Source\PSoC4/cyfitter_cfg.c **** 			{0xDAu, 0x04u},
 383:.\Generated_Source\PSoC4/cyfitter_cfg.c **** 			{0xDBu, 0x04u},
 384:.\Generated_Source\PSoC4/cyfitter_cfg.c **** 			{0xDFu, 0x01u},
 385:.\Generated_Source\PSoC4/cyfitter_cfg.c **** 			{0xE0u, 0x40u},
 386:.\Generated_Source\PSoC4/cyfitter_cfg.c **** 			{0xE2u, 0xC0u},
 387:.\Generated_Source\PSoC4/cyfitter_cfg.c **** 			{0xE4u, 0x40u},
 388:.\Generated_Source\PSoC4/cyfitter_cfg.c **** 			{0xE5u, 0x40u},
 389:.\Generated_Source\PSoC4/cyfitter_cfg.c **** 			{0xE6u, 0xC0u},
 390:.\Generated_Source\PSoC4/cyfitter_cfg.c **** 			{0xE8u, 0xC0u},
 391:.\Generated_Source\PSoC4/cyfitter_cfg.c **** 			{0xEAu, 0xC0u},
 392:.\Generated_Source\PSoC4/cyfitter_cfg.c **** 			{0xECu, 0xC0u},
 393:.\Generated_Source\PSoC4/cyfitter_cfg.c **** 			{0xEEu, 0xC0u},
 394:.\Generated_Source\PSoC4/cyfitter_cfg.c **** 			{0x06u, 0x80u},
 395:.\Generated_Source\PSoC4/cyfitter_cfg.c **** 			{0x0Du, 0x08u},
 396:.\Generated_Source\PSoC4/cyfitter_cfg.c **** 			{0x17u, 0x40u},
 397:.\Generated_Source\PSoC4/cyfitter_cfg.c **** 			{0x1Cu, 0x10u},
 398:.\Generated_Source\PSoC4/cyfitter_cfg.c **** 			{0x1Du, 0x08u},
 399:.\Generated_Source\PSoC4/cyfitter_cfg.c **** 			{0x1Eu, 0x08u},
 400:.\Generated_Source\PSoC4/cyfitter_cfg.c **** 			{0x26u, 0x40u},
 401:.\Generated_Source\PSoC4/cyfitter_cfg.c **** 			{0x27u, 0x20u},
 402:.\Generated_Source\PSoC4/cyfitter_cfg.c **** 			{0x37u, 0x20u},
 403:.\Generated_Source\PSoC4/cyfitter_cfg.c **** 			{0x3Fu, 0x08u},
 404:.\Generated_Source\PSoC4/cyfitter_cfg.c **** 			{0x40u, 0x10u},
 405:.\Generated_Source\PSoC4/cyfitter_cfg.c **** 			{0x42u, 0x80u},
 406:.\Generated_Source\PSoC4/cyfitter_cfg.c **** 			{0x45u, 0x08u},
 407:.\Generated_Source\PSoC4/cyfitter_cfg.c **** 			{0x46u, 0x80u},
 408:.\Generated_Source\PSoC4/cyfitter_cfg.c **** 			{0x4Fu, 0x09u},
 409:.\Generated_Source\PSoC4/cyfitter_cfg.c **** 			{0x56u, 0x80u},
 410:.\Generated_Source\PSoC4/cyfitter_cfg.c **** 			{0x5Eu, 0x88u},
 411:.\Generated_Source\PSoC4/cyfitter_cfg.c **** 			{0x5Fu, 0x01u},
 412:.\Generated_Source\PSoC4/cyfitter_cfg.c **** 			{0x67u, 0x40u},
 413:.\Generated_Source\PSoC4/cyfitter_cfg.c **** 			{0x77u, 0x40u},
 414:.\Generated_Source\PSoC4/cyfitter_cfg.c **** 			{0x87u, 0x40u},
 415:.\Generated_Source\PSoC4/cyfitter_cfg.c **** 			{0xC0u, 0x10u},
 416:.\Generated_Source\PSoC4/cyfitter_cfg.c **** 			{0xC2u, 0x20u},
 417:.\Generated_Source\PSoC4/cyfitter_cfg.c **** 			{0xC4u, 0x80u},
 418:.\Generated_Source\PSoC4/cyfitter_cfg.c **** 			{0xCCu, 0x20u},
 419:.\Generated_Source\PSoC4/cyfitter_cfg.c **** 			{0xCEu, 0x40u},
 420:.\Generated_Source\PSoC4/cyfitter_cfg.c **** 			{0xD0u, 0xC3u},
 421:.\Generated_Source\PSoC4/cyfitter_cfg.c **** 			{0xD6u, 0xD0u},
 422:.\Generated_Source\PSoC4/cyfitter_cfg.c **** 			{0xD8u, 0x80u},
 423:.\Generated_Source\PSoC4/cyfitter_cfg.c **** 			{0x03u, 0x01u},
 424:.\Generated_Source\PSoC4/cyfitter_cfg.c **** 			{0x16u, 0x01u},
 425:.\Generated_Source\PSoC4/cyfitter_cfg.c **** 			{0x1Eu, 0x0Cu},
 426:.\Generated_Source\PSoC4/cyfitter_cfg.c **** 			{0x26u, 0x01u},
 427:.\Generated_Source\PSoC4/cyfitter_cfg.c **** 			{0x2Du, 0x01u},
 428:.\Generated_Source\PSoC4/cyfitter_cfg.c **** 			{0x2Eu, 0x06u},
 429:.\Generated_Source\PSoC4/cyfitter_cfg.c **** 			{0x30u, 0x08u},
 430:.\Generated_Source\PSoC4/cyfitter_cfg.c **** 			{0x32u, 0x02u},
 431:.\Generated_Source\PSoC4/cyfitter_cfg.c **** 			{0x34u, 0x01u},
 432:.\Generated_Source\PSoC4/cyfitter_cfg.c **** 			{0x36u, 0x04u},
 433:.\Generated_Source\PSoC4/cyfitter_cfg.c **** 			{0x37u, 0x01u},
 434:.\Generated_Source\PSoC4/cyfitter_cfg.c **** 			{0x3Eu, 0x10u},
 435:.\Generated_Source\PSoC4/cyfitter_cfg.c **** 			{0x40u, 0x30u},
ARM GAS  C:\Users\Admin\AppData\Local\Temp\ccP0iBuc.s 			page 17


 436:.\Generated_Source\PSoC4/cyfitter_cfg.c **** 			{0x41u, 0x06u},
 437:.\Generated_Source\PSoC4/cyfitter_cfg.c **** 			{0x45u, 0xD0u},
 438:.\Generated_Source\PSoC4/cyfitter_cfg.c **** 			{0x46u, 0x20u},
 439:.\Generated_Source\PSoC4/cyfitter_cfg.c **** 			{0x47u, 0x10u},
 440:.\Generated_Source\PSoC4/cyfitter_cfg.c **** 			{0x48u, 0x2Au},
 441:.\Generated_Source\PSoC4/cyfitter_cfg.c **** 			{0x49u, 0xFFu},
 442:.\Generated_Source\PSoC4/cyfitter_cfg.c **** 			{0x4Au, 0xFFu},
 443:.\Generated_Source\PSoC4/cyfitter_cfg.c **** 			{0x4Bu, 0xFFu},
 444:.\Generated_Source\PSoC4/cyfitter_cfg.c **** 			{0x4Du, 0xA0u},
 445:.\Generated_Source\PSoC4/cyfitter_cfg.c **** 			{0x4Fu, 0x04u},
 446:.\Generated_Source\PSoC4/cyfitter_cfg.c **** 			{0x50u, 0x18u},
 447:.\Generated_Source\PSoC4/cyfitter_cfg.c **** 			{0x52u, 0x80u},
 448:.\Generated_Source\PSoC4/cyfitter_cfg.c **** 			{0x54u, 0x05u},
 449:.\Generated_Source\PSoC4/cyfitter_cfg.c **** 			{0x58u, 0x04u},
 450:.\Generated_Source\PSoC4/cyfitter_cfg.c **** 			{0x59u, 0x04u},
 451:.\Generated_Source\PSoC4/cyfitter_cfg.c **** 			{0x5Au, 0x04u},
 452:.\Generated_Source\PSoC4/cyfitter_cfg.c **** 			{0x5Bu, 0x04u},
 453:.\Generated_Source\PSoC4/cyfitter_cfg.c **** 			{0x5Fu, 0x01u},
 454:.\Generated_Source\PSoC4/cyfitter_cfg.c **** 			{0x60u, 0x40u},
 455:.\Generated_Source\PSoC4/cyfitter_cfg.c **** 			{0x62u, 0xC0u},
 456:.\Generated_Source\PSoC4/cyfitter_cfg.c **** 			{0x64u, 0x40u},
 457:.\Generated_Source\PSoC4/cyfitter_cfg.c **** 			{0x65u, 0x40u},
 458:.\Generated_Source\PSoC4/cyfitter_cfg.c **** 			{0x66u, 0xC0u},
 459:.\Generated_Source\PSoC4/cyfitter_cfg.c **** 			{0x68u, 0xC0u},
 460:.\Generated_Source\PSoC4/cyfitter_cfg.c **** 			{0x6Au, 0xC0u},
 461:.\Generated_Source\PSoC4/cyfitter_cfg.c **** 			{0x6Cu, 0xC0u},
 462:.\Generated_Source\PSoC4/cyfitter_cfg.c **** 			{0x6Eu, 0xC0u},
 463:.\Generated_Source\PSoC4/cyfitter_cfg.c **** 			{0x82u, 0x01u},
 464:.\Generated_Source\PSoC4/cyfitter_cfg.c **** 			{0x92u, 0x06u},
 465:.\Generated_Source\PSoC4/cyfitter_cfg.c **** 			{0x9Bu, 0x01u},
 466:.\Generated_Source\PSoC4/cyfitter_cfg.c **** 			{0xA5u, 0x01u},
 467:.\Generated_Source\PSoC4/cyfitter_cfg.c **** 			{0xA6u, 0x0Cu},
 468:.\Generated_Source\PSoC4/cyfitter_cfg.c **** 			{0xAAu, 0x01u},
 469:.\Generated_Source\PSoC4/cyfitter_cfg.c **** 			{0xB0u, 0x04u},
 470:.\Generated_Source\PSoC4/cyfitter_cfg.c **** 			{0xB2u, 0x08u},
 471:.\Generated_Source\PSoC4/cyfitter_cfg.c **** 			{0xB4u, 0x01u},
 472:.\Generated_Source\PSoC4/cyfitter_cfg.c **** 			{0xB6u, 0x02u},
 473:.\Generated_Source\PSoC4/cyfitter_cfg.c **** 			{0xB7u, 0x01u},
 474:.\Generated_Source\PSoC4/cyfitter_cfg.c **** 			{0xBEu, 0x10u},
 475:.\Generated_Source\PSoC4/cyfitter_cfg.c **** 			{0xC0u, 0x10u},
 476:.\Generated_Source\PSoC4/cyfitter_cfg.c **** 			{0xC1u, 0x06u},
 477:.\Generated_Source\PSoC4/cyfitter_cfg.c **** 			{0xC5u, 0xD1u},
 478:.\Generated_Source\PSoC4/cyfitter_cfg.c **** 			{0xC7u, 0x02u},
 479:.\Generated_Source\PSoC4/cyfitter_cfg.c **** 			{0xC8u, 0x13u},
 480:.\Generated_Source\PSoC4/cyfitter_cfg.c **** 			{0xC9u, 0xFFu},
 481:.\Generated_Source\PSoC4/cyfitter_cfg.c **** 			{0xCAu, 0xFFu},
 482:.\Generated_Source\PSoC4/cyfitter_cfg.c **** 			{0xCBu, 0xFFu},
 483:.\Generated_Source\PSoC4/cyfitter_cfg.c **** 			{0xCDu, 0xA0u},
 484:.\Generated_Source\PSoC4/cyfitter_cfg.c **** 			{0xCFu, 0x04u},
 485:.\Generated_Source\PSoC4/cyfitter_cfg.c **** 			{0xD0u, 0x18u},
 486:.\Generated_Source\PSoC4/cyfitter_cfg.c **** 			{0xD2u, 0x80u},
 487:.\Generated_Source\PSoC4/cyfitter_cfg.c **** 			{0xD4u, 0x05u},
 488:.\Generated_Source\PSoC4/cyfitter_cfg.c **** 			{0xD8u, 0x04u},
 489:.\Generated_Source\PSoC4/cyfitter_cfg.c **** 			{0xD9u, 0x04u},
 490:.\Generated_Source\PSoC4/cyfitter_cfg.c **** 			{0xDAu, 0x04u},
 491:.\Generated_Source\PSoC4/cyfitter_cfg.c **** 			{0xDBu, 0x04u},
 492:.\Generated_Source\PSoC4/cyfitter_cfg.c **** 			{0xDFu, 0x01u},
ARM GAS  C:\Users\Admin\AppData\Local\Temp\ccP0iBuc.s 			page 18


 493:.\Generated_Source\PSoC4/cyfitter_cfg.c **** 			{0xE0u, 0x40u},
 494:.\Generated_Source\PSoC4/cyfitter_cfg.c **** 			{0xE2u, 0xC0u},
 495:.\Generated_Source\PSoC4/cyfitter_cfg.c **** 			{0xE4u, 0x40u},
 496:.\Generated_Source\PSoC4/cyfitter_cfg.c **** 			{0xE5u, 0x40u},
 497:.\Generated_Source\PSoC4/cyfitter_cfg.c **** 			{0xE6u, 0xC0u},
 498:.\Generated_Source\PSoC4/cyfitter_cfg.c **** 			{0xE8u, 0xC0u},
 499:.\Generated_Source\PSoC4/cyfitter_cfg.c **** 			{0xEAu, 0xC0u},
 500:.\Generated_Source\PSoC4/cyfitter_cfg.c **** 			{0xECu, 0xC0u},
 501:.\Generated_Source\PSoC4/cyfitter_cfg.c **** 			{0xEEu, 0xC0u},
 502:.\Generated_Source\PSoC4/cyfitter_cfg.c **** 			{0x00u, 0x01u},
 503:.\Generated_Source\PSoC4/cyfitter_cfg.c **** 			{0x09u, 0x02u},
 504:.\Generated_Source\PSoC4/cyfitter_cfg.c **** 			{0x0Du, 0x08u},
 505:.\Generated_Source\PSoC4/cyfitter_cfg.c **** 			{0x0Fu, 0x02u},
 506:.\Generated_Source\PSoC4/cyfitter_cfg.c **** 			{0x10u, 0x28u},
 507:.\Generated_Source\PSoC4/cyfitter_cfg.c **** 			{0x16u, 0x20u},
 508:.\Generated_Source\PSoC4/cyfitter_cfg.c **** 			{0x17u, 0x40u},
 509:.\Generated_Source\PSoC4/cyfitter_cfg.c **** 			{0x18u, 0x01u},
 510:.\Generated_Source\PSoC4/cyfitter_cfg.c **** 			{0x19u, 0x08u},
 511:.\Generated_Source\PSoC4/cyfitter_cfg.c **** 			{0x1Au, 0x44u},
 512:.\Generated_Source\PSoC4/cyfitter_cfg.c **** 			{0x1Du, 0x08u},
 513:.\Generated_Source\PSoC4/cyfitter_cfg.c **** 			{0x1Eu, 0x08u},
 514:.\Generated_Source\PSoC4/cyfitter_cfg.c **** 			{0x1Fu, 0x82u},
 515:.\Generated_Source\PSoC4/cyfitter_cfg.c **** 			{0x22u, 0x40u},
 516:.\Generated_Source\PSoC4/cyfitter_cfg.c **** 			{0x26u, 0x40u},
 517:.\Generated_Source\PSoC4/cyfitter_cfg.c **** 			{0x29u, 0x08u},
 518:.\Generated_Source\PSoC4/cyfitter_cfg.c **** 			{0x2Fu, 0x02u},
 519:.\Generated_Source\PSoC4/cyfitter_cfg.c **** 			{0x30u, 0x20u},
 520:.\Generated_Source\PSoC4/cyfitter_cfg.c **** 			{0x3Fu, 0x02u},
 521:.\Generated_Source\PSoC4/cyfitter_cfg.c **** 			{0x40u, 0x01u},
 522:.\Generated_Source\PSoC4/cyfitter_cfg.c **** 			{0x45u, 0x08u},
 523:.\Generated_Source\PSoC4/cyfitter_cfg.c **** 			{0x48u, 0x28u},
 524:.\Generated_Source\PSoC4/cyfitter_cfg.c **** 			{0x49u, 0x01u},
 525:.\Generated_Source\PSoC4/cyfitter_cfg.c **** 			{0x4Fu, 0x21u},
 526:.\Generated_Source\PSoC4/cyfitter_cfg.c **** 			{0x50u, 0x08u},
 527:.\Generated_Source\PSoC4/cyfitter_cfg.c **** 			{0x56u, 0x20u},
 528:.\Generated_Source\PSoC4/cyfitter_cfg.c **** 			{0x57u, 0x11u},
 529:.\Generated_Source\PSoC4/cyfitter_cfg.c **** 			{0x59u, 0x01u},
 530:.\Generated_Source\PSoC4/cyfitter_cfg.c **** 			{0x5Au, 0x84u},
 531:.\Generated_Source\PSoC4/cyfitter_cfg.c **** 			{0x5Eu, 0x88u},
 532:.\Generated_Source\PSoC4/cyfitter_cfg.c **** 			{0x5Fu, 0x01u},
 533:.\Generated_Source\PSoC4/cyfitter_cfg.c **** 			{0x71u, 0x02u},
 534:.\Generated_Source\PSoC4/cyfitter_cfg.c **** 			{0x77u, 0x40u},
 535:.\Generated_Source\PSoC4/cyfitter_cfg.c **** 			{0x83u, 0x80u},
 536:.\Generated_Source\PSoC4/cyfitter_cfg.c **** 			{0x8Eu, 0x40u},
 537:.\Generated_Source\PSoC4/cyfitter_cfg.c **** 			{0xC0u, 0x08u},
 538:.\Generated_Source\PSoC4/cyfitter_cfg.c **** 			{0xC2u, 0xA8u},
 539:.\Generated_Source\PSoC4/cyfitter_cfg.c **** 			{0xC4u, 0xA6u},
 540:.\Generated_Source\PSoC4/cyfitter_cfg.c **** 			{0xCAu, 0x12u},
 541:.\Generated_Source\PSoC4/cyfitter_cfg.c **** 			{0xCCu, 0x04u},
 542:.\Generated_Source\PSoC4/cyfitter_cfg.c **** 			{0xCEu, 0x80u},
 543:.\Generated_Source\PSoC4/cyfitter_cfg.c **** 			{0xD0u, 0x48u},
 544:.\Generated_Source\PSoC4/cyfitter_cfg.c **** 			{0xD2u, 0x24u},
 545:.\Generated_Source\PSoC4/cyfitter_cfg.c **** 			{0xD6u, 0xDBu},
 546:.\Generated_Source\PSoC4/cyfitter_cfg.c **** 			{0xE4u, 0x04u},
 547:.\Generated_Source\PSoC4/cyfitter_cfg.c **** 			{0xE6u, 0x40u},
 548:.\Generated_Source\PSoC4/cyfitter_cfg.c **** 			{0x50u, 0x10u},
 549:.\Generated_Source\PSoC4/cyfitter_cfg.c **** 			{0x73u, 0x02u},
ARM GAS  C:\Users\Admin\AppData\Local\Temp\ccP0iBuc.s 			page 19


 550:.\Generated_Source\PSoC4/cyfitter_cfg.c **** 			{0x87u, 0x02u},
 551:.\Generated_Source\PSoC4/cyfitter_cfg.c **** 			{0xD4u, 0x20u},
 552:.\Generated_Source\PSoC4/cyfitter_cfg.c **** 			{0xDCu, 0x20u},
 553:.\Generated_Source\PSoC4/cyfitter_cfg.c **** 			{0xE6u, 0x40u},
 554:.\Generated_Source\PSoC4/cyfitter_cfg.c **** 			{0x8Cu, 0x10u},
 555:.\Generated_Source\PSoC4/cyfitter_cfg.c **** 			{0x94u, 0x20u},
 556:.\Generated_Source\PSoC4/cyfitter_cfg.c **** 			{0x67u, 0x02u},
 557:.\Generated_Source\PSoC4/cyfitter_cfg.c **** 			{0xD6u, 0x01u},
 558:.\Generated_Source\PSoC4/cyfitter_cfg.c **** 			{0x83u, 0x01u},
 559:.\Generated_Source\PSoC4/cyfitter_cfg.c **** 			{0x97u, 0x02u},
 560:.\Generated_Source\PSoC4/cyfitter_cfg.c **** 			{0x10u, 0x01u},
 561:.\Generated_Source\PSoC4/cyfitter_cfg.c **** 			{0x11u, 0x01u},
 562:.\Generated_Source\PSoC4/cyfitter_cfg.c **** 		};
 563:.\Generated_Source\PSoC4/cyfitter_cfg.c **** 
 564:.\Generated_Source\PSoC4/cyfitter_cfg.c **** 
 565:.\Generated_Source\PSoC4/cyfitter_cfg.c **** 
 566:.\Generated_Source\PSoC4/cyfitter_cfg.c **** 		CYPACKED typedef struct {
 567:.\Generated_Source\PSoC4/cyfitter_cfg.c **** 			void CYFAR *address;
 568:.\Generated_Source\PSoC4/cyfitter_cfg.c **** 			uint16 size;
 569:.\Generated_Source\PSoC4/cyfitter_cfg.c **** 		} CYPACKED_ATTR cfg_memset_t;
 570:.\Generated_Source\PSoC4/cyfitter_cfg.c **** 
 571:.\Generated_Source\PSoC4/cyfitter_cfg.c **** 		static const cfg_memset_t CYCODE cfg_memset_list [] = {
 572:.\Generated_Source\PSoC4/cyfitter_cfg.c **** 			/* address, size */
 573:.\Generated_Source\PSoC4/cyfitter_cfg.c **** 			{(void CYFAR *)(CYDEV_UDB_P0_U0_BASE), 1024u},
 574:.\Generated_Source\PSoC4/cyfitter_cfg.c **** 			{(void CYFAR *)(CYDEV_UDB_DSI0_BASE), 1024u},
 575:.\Generated_Source\PSoC4/cyfitter_cfg.c **** 		};
 576:.\Generated_Source\PSoC4/cyfitter_cfg.c **** 
 577:.\Generated_Source\PSoC4/cyfitter_cfg.c **** 		uint8 CYDATA i;
 578:.\Generated_Source\PSoC4/cyfitter_cfg.c **** 
 579:.\Generated_Source\PSoC4/cyfitter_cfg.c **** 		/* Zero out critical memory blocks before beginning configuration */
 580:.\Generated_Source\PSoC4/cyfitter_cfg.c **** 		for (i = 0u; i < (sizeof(cfg_memset_list)/sizeof(cfg_memset_list[0])); i++)
 472              		.loc 1 580 0
 473 013e FB1D     		add	r3, r7, #7
 474 0140 0022     		mov	r2, #0
 475 0142 1A70     		strb	r2, [r3]
 476 0144 23E0     		b	.L20
 477              	.L21:
 478              	.LBB4:
 581:.\Generated_Source\PSoC4/cyfitter_cfg.c **** 		{
 582:.\Generated_Source\PSoC4/cyfitter_cfg.c **** 			const cfg_memset_t CYCODE * CYDATA ms = &cfg_memset_list[i];
 479              		.loc 1 582 0 discriminator 2
 480 0146 FB1D     		add	r3, r7, #7
 481 0148 1A78     		ldrb	r2, [r3]
 482 014a 131C     		mov	r3, r2
 483 014c 5B00     		lsl	r3, r3, #1
 484 014e 9B18     		add	r3, r3, r2
 485 0150 5B00     		lsl	r3, r3, #1
 486 0152 554A     		ldr	r2, .L22+4
 487 0154 9B18     		add	r3, r3, r2
 488 0156 3B60     		str	r3, [r7]
 583:.\Generated_Source\PSoC4/cyfitter_cfg.c **** 			CYMEMZERO(ms->address, (size_t)(uint32)(ms->size));
 489              		.loc 1 583 0 discriminator 2
 490 0158 3B68     		ldr	r3, [r7]
 491 015a 1A78     		ldrb	r2, [r3]
 492 015c 5978     		ldrb	r1, [r3, #1]
 493 015e 0902     		lsl	r1, r1, #8
 494 0160 0A43     		orr	r2, r1
ARM GAS  C:\Users\Admin\AppData\Local\Temp\ccP0iBuc.s 			page 20


 495 0162 9978     		ldrb	r1, [r3, #2]
 496 0164 0904     		lsl	r1, r1, #16
 497 0166 0A43     		orr	r2, r1
 498 0168 DB78     		ldrb	r3, [r3, #3]
 499 016a 1B06     		lsl	r3, r3, #24
 500 016c 1343     		orr	r3, r2
 501 016e 1A1C     		mov	r2, r3
 502 0170 3B68     		ldr	r3, [r7]
 503 0172 1979     		ldrb	r1, [r3, #4]
 504 0174 5B79     		ldrb	r3, [r3, #5]
 505 0176 1B02     		lsl	r3, r3, #8
 506 0178 0B43     		orr	r3, r1
 507 017a 9BB2     		uxth	r3, r3
 508 017c 101C     		mov	r0, r2
 509 017e 191C     		mov	r1, r3
 510 0180 FFF7FEFF 		bl	CYMEMZERO
 511              	.LBE4:
 580:.\Generated_Source\PSoC4/cyfitter_cfg.c **** 		for (i = 0u; i < (sizeof(cfg_memset_list)/sizeof(cfg_memset_list[0])); i++)
 512              		.loc 1 580 0 discriminator 2
 513 0184 FB1D     		add	r3, r7, #7
 514 0186 1A78     		ldrb	r2, [r3]
 515 0188 FB1D     		add	r3, r7, #7
 516 018a 0132     		add	r2, r2, #1
 517 018c 1A70     		strb	r2, [r3]
 518              	.L20:
 580:.\Generated_Source\PSoC4/cyfitter_cfg.c **** 		for (i = 0u; i < (sizeof(cfg_memset_list)/sizeof(cfg_memset_list[0])); i++)
 519              		.loc 1 580 0 is_stmt 0 discriminator 1
 520 018e FB1D     		add	r3, r7, #7
 521 0190 1B78     		ldrb	r3, [r3]
 522 0192 012B     		cmp	r3, #1
 523 0194 D7D9     		bls	.L21
 584:.\Generated_Source\PSoC4/cyfitter_cfg.c **** 		}
 585:.\Generated_Source\PSoC4/cyfitter_cfg.c **** 
 586:.\Generated_Source\PSoC4/cyfitter_cfg.c **** 		cfg_write_bytes32(cy_cfg_addr_table, cy_cfg_data_table);
 524              		.loc 1 586 0 is_stmt 1
 525 0196 454A     		ldr	r2, .L22+8
 526 0198 454B     		ldr	r3, .L22+12
 527 019a 101C     		mov	r0, r2
 528 019c 191C     		mov	r1, r3
 529 019e FFF7FEFF 		bl	cfg_write_bytes32
 587:.\Generated_Source\PSoC4/cyfitter_cfg.c **** 
 588:.\Generated_Source\PSoC4/cyfitter_cfg.c **** 		/* Perform normal device configuration. Order is not critical for these items. */
 589:.\Generated_Source\PSoC4/cyfitter_cfg.c **** 		CY_SET_XTND_REG16((void CYFAR *)(CYREG_UDB_BCTL0_DRV), 0x0100u);
 530              		.loc 1 589 0
 531 01a2 444B     		ldr	r3, .L22+16
 532 01a4 8022     		mov	r2, #128
 533 01a6 5200     		lsl	r2, r2, #1
 534 01a8 1A80     		strh	r2, [r3]
 590:.\Generated_Source\PSoC4/cyfitter_cfg.c **** 		CY_SET_XTND_REG8((void CYFAR *)(CYREG_UDB_BCTL0_DRV + 0x2u), 0x01u);
 535              		.loc 1 590 0
 536 01aa 434B     		ldr	r3, .L22+20
 537 01ac 0122     		mov	r2, #1
 538 01ae 1A70     		strb	r2, [r3]
 591:.\Generated_Source\PSoC4/cyfitter_cfg.c **** 
 592:.\Generated_Source\PSoC4/cyfitter_cfg.c **** 		/* HSIOM Starting address: CYDEV_HSIOM_BASE */
 593:.\Generated_Source\PSoC4/cyfitter_cfg.c **** 		CY_SET_XTND_REG32((void CYFAR *)(CYDEV_HSIOM_BASE), 0x00000300u);
 539              		.loc 1 593 0
ARM GAS  C:\Users\Admin\AppData\Local\Temp\ccP0iBuc.s 			page 21


 540 01b0 424B     		ldr	r3, .L22+24
 541 01b2 C022     		mov	r2, #192
 542 01b4 9200     		lsl	r2, r2, #2
 543 01b6 1A60     		str	r2, [r3]
 594:.\Generated_Source\PSoC4/cyfitter_cfg.c **** 		CY_SET_XTND_REG32((void CYFAR *)(CYREG_HSIOM_PORT_SEL2), 0x30000000u);
 544              		.loc 1 594 0
 545 01b8 414B     		ldr	r3, .L22+28
 546 01ba C022     		mov	r2, #192
 547 01bc 9205     		lsl	r2, r2, #22
 548 01be 1A60     		str	r2, [r3]
 595:.\Generated_Source\PSoC4/cyfitter_cfg.c **** 		CY_SET_XTND_REG32((void CYFAR *)(CYREG_HSIOM_PORT_SEL3), 0x0000EE00u);
 549              		.loc 1 595 0
 550 01c0 404B     		ldr	r3, .L22+32
 551 01c2 EE22     		mov	r2, #238
 552 01c4 1202     		lsl	r2, r2, #8
 553 01c6 1A60     		str	r2, [r3]
 596:.\Generated_Source\PSoC4/cyfitter_cfg.c **** 
 597:.\Generated_Source\PSoC4/cyfitter_cfg.c **** 		/* IOPINS0_0 Starting address: CYDEV_PRT0_DR */
 598:.\Generated_Source\PSoC4/cyfitter_cfg.c **** 		CY_SET_XTND_REG32((void CYFAR *)(CYREG_PRT0_DR), 0x00000084u);
 554              		.loc 1 598 0
 555 01c8 3F4B     		ldr	r3, .L22+36
 556 01ca 8422     		mov	r2, #132
 557 01cc 1A60     		str	r2, [r3]
 599:.\Generated_Source\PSoC4/cyfitter_cfg.c **** 		CY_SET_XTND_REG32((void CYFAR *)(CYREG_PRT0_PC), 0x005801B6u);
 558              		.loc 1 599 0
 559 01ce 3F4B     		ldr	r3, .L22+40
 560 01d0 3F4A     		ldr	r2, .L22+44
 561 01d2 1A60     		str	r2, [r3]
 600:.\Generated_Source\PSoC4/cyfitter_cfg.c **** 		CY_SET_XTND_REG32((void CYFAR *)(CYREG_PRT0_INTCFG), 0x0000C000u);
 562              		.loc 1 600 0
 563 01d4 3F4B     		ldr	r3, .L22+48
 564 01d6 C022     		mov	r2, #192
 565 01d8 1202     		lsl	r2, r2, #8
 566 01da 1A60     		str	r2, [r3]
 601:.\Generated_Source\PSoC4/cyfitter_cfg.c **** 
 602:.\Generated_Source\PSoC4/cyfitter_cfg.c **** 		/* IOPINS0_1 Starting address: CYDEV_PRT1_DR */
 603:.\Generated_Source\PSoC4/cyfitter_cfg.c **** 		CY_SET_XTND_REG32((void CYFAR *)(CYREG_PRT1_DR), 0x00000004u);
 567              		.loc 1 603 0
 568 01dc 3E4B     		ldr	r3, .L22+52
 569 01de 0422     		mov	r2, #4
 570 01e0 1A60     		str	r2, [r3]
 604:.\Generated_Source\PSoC4/cyfitter_cfg.c **** 		CY_SET_XTND_REG32((void CYFAR *)(CYREG_PRT1_PC), 0x00180080u);
 571              		.loc 1 604 0
 572 01e2 3E4B     		ldr	r3, .L22+56
 573 01e4 3E4A     		ldr	r2, .L22+60
 574 01e6 1A60     		str	r2, [r3]
 605:.\Generated_Source\PSoC4/cyfitter_cfg.c **** 		CY_SET_XTND_REG32((void CYFAR *)(CYREG_PRT1_INTCFG), 0x00000020u);
 575              		.loc 1 605 0
 576 01e8 3E4B     		ldr	r3, .L22+64
 577 01ea 2022     		mov	r2, #32
 578 01ec 1A60     		str	r2, [r3]
 606:.\Generated_Source\PSoC4/cyfitter_cfg.c **** 
 607:.\Generated_Source\PSoC4/cyfitter_cfg.c **** 		/* IOPINS0_2 Starting address: CYDEV_PRT2_DR */
 608:.\Generated_Source\PSoC4/cyfitter_cfg.c **** 		CY_SET_XTND_REG32((void CYFAR *)(CYREG_PRT2_DR), 0x00000080u);
 579              		.loc 1 608 0
 580 01ee 3E4B     		ldr	r3, .L22+68
 581 01f0 8022     		mov	r2, #128
ARM GAS  C:\Users\Admin\AppData\Local\Temp\ccP0iBuc.s 			page 22


 582 01f2 1A60     		str	r2, [r3]
 609:.\Generated_Source\PSoC4/cyfitter_cfg.c **** 		CY_SET_XTND_REG32((void CYFAR *)(CYREG_PRT2_PC), 0x00DB0000u);
 583              		.loc 1 609 0
 584 01f4 3D4B     		ldr	r3, .L22+72
 585 01f6 DB22     		mov	r2, #219
 586 01f8 1204     		lsl	r2, r2, #16
 587 01fa 1A60     		str	r2, [r3]
 610:.\Generated_Source\PSoC4/cyfitter_cfg.c **** 
 611:.\Generated_Source\PSoC4/cyfitter_cfg.c **** 		/* IOPINS0_3 Starting address: CYDEV_PRT3_DR */
 612:.\Generated_Source\PSoC4/cyfitter_cfg.c **** 		CY_SET_XTND_REG32((void CYFAR *)(CYREG_PRT3_DR), 0x00000010u);
 588              		.loc 1 612 0
 589 01fc 3C4B     		ldr	r3, .L22+76
 590 01fe 1022     		mov	r2, #16
 591 0200 1A60     		str	r2, [r3]
 613:.\Generated_Source\PSoC4/cyfitter_cfg.c **** 		CY_SET_XTND_REG32((void CYFAR *)(CYREG_PRT3_PC), 0x00002D80u);
 592              		.loc 1 613 0
 593 0202 3C4B     		ldr	r3, .L22+80
 594 0204 B622     		mov	r2, #182
 595 0206 9201     		lsl	r2, r2, #6
 596 0208 1A60     		str	r2, [r3]
 614:.\Generated_Source\PSoC4/cyfitter_cfg.c **** 		CY_SET_XTND_REG32((void CYFAR *)(CYREG_PRT3_INTCFG), 0x00000200u);
 597              		.loc 1 614 0
 598 020a 3B4B     		ldr	r3, .L22+84
 599 020c 8022     		mov	r2, #128
 600 020e 9200     		lsl	r2, r2, #2
 601 0210 1A60     		str	r2, [r3]
 615:.\Generated_Source\PSoC4/cyfitter_cfg.c **** 
 616:.\Generated_Source\PSoC4/cyfitter_cfg.c **** 		/* UDB_PA_0 Starting address: CYDEV_UDB_PA0_BASE */
 617:.\Generated_Source\PSoC4/cyfitter_cfg.c **** 		CY_SET_XTND_REG32((void CYFAR *)(CYDEV_UDB_PA0_BASE), 0x00990000u);
 602              		.loc 1 617 0
 603 0212 3A4B     		ldr	r3, .L22+88
 604 0214 9922     		mov	r2, #153
 605 0216 1204     		lsl	r2, r2, #16
 606 0218 1A60     		str	r2, [r3]
 618:.\Generated_Source\PSoC4/cyfitter_cfg.c **** 		CY_SET_XTND_REG32((void CYFAR *)(CYREG_UDB_PA0_CFG4), 0x80000000u);
 607              		.loc 1 618 0
 608 021a 394B     		ldr	r3, .L22+92
 609 021c 8022     		mov	r2, #128
 610 021e 1206     		lsl	r2, r2, #24
 611 0220 1A60     		str	r2, [r3]
 619:.\Generated_Source\PSoC4/cyfitter_cfg.c **** 
 620:.\Generated_Source\PSoC4/cyfitter_cfg.c **** 		/* UDB_PA_1 Starting address: CYDEV_UDB_PA1_BASE */
 621:.\Generated_Source\PSoC4/cyfitter_cfg.c **** 		CY_SET_XTND_REG32((void CYFAR *)(CYDEV_UDB_PA1_BASE), 0x00990000u);
 612              		.loc 1 621 0
 613 0222 384B     		ldr	r3, .L22+96
 614 0224 9922     		mov	r2, #153
 615 0226 1204     		lsl	r2, r2, #16
 616 0228 1A60     		str	r2, [r3]
 622:.\Generated_Source\PSoC4/cyfitter_cfg.c **** 		CY_SET_XTND_REG32((void CYFAR *)(CYREG_UDB_PA1_CFG4), 0x00200000u);
 617              		.loc 1 622 0
 618 022a 374B     		ldr	r3, .L22+100
 619 022c 8022     		mov	r2, #128
 620 022e 9203     		lsl	r2, r2, #14
 621 0230 1A60     		str	r2, [r3]
 623:.\Generated_Source\PSoC4/cyfitter_cfg.c **** 
 624:.\Generated_Source\PSoC4/cyfitter_cfg.c **** 		/* UDB_PA_2 Starting address: CYDEV_UDB_PA2_BASE */
 625:.\Generated_Source\PSoC4/cyfitter_cfg.c **** 		CY_SET_XTND_REG32((void CYFAR *)(CYDEV_UDB_PA2_BASE), 0x00990000u);
ARM GAS  C:\Users\Admin\AppData\Local\Temp\ccP0iBuc.s 			page 23


 622              		.loc 1 625 0
 623 0232 364B     		ldr	r3, .L22+104
 624 0234 9922     		mov	r2, #153
 625 0236 1204     		lsl	r2, r2, #16
 626 0238 1A60     		str	r2, [r3]
 626:.\Generated_Source\PSoC4/cyfitter_cfg.c **** 		CY_SET_XTND_REG32((void CYFAR *)(CYREG_UDB_PA2_CFG8), 0x40000000u);
 627              		.loc 1 626 0
 628 023a 354B     		ldr	r3, .L22+108
 629 023c 8022     		mov	r2, #128
 630 023e D205     		lsl	r2, r2, #23
 631 0240 1A60     		str	r2, [r3]
 627:.\Generated_Source\PSoC4/cyfitter_cfg.c **** 
 628:.\Generated_Source\PSoC4/cyfitter_cfg.c **** 		/* UDB_PA_3 Starting address: CYDEV_UDB_PA3_BASE */
 629:.\Generated_Source\PSoC4/cyfitter_cfg.c **** 		CY_SET_XTND_REG32((void CYFAR *)(CYDEV_UDB_PA3_BASE), 0x00990000u);
 632              		.loc 1 629 0
 633 0242 344B     		ldr	r3, .L22+112
 634 0244 9922     		mov	r2, #153
 635 0246 1204     		lsl	r2, r2, #16
 636 0248 1A60     		str	r2, [r3]
 630:.\Generated_Source\PSoC4/cyfitter_cfg.c **** 		CY_SET_XTND_REG32((void CYFAR *)(CYREG_UDB_PA3_CFG4), 0x02000000u);
 637              		.loc 1 630 0
 638 024a 334B     		ldr	r3, .L22+116
 639 024c 8022     		mov	r2, #128
 640 024e 9204     		lsl	r2, r2, #18
 641 0250 1A60     		str	r2, [r3]
 631:.\Generated_Source\PSoC4/cyfitter_cfg.c **** 
 632:.\Generated_Source\PSoC4/cyfitter_cfg.c **** 		/* INT_SELECT Starting address: CYDEV_CPUSS_INTR_SELECT */
 633:.\Generated_Source\PSoC4/cyfitter_cfg.c **** 		CY_SET_XTND_REG32((void CYFAR *)(CYREG_CPUSS_INTR_SELECT), 0x00000004u);
 642              		.loc 1 633 0
 643 0252 324B     		ldr	r3, .L22+120
 644 0254 0422     		mov	r2, #4
 645 0256 1A60     		str	r2, [r3]
 634:.\Generated_Source\PSoC4/cyfitter_cfg.c **** 
 635:.\Generated_Source\PSoC4/cyfitter_cfg.c **** 		/* INT_CONFIG Starting address: CYDEV_UDB_INT_CFG */
 636:.\Generated_Source\PSoC4/cyfitter_cfg.c **** 		CY_SET_XTND_REG32((void CYFAR *)(CYREG_UDB_INT_CFG), 0x00000004u);
 646              		.loc 1 636 0
 647 0258 314B     		ldr	r3, .L22+124
 648 025a 0422     		mov	r2, #4
 649 025c 1A60     		str	r2, [r3]
 637:.\Generated_Source\PSoC4/cyfitter_cfg.c **** 
 638:.\Generated_Source\PSoC4/cyfitter_cfg.c **** 		/* Enable digital routing */
 639:.\Generated_Source\PSoC4/cyfitter_cfg.c **** 		CY_SET_XTND_REG8((void *)CYREG_UDB_UDBIF_BANK_CTL, CY_GET_XTND_REG8((void *)CYREG_UDB_UDBIF_BANK_
 650              		.loc 1 639 0
 651 025e 314B     		ldr	r3, .L22+128
 652 0260 304A     		ldr	r2, .L22+128
 653 0262 1278     		ldrb	r2, [r2]
 654 0264 D2B2     		uxtb	r2, r2
 655 0266 0221     		mov	r1, #2
 656 0268 0A43     		orr	r2, r1
 657 026a D2B2     		uxtb	r2, r2
 658 026c 1A70     		strb	r2, [r3]
 640:.\Generated_Source\PSoC4/cyfitter_cfg.c **** 
 641:.\Generated_Source\PSoC4/cyfitter_cfg.c **** 		/* Enable UDB array */
 642:.\Generated_Source\PSoC4/cyfitter_cfg.c **** 		CY_SET_XTND_REG8((void *)CYREG_UDB_UDBIF_WAIT_CFG, (uint8)((CY_GET_XTND_REG8((void *)CYREG_UDB_UD
 659              		.loc 1 642 0
 660 026e 2E4B     		ldr	r3, .L22+132
 661 0270 2D4A     		ldr	r2, .L22+132
ARM GAS  C:\Users\Admin\AppData\Local\Temp\ccP0iBuc.s 			page 24


 662 0272 1278     		ldrb	r2, [r2]
 663 0274 D2B2     		uxtb	r2, r2
 664 0276 3C21     		mov	r1, #60
 665 0278 8A43     		bic	r2, r1
 666 027a D2B2     		uxtb	r2, r2
 667 027c 1421     		mov	r1, #20
 668 027e 0A43     		orr	r2, r1
 669 0280 D2B2     		uxtb	r2, r2
 670 0282 1A70     		strb	r2, [r3]
 643:.\Generated_Source\PSoC4/cyfitter_cfg.c **** 		CY_SET_XTND_REG8((void *)CYREG_UDB_UDBIF_BANK_CTL, (uint8)(CY_GET_XTND_REG8((void *)CYREG_UDB_UDB
 671              		.loc 1 643 0
 672 0284 274B     		ldr	r3, .L22+128
 673 0286 274A     		ldr	r2, .L22+128
 674 0288 1278     		ldrb	r2, [r2]
 675 028a D2B2     		uxtb	r2, r2
 676 028c 1621     		mov	r1, #22
 677 028e 0A43     		orr	r2, r1
 678 0290 D2B2     		uxtb	r2, r2
 679 0292 1A70     		strb	r2, [r3]
 680              	.LBE3:
 644:.\Generated_Source\PSoC4/cyfitter_cfg.c **** 	}
 645:.\Generated_Source\PSoC4/cyfitter_cfg.c **** 
 646:.\Generated_Source\PSoC4/cyfitter_cfg.c **** 	/* Setup clocks based on selections from Clock DWR */
 647:.\Generated_Source\PSoC4/cyfitter_cfg.c **** 	ClockSetup();
 681              		.loc 1 647 0
 682 0294 FFF706FF 		bl	ClockSetup
 648:.\Generated_Source\PSoC4/cyfitter_cfg.c **** 
 649:.\Generated_Source\PSoC4/cyfitter_cfg.c **** 	/* Perform basic analog initialization to defaults */
 650:.\Generated_Source\PSoC4/cyfitter_cfg.c **** 	AnalogSetDefault();
 683              		.loc 1 650 0
 684 0298 FFF7FEFF 		bl	AnalogSetDefault
 651:.\Generated_Source\PSoC4/cyfitter_cfg.c **** 
 652:.\Generated_Source\PSoC4/cyfitter_cfg.c **** }
 685              		.loc 1 652 0
 686 029c BD46     		mov	sp, r7
 687 029e 02B0     		add	sp, sp, #8
 688              		@ sp needed
 689 02a0 80BD     		pop	{r7, pc}
 690              	.L23:
 691 02a2 C046     		.align	2
 692              	.L22:
 693 02a4 1C700F40 		.word	1074753564
 694 02a8 04000000 		.word	cfg_memset_list.4735
 695 02ac 10000000 		.word	cy_cfg_addr_table.4729
 696 02b0 38000000 		.word	cy_cfg_data_table.4730
 697 02b4 00600F40 		.word	1074749440
 698 02b8 02600F40 		.word	1074749442
 699 02bc 00000140 		.word	1073807360
 700 02c0 08000140 		.word	1073807368
 701 02c4 0C000140 		.word	1073807372
 702 02c8 00000440 		.word	1074003968
 703 02cc 08000440 		.word	1074003976
 704 02d0 B6015800 		.word	5767606
 705 02d4 0C000440 		.word	1074003980
 706 02d8 00010440 		.word	1074004224
 707 02dc 08010440 		.word	1074004232
 708 02e0 80001800 		.word	1572992
ARM GAS  C:\Users\Admin\AppData\Local\Temp\ccP0iBuc.s 			page 25


 709 02e4 0C010440 		.word	1074004236
 710 02e8 00020440 		.word	1074004480
 711 02ec 08020440 		.word	1074004488
 712 02f0 00030440 		.word	1074004736
 713 02f4 08030440 		.word	1074004744
 714 02f8 0C030440 		.word	1074004748
 715 02fc 00500F40 		.word	1074745344
 716 0300 04500F40 		.word	1074745348
 717 0304 10500F40 		.word	1074745360
 718 0308 14500F40 		.word	1074745364
 719 030c 20500F40 		.word	1074745376
 720 0310 28500F40 		.word	1074745384
 721 0314 30500F40 		.word	1074745392
 722 0318 34500F40 		.word	1074745396
 723 031c 20000040 		.word	1073741856
 724 0320 00800F40 		.word	1074757632
 725 0324 00700F40 		.word	1074753536
 726 0328 01700F40 		.word	1074753537
 727              		.cfi_endproc
 728              	.LFE7:
 729              		.size	cyfitter_cfg, .-cyfitter_cfg
 730              		.data
 731              		.align	2
 732              		.type	imo_trim_table.4708, %object
 733              		.size	imo_trim_table.4708, 4
 734              	imo_trim_table.4708:
 735 0000 C0F1FF0F 		.word	268431808
 736              		.section	.rodata
 737              		.align	2
 738              		.type	IMO_TRIM_FREQ_TABLE_ENTRIES.4709, %object
 739              		.size	IMO_TRIM_FREQ_TABLE_ENTRIES.4709, 4
 740              	IMO_TRIM_FREQ_TABLE_ENTRIES.4709:
 741 0000 04000000 		.word	4
 742              		.align	2
 743              		.type	cfg_memset_list.4735, %object
 744              		.size	cfg_memset_list.4735, 12
 745              	cfg_memset_list.4735:
 746 0004 00300F40 		.word	1074737152
 747 0008 0004     		.short	1024
 748 000a 00400F40 		.4byte	1074741248
 749 000e 0004     		.short	1024
 750              		.align	2
 751              		.type	cy_cfg_addr_table.4729, %object
 752              		.size	cy_cfg_addr_table.4729, 40
 753              	cy_cfg_addr_table.4729:
 754 0010 03000F40 		.word	1074724867
 755 0014 3A300F40 		.word	1074737210
 756 0018 1D310F40 		.word	1074737437
 757 001c 4F320F40 		.word	1074737743
 758 0020 2E330F40 		.word	1074737966
 759 0024 06400F40 		.word	1074741254
 760 0028 02410F40 		.word	1074741506
 761 002c 02420F40 		.word	1074741762
 762 0030 02430F40 		.word	1074742018
 763 0034 02600F40 		.word	1074749442
 764              		.align	2
 765              		.type	cy_cfg_data_table.4730, %object
ARM GAS  C:\Users\Admin\AppData\Local\Temp\ccP0iBuc.s 			page 26


 766              		.size	cy_cfg_data_table.4730, 458
 767              	cy_cfg_data_table.4730:
 768 0038 81       		.byte	-127
 769 0039 0D       		.byte	13
 770 003a 82       		.byte	-126
 771 003b 0D       		.byte	13
 772 003c 83       		.byte	-125
 773 003d 0D       		.byte	13
 774 003e 40       		.byte	64
 775 003f 30       		.byte	48
 776 0040 41       		.byte	65
 777 0041 04       		.byte	4
 778 0042 49       		.byte	73
 779 0043 FF       		.byte	-1
 780 0044 4A       		.byte	74
 781 0045 FF       		.byte	-1
 782 0046 4B       		.byte	75
 783 0047 FF       		.byte	-1
 784 0048 4D       		.byte	77
 785 0049 A0       		.byte	-96
 786 004a 4F       		.byte	79
 787 004b 04       		.byte	4
 788 004c 50       		.byte	80
 789 004d 18       		.byte	24
 790 004e 5A       		.byte	90
 791 004f 04       		.byte	4
 792 0050 5F       		.byte	95
 793 0051 01       		.byte	1
 794 0052 60       		.byte	96
 795 0053 40       		.byte	64
 796 0054 62       		.byte	98
 797 0055 C0       		.byte	-64
 798 0056 64       		.byte	100
 799 0057 40       		.byte	64
 800 0058 65       		.byte	101
 801 0059 40       		.byte	64
 802 005a 66       		.byte	102
 803 005b C0       		.byte	-64
 804 005c 68       		.byte	104
 805 005d C0       		.byte	-64
 806 005e 6A       		.byte	106
 807 005f C0       		.byte	-64
 808 0060 6C       		.byte	108
 809 0061 C0       		.byte	-64
 810 0062 6E       		.byte	110
 811 0063 C0       		.byte	-64
 812 0064 82       		.byte	-126
 813 0065 02       		.byte	2
 814 0066 87       		.byte	-121
 815 0067 03       		.byte	3
 816 0068 96       		.byte	-106
 817 0069 02       		.byte	2
 818 006a 99       		.byte	-103
 819 006b 02       		.byte	2
 820 006c AE       		.byte	-82
 821 006d 01       		.byte	1
 822 006e B2       		.byte	-78
ARM GAS  C:\Users\Admin\AppData\Local\Temp\ccP0iBuc.s 			page 27


 823 006f 01       		.byte	1
 824 0070 B3       		.byte	-77
 825 0071 01       		.byte	1
 826 0072 B4       		.byte	-76
 827 0073 02       		.byte	2
 828 0074 B7       		.byte	-73
 829 0075 02       		.byte	2
 830 0076 BE       		.byte	-66
 831 0077 10       		.byte	16
 832 0078 C0       		.byte	-64
 833 0079 30       		.byte	48
 834 007a C1       		.byte	-63
 835 007b 04       		.byte	4
 836 007c C5       		.byte	-59
 837 007d D1       		.byte	-47
 838 007e C6       		.byte	-58
 839 007f 02       		.byte	2
 840 0080 C8       		.byte	-56
 841 0081 07       		.byte	7
 842 0082 C9       		.byte	-55
 843 0083 FF       		.byte	-1
 844 0084 CA       		.byte	-54
 845 0085 FF       		.byte	-1
 846 0086 CB       		.byte	-53
 847 0087 FF       		.byte	-1
 848 0088 CD       		.byte	-51
 849 0089 AF       		.byte	-81
 850 008a CE       		.byte	-50
 851 008b 0F       		.byte	15
 852 008c CF       		.byte	-49
 853 008d 04       		.byte	4
 854 008e D0       		.byte	-48
 855 008f 18       		.byte	24
 856 0090 D2       		.byte	-46
 857 0091 80       		.byte	-128
 858 0092 D4       		.byte	-44
 859 0093 05       		.byte	5
 860 0094 D6       		.byte	-42
 861 0095 04       		.byte	4
 862 0096 D8       		.byte	-40
 863 0097 04       		.byte	4
 864 0098 D9       		.byte	-39
 865 0099 04       		.byte	4
 866 009a DA       		.byte	-38
 867 009b 04       		.byte	4
 868 009c DB       		.byte	-37
 869 009d 04       		.byte	4
 870 009e DF       		.byte	-33
 871 009f 01       		.byte	1
 872 00a0 E0       		.byte	-32
 873 00a1 40       		.byte	64
 874 00a2 E2       		.byte	-30
 875 00a3 C0       		.byte	-64
 876 00a4 E4       		.byte	-28
 877 00a5 40       		.byte	64
 878 00a6 E5       		.byte	-27
 879 00a7 40       		.byte	64
ARM GAS  C:\Users\Admin\AppData\Local\Temp\ccP0iBuc.s 			page 28


 880 00a8 E6       		.byte	-26
 881 00a9 C0       		.byte	-64
 882 00aa E8       		.byte	-24
 883 00ab C0       		.byte	-64
 884 00ac EA       		.byte	-22
 885 00ad C0       		.byte	-64
 886 00ae EC       		.byte	-20
 887 00af C0       		.byte	-64
 888 00b0 EE       		.byte	-18
 889 00b1 C0       		.byte	-64
 890 00b2 06       		.byte	6
 891 00b3 80       		.byte	-128
 892 00b4 0D       		.byte	13
 893 00b5 08       		.byte	8
 894 00b6 17       		.byte	23
 895 00b7 40       		.byte	64
 896 00b8 1C       		.byte	28
 897 00b9 10       		.byte	16
 898 00ba 1D       		.byte	29
 899 00bb 08       		.byte	8
 900 00bc 1E       		.byte	30
 901 00bd 08       		.byte	8
 902 00be 26       		.byte	38
 903 00bf 40       		.byte	64
 904 00c0 27       		.byte	39
 905 00c1 20       		.byte	32
 906 00c2 37       		.byte	55
 907 00c3 20       		.byte	32
 908 00c4 3F       		.byte	63
 909 00c5 08       		.byte	8
 910 00c6 40       		.byte	64
 911 00c7 10       		.byte	16
 912 00c8 42       		.byte	66
 913 00c9 80       		.byte	-128
 914 00ca 45       		.byte	69
 915 00cb 08       		.byte	8
 916 00cc 46       		.byte	70
 917 00cd 80       		.byte	-128
 918 00ce 4F       		.byte	79
 919 00cf 09       		.byte	9
 920 00d0 56       		.byte	86
 921 00d1 80       		.byte	-128
 922 00d2 5E       		.byte	94
 923 00d3 88       		.byte	-120
 924 00d4 5F       		.byte	95
 925 00d5 01       		.byte	1
 926 00d6 67       		.byte	103
 927 00d7 40       		.byte	64
 928 00d8 77       		.byte	119
 929 00d9 40       		.byte	64
 930 00da 87       		.byte	-121
 931 00db 40       		.byte	64
 932 00dc C0       		.byte	-64
 933 00dd 10       		.byte	16
 934 00de C2       		.byte	-62
 935 00df 20       		.byte	32
 936 00e0 C4       		.byte	-60
ARM GAS  C:\Users\Admin\AppData\Local\Temp\ccP0iBuc.s 			page 29


 937 00e1 80       		.byte	-128
 938 00e2 CC       		.byte	-52
 939 00e3 20       		.byte	32
 940 00e4 CE       		.byte	-50
 941 00e5 40       		.byte	64
 942 00e6 D0       		.byte	-48
 943 00e7 C3       		.byte	-61
 944 00e8 D6       		.byte	-42
 945 00e9 D0       		.byte	-48
 946 00ea D8       		.byte	-40
 947 00eb 80       		.byte	-128
 948 00ec 03       		.byte	3
 949 00ed 01       		.byte	1
 950 00ee 16       		.byte	22
 951 00ef 01       		.byte	1
 952 00f0 1E       		.byte	30
 953 00f1 0C       		.byte	12
 954 00f2 26       		.byte	38
 955 00f3 01       		.byte	1
 956 00f4 2D       		.byte	45
 957 00f5 01       		.byte	1
 958 00f6 2E       		.byte	46
 959 00f7 06       		.byte	6
 960 00f8 30       		.byte	48
 961 00f9 08       		.byte	8
 962 00fa 32       		.byte	50
 963 00fb 02       		.byte	2
 964 00fc 34       		.byte	52
 965 00fd 01       		.byte	1
 966 00fe 36       		.byte	54
 967 00ff 04       		.byte	4
 968 0100 37       		.byte	55
 969 0101 01       		.byte	1
 970 0102 3E       		.byte	62
 971 0103 10       		.byte	16
 972 0104 40       		.byte	64
 973 0105 30       		.byte	48
 974 0106 41       		.byte	65
 975 0107 06       		.byte	6
 976 0108 45       		.byte	69
 977 0109 D0       		.byte	-48
 978 010a 46       		.byte	70
 979 010b 20       		.byte	32
 980 010c 47       		.byte	71
 981 010d 10       		.byte	16
 982 010e 48       		.byte	72
 983 010f 2A       		.byte	42
 984 0110 49       		.byte	73
 985 0111 FF       		.byte	-1
 986 0112 4A       		.byte	74
 987 0113 FF       		.byte	-1
 988 0114 4B       		.byte	75
 989 0115 FF       		.byte	-1
 990 0116 4D       		.byte	77
 991 0117 A0       		.byte	-96
 992 0118 4F       		.byte	79
 993 0119 04       		.byte	4
ARM GAS  C:\Users\Admin\AppData\Local\Temp\ccP0iBuc.s 			page 30


 994 011a 50       		.byte	80
 995 011b 18       		.byte	24
 996 011c 52       		.byte	82
 997 011d 80       		.byte	-128
 998 011e 54       		.byte	84
 999 011f 05       		.byte	5
 1000 0120 58       		.byte	88
 1001 0121 04       		.byte	4
 1002 0122 59       		.byte	89
 1003 0123 04       		.byte	4
 1004 0124 5A       		.byte	90
 1005 0125 04       		.byte	4
 1006 0126 5B       		.byte	91
 1007 0127 04       		.byte	4
 1008 0128 5F       		.byte	95
 1009 0129 01       		.byte	1
 1010 012a 60       		.byte	96
 1011 012b 40       		.byte	64
 1012 012c 62       		.byte	98
 1013 012d C0       		.byte	-64
 1014 012e 64       		.byte	100
 1015 012f 40       		.byte	64
 1016 0130 65       		.byte	101
 1017 0131 40       		.byte	64
 1018 0132 66       		.byte	102
 1019 0133 C0       		.byte	-64
 1020 0134 68       		.byte	104
 1021 0135 C0       		.byte	-64
 1022 0136 6A       		.byte	106
 1023 0137 C0       		.byte	-64
 1024 0138 6C       		.byte	108
 1025 0139 C0       		.byte	-64
 1026 013a 6E       		.byte	110
 1027 013b C0       		.byte	-64
 1028 013c 82       		.byte	-126
 1029 013d 01       		.byte	1
 1030 013e 92       		.byte	-110
 1031 013f 06       		.byte	6
 1032 0140 9B       		.byte	-101
 1033 0141 01       		.byte	1
 1034 0142 A5       		.byte	-91
 1035 0143 01       		.byte	1
 1036 0144 A6       		.byte	-90
 1037 0145 0C       		.byte	12
 1038 0146 AA       		.byte	-86
 1039 0147 01       		.byte	1
 1040 0148 B0       		.byte	-80
 1041 0149 04       		.byte	4
 1042 014a B2       		.byte	-78
 1043 014b 08       		.byte	8
 1044 014c B4       		.byte	-76
 1045 014d 01       		.byte	1
 1046 014e B6       		.byte	-74
 1047 014f 02       		.byte	2
 1048 0150 B7       		.byte	-73
 1049 0151 01       		.byte	1
 1050 0152 BE       		.byte	-66
ARM GAS  C:\Users\Admin\AppData\Local\Temp\ccP0iBuc.s 			page 31


 1051 0153 10       		.byte	16
 1052 0154 C0       		.byte	-64
 1053 0155 10       		.byte	16
 1054 0156 C1       		.byte	-63
 1055 0157 06       		.byte	6
 1056 0158 C5       		.byte	-59
 1057 0159 D1       		.byte	-47
 1058 015a C7       		.byte	-57
 1059 015b 02       		.byte	2
 1060 015c C8       		.byte	-56
 1061 015d 13       		.byte	19
 1062 015e C9       		.byte	-55
 1063 015f FF       		.byte	-1
 1064 0160 CA       		.byte	-54
 1065 0161 FF       		.byte	-1
 1066 0162 CB       		.byte	-53
 1067 0163 FF       		.byte	-1
 1068 0164 CD       		.byte	-51
 1069 0165 A0       		.byte	-96
 1070 0166 CF       		.byte	-49
 1071 0167 04       		.byte	4
 1072 0168 D0       		.byte	-48
 1073 0169 18       		.byte	24
 1074 016a D2       		.byte	-46
 1075 016b 80       		.byte	-128
 1076 016c D4       		.byte	-44
 1077 016d 05       		.byte	5
 1078 016e D8       		.byte	-40
 1079 016f 04       		.byte	4
 1080 0170 D9       		.byte	-39
 1081 0171 04       		.byte	4
 1082 0172 DA       		.byte	-38
 1083 0173 04       		.byte	4
 1084 0174 DB       		.byte	-37
 1085 0175 04       		.byte	4
 1086 0176 DF       		.byte	-33
 1087 0177 01       		.byte	1
 1088 0178 E0       		.byte	-32
 1089 0179 40       		.byte	64
 1090 017a E2       		.byte	-30
 1091 017b C0       		.byte	-64
 1092 017c E4       		.byte	-28
 1093 017d 40       		.byte	64
 1094 017e E5       		.byte	-27
 1095 017f 40       		.byte	64
 1096 0180 E6       		.byte	-26
 1097 0181 C0       		.byte	-64
 1098 0182 E8       		.byte	-24
 1099 0183 C0       		.byte	-64
 1100 0184 EA       		.byte	-22
 1101 0185 C0       		.byte	-64
 1102 0186 EC       		.byte	-20
 1103 0187 C0       		.byte	-64
 1104 0188 EE       		.byte	-18
 1105 0189 C0       		.byte	-64
 1106 018a 00       		.byte	0
 1107 018b 01       		.byte	1
ARM GAS  C:\Users\Admin\AppData\Local\Temp\ccP0iBuc.s 			page 32


 1108 018c 09       		.byte	9
 1109 018d 02       		.byte	2
 1110 018e 0D       		.byte	13
 1111 018f 08       		.byte	8
 1112 0190 0F       		.byte	15
 1113 0191 02       		.byte	2
 1114 0192 10       		.byte	16
 1115 0193 28       		.byte	40
 1116 0194 16       		.byte	22
 1117 0195 20       		.byte	32
 1118 0196 17       		.byte	23
 1119 0197 40       		.byte	64
 1120 0198 18       		.byte	24
 1121 0199 01       		.byte	1
 1122 019a 19       		.byte	25
 1123 019b 08       		.byte	8
 1124 019c 1A       		.byte	26
 1125 019d 44       		.byte	68
 1126 019e 1D       		.byte	29
 1127 019f 08       		.byte	8
 1128 01a0 1E       		.byte	30
 1129 01a1 08       		.byte	8
 1130 01a2 1F       		.byte	31
 1131 01a3 82       		.byte	-126
 1132 01a4 22       		.byte	34
 1133 01a5 40       		.byte	64
 1134 01a6 26       		.byte	38
 1135 01a7 40       		.byte	64
 1136 01a8 29       		.byte	41
 1137 01a9 08       		.byte	8
 1138 01aa 2F       		.byte	47
 1139 01ab 02       		.byte	2
 1140 01ac 30       		.byte	48
 1141 01ad 20       		.byte	32
 1142 01ae 3F       		.byte	63
 1143 01af 02       		.byte	2
 1144 01b0 40       		.byte	64
 1145 01b1 01       		.byte	1
 1146 01b2 45       		.byte	69
 1147 01b3 08       		.byte	8
 1148 01b4 48       		.byte	72
 1149 01b5 28       		.byte	40
 1150 01b6 49       		.byte	73
 1151 01b7 01       		.byte	1
 1152 01b8 4F       		.byte	79
 1153 01b9 21       		.byte	33
 1154 01ba 50       		.byte	80
 1155 01bb 08       		.byte	8
 1156 01bc 56       		.byte	86
 1157 01bd 20       		.byte	32
 1158 01be 57       		.byte	87
 1159 01bf 11       		.byte	17
 1160 01c0 59       		.byte	89
 1161 01c1 01       		.byte	1
 1162 01c2 5A       		.byte	90
 1163 01c3 84       		.byte	-124
 1164 01c4 5E       		.byte	94
ARM GAS  C:\Users\Admin\AppData\Local\Temp\ccP0iBuc.s 			page 33


 1165 01c5 88       		.byte	-120
 1166 01c6 5F       		.byte	95
 1167 01c7 01       		.byte	1
 1168 01c8 71       		.byte	113
 1169 01c9 02       		.byte	2
 1170 01ca 77       		.byte	119
 1171 01cb 40       		.byte	64
 1172 01cc 83       		.byte	-125
 1173 01cd 80       		.byte	-128
 1174 01ce 8E       		.byte	-114
 1175 01cf 40       		.byte	64
 1176 01d0 C0       		.byte	-64
 1177 01d1 08       		.byte	8
 1178 01d2 C2       		.byte	-62
 1179 01d3 A8       		.byte	-88
 1180 01d4 C4       		.byte	-60
 1181 01d5 A6       		.byte	-90
 1182 01d6 CA       		.byte	-54
 1183 01d7 12       		.byte	18
 1184 01d8 CC       		.byte	-52
 1185 01d9 04       		.byte	4
 1186 01da CE       		.byte	-50
 1187 01db 80       		.byte	-128
 1188 01dc D0       		.byte	-48
 1189 01dd 48       		.byte	72
 1190 01de D2       		.byte	-46
 1191 01df 24       		.byte	36
 1192 01e0 D6       		.byte	-42
 1193 01e1 DB       		.byte	-37
 1194 01e2 E4       		.byte	-28
 1195 01e3 04       		.byte	4
 1196 01e4 E6       		.byte	-26
 1197 01e5 40       		.byte	64
 1198 01e6 50       		.byte	80
 1199 01e7 10       		.byte	16
 1200 01e8 73       		.byte	115
 1201 01e9 02       		.byte	2
 1202 01ea 87       		.byte	-121
 1203 01eb 02       		.byte	2
 1204 01ec D4       		.byte	-44
 1205 01ed 20       		.byte	32
 1206 01ee DC       		.byte	-36
 1207 01ef 20       		.byte	32
 1208 01f0 E6       		.byte	-26
 1209 01f1 40       		.byte	64
 1210 01f2 8C       		.byte	-116
 1211 01f3 10       		.byte	16
 1212 01f4 94       		.byte	-108
 1213 01f5 20       		.byte	32
 1214 01f6 67       		.byte	103
 1215 01f7 02       		.byte	2
 1216 01f8 D6       		.byte	-42
 1217 01f9 01       		.byte	1
 1218 01fa 83       		.byte	-125
 1219 01fb 01       		.byte	1
 1220 01fc 97       		.byte	-105
 1221 01fd 02       		.byte	2
ARM GAS  C:\Users\Admin\AppData\Local\Temp\ccP0iBuc.s 			page 34


 1222 01fe 10       		.byte	16
 1223 01ff 01       		.byte	1
 1224 0200 11       		.byte	17
 1225 0201 01       		.byte	1
 1226 0202 0000     		.text
 1227              	.Letext0:
 1228              		.file 2 "c:\\program files\\cypress\\psoc creator\\3.1\\psoc creator\\import\\gnu_cs\\arm\\4.8.4\\
 1229              		.file 3 ".\\Generated_Source\\PSoC4/cytypes.h"