ARM GAS  C:\Users\Admin\AppData\Local\Temp\cc8RNVSv.s 			page 1


   1              		.cpu cortex-m0
   2              		.fpu softvfp
   3              		.eabi_attribute 20, 1
   4              		.eabi_attribute 21, 1
   5              		.eabi_attribute 23, 3
   6              		.eabi_attribute 24, 1
   7              		.eabi_attribute 25, 1
   8              		.eabi_attribute 26, 1
   9              		.eabi_attribute 30, 6
  10              		.eabi_attribute 34, 0
  11              		.eabi_attribute 18, 4
  12              		.code	16
  13              		.file	"main.c"
  14              		.text
  15              	.Ltext0:
  16              		.cfi_sections	.debug_frame
  17              		.section	.rodata
  18              		.align	2
  19              	.LC5:
  20 0000 514C3545 		.ascii	"QL5EGTN5\000"
  20      47544E35 
  20      00
  21 0009 000000   		.align	2
  22              	.LC0:
  23 000c 01       		.byte	1
  24 000d 02       		.byte	2
  25 000e 01       		.byte	1
  26 000f 02       		.byte	2
  27 0010 02       		.byte	2
  28 0011 01       		.byte	1
  29 0012 01       		.byte	1
  30 0013 02       		.byte	2
  31 0014 01       		.byte	1
  32 0015 01       		.byte	1
  33 0016 02       		.byte	2
  34 0017 02       		.byte	2
  35 0018 01       		.byte	1
  36 0019 01       		.byte	1
  37 001a 01       		.byte	1
  38 001b 02       		.byte	2
  39 001c 01       		.byte	1
  40 001d 02       		.byte	2
  41 001e 02       		.byte	2
  42 001f 00       		.byte	0
  43              		.align	2
  44              	.LC1:
  45 0020 02       		.byte	2
  46 0021 02       		.byte	2
  47 0022 02       		.byte	2
  48 0023 01       		.byte	1
  49 0024 01       		.byte	1
  50 0025 02       		.byte	2
  51 0026 02       		.byte	2
  52 0027 01       		.byte	1
  53 0028 01       		.byte	1
  54 0029 02       		.byte	2
  55 002a 02       		.byte	2
ARM GAS  C:\Users\Admin\AppData\Local\Temp\cc8RNVSv.s 			page 2


  56 002b 02       		.byte	2
  57 002c 01       		.byte	1
  58 002d 02       		.byte	2
  59 002e 02       		.byte	2
  60 002f 02       		.byte	2
  61 0030 02       		.byte	2
  62 0031 02       		.byte	2
  63 0032 01       		.byte	1
  64 0033 00       		.byte	0
  65              		.section	.text.main,"ax",%progbits
  66              		.align	2
  67              		.global	main
  68              		.code	16
  69              		.thumb_func
  70              		.type	main, %function
  71              	main:
  72              	.LFB33:
  73              		.file 1 ".\\main.c"
   1:.\main.c      **** /* ========================================
   2:.\main.c      ****  *
   3:.\main.c      ****  * Red Badge source code. The volunteer badge
   4:.\main.c      ****  * is used to send encoded morse code message.
   5:.\main.c      ****  *
   6:.\main.c      ****  * Author(s): Ryan Grandgenett <rmgrandgenett@unomaha.edu>
   7:.\main.c      ****  *
   8:.\main.c      ****  * Eye Color: Green
   9:.\main.c      ****  * Serial: Print the morse code output
  10:.\main.c      ****  *
  11:.\main.c      ****  * Copyright Nullify, 2016
  12:.\main.c      ****  * All Rights Reserved
  13:.\main.c      ****  * UNPUBLISHED, LICENSED SOFTWARE.
  14:.\main.c      ****  *
  15:.\main.c      ****  * CONFIDENTIAL AND PROPRIETARY INFORMATION
  16:.\main.c      ****  * WHICH IS THE PROPERTY OF NULLIY.
  17:.\main.c      ****  *
  18:.\main.c      ****  * ========================================
  19:.\main.c      **** */
  20:.\main.c      **** #include <project.h>
  21:.\main.c      **** #include <string.h>
  22:.\main.c      **** #include <stdio.h>
  23:.\main.c      **** #include "lightlib.h"
  24:.\main.c      **** #include "togglelib.h"
  25:.\main.c      **** #include "morse.h"
  26:.\main.c      **** #include "state.h"
  27:.\main.c      **** 
  28:.\main.c      **** int main()
  29:.\main.c      **** {
  74              		.loc 1 29 0
  75              		.cfi_startproc
  76 0000 80B5     		push	{r7, lr}
  77              		.cfi_def_cfa_offset 8
  78              		.cfi_offset 7, -8
  79              		.cfi_offset 14, -4
  80 0002 8AB0     		sub	sp, sp, #40
  81              		.cfi_def_cfa_offset 48
  82 0004 00AF     		add	r7, sp, #0
  83              		.cfi_def_cfa_register 7
ARM GAS  C:\Users\Admin\AppData\Local\Temp\cc8RNVSv.s 			page 3


  30:.\main.c      ****     uint8 volunteer_sequance[MAX_SEQUENCE_SIZE] = {LEFT_TOGGLE, RIGHT_TOGGLE, LEFT_TOGGLE, RIGHT_TO
  84              		.loc 1 30 0
  85 0006 3A1C     		mov	r2, r7
  86 0008 1432     		add	r2, r2, #20
  87 000a 194B     		ldr	r3, .L4
  88 000c 111C     		mov	r1, r2
  89 000e 1A1C     		mov	r2, r3
  90 0010 1423     		mov	r3, #20
  91 0012 081C     		mov	r0, r1
  92 0014 111C     		mov	r1, r2
  93 0016 1A1C     		mov	r2, r3
  94 0018 FFF7FEFF 		bl	memcpy
  31:.\main.c      ****     uint8 organizer_sequance[MAX_SEQUENCE_SIZE] = {RIGHT_TOGGLE, RIGHT_TOGGLE, RIGHT_TOGGLE, LEFT_T
  95              		.loc 1 31 0
  96 001c 3A1C     		mov	r2, r7
  97 001e 154B     		ldr	r3, .L4+4
  98 0020 111C     		mov	r1, r2
  99 0022 1A1C     		mov	r2, r3
 100 0024 1423     		mov	r3, #20
 101 0026 081C     		mov	r0, r1
 102 0028 111C     		mov	r1, r2
 103 002a 1A1C     		mov	r2, r3
 104 002c FFF7FEFF 		bl	memcpy
  32:.\main.c      **** 
  33:.\main.c      ****     /* Enable interrupts (needed for toggles and organizer PWRM) */
  34:.\main.c      ****     CyGlobalIntEnable;
 105              		.loc 1 34 0
 106              	@ 34 ".\main.c" 1
 107 0030 62B6     		CPSIE   i
 108              	@ 0 "" 2
  35:.\main.c      **** 
  36:.\main.c      ****     /* Enable toggle buttons */
  37:.\main.c      ****     enable_toggle_interrupts();
 109              		.loc 1 37 0
 110              		.code	16
 111 0032 FFF7FEFF 		bl	enable_toggle_interrupts
  38:.\main.c      ****     
  39:.\main.c      ****     /* Initialize LEDs to off and default color value */
  40:.\main.c      ****     init_led(GREEN);
 112              		.loc 1 40 0
 113 0036 0420     		mov	r0, #4
 114 0038 FFF7FEFF 		bl	init_led
  41:.\main.c      ****     
  42:.\main.c      ****     /* Set the toggle button magic sequences */
  43:.\main.c      ****     init_magic_toggle_sequance(VOLUNTEER, volunteer_sequance);
 115              		.loc 1 43 0
 116 003c 3B1C     		mov	r3, r7
 117 003e 1433     		add	r3, r3, #20
 118 0040 0120     		mov	r0, #1
 119 0042 191C     		mov	r1, r3
 120 0044 FFF7FEFF 		bl	init_magic_toggle_sequance
  44:.\main.c      ****     init_magic_toggle_sequance(ORGANIZER, organizer_sequance);
 121              		.loc 1 44 0
 122 0048 3B1C     		mov	r3, r7
 123 004a 0220     		mov	r0, #2
 124 004c 191C     		mov	r1, r3
 125 004e FFF7FEFF 		bl	init_magic_toggle_sequance
ARM GAS  C:\Users\Admin\AppData\Local\Temp\cc8RNVSv.s 			page 4


  45:.\main.c      ****     
  46:.\main.c      ****     /* Set the default state to volunteer badge settings */
  47:.\main.c      ****      badge_state = VOLUNTEER;
 126              		.loc 1 47 0
 127 0052 094B     		ldr	r3, .L4+8
 128 0054 0122     		mov	r2, #1
 129 0056 1A70     		strb	r2, [r3]
 130              	.L3:
  48:.\main.c      ****     
  49:.\main.c      ****     for(;;)
  50:.\main.c      ****     {  
  51:.\main.c      ****        if (badge_state == VOLUNTEER) {
 131              		.loc 1 51 0
 132 0058 074B     		ldr	r3, .L4+8
 133 005a 1B78     		ldrb	r3, [r3]
 134 005c DBB2     		uxtb	r3, r3
 135 005e 012B     		cmp	r3, #1
 136 0060 05D1     		bne	.L2
  52:.\main.c      ****          morse_message(LEFT_LED|RIGHT_LED, "QL5EGTN5");
 137              		.loc 1 52 0
 138 0062 064B     		ldr	r3, .L4+12
 139 0064 0320     		mov	r0, #3
 140 0066 191C     		mov	r1, r3
 141 0068 FFF7FEFF 		bl	morse_message
  53:.\main.c      ****        }
  54:.\main.c      ****       
  55:.\main.c      ****     }
 142              		.loc 1 55 0
 143 006c F4E7     		b	.L3
 144              	.L2:
 145 006e F3E7     		b	.L3
 146              	.L5:
 147              		.align	2
 148              	.L4:
 149 0070 0C000000 		.word	.LC0
 150 0074 20000000 		.word	.LC1
 151 0078 00000000 		.word	badge_state
 152 007c 00000000 		.word	.LC5
 153              		.cfi_endproc
 154              	.LFE33:
 155              		.size	main, .-main
 156              		.text
 157              	.Letext0:
 158              		.file 2 ".\\Generated_Source\\PSoC4/cytypes.h"
 159              		.file 3 ".\\state.h"