ARM GAS  C:\Users\Admin\AppData\Local\Temp\ccLEIwe8.s 			page 1


   1              		.cpu cortex-m0
   2              		.fpu softvfp
   3              		.eabi_attribute 20, 1
   4              		.eabi_attribute 21, 1
   5              		.eabi_attribute 23, 3
   6              		.eabi_attribute 24, 1
   7              		.eabi_attribute 25, 1
   8              		.eabi_attribute 26, 1
   9              		.eabi_attribute 30, 6
  10              		.eabi_attribute 34, 0
  11              		.eabi_attribute 18, 4
  12              		.code	16
  13              		.file	"PWM_Light_Show.c"
  14              		.text
  15              	.Ltext0:
  16              		.cfi_sections	.debug_frame
  17              		.global	PWM_Light_Show_initVar
  18              		.bss
  19              		.type	PWM_Light_Show_initVar, %object
  20              		.size	PWM_Light_Show_initVar, 1
  21              	PWM_Light_Show_initVar:
  22 0000 00       		.space	1
  23              		.section	.text.PWM_Light_Show_Start,"ax",%progbits
  24              		.align	2
  25              		.global	PWM_Light_Show_Start
  26              		.code	16
  27              		.thumb_func
  28              		.type	PWM_Light_Show_Start, %function
  29              	PWM_Light_Show_Start:
  30              	.LFB0:
  31              		.file 1 ".\\Generated_Source\\PSoC4\\PWM_Light_Show.c"
   1:.\Generated_Source\PSoC4/PWM_Light_Show.c **** /*******************************************************************************
   2:.\Generated_Source\PSoC4/PWM_Light_Show.c **** * File Name: PWM_Light_Show.c
   3:.\Generated_Source\PSoC4/PWM_Light_Show.c **** * Version 3.10
   4:.\Generated_Source\PSoC4/PWM_Light_Show.c **** *
   5:.\Generated_Source\PSoC4/PWM_Light_Show.c **** * Description:
   6:.\Generated_Source\PSoC4/PWM_Light_Show.c **** *  The PWM User Module consist of an 8 or 16-bit counter with two 8 or 16-bit
   7:.\Generated_Source\PSoC4/PWM_Light_Show.c **** *  comparitors. Each instance of this user module is capable of generating
   8:.\Generated_Source\PSoC4/PWM_Light_Show.c **** *  two PWM outputs with the same period. The pulse width is selectable between
   9:.\Generated_Source\PSoC4/PWM_Light_Show.c **** *  1 and 255/65535. The period is selectable between 2 and 255/65536 clocks.
  10:.\Generated_Source\PSoC4/PWM_Light_Show.c **** *  The compare value output may be configured to be active when the present
  11:.\Generated_Source\PSoC4/PWM_Light_Show.c **** *  counter is less than or less than/equal to the compare value.
  12:.\Generated_Source\PSoC4/PWM_Light_Show.c **** *  A terminal count output is also provided. It generates a pulse one clock
  13:.\Generated_Source\PSoC4/PWM_Light_Show.c **** *  width wide when the counter is equal to zero.
  14:.\Generated_Source\PSoC4/PWM_Light_Show.c **** *
  15:.\Generated_Source\PSoC4/PWM_Light_Show.c **** * Note:
  16:.\Generated_Source\PSoC4/PWM_Light_Show.c **** *
  17:.\Generated_Source\PSoC4/PWM_Light_Show.c **** *******************************************************************************
  18:.\Generated_Source\PSoC4/PWM_Light_Show.c **** * Copyright 2008-2014, Cypress Semiconductor Corporation.  All rights reserved.
  19:.\Generated_Source\PSoC4/PWM_Light_Show.c **** * You may use this file only in accordance with the license, terms, conditions,
  20:.\Generated_Source\PSoC4/PWM_Light_Show.c **** * disclaimers, and limitations in the end user license agreement accompanying
  21:.\Generated_Source\PSoC4/PWM_Light_Show.c **** * the software package with which this file was provided.
  22:.\Generated_Source\PSoC4/PWM_Light_Show.c **** ********************************************************************************/
  23:.\Generated_Source\PSoC4/PWM_Light_Show.c **** 
  24:.\Generated_Source\PSoC4/PWM_Light_Show.c **** #include "PWM_Light_Show.h"
  25:.\Generated_Source\PSoC4/PWM_Light_Show.c **** 
  26:.\Generated_Source\PSoC4/PWM_Light_Show.c **** /* Error message for removed <resource> through optimization */
ARM GAS  C:\Users\Admin\AppData\Local\Temp\ccLEIwe8.s 			page 2


  27:.\Generated_Source\PSoC4/PWM_Light_Show.c **** #ifdef PWM_Light_Show_PWMUDB_genblk1_ctrlreg__REMOVED
  28:.\Generated_Source\PSoC4/PWM_Light_Show.c ****     #error PWM_v3_10 detected with a constant 0 for the enable or \
  29:.\Generated_Source\PSoC4/PWM_Light_Show.c ****          constant 1 for reset. This will prevent the component from operating.
  30:.\Generated_Source\PSoC4/PWM_Light_Show.c **** #endif /* PWM_Light_Show_PWMUDB_genblk1_ctrlreg__REMOVED */
  31:.\Generated_Source\PSoC4/PWM_Light_Show.c **** 
  32:.\Generated_Source\PSoC4/PWM_Light_Show.c **** uint8 PWM_Light_Show_initVar = 0u;
  33:.\Generated_Source\PSoC4/PWM_Light_Show.c **** 
  34:.\Generated_Source\PSoC4/PWM_Light_Show.c **** 
  35:.\Generated_Source\PSoC4/PWM_Light_Show.c **** /*******************************************************************************
  36:.\Generated_Source\PSoC4/PWM_Light_Show.c **** * Function Name: PWM_Light_Show_Start
  37:.\Generated_Source\PSoC4/PWM_Light_Show.c **** ********************************************************************************
  38:.\Generated_Source\PSoC4/PWM_Light_Show.c **** *
  39:.\Generated_Source\PSoC4/PWM_Light_Show.c **** * Summary:
  40:.\Generated_Source\PSoC4/PWM_Light_Show.c **** *  The start function initializes the pwm with the default values, the
  41:.\Generated_Source\PSoC4/PWM_Light_Show.c **** *  enables the counter to begin counting.  It does not enable interrupts,
  42:.\Generated_Source\PSoC4/PWM_Light_Show.c **** *  the EnableInt command should be called if interrupt generation is required.
  43:.\Generated_Source\PSoC4/PWM_Light_Show.c **** *
  44:.\Generated_Source\PSoC4/PWM_Light_Show.c **** * Parameters:
  45:.\Generated_Source\PSoC4/PWM_Light_Show.c **** *  None
  46:.\Generated_Source\PSoC4/PWM_Light_Show.c **** *
  47:.\Generated_Source\PSoC4/PWM_Light_Show.c **** * Return:
  48:.\Generated_Source\PSoC4/PWM_Light_Show.c **** *  None
  49:.\Generated_Source\PSoC4/PWM_Light_Show.c **** *
  50:.\Generated_Source\PSoC4/PWM_Light_Show.c **** * Global variables:
  51:.\Generated_Source\PSoC4/PWM_Light_Show.c **** *  PWM_Light_Show_initVar: Is modified when this function is called for the
  52:.\Generated_Source\PSoC4/PWM_Light_Show.c **** *   first time. Is used to ensure that initialization happens only once.
  53:.\Generated_Source\PSoC4/PWM_Light_Show.c **** *
  54:.\Generated_Source\PSoC4/PWM_Light_Show.c **** *******************************************************************************/
  55:.\Generated_Source\PSoC4/PWM_Light_Show.c **** void PWM_Light_Show_Start(void) 
  56:.\Generated_Source\PSoC4/PWM_Light_Show.c **** {
  32              		.loc 1 56 0
  33              		.cfi_startproc
  34 0000 80B5     		push	{r7, lr}
  35              		.cfi_def_cfa_offset 8
  36              		.cfi_offset 7, -8
  37              		.cfi_offset 14, -4
  38 0002 00AF     		add	r7, sp, #0
  39              		.cfi_def_cfa_register 7
  57:.\Generated_Source\PSoC4/PWM_Light_Show.c ****     /* If not Initialized then initialize all required hardware and software */
  58:.\Generated_Source\PSoC4/PWM_Light_Show.c ****     if(PWM_Light_Show_initVar == 0u)
  40              		.loc 1 58 0
  41 0004 064B     		ldr	r3, .L3
  42 0006 1B78     		ldrb	r3, [r3]
  43 0008 002B     		cmp	r3, #0
  44 000a 04D1     		bne	.L2
  59:.\Generated_Source\PSoC4/PWM_Light_Show.c ****     {
  60:.\Generated_Source\PSoC4/PWM_Light_Show.c ****         PWM_Light_Show_Init();
  45              		.loc 1 60 0
  46 000c FFF7FEFF 		bl	PWM_Light_Show_Init
  61:.\Generated_Source\PSoC4/PWM_Light_Show.c ****         PWM_Light_Show_initVar = 1u;
  47              		.loc 1 61 0
  48 0010 034B     		ldr	r3, .L3
  49 0012 0122     		mov	r2, #1
  50 0014 1A70     		strb	r2, [r3]
  51              	.L2:
  62:.\Generated_Source\PSoC4/PWM_Light_Show.c ****     }
  63:.\Generated_Source\PSoC4/PWM_Light_Show.c ****     PWM_Light_Show_Enable();
ARM GAS  C:\Users\Admin\AppData\Local\Temp\ccLEIwe8.s 			page 3


  52              		.loc 1 63 0
  53 0016 FFF7FEFF 		bl	PWM_Light_Show_Enable
  64:.\Generated_Source\PSoC4/PWM_Light_Show.c **** 
  65:.\Generated_Source\PSoC4/PWM_Light_Show.c **** }
  54              		.loc 1 65 0
  55 001a BD46     		mov	sp, r7
  56              		@ sp needed
  57 001c 80BD     		pop	{r7, pc}
  58              	.L4:
  59 001e C046     		.align	2
  60              	.L3:
  61 0020 00000000 		.word	PWM_Light_Show_initVar
  62              		.cfi_endproc
  63              	.LFE0:
  64              		.size	PWM_Light_Show_Start, .-PWM_Light_Show_Start
  65              		.section	.text.PWM_Light_Show_Init,"ax",%progbits
  66              		.align	2
  67              		.global	PWM_Light_Show_Init
  68              		.code	16
  69              		.thumb_func
  70              		.type	PWM_Light_Show_Init, %function
  71              	PWM_Light_Show_Init:
  72              	.LFB1:
  66:.\Generated_Source\PSoC4/PWM_Light_Show.c **** 
  67:.\Generated_Source\PSoC4/PWM_Light_Show.c **** 
  68:.\Generated_Source\PSoC4/PWM_Light_Show.c **** /*******************************************************************************
  69:.\Generated_Source\PSoC4/PWM_Light_Show.c **** * Function Name: PWM_Light_Show_Init
  70:.\Generated_Source\PSoC4/PWM_Light_Show.c **** ********************************************************************************
  71:.\Generated_Source\PSoC4/PWM_Light_Show.c **** *
  72:.\Generated_Source\PSoC4/PWM_Light_Show.c **** * Summary:
  73:.\Generated_Source\PSoC4/PWM_Light_Show.c **** *  Initialize component's parameters to the parameters set by user in the
  74:.\Generated_Source\PSoC4/PWM_Light_Show.c **** *  customizer of the component placed onto schematic. Usually called in
  75:.\Generated_Source\PSoC4/PWM_Light_Show.c **** *  PWM_Light_Show_Start().
  76:.\Generated_Source\PSoC4/PWM_Light_Show.c **** *
  77:.\Generated_Source\PSoC4/PWM_Light_Show.c **** * Parameters:
  78:.\Generated_Source\PSoC4/PWM_Light_Show.c **** *  None
  79:.\Generated_Source\PSoC4/PWM_Light_Show.c **** *
  80:.\Generated_Source\PSoC4/PWM_Light_Show.c **** * Return:
  81:.\Generated_Source\PSoC4/PWM_Light_Show.c **** *  None
  82:.\Generated_Source\PSoC4/PWM_Light_Show.c **** *
  83:.\Generated_Source\PSoC4/PWM_Light_Show.c **** *******************************************************************************/
  84:.\Generated_Source\PSoC4/PWM_Light_Show.c **** void PWM_Light_Show_Init(void) 
  85:.\Generated_Source\PSoC4/PWM_Light_Show.c **** {
  73              		.loc 1 85 0
  74              		.cfi_startproc
  75 0000 90B5     		push	{r4, r7, lr}
  76              		.cfi_def_cfa_offset 12
  77              		.cfi_offset 4, -12
  78              		.cfi_offset 7, -8
  79              		.cfi_offset 14, -4
  80 0002 83B0     		sub	sp, sp, #12
  81              		.cfi_def_cfa_offset 24
  82 0004 00AF     		add	r7, sp, #0
  83              		.cfi_def_cfa_register 7
  86:.\Generated_Source\PSoC4/PWM_Light_Show.c ****     #if (PWM_Light_Show_UsingFixedFunction || PWM_Light_Show_UseControl)
  87:.\Generated_Source\PSoC4/PWM_Light_Show.c ****         uint8 ctrl;
  88:.\Generated_Source\PSoC4/PWM_Light_Show.c ****     #endif /* (PWM_Light_Show_UsingFixedFunction || PWM_Light_Show_UseControl) */
ARM GAS  C:\Users\Admin\AppData\Local\Temp\ccLEIwe8.s 			page 4


  89:.\Generated_Source\PSoC4/PWM_Light_Show.c **** 
  90:.\Generated_Source\PSoC4/PWM_Light_Show.c ****     #if(!PWM_Light_Show_UsingFixedFunction)
  91:.\Generated_Source\PSoC4/PWM_Light_Show.c ****         #if(PWM_Light_Show_UseStatus)
  92:.\Generated_Source\PSoC4/PWM_Light_Show.c ****             /* Interrupt State Backup for Critical Region*/
  93:.\Generated_Source\PSoC4/PWM_Light_Show.c ****             uint8 PWM_Light_Show_interruptState;
  94:.\Generated_Source\PSoC4/PWM_Light_Show.c ****         #endif /* (PWM_Light_Show_UseStatus) */
  95:.\Generated_Source\PSoC4/PWM_Light_Show.c ****     #endif /* (!PWM_Light_Show_UsingFixedFunction) */
  96:.\Generated_Source\PSoC4/PWM_Light_Show.c **** 
  97:.\Generated_Source\PSoC4/PWM_Light_Show.c ****     #if (PWM_Light_Show_UsingFixedFunction)
  98:.\Generated_Source\PSoC4/PWM_Light_Show.c ****         /* You are allowed to write the compare value (FF only) */
  99:.\Generated_Source\PSoC4/PWM_Light_Show.c ****         PWM_Light_Show_CONTROL |= PWM_Light_Show_CFG0_MODE;
 100:.\Generated_Source\PSoC4/PWM_Light_Show.c ****         #if (PWM_Light_Show_DeadBand2_4)
 101:.\Generated_Source\PSoC4/PWM_Light_Show.c ****             PWM_Light_Show_CONTROL |= PWM_Light_Show_CFG0_DB;
 102:.\Generated_Source\PSoC4/PWM_Light_Show.c ****         #endif /* (PWM_Light_Show_DeadBand2_4) */
 103:.\Generated_Source\PSoC4/PWM_Light_Show.c **** 
 104:.\Generated_Source\PSoC4/PWM_Light_Show.c ****         ctrl = PWM_Light_Show_CONTROL3 & ((uint8 )(~PWM_Light_Show_CTRL_CMPMODE1_MASK));
 105:.\Generated_Source\PSoC4/PWM_Light_Show.c ****         PWM_Light_Show_CONTROL3 = ctrl | PWM_Light_Show_DEFAULT_COMPARE1_MODE;
 106:.\Generated_Source\PSoC4/PWM_Light_Show.c **** 
 107:.\Generated_Source\PSoC4/PWM_Light_Show.c ****          /* Clear and Set SYNCTC and SYNCCMP bits of RT1 register */
 108:.\Generated_Source\PSoC4/PWM_Light_Show.c ****         PWM_Light_Show_RT1 &= ((uint8)(~PWM_Light_Show_RT1_MASK));
 109:.\Generated_Source\PSoC4/PWM_Light_Show.c ****         PWM_Light_Show_RT1 |= PWM_Light_Show_SYNC;
 110:.\Generated_Source\PSoC4/PWM_Light_Show.c **** 
 111:.\Generated_Source\PSoC4/PWM_Light_Show.c ****         /*Enable DSI Sync all all inputs of the PWM*/
 112:.\Generated_Source\PSoC4/PWM_Light_Show.c ****         PWM_Light_Show_RT1 &= ((uint8)(~PWM_Light_Show_SYNCDSI_MASK));
 113:.\Generated_Source\PSoC4/PWM_Light_Show.c ****         PWM_Light_Show_RT1 |= PWM_Light_Show_SYNCDSI_EN;
 114:.\Generated_Source\PSoC4/PWM_Light_Show.c **** 
 115:.\Generated_Source\PSoC4/PWM_Light_Show.c ****     #elif (PWM_Light_Show_UseControl)
 116:.\Generated_Source\PSoC4/PWM_Light_Show.c ****         /* Set the default compare mode defined in the parameter */
 117:.\Generated_Source\PSoC4/PWM_Light_Show.c ****         ctrl = PWM_Light_Show_CONTROL & ((uint8)(~PWM_Light_Show_CTRL_CMPMODE2_MASK)) &
  84              		.loc 1 117 0
  85 0006 224B     		ldr	r3, .L6
  86 0008 1B78     		ldrb	r3, [r3]
  87 000a DAB2     		uxtb	r2, r3
  88 000c FB1D     		add	r3, r7, #7
  89 000e 3F21     		mov	r1, #63
  90 0010 8A43     		bic	r2, r1
  91 0012 1A70     		strb	r2, [r3]
 118:.\Generated_Source\PSoC4/PWM_Light_Show.c ****                 ((uint8)(~PWM_Light_Show_CTRL_CMPMODE1_MASK));
 119:.\Generated_Source\PSoC4/PWM_Light_Show.c ****         PWM_Light_Show_CONTROL = ctrl | PWM_Light_Show_DEFAULT_COMPARE2_MODE |
  92              		.loc 1 119 0
  93 0014 1E4B     		ldr	r3, .L6
  94 0016 FA1D     		add	r2, r7, #7
  95 0018 1278     		ldrb	r2, [r2]
  96 001a 0921     		mov	r1, #9
  97 001c 0A43     		orr	r2, r1
  98 001e D2B2     		uxtb	r2, r2
  99 0020 1A70     		strb	r2, [r3]
 120:.\Generated_Source\PSoC4/PWM_Light_Show.c ****                                    PWM_Light_Show_DEFAULT_COMPARE1_MODE;
 121:.\Generated_Source\PSoC4/PWM_Light_Show.c ****     #endif /* (PWM_Light_Show_UsingFixedFunction) */
 122:.\Generated_Source\PSoC4/PWM_Light_Show.c **** 
 123:.\Generated_Source\PSoC4/PWM_Light_Show.c ****     #if (!PWM_Light_Show_UsingFixedFunction)
 124:.\Generated_Source\PSoC4/PWM_Light_Show.c ****         #if (PWM_Light_Show_Resolution == 8)
 125:.\Generated_Source\PSoC4/PWM_Light_Show.c ****             /* Set FIFO 0 to 1 byte register for period*/
 126:.\Generated_Source\PSoC4/PWM_Light_Show.c ****             PWM_Light_Show_AUX_CONTROLDP0 |= (PWM_Light_Show_AUX_CTRL_FIFO0_CLR);
 127:.\Generated_Source\PSoC4/PWM_Light_Show.c ****         #else /* (PWM_Light_Show_Resolution == 16)*/
 128:.\Generated_Source\PSoC4/PWM_Light_Show.c ****             /* Set FIFO 0 to 1 byte register for period */
 129:.\Generated_Source\PSoC4/PWM_Light_Show.c ****             PWM_Light_Show_AUX_CONTROLDP0 |= (PWM_Light_Show_AUX_CTRL_FIFO0_CLR);
ARM GAS  C:\Users\Admin\AppData\Local\Temp\ccLEIwe8.s 			page 5


 100              		.loc 1 129 0
 101 0022 1C4B     		ldr	r3, .L6+4
 102 0024 1B4A     		ldr	r2, .L6+4
 103 0026 1278     		ldrb	r2, [r2]
 104 0028 D2B2     		uxtb	r2, r2
 105 002a 0121     		mov	r1, #1
 106 002c 0A43     		orr	r2, r1
 107 002e D2B2     		uxtb	r2, r2
 108 0030 1A70     		strb	r2, [r3]
 130:.\Generated_Source\PSoC4/PWM_Light_Show.c ****             PWM_Light_Show_AUX_CONTROLDP1 |= (PWM_Light_Show_AUX_CTRL_FIFO0_CLR);
 109              		.loc 1 130 0
 110 0032 194B     		ldr	r3, .L6+8
 111 0034 184A     		ldr	r2, .L6+8
 112 0036 1278     		ldrb	r2, [r2]
 113 0038 D2B2     		uxtb	r2, r2
 114 003a 0121     		mov	r1, #1
 115 003c 0A43     		orr	r2, r1
 116 003e D2B2     		uxtb	r2, r2
 117 0040 1A70     		strb	r2, [r3]
 131:.\Generated_Source\PSoC4/PWM_Light_Show.c ****         #endif /* (PWM_Light_Show_Resolution == 8) */
 132:.\Generated_Source\PSoC4/PWM_Light_Show.c **** 
 133:.\Generated_Source\PSoC4/PWM_Light_Show.c ****         PWM_Light_Show_WriteCounter(PWM_Light_Show_INIT_PERIOD_VALUE);
 118              		.loc 1 133 0
 119 0042 164B     		ldr	r3, .L6+12
 120 0044 181C     		mov	r0, r3
 121 0046 FFF7FEFF 		bl	PWM_Light_Show_WriteCounter
 134:.\Generated_Source\PSoC4/PWM_Light_Show.c ****     #endif /* (!PWM_Light_Show_UsingFixedFunction) */
 135:.\Generated_Source\PSoC4/PWM_Light_Show.c **** 
 136:.\Generated_Source\PSoC4/PWM_Light_Show.c ****     PWM_Light_Show_WritePeriod(PWM_Light_Show_INIT_PERIOD_VALUE);
 122              		.loc 1 136 0
 123 004a 144B     		ldr	r3, .L6+12
 124 004c 181C     		mov	r0, r3
 125 004e FFF7FEFF 		bl	PWM_Light_Show_WritePeriod
 137:.\Generated_Source\PSoC4/PWM_Light_Show.c **** 
 138:.\Generated_Source\PSoC4/PWM_Light_Show.c ****         #if (PWM_Light_Show_UseOneCompareMode)
 139:.\Generated_Source\PSoC4/PWM_Light_Show.c ****             PWM_Light_Show_WriteCompare(PWM_Light_Show_INIT_COMPARE_VALUE1);
 126              		.loc 1 139 0
 127 0052 124B     		ldr	r3, .L6+12
 128 0054 181C     		mov	r0, r3
 129 0056 FFF7FEFF 		bl	PWM_Light_Show_WriteCompare
 140:.\Generated_Source\PSoC4/PWM_Light_Show.c ****         #else
 141:.\Generated_Source\PSoC4/PWM_Light_Show.c ****             PWM_Light_Show_WriteCompare1(PWM_Light_Show_INIT_COMPARE_VALUE1);
 142:.\Generated_Source\PSoC4/PWM_Light_Show.c ****             PWM_Light_Show_WriteCompare2(PWM_Light_Show_INIT_COMPARE_VALUE2);
 143:.\Generated_Source\PSoC4/PWM_Light_Show.c ****         #endif /* (PWM_Light_Show_UseOneCompareMode) */
 144:.\Generated_Source\PSoC4/PWM_Light_Show.c **** 
 145:.\Generated_Source\PSoC4/PWM_Light_Show.c ****         #if (PWM_Light_Show_KillModeMinTime)
 146:.\Generated_Source\PSoC4/PWM_Light_Show.c ****             PWM_Light_Show_WriteKillTime(PWM_Light_Show_MinimumKillTime);
 147:.\Generated_Source\PSoC4/PWM_Light_Show.c ****         #endif /* (PWM_Light_Show_KillModeMinTime) */
 148:.\Generated_Source\PSoC4/PWM_Light_Show.c **** 
 149:.\Generated_Source\PSoC4/PWM_Light_Show.c ****         #if (PWM_Light_Show_DeadBandUsed)
 150:.\Generated_Source\PSoC4/PWM_Light_Show.c ****             PWM_Light_Show_WriteDeadTime(PWM_Light_Show_INIT_DEAD_TIME);
 151:.\Generated_Source\PSoC4/PWM_Light_Show.c ****         #endif /* (PWM_Light_Show_DeadBandUsed) */
 152:.\Generated_Source\PSoC4/PWM_Light_Show.c **** 
 153:.\Generated_Source\PSoC4/PWM_Light_Show.c ****     #if (PWM_Light_Show_UseStatus || PWM_Light_Show_UsingFixedFunction)
 154:.\Generated_Source\PSoC4/PWM_Light_Show.c ****         PWM_Light_Show_SetInterruptMode(PWM_Light_Show_INIT_INTERRUPTS_MODE);
 130              		.loc 1 154 0
 131 005a 0120     		mov	r0, #1
ARM GAS  C:\Users\Admin\AppData\Local\Temp\ccLEIwe8.s 			page 6


 132 005c FFF7FEFF 		bl	PWM_Light_Show_SetInterruptMode
 155:.\Generated_Source\PSoC4/PWM_Light_Show.c ****     #endif /* (PWM_Light_Show_UseStatus || PWM_Light_Show_UsingFixedFunction) */
 156:.\Generated_Source\PSoC4/PWM_Light_Show.c **** 
 157:.\Generated_Source\PSoC4/PWM_Light_Show.c ****     #if (PWM_Light_Show_UsingFixedFunction)
 158:.\Generated_Source\PSoC4/PWM_Light_Show.c ****         /* Globally Enable the Fixed Function Block chosen */
 159:.\Generated_Source\PSoC4/PWM_Light_Show.c ****         PWM_Light_Show_GLOBAL_ENABLE |= PWM_Light_Show_BLOCK_EN_MASK;
 160:.\Generated_Source\PSoC4/PWM_Light_Show.c ****         /* Set the Interrupt source to come from the status register */
 161:.\Generated_Source\PSoC4/PWM_Light_Show.c ****         PWM_Light_Show_CONTROL2 |= PWM_Light_Show_CTRL2_IRQ_SEL;
 162:.\Generated_Source\PSoC4/PWM_Light_Show.c ****     #else
 163:.\Generated_Source\PSoC4/PWM_Light_Show.c ****         #if(PWM_Light_Show_UseStatus)
 164:.\Generated_Source\PSoC4/PWM_Light_Show.c **** 
 165:.\Generated_Source\PSoC4/PWM_Light_Show.c ****             /* CyEnterCriticalRegion and CyExitCriticalRegion are used to mark following region cri
 166:.\Generated_Source\PSoC4/PWM_Light_Show.c ****             /* Enter Critical Region*/
 167:.\Generated_Source\PSoC4/PWM_Light_Show.c ****             PWM_Light_Show_interruptState = CyEnterCriticalSection();
 133              		.loc 1 167 0
 134 0060 BC1D     		add	r4, r7, #6
 135 0062 FFF7FEFF 		bl	CyEnterCriticalSection
 136 0066 031C     		mov	r3, r0
 137 0068 2370     		strb	r3, [r4]
 168:.\Generated_Source\PSoC4/PWM_Light_Show.c ****             /* Use the interrupt output of the status register for IRQ output */
 169:.\Generated_Source\PSoC4/PWM_Light_Show.c ****             PWM_Light_Show_STATUS_AUX_CTRL |= PWM_Light_Show_STATUS_ACTL_INT_EN_MASK;
 138              		.loc 1 169 0
 139 006a 0B4B     		ldr	r3, .L6+8
 140 006c 0A4A     		ldr	r2, .L6+8
 141 006e 1278     		ldrb	r2, [r2]
 142 0070 D2B2     		uxtb	r2, r2
 143 0072 1021     		mov	r1, #16
 144 0074 0A43     		orr	r2, r1
 145 0076 D2B2     		uxtb	r2, r2
 146 0078 1A70     		strb	r2, [r3]
 170:.\Generated_Source\PSoC4/PWM_Light_Show.c **** 
 171:.\Generated_Source\PSoC4/PWM_Light_Show.c ****              /* Exit Critical Region*/
 172:.\Generated_Source\PSoC4/PWM_Light_Show.c ****             CyExitCriticalSection(PWM_Light_Show_interruptState);
 147              		.loc 1 172 0
 148 007a BB1D     		add	r3, r7, #6
 149 007c 1B78     		ldrb	r3, [r3]
 150 007e 181C     		mov	r0, r3
 151 0080 FFF7FEFF 		bl	CyExitCriticalSection
 173:.\Generated_Source\PSoC4/PWM_Light_Show.c **** 
 174:.\Generated_Source\PSoC4/PWM_Light_Show.c ****             /* Clear the FIFO to enable the PWM_Light_Show_STATUS_FIFOFULL
 175:.\Generated_Source\PSoC4/PWM_Light_Show.c ****                    bit to be set on FIFO full. */
 176:.\Generated_Source\PSoC4/PWM_Light_Show.c ****             PWM_Light_Show_ClearFIFO();
 152              		.loc 1 176 0
 153 0084 FFF7FEFF 		bl	PWM_Light_Show_ClearFIFO
 177:.\Generated_Source\PSoC4/PWM_Light_Show.c ****         #endif /* (PWM_Light_Show_UseStatus) */
 178:.\Generated_Source\PSoC4/PWM_Light_Show.c ****     #endif /* (PWM_Light_Show_UsingFixedFunction) */
 179:.\Generated_Source\PSoC4/PWM_Light_Show.c **** }
 154              		.loc 1 179 0
 155 0088 BD46     		mov	sp, r7
 156 008a 03B0     		add	sp, sp, #12
 157              		@ sp needed
 158 008c 90BD     		pop	{r4, r7, pc}
 159              	.L7:
 160 008e C046     		.align	2
 161              	.L6:
 162 0090 70000F40 		.word	1074724976
 163 0094 90000F40 		.word	1074725008
ARM GAS  C:\Users\Admin\AppData\Local\Temp\ccLEIwe8.s 			page 7


 164 0098 91000F40 		.word	1074725009
 165 009c 26020000 		.word	550
 166              		.cfi_endproc
 167              	.LFE1:
 168              		.size	PWM_Light_Show_Init, .-PWM_Light_Show_Init
 169              		.section	.text.PWM_Light_Show_Enable,"ax",%progbits
 170              		.align	2
 171              		.global	PWM_Light_Show_Enable
 172              		.code	16
 173              		.thumb_func
 174              		.type	PWM_Light_Show_Enable, %function
 175              	PWM_Light_Show_Enable:
 176              	.LFB2:
 180:.\Generated_Source\PSoC4/PWM_Light_Show.c **** 
 181:.\Generated_Source\PSoC4/PWM_Light_Show.c **** 
 182:.\Generated_Source\PSoC4/PWM_Light_Show.c **** /*******************************************************************************
 183:.\Generated_Source\PSoC4/PWM_Light_Show.c **** * Function Name: PWM_Light_Show_Enable
 184:.\Generated_Source\PSoC4/PWM_Light_Show.c **** ********************************************************************************
 185:.\Generated_Source\PSoC4/PWM_Light_Show.c **** *
 186:.\Generated_Source\PSoC4/PWM_Light_Show.c **** * Summary:
 187:.\Generated_Source\PSoC4/PWM_Light_Show.c **** *  Enables the PWM block operation
 188:.\Generated_Source\PSoC4/PWM_Light_Show.c **** *
 189:.\Generated_Source\PSoC4/PWM_Light_Show.c **** * Parameters:
 190:.\Generated_Source\PSoC4/PWM_Light_Show.c **** *  None
 191:.\Generated_Source\PSoC4/PWM_Light_Show.c **** *
 192:.\Generated_Source\PSoC4/PWM_Light_Show.c **** * Return:
 193:.\Generated_Source\PSoC4/PWM_Light_Show.c **** *  None
 194:.\Generated_Source\PSoC4/PWM_Light_Show.c **** *
 195:.\Generated_Source\PSoC4/PWM_Light_Show.c **** * Side Effects:
 196:.\Generated_Source\PSoC4/PWM_Light_Show.c **** *  This works only if software enable mode is chosen
 197:.\Generated_Source\PSoC4/PWM_Light_Show.c **** *
 198:.\Generated_Source\PSoC4/PWM_Light_Show.c **** *******************************************************************************/
 199:.\Generated_Source\PSoC4/PWM_Light_Show.c **** void PWM_Light_Show_Enable(void) 
 200:.\Generated_Source\PSoC4/PWM_Light_Show.c **** {
 177              		.loc 1 200 0
 178              		.cfi_startproc
 179 0000 80B5     		push	{r7, lr}
 180              		.cfi_def_cfa_offset 8
 181              		.cfi_offset 7, -8
 182              		.cfi_offset 14, -4
 183 0002 00AF     		add	r7, sp, #0
 184              		.cfi_def_cfa_register 7
 201:.\Generated_Source\PSoC4/PWM_Light_Show.c ****     /* Globally Enable the Fixed Function Block chosen */
 202:.\Generated_Source\PSoC4/PWM_Light_Show.c ****     #if (PWM_Light_Show_UsingFixedFunction)
 203:.\Generated_Source\PSoC4/PWM_Light_Show.c ****         PWM_Light_Show_GLOBAL_ENABLE |= PWM_Light_Show_BLOCK_EN_MASK;
 204:.\Generated_Source\PSoC4/PWM_Light_Show.c ****         PWM_Light_Show_GLOBAL_STBY_ENABLE |= PWM_Light_Show_BLOCK_STBY_EN_MASK;
 205:.\Generated_Source\PSoC4/PWM_Light_Show.c ****     #endif /* (PWM_Light_Show_UsingFixedFunction) */
 206:.\Generated_Source\PSoC4/PWM_Light_Show.c **** 
 207:.\Generated_Source\PSoC4/PWM_Light_Show.c ****     /* Enable the PWM from the control register  */
 208:.\Generated_Source\PSoC4/PWM_Light_Show.c ****     #if (PWM_Light_Show_UseControl || PWM_Light_Show_UsingFixedFunction)
 209:.\Generated_Source\PSoC4/PWM_Light_Show.c ****         PWM_Light_Show_CONTROL |= PWM_Light_Show_CTRL_ENABLE;
 185              		.loc 1 209 0
 186 0004 054B     		ldr	r3, .L9
 187 0006 054A     		ldr	r2, .L9
 188 0008 1278     		ldrb	r2, [r2]
 189 000a D2B2     		uxtb	r2, r2
 190 000c 8021     		mov	r1, #128
ARM GAS  C:\Users\Admin\AppData\Local\Temp\ccLEIwe8.s 			page 8


 191 000e 4942     		neg	r1, r1
 192 0010 0A43     		orr	r2, r1
 193 0012 D2B2     		uxtb	r2, r2
 194 0014 1A70     		strb	r2, [r3]
 210:.\Generated_Source\PSoC4/PWM_Light_Show.c ****     #endif /* (PWM_Light_Show_UseControl || PWM_Light_Show_UsingFixedFunction) */
 211:.\Generated_Source\PSoC4/PWM_Light_Show.c **** }
 195              		.loc 1 211 0
 196 0016 BD46     		mov	sp, r7
 197              		@ sp needed
 198 0018 80BD     		pop	{r7, pc}
 199              	.L10:
 200 001a C046     		.align	2
 201              	.L9:
 202 001c 70000F40 		.word	1074724976
 203              		.cfi_endproc
 204              	.LFE2:
 205              		.size	PWM_Light_Show_Enable, .-PWM_Light_Show_Enable
 206              		.section	.text.PWM_Light_Show_Stop,"ax",%progbits
 207              		.align	2
 208              		.global	PWM_Light_Show_Stop
 209              		.code	16
 210              		.thumb_func
 211              		.type	PWM_Light_Show_Stop, %function
 212              	PWM_Light_Show_Stop:
 213              	.LFB3:
 212:.\Generated_Source\PSoC4/PWM_Light_Show.c **** 
 213:.\Generated_Source\PSoC4/PWM_Light_Show.c **** 
 214:.\Generated_Source\PSoC4/PWM_Light_Show.c **** /*******************************************************************************
 215:.\Generated_Source\PSoC4/PWM_Light_Show.c **** * Function Name: PWM_Light_Show_Stop
 216:.\Generated_Source\PSoC4/PWM_Light_Show.c **** ********************************************************************************
 217:.\Generated_Source\PSoC4/PWM_Light_Show.c **** *
 218:.\Generated_Source\PSoC4/PWM_Light_Show.c **** * Summary:
 219:.\Generated_Source\PSoC4/PWM_Light_Show.c **** *  The stop function halts the PWM, but does not change any modes or disable
 220:.\Generated_Source\PSoC4/PWM_Light_Show.c **** *  interrupts.
 221:.\Generated_Source\PSoC4/PWM_Light_Show.c **** *
 222:.\Generated_Source\PSoC4/PWM_Light_Show.c **** * Parameters:
 223:.\Generated_Source\PSoC4/PWM_Light_Show.c **** *  None
 224:.\Generated_Source\PSoC4/PWM_Light_Show.c **** *
 225:.\Generated_Source\PSoC4/PWM_Light_Show.c **** * Return:
 226:.\Generated_Source\PSoC4/PWM_Light_Show.c **** *  None
 227:.\Generated_Source\PSoC4/PWM_Light_Show.c **** *
 228:.\Generated_Source\PSoC4/PWM_Light_Show.c **** * Side Effects:
 229:.\Generated_Source\PSoC4/PWM_Light_Show.c **** *  If the Enable mode is set to Hardware only then this function
 230:.\Generated_Source\PSoC4/PWM_Light_Show.c **** *  has no effect on the operation of the PWM
 231:.\Generated_Source\PSoC4/PWM_Light_Show.c **** *
 232:.\Generated_Source\PSoC4/PWM_Light_Show.c **** *******************************************************************************/
 233:.\Generated_Source\PSoC4/PWM_Light_Show.c **** void PWM_Light_Show_Stop(void) 
 234:.\Generated_Source\PSoC4/PWM_Light_Show.c **** {
 214              		.loc 1 234 0
 215              		.cfi_startproc
 216 0000 80B5     		push	{r7, lr}
 217              		.cfi_def_cfa_offset 8
 218              		.cfi_offset 7, -8
 219              		.cfi_offset 14, -4
 220 0002 00AF     		add	r7, sp, #0
 221              		.cfi_def_cfa_register 7
 235:.\Generated_Source\PSoC4/PWM_Light_Show.c ****     #if (PWM_Light_Show_UseControl || PWM_Light_Show_UsingFixedFunction)
ARM GAS  C:\Users\Admin\AppData\Local\Temp\ccLEIwe8.s 			page 9


 236:.\Generated_Source\PSoC4/PWM_Light_Show.c ****         PWM_Light_Show_CONTROL &= ((uint8)(~PWM_Light_Show_CTRL_ENABLE));
 222              		.loc 1 236 0
 223 0004 044B     		ldr	r3, .L12
 224 0006 044A     		ldr	r2, .L12
 225 0008 1278     		ldrb	r2, [r2]
 226 000a D1B2     		uxtb	r1, r2
 227 000c 7F22     		mov	r2, #127
 228 000e 0A40     		and	r2, r1
 229 0010 D2B2     		uxtb	r2, r2
 230 0012 1A70     		strb	r2, [r3]
 237:.\Generated_Source\PSoC4/PWM_Light_Show.c ****     #endif /* (PWM_Light_Show_UseControl || PWM_Light_Show_UsingFixedFunction) */
 238:.\Generated_Source\PSoC4/PWM_Light_Show.c **** 
 239:.\Generated_Source\PSoC4/PWM_Light_Show.c ****     /* Globally disable the Fixed Function Block chosen */
 240:.\Generated_Source\PSoC4/PWM_Light_Show.c ****     #if (PWM_Light_Show_UsingFixedFunction)
 241:.\Generated_Source\PSoC4/PWM_Light_Show.c ****         PWM_Light_Show_GLOBAL_ENABLE &= ((uint8)(~PWM_Light_Show_BLOCK_EN_MASK));
 242:.\Generated_Source\PSoC4/PWM_Light_Show.c ****         PWM_Light_Show_GLOBAL_STBY_ENABLE &= ((uint8)(~PWM_Light_Show_BLOCK_STBY_EN_MASK));
 243:.\Generated_Source\PSoC4/PWM_Light_Show.c ****     #endif /* (PWM_Light_Show_UsingFixedFunction) */
 244:.\Generated_Source\PSoC4/PWM_Light_Show.c **** }
 231              		.loc 1 244 0
 232 0014 BD46     		mov	sp, r7
 233              		@ sp needed
 234 0016 80BD     		pop	{r7, pc}
 235              	.L13:
 236              		.align	2
 237              	.L12:
 238 0018 70000F40 		.word	1074724976
 239              		.cfi_endproc
 240              	.LFE3:
 241              		.size	PWM_Light_Show_Stop, .-PWM_Light_Show_Stop
 242              		.section	.text.PWM_Light_Show_WriteCounter,"ax",%progbits
 243              		.align	2
 244              		.global	PWM_Light_Show_WriteCounter
 245              		.code	16
 246              		.thumb_func
 247              		.type	PWM_Light_Show_WriteCounter, %function
 248              	PWM_Light_Show_WriteCounter:
 249              	.LFB4:
 245:.\Generated_Source\PSoC4/PWM_Light_Show.c **** 
 246:.\Generated_Source\PSoC4/PWM_Light_Show.c **** #if (PWM_Light_Show_UseOneCompareMode)
 247:.\Generated_Source\PSoC4/PWM_Light_Show.c ****     #if (PWM_Light_Show_CompareMode1SW)
 248:.\Generated_Source\PSoC4/PWM_Light_Show.c **** 
 249:.\Generated_Source\PSoC4/PWM_Light_Show.c **** 
 250:.\Generated_Source\PSoC4/PWM_Light_Show.c ****         /*******************************************************************************
 251:.\Generated_Source\PSoC4/PWM_Light_Show.c ****         * Function Name: PWM_Light_Show_SetCompareMode
 252:.\Generated_Source\PSoC4/PWM_Light_Show.c ****         ********************************************************************************
 253:.\Generated_Source\PSoC4/PWM_Light_Show.c ****         *
 254:.\Generated_Source\PSoC4/PWM_Light_Show.c ****         * Summary:
 255:.\Generated_Source\PSoC4/PWM_Light_Show.c ****         *  This function writes the Compare Mode for the pwm output when in Dither mode,
 256:.\Generated_Source\PSoC4/PWM_Light_Show.c ****         *  Center Align Mode or One Output Mode.
 257:.\Generated_Source\PSoC4/PWM_Light_Show.c ****         *
 258:.\Generated_Source\PSoC4/PWM_Light_Show.c ****         * Parameters:
 259:.\Generated_Source\PSoC4/PWM_Light_Show.c ****         *  comparemode:  The new compare mode for the PWM output. Use the compare types
 260:.\Generated_Source\PSoC4/PWM_Light_Show.c ****         *                defined in the H file as input arguments.
 261:.\Generated_Source\PSoC4/PWM_Light_Show.c ****         *
 262:.\Generated_Source\PSoC4/PWM_Light_Show.c ****         * Return:
 263:.\Generated_Source\PSoC4/PWM_Light_Show.c ****         *  None
 264:.\Generated_Source\PSoC4/PWM_Light_Show.c ****         *
ARM GAS  C:\Users\Admin\AppData\Local\Temp\ccLEIwe8.s 			page 10


 265:.\Generated_Source\PSoC4/PWM_Light_Show.c ****         *******************************************************************************/
 266:.\Generated_Source\PSoC4/PWM_Light_Show.c ****         void PWM_Light_Show_SetCompareMode(uint8 comparemode) 
 267:.\Generated_Source\PSoC4/PWM_Light_Show.c ****         {
 268:.\Generated_Source\PSoC4/PWM_Light_Show.c ****             #if(PWM_Light_Show_UsingFixedFunction)
 269:.\Generated_Source\PSoC4/PWM_Light_Show.c **** 
 270:.\Generated_Source\PSoC4/PWM_Light_Show.c ****                 #if(0 != PWM_Light_Show_CTRL_CMPMODE1_SHIFT)
 271:.\Generated_Source\PSoC4/PWM_Light_Show.c ****                     uint8 comparemodemasked = ((uint8)((uint8)comparemode << PWM_Light_Show_CTRL_CM
 272:.\Generated_Source\PSoC4/PWM_Light_Show.c ****                 #else
 273:.\Generated_Source\PSoC4/PWM_Light_Show.c ****                     uint8 comparemodemasked = comparemode;
 274:.\Generated_Source\PSoC4/PWM_Light_Show.c ****                 #endif /* (0 != PWM_Light_Show_CTRL_CMPMODE1_SHIFT) */
 275:.\Generated_Source\PSoC4/PWM_Light_Show.c **** 
 276:.\Generated_Source\PSoC4/PWM_Light_Show.c ****                 PWM_Light_Show_CONTROL3 &= ((uint8)(~PWM_Light_Show_CTRL_CMPMODE1_MASK)); /*Clear E
 277:.\Generated_Source\PSoC4/PWM_Light_Show.c ****                 PWM_Light_Show_CONTROL3 |= comparemodemasked;
 278:.\Generated_Source\PSoC4/PWM_Light_Show.c **** 
 279:.\Generated_Source\PSoC4/PWM_Light_Show.c ****             #elif (PWM_Light_Show_UseControl)
 280:.\Generated_Source\PSoC4/PWM_Light_Show.c **** 
 281:.\Generated_Source\PSoC4/PWM_Light_Show.c ****                 #if(0 != PWM_Light_Show_CTRL_CMPMODE1_SHIFT)
 282:.\Generated_Source\PSoC4/PWM_Light_Show.c ****                     uint8 comparemode1masked = ((uint8)((uint8)comparemode << PWM_Light_Show_CTRL_C
 283:.\Generated_Source\PSoC4/PWM_Light_Show.c ****                                                 PWM_Light_Show_CTRL_CMPMODE1_MASK;
 284:.\Generated_Source\PSoC4/PWM_Light_Show.c ****                 #else
 285:.\Generated_Source\PSoC4/PWM_Light_Show.c ****                     uint8 comparemode1masked = comparemode & PWM_Light_Show_CTRL_CMPMODE1_MASK;
 286:.\Generated_Source\PSoC4/PWM_Light_Show.c ****                 #endif /* (0 != PWM_Light_Show_CTRL_CMPMODE1_SHIFT) */
 287:.\Generated_Source\PSoC4/PWM_Light_Show.c **** 
 288:.\Generated_Source\PSoC4/PWM_Light_Show.c ****                 #if(0 != PWM_Light_Show_CTRL_CMPMODE2_SHIFT)
 289:.\Generated_Source\PSoC4/PWM_Light_Show.c ****                     uint8 comparemode2masked = ((uint8)((uint8)comparemode << PWM_Light_Show_CTRL_C
 290:.\Generated_Source\PSoC4/PWM_Light_Show.c ****                                                PWM_Light_Show_CTRL_CMPMODE2_MASK;
 291:.\Generated_Source\PSoC4/PWM_Light_Show.c ****                 #else
 292:.\Generated_Source\PSoC4/PWM_Light_Show.c ****                     uint8 comparemode2masked = comparemode & PWM_Light_Show_CTRL_CMPMODE2_MASK;
 293:.\Generated_Source\PSoC4/PWM_Light_Show.c ****                 #endif /* (0 != PWM_Light_Show_CTRL_CMPMODE2_SHIFT) */
 294:.\Generated_Source\PSoC4/PWM_Light_Show.c **** 
 295:.\Generated_Source\PSoC4/PWM_Light_Show.c ****                 /*Clear existing mode */
 296:.\Generated_Source\PSoC4/PWM_Light_Show.c ****                 PWM_Light_Show_CONTROL &= ((uint8)(~(PWM_Light_Show_CTRL_CMPMODE1_MASK |
 297:.\Generated_Source\PSoC4/PWM_Light_Show.c ****                                             PWM_Light_Show_CTRL_CMPMODE2_MASK)));
 298:.\Generated_Source\PSoC4/PWM_Light_Show.c ****                 PWM_Light_Show_CONTROL |= (comparemode1masked | comparemode2masked);
 299:.\Generated_Source\PSoC4/PWM_Light_Show.c **** 
 300:.\Generated_Source\PSoC4/PWM_Light_Show.c ****             #else
 301:.\Generated_Source\PSoC4/PWM_Light_Show.c ****                 uint8 temp = comparemode;
 302:.\Generated_Source\PSoC4/PWM_Light_Show.c ****             #endif /* (PWM_Light_Show_UsingFixedFunction) */
 303:.\Generated_Source\PSoC4/PWM_Light_Show.c ****         }
 304:.\Generated_Source\PSoC4/PWM_Light_Show.c ****     #endif /* PWM_Light_Show_CompareMode1SW */
 305:.\Generated_Source\PSoC4/PWM_Light_Show.c **** 
 306:.\Generated_Source\PSoC4/PWM_Light_Show.c **** #else /* UseOneCompareMode */
 307:.\Generated_Source\PSoC4/PWM_Light_Show.c **** 
 308:.\Generated_Source\PSoC4/PWM_Light_Show.c ****     #if (PWM_Light_Show_CompareMode1SW)
 309:.\Generated_Source\PSoC4/PWM_Light_Show.c **** 
 310:.\Generated_Source\PSoC4/PWM_Light_Show.c **** 
 311:.\Generated_Source\PSoC4/PWM_Light_Show.c ****         /*******************************************************************************
 312:.\Generated_Source\PSoC4/PWM_Light_Show.c ****         * Function Name: PWM_Light_Show_SetCompareMode1
 313:.\Generated_Source\PSoC4/PWM_Light_Show.c ****         ********************************************************************************
 314:.\Generated_Source\PSoC4/PWM_Light_Show.c ****         *
 315:.\Generated_Source\PSoC4/PWM_Light_Show.c ****         * Summary:
 316:.\Generated_Source\PSoC4/PWM_Light_Show.c ****         *  This function writes the Compare Mode for the pwm or pwm1 output
 317:.\Generated_Source\PSoC4/PWM_Light_Show.c ****         *
 318:.\Generated_Source\PSoC4/PWM_Light_Show.c ****         * Parameters:
 319:.\Generated_Source\PSoC4/PWM_Light_Show.c ****         *  comparemode:  The new compare mode for the PWM output. Use the compare types
 320:.\Generated_Source\PSoC4/PWM_Light_Show.c ****         *                defined in the H file as input arguments.
 321:.\Generated_Source\PSoC4/PWM_Light_Show.c ****         *
ARM GAS  C:\Users\Admin\AppData\Local\Temp\ccLEIwe8.s 			page 11


 322:.\Generated_Source\PSoC4/PWM_Light_Show.c ****         * Return:
 323:.\Generated_Source\PSoC4/PWM_Light_Show.c ****         *  None
 324:.\Generated_Source\PSoC4/PWM_Light_Show.c ****         *
 325:.\Generated_Source\PSoC4/PWM_Light_Show.c ****         *******************************************************************************/
 326:.\Generated_Source\PSoC4/PWM_Light_Show.c ****         void PWM_Light_Show_SetCompareMode1(uint8 comparemode) 
 327:.\Generated_Source\PSoC4/PWM_Light_Show.c ****         {
 328:.\Generated_Source\PSoC4/PWM_Light_Show.c ****             #if(0 != PWM_Light_Show_CTRL_CMPMODE1_SHIFT)
 329:.\Generated_Source\PSoC4/PWM_Light_Show.c ****                 uint8 comparemodemasked = ((uint8)((uint8)comparemode << PWM_Light_Show_CTRL_CMPMOD
 330:.\Generated_Source\PSoC4/PWM_Light_Show.c ****                                            PWM_Light_Show_CTRL_CMPMODE1_MASK;
 331:.\Generated_Source\PSoC4/PWM_Light_Show.c ****             #else
 332:.\Generated_Source\PSoC4/PWM_Light_Show.c ****                 uint8 comparemodemasked = comparemode & PWM_Light_Show_CTRL_CMPMODE1_MASK;
 333:.\Generated_Source\PSoC4/PWM_Light_Show.c ****             #endif /* (0 != PWM_Light_Show_CTRL_CMPMODE1_SHIFT) */
 334:.\Generated_Source\PSoC4/PWM_Light_Show.c **** 
 335:.\Generated_Source\PSoC4/PWM_Light_Show.c ****             #if (PWM_Light_Show_UseControl)
 336:.\Generated_Source\PSoC4/PWM_Light_Show.c ****                 PWM_Light_Show_CONTROL &= ((uint8)(~PWM_Light_Show_CTRL_CMPMODE1_MASK)); /*Clear ex
 337:.\Generated_Source\PSoC4/PWM_Light_Show.c ****                 PWM_Light_Show_CONTROL |= comparemodemasked;
 338:.\Generated_Source\PSoC4/PWM_Light_Show.c ****             #endif /* (PWM_Light_Show_UseControl) */
 339:.\Generated_Source\PSoC4/PWM_Light_Show.c ****         }
 340:.\Generated_Source\PSoC4/PWM_Light_Show.c ****     #endif /* PWM_Light_Show_CompareMode1SW */
 341:.\Generated_Source\PSoC4/PWM_Light_Show.c **** 
 342:.\Generated_Source\PSoC4/PWM_Light_Show.c **** #if (PWM_Light_Show_CompareMode2SW)
 343:.\Generated_Source\PSoC4/PWM_Light_Show.c **** 
 344:.\Generated_Source\PSoC4/PWM_Light_Show.c **** 
 345:.\Generated_Source\PSoC4/PWM_Light_Show.c ****     /*******************************************************************************
 346:.\Generated_Source\PSoC4/PWM_Light_Show.c ****     * Function Name: PWM_Light_Show_SetCompareMode2
 347:.\Generated_Source\PSoC4/PWM_Light_Show.c ****     ********************************************************************************
 348:.\Generated_Source\PSoC4/PWM_Light_Show.c ****     *
 349:.\Generated_Source\PSoC4/PWM_Light_Show.c ****     * Summary:
 350:.\Generated_Source\PSoC4/PWM_Light_Show.c ****     *  This function writes the Compare Mode for the pwm or pwm2 output
 351:.\Generated_Source\PSoC4/PWM_Light_Show.c ****     *
 352:.\Generated_Source\PSoC4/PWM_Light_Show.c ****     * Parameters:
 353:.\Generated_Source\PSoC4/PWM_Light_Show.c ****     *  comparemode:  The new compare mode for the PWM output. Use the compare types
 354:.\Generated_Source\PSoC4/PWM_Light_Show.c ****     *                defined in the H file as input arguments.
 355:.\Generated_Source\PSoC4/PWM_Light_Show.c ****     *
 356:.\Generated_Source\PSoC4/PWM_Light_Show.c ****     * Return:
 357:.\Generated_Source\PSoC4/PWM_Light_Show.c ****     *  None
 358:.\Generated_Source\PSoC4/PWM_Light_Show.c ****     *
 359:.\Generated_Source\PSoC4/PWM_Light_Show.c ****     *******************************************************************************/
 360:.\Generated_Source\PSoC4/PWM_Light_Show.c ****     void PWM_Light_Show_SetCompareMode2(uint8 comparemode) 
 361:.\Generated_Source\PSoC4/PWM_Light_Show.c ****     {
 362:.\Generated_Source\PSoC4/PWM_Light_Show.c **** 
 363:.\Generated_Source\PSoC4/PWM_Light_Show.c ****         #if(0 != PWM_Light_Show_CTRL_CMPMODE2_SHIFT)
 364:.\Generated_Source\PSoC4/PWM_Light_Show.c ****             uint8 comparemodemasked = ((uint8)((uint8)comparemode << PWM_Light_Show_CTRL_CMPMODE2_S
 365:.\Generated_Source\PSoC4/PWM_Light_Show.c ****                                                  PWM_Light_Show_CTRL_CMPMODE2_MASK;
 366:.\Generated_Source\PSoC4/PWM_Light_Show.c ****         #else
 367:.\Generated_Source\PSoC4/PWM_Light_Show.c ****             uint8 comparemodemasked = comparemode & PWM_Light_Show_CTRL_CMPMODE2_MASK;
 368:.\Generated_Source\PSoC4/PWM_Light_Show.c ****         #endif /* (0 != PWM_Light_Show_CTRL_CMPMODE2_SHIFT) */
 369:.\Generated_Source\PSoC4/PWM_Light_Show.c **** 
 370:.\Generated_Source\PSoC4/PWM_Light_Show.c ****         #if (PWM_Light_Show_UseControl)
 371:.\Generated_Source\PSoC4/PWM_Light_Show.c ****             PWM_Light_Show_CONTROL &= ((uint8)(~PWM_Light_Show_CTRL_CMPMODE2_MASK)); /*Clear existi
 372:.\Generated_Source\PSoC4/PWM_Light_Show.c ****             PWM_Light_Show_CONTROL |= comparemodemasked;
 373:.\Generated_Source\PSoC4/PWM_Light_Show.c ****         #endif /* (PWM_Light_Show_UseControl) */
 374:.\Generated_Source\PSoC4/PWM_Light_Show.c ****     }
 375:.\Generated_Source\PSoC4/PWM_Light_Show.c ****     #endif /*PWM_Light_Show_CompareMode2SW */
 376:.\Generated_Source\PSoC4/PWM_Light_Show.c **** 
 377:.\Generated_Source\PSoC4/PWM_Light_Show.c **** #endif /* UseOneCompareMode */
 378:.\Generated_Source\PSoC4/PWM_Light_Show.c **** 
ARM GAS  C:\Users\Admin\AppData\Local\Temp\ccLEIwe8.s 			page 12


 379:.\Generated_Source\PSoC4/PWM_Light_Show.c **** 
 380:.\Generated_Source\PSoC4/PWM_Light_Show.c **** #if (!PWM_Light_Show_UsingFixedFunction)
 381:.\Generated_Source\PSoC4/PWM_Light_Show.c **** 
 382:.\Generated_Source\PSoC4/PWM_Light_Show.c **** 
 383:.\Generated_Source\PSoC4/PWM_Light_Show.c ****     /*******************************************************************************
 384:.\Generated_Source\PSoC4/PWM_Light_Show.c ****     * Function Name: PWM_Light_Show_WriteCounter
 385:.\Generated_Source\PSoC4/PWM_Light_Show.c ****     ********************************************************************************
 386:.\Generated_Source\PSoC4/PWM_Light_Show.c ****     *
 387:.\Generated_Source\PSoC4/PWM_Light_Show.c ****     * Summary:
 388:.\Generated_Source\PSoC4/PWM_Light_Show.c ****     *  Writes a new counter value directly to the counter register. This will be
 389:.\Generated_Source\PSoC4/PWM_Light_Show.c ****     *  implemented for that currently running period and only that period. This API
 390:.\Generated_Source\PSoC4/PWM_Light_Show.c ****     *  is valid only for UDB implementation and not available for fixed function
 391:.\Generated_Source\PSoC4/PWM_Light_Show.c ****     *  PWM implementation.
 392:.\Generated_Source\PSoC4/PWM_Light_Show.c ****     *
 393:.\Generated_Source\PSoC4/PWM_Light_Show.c ****     * Parameters:
 394:.\Generated_Source\PSoC4/PWM_Light_Show.c ****     *  counter:  The period new period counter value.
 395:.\Generated_Source\PSoC4/PWM_Light_Show.c ****     *
 396:.\Generated_Source\PSoC4/PWM_Light_Show.c ****     * Return:
 397:.\Generated_Source\PSoC4/PWM_Light_Show.c ****     *  None
 398:.\Generated_Source\PSoC4/PWM_Light_Show.c ****     *
 399:.\Generated_Source\PSoC4/PWM_Light_Show.c ****     * Side Effects:
 400:.\Generated_Source\PSoC4/PWM_Light_Show.c ****     *  The PWM Period will be reloaded when a counter value will be a zero
 401:.\Generated_Source\PSoC4/PWM_Light_Show.c ****     *
 402:.\Generated_Source\PSoC4/PWM_Light_Show.c ****     *******************************************************************************/
 403:.\Generated_Source\PSoC4/PWM_Light_Show.c ****     void PWM_Light_Show_WriteCounter(uint16 counter) \
 404:.\Generated_Source\PSoC4/PWM_Light_Show.c ****                                        
 405:.\Generated_Source\PSoC4/PWM_Light_Show.c ****     {
 250              		.loc 1 405 0
 251              		.cfi_startproc
 252 0000 80B5     		push	{r7, lr}
 253              		.cfi_def_cfa_offset 8
 254              		.cfi_offset 7, -8
 255              		.cfi_offset 14, -4
 256 0002 82B0     		sub	sp, sp, #8
 257              		.cfi_def_cfa_offset 16
 258 0004 00AF     		add	r7, sp, #0
 259              		.cfi_def_cfa_register 7
 260 0006 021C     		mov	r2, r0
 261 0008 BB1D     		add	r3, r7, #6
 262 000a 1A80     		strh	r2, [r3]
 406:.\Generated_Source\PSoC4/PWM_Light_Show.c ****         CY_SET_REG16(PWM_Light_Show_COUNTER_LSB_PTR, counter);
 263              		.loc 1 406 0
 264 000c 034B     		ldr	r3, .L15
 265 000e BA1D     		add	r2, r7, #6
 266 0010 1288     		ldrh	r2, [r2]
 267 0012 1A80     		strh	r2, [r3]
 407:.\Generated_Source\PSoC4/PWM_Light_Show.c ****     }
 268              		.loc 1 407 0
 269 0014 BD46     		mov	sp, r7
 270 0016 02B0     		add	sp, sp, #8
 271              		@ sp needed
 272 0018 80BD     		pop	{r7, pc}
 273              	.L16:
 274 001a C046     		.align	2
 275              	.L15:
 276 001c 00100F40 		.word	1074728960
 277              		.cfi_endproc
ARM GAS  C:\Users\Admin\AppData\Local\Temp\ccLEIwe8.s 			page 13


 278              	.LFE4:
 279              		.size	PWM_Light_Show_WriteCounter, .-PWM_Light_Show_WriteCounter
 280              		.section	.text.PWM_Light_Show_ReadCounter,"ax",%progbits
 281              		.align	2
 282              		.global	PWM_Light_Show_ReadCounter
 283              		.code	16
 284              		.thumb_func
 285              		.type	PWM_Light_Show_ReadCounter, %function
 286              	PWM_Light_Show_ReadCounter:
 287              	.LFB5:
 408:.\Generated_Source\PSoC4/PWM_Light_Show.c **** 
 409:.\Generated_Source\PSoC4/PWM_Light_Show.c **** 
 410:.\Generated_Source\PSoC4/PWM_Light_Show.c ****     /*******************************************************************************
 411:.\Generated_Source\PSoC4/PWM_Light_Show.c ****     * Function Name: PWM_Light_Show_ReadCounter
 412:.\Generated_Source\PSoC4/PWM_Light_Show.c ****     ********************************************************************************
 413:.\Generated_Source\PSoC4/PWM_Light_Show.c ****     *
 414:.\Generated_Source\PSoC4/PWM_Light_Show.c ****     * Summary:
 415:.\Generated_Source\PSoC4/PWM_Light_Show.c ****     *  This function returns the current value of the counter.  It doesn't matter
 416:.\Generated_Source\PSoC4/PWM_Light_Show.c ****     *  if the counter is enabled or running.
 417:.\Generated_Source\PSoC4/PWM_Light_Show.c ****     *
 418:.\Generated_Source\PSoC4/PWM_Light_Show.c ****     * Parameters:
 419:.\Generated_Source\PSoC4/PWM_Light_Show.c ****     *  None
 420:.\Generated_Source\PSoC4/PWM_Light_Show.c ****     *
 421:.\Generated_Source\PSoC4/PWM_Light_Show.c ****     * Return:
 422:.\Generated_Source\PSoC4/PWM_Light_Show.c ****     *  The current value of the counter.
 423:.\Generated_Source\PSoC4/PWM_Light_Show.c ****     *
 424:.\Generated_Source\PSoC4/PWM_Light_Show.c ****     *******************************************************************************/
 425:.\Generated_Source\PSoC4/PWM_Light_Show.c ****     uint16 PWM_Light_Show_ReadCounter(void) 
 426:.\Generated_Source\PSoC4/PWM_Light_Show.c ****     {
 288              		.loc 1 426 0
 289              		.cfi_startproc
 290 0000 80B5     		push	{r7, lr}
 291              		.cfi_def_cfa_offset 8
 292              		.cfi_offset 7, -8
 293              		.cfi_offset 14, -4
 294 0002 00AF     		add	r7, sp, #0
 295              		.cfi_def_cfa_register 7
 427:.\Generated_Source\PSoC4/PWM_Light_Show.c ****         /* Force capture by reading Accumulator */
 428:.\Generated_Source\PSoC4/PWM_Light_Show.c ****         /* Must first do a software capture to be able to read the counter */
 429:.\Generated_Source\PSoC4/PWM_Light_Show.c ****         /* It is up to the user code to make sure there isn't already captured data in the FIFO */
 430:.\Generated_Source\PSoC4/PWM_Light_Show.c ****           (void)CY_GET_REG8(PWM_Light_Show_COUNTERCAP_LSB_PTR_8BIT);
 296              		.loc 1 430 0
 297 0004 034B     		ldr	r3, .L19
 298 0006 1B78     		ldrb	r3, [r3]
 431:.\Generated_Source\PSoC4/PWM_Light_Show.c **** 
 432:.\Generated_Source\PSoC4/PWM_Light_Show.c ****         /* Read the data from the FIFO */
 433:.\Generated_Source\PSoC4/PWM_Light_Show.c ****         return (CY_GET_REG16(PWM_Light_Show_CAPTURE_LSB_PTR));
 299              		.loc 1 433 0
 300 0008 034B     		ldr	r3, .L19+4
 301 000a 1B88     		ldrh	r3, [r3]
 302 000c 9BB2     		uxth	r3, r3
 434:.\Generated_Source\PSoC4/PWM_Light_Show.c ****     }
 303              		.loc 1 434 0
 304 000e 181C     		mov	r0, r3
 305 0010 BD46     		mov	sp, r7
 306              		@ sp needed
 307 0012 80BD     		pop	{r7, pc}
ARM GAS  C:\Users\Admin\AppData\Local\Temp\ccLEIwe8.s 			page 14


 308              	.L20:
 309              		.align	2
 310              	.L19:
 311 0014 10000F40 		.word	1074724880
 312 0018 A0100F40 		.word	1074729120
 313              		.cfi_endproc
 314              	.LFE5:
 315              		.size	PWM_Light_Show_ReadCounter, .-PWM_Light_Show_ReadCounter
 316              		.section	.text.PWM_Light_Show_ClearFIFO,"ax",%progbits
 317              		.align	2
 318              		.global	PWM_Light_Show_ClearFIFO
 319              		.code	16
 320              		.thumb_func
 321              		.type	PWM_Light_Show_ClearFIFO, %function
 322              	PWM_Light_Show_ClearFIFO:
 323              	.LFB6:
 435:.\Generated_Source\PSoC4/PWM_Light_Show.c **** 
 436:.\Generated_Source\PSoC4/PWM_Light_Show.c ****     #if (PWM_Light_Show_UseStatus)
 437:.\Generated_Source\PSoC4/PWM_Light_Show.c **** 
 438:.\Generated_Source\PSoC4/PWM_Light_Show.c **** 
 439:.\Generated_Source\PSoC4/PWM_Light_Show.c ****         /*******************************************************************************
 440:.\Generated_Source\PSoC4/PWM_Light_Show.c ****         * Function Name: PWM_Light_Show_ClearFIFO
 441:.\Generated_Source\PSoC4/PWM_Light_Show.c ****         ********************************************************************************
 442:.\Generated_Source\PSoC4/PWM_Light_Show.c ****         *
 443:.\Generated_Source\PSoC4/PWM_Light_Show.c ****         * Summary:
 444:.\Generated_Source\PSoC4/PWM_Light_Show.c ****         *  This function clears all capture data from the capture FIFO
 445:.\Generated_Source\PSoC4/PWM_Light_Show.c ****         *
 446:.\Generated_Source\PSoC4/PWM_Light_Show.c ****         * Parameters:
 447:.\Generated_Source\PSoC4/PWM_Light_Show.c ****         *  None
 448:.\Generated_Source\PSoC4/PWM_Light_Show.c ****         *
 449:.\Generated_Source\PSoC4/PWM_Light_Show.c ****         * Return:
 450:.\Generated_Source\PSoC4/PWM_Light_Show.c ****         *  None
 451:.\Generated_Source\PSoC4/PWM_Light_Show.c ****         *
 452:.\Generated_Source\PSoC4/PWM_Light_Show.c ****         *******************************************************************************/
 453:.\Generated_Source\PSoC4/PWM_Light_Show.c ****         void PWM_Light_Show_ClearFIFO(void) 
 454:.\Generated_Source\PSoC4/PWM_Light_Show.c ****         {
 324              		.loc 1 454 0
 325              		.cfi_startproc
 326 0000 80B5     		push	{r7, lr}
 327              		.cfi_def_cfa_offset 8
 328              		.cfi_offset 7, -8
 329              		.cfi_offset 14, -4
 330 0002 00AF     		add	r7, sp, #0
 331              		.cfi_def_cfa_register 7
 455:.\Generated_Source\PSoC4/PWM_Light_Show.c ****             while(0u != (PWM_Light_Show_ReadStatusRegister() & PWM_Light_Show_STATUS_FIFONEMPTY))
 332              		.loc 1 455 0
 333 0004 01E0     		b	.L22
 334              	.L23:
 456:.\Generated_Source\PSoC4/PWM_Light_Show.c ****             {
 457:.\Generated_Source\PSoC4/PWM_Light_Show.c ****                 (void)PWM_Light_Show_ReadCapture();
 335              		.loc 1 457 0
 336 0006 FFF7FEFF 		bl	PWM_Light_Show_ReadCapture
 337              	.L22:
 455:.\Generated_Source\PSoC4/PWM_Light_Show.c ****             while(0u != (PWM_Light_Show_ReadStatusRegister() & PWM_Light_Show_STATUS_FIFONEMPTY))
 338              		.loc 1 455 0 discriminator 1
 339 000a FFF7FEFF 		bl	PWM_Light_Show_ReadStatusRegister
 340 000e 031C     		mov	r3, r0
ARM GAS  C:\Users\Admin\AppData\Local\Temp\ccLEIwe8.s 			page 15


 341 0010 1A1C     		mov	r2, r3
 342 0012 1023     		mov	r3, #16
 343 0014 1340     		and	r3, r2
 344 0016 F6D1     		bne	.L23
 458:.\Generated_Source\PSoC4/PWM_Light_Show.c ****             }
 459:.\Generated_Source\PSoC4/PWM_Light_Show.c ****         }
 345              		.loc 1 459 0
 346 0018 BD46     		mov	sp, r7
 347              		@ sp needed
 348 001a 80BD     		pop	{r7, pc}
 349              		.cfi_endproc
 350              	.LFE6:
 351              		.size	PWM_Light_Show_ClearFIFO, .-PWM_Light_Show_ClearFIFO
 352              		.section	.text.PWM_Light_Show_WritePeriod,"ax",%progbits
 353              		.align	2
 354              		.global	PWM_Light_Show_WritePeriod
 355              		.code	16
 356              		.thumb_func
 357              		.type	PWM_Light_Show_WritePeriod, %function
 358              	PWM_Light_Show_WritePeriod:
 359              	.LFB7:
 460:.\Generated_Source\PSoC4/PWM_Light_Show.c **** 
 461:.\Generated_Source\PSoC4/PWM_Light_Show.c ****     #endif /* PWM_Light_Show_UseStatus */
 462:.\Generated_Source\PSoC4/PWM_Light_Show.c **** 
 463:.\Generated_Source\PSoC4/PWM_Light_Show.c **** #endif /* !PWM_Light_Show_UsingFixedFunction */
 464:.\Generated_Source\PSoC4/PWM_Light_Show.c **** 
 465:.\Generated_Source\PSoC4/PWM_Light_Show.c **** 
 466:.\Generated_Source\PSoC4/PWM_Light_Show.c **** /*******************************************************************************
 467:.\Generated_Source\PSoC4/PWM_Light_Show.c **** * Function Name: PWM_Light_Show_WritePeriod
 468:.\Generated_Source\PSoC4/PWM_Light_Show.c **** ********************************************************************************
 469:.\Generated_Source\PSoC4/PWM_Light_Show.c **** *
 470:.\Generated_Source\PSoC4/PWM_Light_Show.c **** * Summary:
 471:.\Generated_Source\PSoC4/PWM_Light_Show.c **** *  This function is used to change the period of the counter.  The new period
 472:.\Generated_Source\PSoC4/PWM_Light_Show.c **** *  will be loaded the next time terminal count is detected.
 473:.\Generated_Source\PSoC4/PWM_Light_Show.c **** *
 474:.\Generated_Source\PSoC4/PWM_Light_Show.c **** * Parameters:
 475:.\Generated_Source\PSoC4/PWM_Light_Show.c **** *  period:  Period value. May be between 1 and (2^Resolution)-1.  A value of 0
 476:.\Generated_Source\PSoC4/PWM_Light_Show.c **** *           will result in the counter remaining at zero.
 477:.\Generated_Source\PSoC4/PWM_Light_Show.c **** *
 478:.\Generated_Source\PSoC4/PWM_Light_Show.c **** * Return:
 479:.\Generated_Source\PSoC4/PWM_Light_Show.c **** *  None
 480:.\Generated_Source\PSoC4/PWM_Light_Show.c **** *
 481:.\Generated_Source\PSoC4/PWM_Light_Show.c **** *******************************************************************************/
 482:.\Generated_Source\PSoC4/PWM_Light_Show.c **** void PWM_Light_Show_WritePeriod(uint16 period) 
 483:.\Generated_Source\PSoC4/PWM_Light_Show.c **** {
 360              		.loc 1 483 0
 361              		.cfi_startproc
 362 0000 80B5     		push	{r7, lr}
 363              		.cfi_def_cfa_offset 8
 364              		.cfi_offset 7, -8
 365              		.cfi_offset 14, -4
 366 0002 82B0     		sub	sp, sp, #8
 367              		.cfi_def_cfa_offset 16
 368 0004 00AF     		add	r7, sp, #0
 369              		.cfi_def_cfa_register 7
 370 0006 021C     		mov	r2, r0
 371 0008 BB1D     		add	r3, r7, #6
ARM GAS  C:\Users\Admin\AppData\Local\Temp\ccLEIwe8.s 			page 16


 372 000a 1A80     		strh	r2, [r3]
 484:.\Generated_Source\PSoC4/PWM_Light_Show.c ****     #if(PWM_Light_Show_UsingFixedFunction)
 485:.\Generated_Source\PSoC4/PWM_Light_Show.c ****         CY_SET_REG16(PWM_Light_Show_PERIOD_LSB_PTR, (uint16)period);
 486:.\Generated_Source\PSoC4/PWM_Light_Show.c ****     #else
 487:.\Generated_Source\PSoC4/PWM_Light_Show.c ****         CY_SET_REG16(PWM_Light_Show_PERIOD_LSB_PTR, period);
 373              		.loc 1 487 0
 374 000c 034B     		ldr	r3, .L25
 375 000e BA1D     		add	r2, r7, #6
 376 0010 1288     		ldrh	r2, [r2]
 377 0012 1A80     		strh	r2, [r3]
 488:.\Generated_Source\PSoC4/PWM_Light_Show.c ****     #endif /* (PWM_Light_Show_UsingFixedFunction) */
 489:.\Generated_Source\PSoC4/PWM_Light_Show.c **** }
 378              		.loc 1 489 0
 379 0014 BD46     		mov	sp, r7
 380 0016 02B0     		add	sp, sp, #8
 381              		@ sp needed
 382 0018 80BD     		pop	{r7, pc}
 383              	.L26:
 384 001a C046     		.align	2
 385              	.L25:
 386 001c 80100F40 		.word	1074729088
 387              		.cfi_endproc
 388              	.LFE7:
 389              		.size	PWM_Light_Show_WritePeriod, .-PWM_Light_Show_WritePeriod
 390              		.section	.text.PWM_Light_Show_WriteCompare,"ax",%progbits
 391              		.align	2
 392              		.global	PWM_Light_Show_WriteCompare
 393              		.code	16
 394              		.thumb_func
 395              		.type	PWM_Light_Show_WriteCompare, %function
 396              	PWM_Light_Show_WriteCompare:
 397              	.LFB8:
 490:.\Generated_Source\PSoC4/PWM_Light_Show.c **** 
 491:.\Generated_Source\PSoC4/PWM_Light_Show.c **** #if (PWM_Light_Show_UseOneCompareMode)
 492:.\Generated_Source\PSoC4/PWM_Light_Show.c **** 
 493:.\Generated_Source\PSoC4/PWM_Light_Show.c **** 
 494:.\Generated_Source\PSoC4/PWM_Light_Show.c ****     /*******************************************************************************
 495:.\Generated_Source\PSoC4/PWM_Light_Show.c ****     * Function Name: PWM_Light_Show_WriteCompare
 496:.\Generated_Source\PSoC4/PWM_Light_Show.c ****     ********************************************************************************
 497:.\Generated_Source\PSoC4/PWM_Light_Show.c ****     *
 498:.\Generated_Source\PSoC4/PWM_Light_Show.c ****     * Summary:
 499:.\Generated_Source\PSoC4/PWM_Light_Show.c ****     *  This funtion is used to change the compare1 value when the PWM is in Dither
 500:.\Generated_Source\PSoC4/PWM_Light_Show.c ****     *  mode. The compare output will reflect the new value on the next UDB clock.
 501:.\Generated_Source\PSoC4/PWM_Light_Show.c ****     *  The compare output will be driven high when the present counter value is
 502:.\Generated_Source\PSoC4/PWM_Light_Show.c ****     *  compared to the compare value based on the compare mode defined in
 503:.\Generated_Source\PSoC4/PWM_Light_Show.c ****     *  Dither Mode.
 504:.\Generated_Source\PSoC4/PWM_Light_Show.c ****     *
 505:.\Generated_Source\PSoC4/PWM_Light_Show.c ****     * Parameters:
 506:.\Generated_Source\PSoC4/PWM_Light_Show.c ****     *  compare:  New compare value.
 507:.\Generated_Source\PSoC4/PWM_Light_Show.c ****     *
 508:.\Generated_Source\PSoC4/PWM_Light_Show.c ****     * Return:
 509:.\Generated_Source\PSoC4/PWM_Light_Show.c ****     *  None
 510:.\Generated_Source\PSoC4/PWM_Light_Show.c ****     *
 511:.\Generated_Source\PSoC4/PWM_Light_Show.c ****     * Side Effects:
 512:.\Generated_Source\PSoC4/PWM_Light_Show.c ****     *  This function is only available if the PWM mode parameter is set to
 513:.\Generated_Source\PSoC4/PWM_Light_Show.c ****     *  Dither Mode, Center Aligned Mode or One Output Mode
 514:.\Generated_Source\PSoC4/PWM_Light_Show.c ****     *
ARM GAS  C:\Users\Admin\AppData\Local\Temp\ccLEIwe8.s 			page 17


 515:.\Generated_Source\PSoC4/PWM_Light_Show.c ****     *******************************************************************************/
 516:.\Generated_Source\PSoC4/PWM_Light_Show.c ****     void PWM_Light_Show_WriteCompare(uint16 compare) \
 517:.\Generated_Source\PSoC4/PWM_Light_Show.c ****                                        
 518:.\Generated_Source\PSoC4/PWM_Light_Show.c ****     {
 398              		.loc 1 518 0
 399              		.cfi_startproc
 400 0000 80B5     		push	{r7, lr}
 401              		.cfi_def_cfa_offset 8
 402              		.cfi_offset 7, -8
 403              		.cfi_offset 14, -4
 404 0002 82B0     		sub	sp, sp, #8
 405              		.cfi_def_cfa_offset 16
 406 0004 00AF     		add	r7, sp, #0
 407              		.cfi_def_cfa_register 7
 408 0006 021C     		mov	r2, r0
 409 0008 BB1D     		add	r3, r7, #6
 410 000a 1A80     		strh	r2, [r3]
 519:.\Generated_Source\PSoC4/PWM_Light_Show.c ****         #if(PWM_Light_Show_UsingFixedFunction)
 520:.\Generated_Source\PSoC4/PWM_Light_Show.c ****             CY_SET_REG16(PWM_Light_Show_COMPARE1_LSB_PTR, (uint16)compare);
 521:.\Generated_Source\PSoC4/PWM_Light_Show.c ****         #else
 522:.\Generated_Source\PSoC4/PWM_Light_Show.c ****             CY_SET_REG16(PWM_Light_Show_COMPARE1_LSB_PTR, compare);
 411              		.loc 1 522 0
 412 000c 034B     		ldr	r3, .L28
 413 000e BA1D     		add	r2, r7, #6
 414 0010 1288     		ldrh	r2, [r2]
 415 0012 1A80     		strh	r2, [r3]
 523:.\Generated_Source\PSoC4/PWM_Light_Show.c ****         #endif /* (PWM_Light_Show_UsingFixedFunction) */
 524:.\Generated_Source\PSoC4/PWM_Light_Show.c **** 
 525:.\Generated_Source\PSoC4/PWM_Light_Show.c ****         #if (PWM_Light_Show_PWMMode == PWM_Light_Show__B_PWM__DITHER)
 526:.\Generated_Source\PSoC4/PWM_Light_Show.c ****             #if(PWM_Light_Show_UsingFixedFunction)
 527:.\Generated_Source\PSoC4/PWM_Light_Show.c ****                 CY_SET_REG16(PWM_Light_Show_COMPARE2_LSB_PTR, (uint16)(compare + 1u));
 528:.\Generated_Source\PSoC4/PWM_Light_Show.c ****             #else
 529:.\Generated_Source\PSoC4/PWM_Light_Show.c ****                 CY_SET_REG16(PWM_Light_Show_COMPARE2_LSB_PTR, (compare + 1u));
 530:.\Generated_Source\PSoC4/PWM_Light_Show.c ****             #endif /* (PWM_Light_Show_UsingFixedFunction) */
 531:.\Generated_Source\PSoC4/PWM_Light_Show.c ****         #endif /* (PWM_Light_Show_PWMMode == PWM_Light_Show__B_PWM__DITHER) */
 532:.\Generated_Source\PSoC4/PWM_Light_Show.c ****     }
 416              		.loc 1 532 0
 417 0014 BD46     		mov	sp, r7
 418 0016 02B0     		add	sp, sp, #8
 419              		@ sp needed
 420 0018 80BD     		pop	{r7, pc}
 421              	.L29:
 422 001a C046     		.align	2
 423              	.L28:
 424 001c 40100F40 		.word	1074729024
 425              		.cfi_endproc
 426              	.LFE8:
 427              		.size	PWM_Light_Show_WriteCompare, .-PWM_Light_Show_WriteCompare
 428              		.section	.text.PWM_Light_Show_SetInterruptMode,"ax",%progbits
 429              		.align	2
 430              		.global	PWM_Light_Show_SetInterruptMode
 431              		.code	16
 432              		.thumb_func
 433              		.type	PWM_Light_Show_SetInterruptMode, %function
 434              	PWM_Light_Show_SetInterruptMode:
 435              	.LFB9:
 533:.\Generated_Source\PSoC4/PWM_Light_Show.c **** 
ARM GAS  C:\Users\Admin\AppData\Local\Temp\ccLEIwe8.s 			page 18


 534:.\Generated_Source\PSoC4/PWM_Light_Show.c **** 
 535:.\Generated_Source\PSoC4/PWM_Light_Show.c **** #else
 536:.\Generated_Source\PSoC4/PWM_Light_Show.c **** 
 537:.\Generated_Source\PSoC4/PWM_Light_Show.c **** 
 538:.\Generated_Source\PSoC4/PWM_Light_Show.c ****     /*******************************************************************************
 539:.\Generated_Source\PSoC4/PWM_Light_Show.c ****     * Function Name: PWM_Light_Show_WriteCompare1
 540:.\Generated_Source\PSoC4/PWM_Light_Show.c ****     ********************************************************************************
 541:.\Generated_Source\PSoC4/PWM_Light_Show.c ****     *
 542:.\Generated_Source\PSoC4/PWM_Light_Show.c ****     * Summary:
 543:.\Generated_Source\PSoC4/PWM_Light_Show.c ****     *  This funtion is used to change the compare1 value.  The compare output will
 544:.\Generated_Source\PSoC4/PWM_Light_Show.c ****     *  reflect the new value on the next UDB clock.  The compare output will be
 545:.\Generated_Source\PSoC4/PWM_Light_Show.c ****     *  driven high when the present counter value is less than or less than or
 546:.\Generated_Source\PSoC4/PWM_Light_Show.c ****     *  equal to the compare register, depending on the mode.
 547:.\Generated_Source\PSoC4/PWM_Light_Show.c ****     *
 548:.\Generated_Source\PSoC4/PWM_Light_Show.c ****     * Parameters:
 549:.\Generated_Source\PSoC4/PWM_Light_Show.c ****     *  compare:  New compare value.
 550:.\Generated_Source\PSoC4/PWM_Light_Show.c ****     *
 551:.\Generated_Source\PSoC4/PWM_Light_Show.c ****     * Return:
 552:.\Generated_Source\PSoC4/PWM_Light_Show.c ****     *  None
 553:.\Generated_Source\PSoC4/PWM_Light_Show.c ****     *
 554:.\Generated_Source\PSoC4/PWM_Light_Show.c ****     *******************************************************************************/
 555:.\Generated_Source\PSoC4/PWM_Light_Show.c ****     void PWM_Light_Show_WriteCompare1(uint16 compare) \
 556:.\Generated_Source\PSoC4/PWM_Light_Show.c ****                                         
 557:.\Generated_Source\PSoC4/PWM_Light_Show.c ****     {
 558:.\Generated_Source\PSoC4/PWM_Light_Show.c ****         #if(PWM_Light_Show_UsingFixedFunction)
 559:.\Generated_Source\PSoC4/PWM_Light_Show.c ****             CY_SET_REG16(PWM_Light_Show_COMPARE1_LSB_PTR, (uint16)compare);
 560:.\Generated_Source\PSoC4/PWM_Light_Show.c ****         #else
 561:.\Generated_Source\PSoC4/PWM_Light_Show.c ****             CY_SET_REG16(PWM_Light_Show_COMPARE1_LSB_PTR, compare);
 562:.\Generated_Source\PSoC4/PWM_Light_Show.c ****         #endif /* (PWM_Light_Show_UsingFixedFunction) */
 563:.\Generated_Source\PSoC4/PWM_Light_Show.c ****     }
 564:.\Generated_Source\PSoC4/PWM_Light_Show.c **** 
 565:.\Generated_Source\PSoC4/PWM_Light_Show.c **** 
 566:.\Generated_Source\PSoC4/PWM_Light_Show.c ****     /*******************************************************************************
 567:.\Generated_Source\PSoC4/PWM_Light_Show.c ****     * Function Name: PWM_Light_Show_WriteCompare2
 568:.\Generated_Source\PSoC4/PWM_Light_Show.c ****     ********************************************************************************
 569:.\Generated_Source\PSoC4/PWM_Light_Show.c ****     *
 570:.\Generated_Source\PSoC4/PWM_Light_Show.c ****     * Summary:
 571:.\Generated_Source\PSoC4/PWM_Light_Show.c ****     *  This funtion is used to change the compare value, for compare1 output.
 572:.\Generated_Source\PSoC4/PWM_Light_Show.c ****     *  The compare output will reflect the new value on the next UDB clock.
 573:.\Generated_Source\PSoC4/PWM_Light_Show.c ****     *  The compare output will be driven high when the present counter value is
 574:.\Generated_Source\PSoC4/PWM_Light_Show.c ****     *  less than or less than or equal to the compare register, depending on the
 575:.\Generated_Source\PSoC4/PWM_Light_Show.c ****     *  mode.
 576:.\Generated_Source\PSoC4/PWM_Light_Show.c ****     *
 577:.\Generated_Source\PSoC4/PWM_Light_Show.c ****     * Parameters:
 578:.\Generated_Source\PSoC4/PWM_Light_Show.c ****     *  compare:  New compare value.
 579:.\Generated_Source\PSoC4/PWM_Light_Show.c ****     *
 580:.\Generated_Source\PSoC4/PWM_Light_Show.c ****     * Return:
 581:.\Generated_Source\PSoC4/PWM_Light_Show.c ****     *  None
 582:.\Generated_Source\PSoC4/PWM_Light_Show.c ****     *
 583:.\Generated_Source\PSoC4/PWM_Light_Show.c ****     *******************************************************************************/
 584:.\Generated_Source\PSoC4/PWM_Light_Show.c ****     void PWM_Light_Show_WriteCompare2(uint16 compare) \
 585:.\Generated_Source\PSoC4/PWM_Light_Show.c ****                                         
 586:.\Generated_Source\PSoC4/PWM_Light_Show.c ****     {
 587:.\Generated_Source\PSoC4/PWM_Light_Show.c ****         #if(PWM_Light_Show_UsingFixedFunction)
 588:.\Generated_Source\PSoC4/PWM_Light_Show.c ****             CY_SET_REG16(PWM_Light_Show_COMPARE2_LSB_PTR, compare);
 589:.\Generated_Source\PSoC4/PWM_Light_Show.c ****         #else
 590:.\Generated_Source\PSoC4/PWM_Light_Show.c ****             CY_SET_REG16(PWM_Light_Show_COMPARE2_LSB_PTR, compare);
ARM GAS  C:\Users\Admin\AppData\Local\Temp\ccLEIwe8.s 			page 19


 591:.\Generated_Source\PSoC4/PWM_Light_Show.c ****         #endif /* (PWM_Light_Show_UsingFixedFunction) */
 592:.\Generated_Source\PSoC4/PWM_Light_Show.c ****     }
 593:.\Generated_Source\PSoC4/PWM_Light_Show.c **** #endif /* UseOneCompareMode */
 594:.\Generated_Source\PSoC4/PWM_Light_Show.c **** 
 595:.\Generated_Source\PSoC4/PWM_Light_Show.c **** #if (PWM_Light_Show_DeadBandUsed)
 596:.\Generated_Source\PSoC4/PWM_Light_Show.c **** 
 597:.\Generated_Source\PSoC4/PWM_Light_Show.c **** 
 598:.\Generated_Source\PSoC4/PWM_Light_Show.c ****     /*******************************************************************************
 599:.\Generated_Source\PSoC4/PWM_Light_Show.c ****     * Function Name: PWM_Light_Show_WriteDeadTime
 600:.\Generated_Source\PSoC4/PWM_Light_Show.c ****     ********************************************************************************
 601:.\Generated_Source\PSoC4/PWM_Light_Show.c ****     *
 602:.\Generated_Source\PSoC4/PWM_Light_Show.c ****     * Summary:
 603:.\Generated_Source\PSoC4/PWM_Light_Show.c ****     *  This function writes the dead-band counts to the corresponding register
 604:.\Generated_Source\PSoC4/PWM_Light_Show.c ****     *
 605:.\Generated_Source\PSoC4/PWM_Light_Show.c ****     * Parameters:
 606:.\Generated_Source\PSoC4/PWM_Light_Show.c ****     *  deadtime:  Number of counts for dead time
 607:.\Generated_Source\PSoC4/PWM_Light_Show.c ****     *
 608:.\Generated_Source\PSoC4/PWM_Light_Show.c ****     * Return:
 609:.\Generated_Source\PSoC4/PWM_Light_Show.c ****     *  None
 610:.\Generated_Source\PSoC4/PWM_Light_Show.c ****     *
 611:.\Generated_Source\PSoC4/PWM_Light_Show.c ****     *******************************************************************************/
 612:.\Generated_Source\PSoC4/PWM_Light_Show.c ****     void PWM_Light_Show_WriteDeadTime(uint8 deadtime) 
 613:.\Generated_Source\PSoC4/PWM_Light_Show.c ****     {
 614:.\Generated_Source\PSoC4/PWM_Light_Show.c ****         /* If using the Dead Band 1-255 mode then just write the register */
 615:.\Generated_Source\PSoC4/PWM_Light_Show.c ****         #if(!PWM_Light_Show_DeadBand2_4)
 616:.\Generated_Source\PSoC4/PWM_Light_Show.c ****             CY_SET_REG8(PWM_Light_Show_DEADBAND_COUNT_PTR, deadtime);
 617:.\Generated_Source\PSoC4/PWM_Light_Show.c ****         #else
 618:.\Generated_Source\PSoC4/PWM_Light_Show.c ****             /* Otherwise the data has to be masked and offset */
 619:.\Generated_Source\PSoC4/PWM_Light_Show.c ****             /* Clear existing data */
 620:.\Generated_Source\PSoC4/PWM_Light_Show.c ****             PWM_Light_Show_DEADBAND_COUNT &= ((uint8)(~PWM_Light_Show_DEADBAND_COUNT_MASK));
 621:.\Generated_Source\PSoC4/PWM_Light_Show.c **** 
 622:.\Generated_Source\PSoC4/PWM_Light_Show.c ****             /* Set new dead time */
 623:.\Generated_Source\PSoC4/PWM_Light_Show.c ****             #if(PWM_Light_Show_DEADBAND_COUNT_SHIFT)
 624:.\Generated_Source\PSoC4/PWM_Light_Show.c ****                 PWM_Light_Show_DEADBAND_COUNT |= ((uint8)((uint8)deadtime << PWM_Light_Show_DEADBAN
 625:.\Generated_Source\PSoC4/PWM_Light_Show.c ****                                                     PWM_Light_Show_DEADBAND_COUNT_MASK;
 626:.\Generated_Source\PSoC4/PWM_Light_Show.c ****             #else
 627:.\Generated_Source\PSoC4/PWM_Light_Show.c ****                 PWM_Light_Show_DEADBAND_COUNT |= deadtime & PWM_Light_Show_DEADBAND_COUNT_MASK;
 628:.\Generated_Source\PSoC4/PWM_Light_Show.c ****             #endif /* (PWM_Light_Show_DEADBAND_COUNT_SHIFT) */
 629:.\Generated_Source\PSoC4/PWM_Light_Show.c **** 
 630:.\Generated_Source\PSoC4/PWM_Light_Show.c ****         #endif /* (!PWM_Light_Show_DeadBand2_4) */
 631:.\Generated_Source\PSoC4/PWM_Light_Show.c ****     }
 632:.\Generated_Source\PSoC4/PWM_Light_Show.c **** 
 633:.\Generated_Source\PSoC4/PWM_Light_Show.c **** 
 634:.\Generated_Source\PSoC4/PWM_Light_Show.c ****     /*******************************************************************************
 635:.\Generated_Source\PSoC4/PWM_Light_Show.c ****     * Function Name: PWM_Light_Show_ReadDeadTime
 636:.\Generated_Source\PSoC4/PWM_Light_Show.c ****     ********************************************************************************
 637:.\Generated_Source\PSoC4/PWM_Light_Show.c ****     *
 638:.\Generated_Source\PSoC4/PWM_Light_Show.c ****     * Summary:
 639:.\Generated_Source\PSoC4/PWM_Light_Show.c ****     *  This function reads the dead-band counts from the corresponding register
 640:.\Generated_Source\PSoC4/PWM_Light_Show.c ****     *
 641:.\Generated_Source\PSoC4/PWM_Light_Show.c ****     * Parameters:
 642:.\Generated_Source\PSoC4/PWM_Light_Show.c ****     *  None
 643:.\Generated_Source\PSoC4/PWM_Light_Show.c ****     *
 644:.\Generated_Source\PSoC4/PWM_Light_Show.c ****     * Return:
 645:.\Generated_Source\PSoC4/PWM_Light_Show.c ****     *  Dead Band Counts
 646:.\Generated_Source\PSoC4/PWM_Light_Show.c ****     *
 647:.\Generated_Source\PSoC4/PWM_Light_Show.c ****     *******************************************************************************/
ARM GAS  C:\Users\Admin\AppData\Local\Temp\ccLEIwe8.s 			page 20


 648:.\Generated_Source\PSoC4/PWM_Light_Show.c ****     uint8 PWM_Light_Show_ReadDeadTime(void) 
 649:.\Generated_Source\PSoC4/PWM_Light_Show.c ****     {
 650:.\Generated_Source\PSoC4/PWM_Light_Show.c ****         /* If using the Dead Band 1-255 mode then just read the register */
 651:.\Generated_Source\PSoC4/PWM_Light_Show.c ****         #if(!PWM_Light_Show_DeadBand2_4)
 652:.\Generated_Source\PSoC4/PWM_Light_Show.c ****             return (CY_GET_REG8(PWM_Light_Show_DEADBAND_COUNT_PTR));
 653:.\Generated_Source\PSoC4/PWM_Light_Show.c ****         #else
 654:.\Generated_Source\PSoC4/PWM_Light_Show.c **** 
 655:.\Generated_Source\PSoC4/PWM_Light_Show.c ****             /* Otherwise the data has to be masked and offset */
 656:.\Generated_Source\PSoC4/PWM_Light_Show.c ****             #if(PWM_Light_Show_DEADBAND_COUNT_SHIFT)
 657:.\Generated_Source\PSoC4/PWM_Light_Show.c ****                 return ((uint8)(((uint8)(PWM_Light_Show_DEADBAND_COUNT & PWM_Light_Show_DEADBAND_CO
 658:.\Generated_Source\PSoC4/PWM_Light_Show.c ****                                                                            PWM_Light_Show_DEADBAND_
 659:.\Generated_Source\PSoC4/PWM_Light_Show.c ****             #else
 660:.\Generated_Source\PSoC4/PWM_Light_Show.c ****                 return (PWM_Light_Show_DEADBAND_COUNT & PWM_Light_Show_DEADBAND_COUNT_MASK);
 661:.\Generated_Source\PSoC4/PWM_Light_Show.c ****             #endif /* (PWM_Light_Show_DEADBAND_COUNT_SHIFT) */
 662:.\Generated_Source\PSoC4/PWM_Light_Show.c ****         #endif /* (!PWM_Light_Show_DeadBand2_4) */
 663:.\Generated_Source\PSoC4/PWM_Light_Show.c ****     }
 664:.\Generated_Source\PSoC4/PWM_Light_Show.c **** #endif /* DeadBandUsed */
 665:.\Generated_Source\PSoC4/PWM_Light_Show.c **** 
 666:.\Generated_Source\PSoC4/PWM_Light_Show.c **** #if (PWM_Light_Show_UseStatus || PWM_Light_Show_UsingFixedFunction)
 667:.\Generated_Source\PSoC4/PWM_Light_Show.c **** 
 668:.\Generated_Source\PSoC4/PWM_Light_Show.c **** 
 669:.\Generated_Source\PSoC4/PWM_Light_Show.c ****     /*******************************************************************************
 670:.\Generated_Source\PSoC4/PWM_Light_Show.c ****     * Function Name: PWM_Light_Show_SetInterruptMode
 671:.\Generated_Source\PSoC4/PWM_Light_Show.c ****     ********************************************************************************
 672:.\Generated_Source\PSoC4/PWM_Light_Show.c ****     *
 673:.\Generated_Source\PSoC4/PWM_Light_Show.c ****     * Summary:
 674:.\Generated_Source\PSoC4/PWM_Light_Show.c ****     *  This function configures the interrupts mask control of theinterrupt
 675:.\Generated_Source\PSoC4/PWM_Light_Show.c ****     *  source status register.
 676:.\Generated_Source\PSoC4/PWM_Light_Show.c ****     *
 677:.\Generated_Source\PSoC4/PWM_Light_Show.c ****     * Parameters:
 678:.\Generated_Source\PSoC4/PWM_Light_Show.c ****     *  uint8 interruptMode: Bit field containing the interrupt sources enabled
 679:.\Generated_Source\PSoC4/PWM_Light_Show.c ****     *
 680:.\Generated_Source\PSoC4/PWM_Light_Show.c ****     * Return:
 681:.\Generated_Source\PSoC4/PWM_Light_Show.c ****     *  None
 682:.\Generated_Source\PSoC4/PWM_Light_Show.c ****     *
 683:.\Generated_Source\PSoC4/PWM_Light_Show.c ****     *******************************************************************************/
 684:.\Generated_Source\PSoC4/PWM_Light_Show.c ****     void PWM_Light_Show_SetInterruptMode(uint8 interruptMode) 
 685:.\Generated_Source\PSoC4/PWM_Light_Show.c ****     {
 436              		.loc 1 685 0
 437              		.cfi_startproc
 438 0000 80B5     		push	{r7, lr}
 439              		.cfi_def_cfa_offset 8
 440              		.cfi_offset 7, -8
 441              		.cfi_offset 14, -4
 442 0002 82B0     		sub	sp, sp, #8
 443              		.cfi_def_cfa_offset 16
 444 0004 00AF     		add	r7, sp, #0
 445              		.cfi_def_cfa_register 7
 446 0006 021C     		mov	r2, r0
 447 0008 FB1D     		add	r3, r7, #7
 448 000a 1A70     		strb	r2, [r3]
 686:.\Generated_Source\PSoC4/PWM_Light_Show.c ****         CY_SET_REG8(PWM_Light_Show_STATUS_MASK_PTR, interruptMode);
 449              		.loc 1 686 0
 450 000c 034B     		ldr	r3, .L31
 451 000e FA1D     		add	r2, r7, #7
 452 0010 1278     		ldrb	r2, [r2]
 453 0012 1A70     		strb	r2, [r3]
ARM GAS  C:\Users\Admin\AppData\Local\Temp\ccLEIwe8.s 			page 21


 687:.\Generated_Source\PSoC4/PWM_Light_Show.c ****     }
 454              		.loc 1 687 0
 455 0014 BD46     		mov	sp, r7
 456 0016 02B0     		add	sp, sp, #8
 457              		@ sp needed
 458 0018 80BD     		pop	{r7, pc}
 459              	.L32:
 460 001a C046     		.align	2
 461              	.L31:
 462 001c 81000F40 		.word	1074724993
 463              		.cfi_endproc
 464              	.LFE9:
 465              		.size	PWM_Light_Show_SetInterruptMode, .-PWM_Light_Show_SetInterruptMode
 466              		.section	.text.PWM_Light_Show_ReadStatusRegister,"ax",%progbits
 467              		.align	2
 468              		.global	PWM_Light_Show_ReadStatusRegister
 469              		.code	16
 470              		.thumb_func
 471              		.type	PWM_Light_Show_ReadStatusRegister, %function
 472              	PWM_Light_Show_ReadStatusRegister:
 473              	.LFB10:
 688:.\Generated_Source\PSoC4/PWM_Light_Show.c **** 
 689:.\Generated_Source\PSoC4/PWM_Light_Show.c **** 
 690:.\Generated_Source\PSoC4/PWM_Light_Show.c ****     /*******************************************************************************
 691:.\Generated_Source\PSoC4/PWM_Light_Show.c ****     * Function Name: PWM_Light_Show_ReadStatusRegister
 692:.\Generated_Source\PSoC4/PWM_Light_Show.c ****     ********************************************************************************
 693:.\Generated_Source\PSoC4/PWM_Light_Show.c ****     *
 694:.\Generated_Source\PSoC4/PWM_Light_Show.c ****     * Summary:
 695:.\Generated_Source\PSoC4/PWM_Light_Show.c ****     *  This function returns the current state of the status register.
 696:.\Generated_Source\PSoC4/PWM_Light_Show.c ****     *
 697:.\Generated_Source\PSoC4/PWM_Light_Show.c ****     * Parameters:
 698:.\Generated_Source\PSoC4/PWM_Light_Show.c ****     *  None
 699:.\Generated_Source\PSoC4/PWM_Light_Show.c ****     *
 700:.\Generated_Source\PSoC4/PWM_Light_Show.c ****     * Return:
 701:.\Generated_Source\PSoC4/PWM_Light_Show.c ****     *  uint8 : Current status register value. The status register bits are:
 702:.\Generated_Source\PSoC4/PWM_Light_Show.c ****     *  [7:6] : Unused(0)
 703:.\Generated_Source\PSoC4/PWM_Light_Show.c ****     *  [5]   : Kill event output
 704:.\Generated_Source\PSoC4/PWM_Light_Show.c ****     *  [4]   : FIFO not empty
 705:.\Generated_Source\PSoC4/PWM_Light_Show.c ****     *  [3]   : FIFO full
 706:.\Generated_Source\PSoC4/PWM_Light_Show.c ****     *  [2]   : Terminal count
 707:.\Generated_Source\PSoC4/PWM_Light_Show.c ****     *  [1]   : Compare output 2
 708:.\Generated_Source\PSoC4/PWM_Light_Show.c ****     *  [0]   : Compare output 1
 709:.\Generated_Source\PSoC4/PWM_Light_Show.c ****     *
 710:.\Generated_Source\PSoC4/PWM_Light_Show.c ****     *******************************************************************************/
 711:.\Generated_Source\PSoC4/PWM_Light_Show.c ****     uint8 PWM_Light_Show_ReadStatusRegister(void) 
 712:.\Generated_Source\PSoC4/PWM_Light_Show.c ****     {
 474              		.loc 1 712 0
 475              		.cfi_startproc
 476 0000 80B5     		push	{r7, lr}
 477              		.cfi_def_cfa_offset 8
 478              		.cfi_offset 7, -8
 479              		.cfi_offset 14, -4
 480 0002 00AF     		add	r7, sp, #0
 481              		.cfi_def_cfa_register 7
 713:.\Generated_Source\PSoC4/PWM_Light_Show.c ****         return (CY_GET_REG8(PWM_Light_Show_STATUS_PTR));
 482              		.loc 1 713 0
 483 0004 024B     		ldr	r3, .L35
ARM GAS  C:\Users\Admin\AppData\Local\Temp\ccLEIwe8.s 			page 22


 484 0006 1B78     		ldrb	r3, [r3]
 485 0008 DBB2     		uxtb	r3, r3
 714:.\Generated_Source\PSoC4/PWM_Light_Show.c ****     }
 486              		.loc 1 714 0
 487 000a 181C     		mov	r0, r3
 488 000c BD46     		mov	sp, r7
 489              		@ sp needed
 490 000e 80BD     		pop	{r7, pc}
 491              	.L36:
 492              		.align	2
 493              	.L35:
 494 0010 61000F40 		.word	1074724961
 495              		.cfi_endproc
 496              	.LFE10:
 497              		.size	PWM_Light_Show_ReadStatusRegister, .-PWM_Light_Show_ReadStatusRegister
 498              		.section	.text.PWM_Light_Show_ReadControlRegister,"ax",%progbits
 499              		.align	2
 500              		.global	PWM_Light_Show_ReadControlRegister
 501              		.code	16
 502              		.thumb_func
 503              		.type	PWM_Light_Show_ReadControlRegister, %function
 504              	PWM_Light_Show_ReadControlRegister:
 505              	.LFB11:
 715:.\Generated_Source\PSoC4/PWM_Light_Show.c **** 
 716:.\Generated_Source\PSoC4/PWM_Light_Show.c **** #endif /* (PWM_Light_Show_UseStatus || PWM_Light_Show_UsingFixedFunction) */
 717:.\Generated_Source\PSoC4/PWM_Light_Show.c **** 
 718:.\Generated_Source\PSoC4/PWM_Light_Show.c **** 
 719:.\Generated_Source\PSoC4/PWM_Light_Show.c **** #if (PWM_Light_Show_UseControl)
 720:.\Generated_Source\PSoC4/PWM_Light_Show.c **** 
 721:.\Generated_Source\PSoC4/PWM_Light_Show.c **** 
 722:.\Generated_Source\PSoC4/PWM_Light_Show.c ****     /*******************************************************************************
 723:.\Generated_Source\PSoC4/PWM_Light_Show.c ****     * Function Name: PWM_Light_Show_ReadControlRegister
 724:.\Generated_Source\PSoC4/PWM_Light_Show.c ****     ********************************************************************************
 725:.\Generated_Source\PSoC4/PWM_Light_Show.c ****     *
 726:.\Generated_Source\PSoC4/PWM_Light_Show.c ****     * Summary:
 727:.\Generated_Source\PSoC4/PWM_Light_Show.c ****     *  Returns the current state of the control register. This API is available
 728:.\Generated_Source\PSoC4/PWM_Light_Show.c ****     *  only if the control register is not removed.
 729:.\Generated_Source\PSoC4/PWM_Light_Show.c ****     *
 730:.\Generated_Source\PSoC4/PWM_Light_Show.c ****     * Parameters:
 731:.\Generated_Source\PSoC4/PWM_Light_Show.c ****     *  None
 732:.\Generated_Source\PSoC4/PWM_Light_Show.c ****     *
 733:.\Generated_Source\PSoC4/PWM_Light_Show.c ****     * Return:
 734:.\Generated_Source\PSoC4/PWM_Light_Show.c ****     *  uint8 : Current control register value
 735:.\Generated_Source\PSoC4/PWM_Light_Show.c ****     *
 736:.\Generated_Source\PSoC4/PWM_Light_Show.c ****     *******************************************************************************/
 737:.\Generated_Source\PSoC4/PWM_Light_Show.c ****     uint8 PWM_Light_Show_ReadControlRegister(void) 
 738:.\Generated_Source\PSoC4/PWM_Light_Show.c ****     {
 506              		.loc 1 738 0
 507              		.cfi_startproc
 508 0000 80B5     		push	{r7, lr}
 509              		.cfi_def_cfa_offset 8
 510              		.cfi_offset 7, -8
 511              		.cfi_offset 14, -4
 512 0002 82B0     		sub	sp, sp, #8
 513              		.cfi_def_cfa_offset 16
 514 0004 00AF     		add	r7, sp, #0
 515              		.cfi_def_cfa_register 7
ARM GAS  C:\Users\Admin\AppData\Local\Temp\ccLEIwe8.s 			page 23


 739:.\Generated_Source\PSoC4/PWM_Light_Show.c ****         uint8 result;
 740:.\Generated_Source\PSoC4/PWM_Light_Show.c **** 
 741:.\Generated_Source\PSoC4/PWM_Light_Show.c ****         result = CY_GET_REG8(PWM_Light_Show_CONTROL_PTR);
 516              		.loc 1 741 0
 517 0006 054A     		ldr	r2, .L39
 518 0008 FB1D     		add	r3, r7, #7
 519 000a 1278     		ldrb	r2, [r2]
 520 000c 1A70     		strb	r2, [r3]
 742:.\Generated_Source\PSoC4/PWM_Light_Show.c ****         return (result);
 521              		.loc 1 742 0
 522 000e FB1D     		add	r3, r7, #7
 523 0010 1B78     		ldrb	r3, [r3]
 743:.\Generated_Source\PSoC4/PWM_Light_Show.c ****     }
 524              		.loc 1 743 0
 525 0012 181C     		mov	r0, r3
 526 0014 BD46     		mov	sp, r7
 527 0016 02B0     		add	sp, sp, #8
 528              		@ sp needed
 529 0018 80BD     		pop	{r7, pc}
 530              	.L40:
 531 001a C046     		.align	2
 532              	.L39:
 533 001c 70000F40 		.word	1074724976
 534              		.cfi_endproc
 535              	.LFE11:
 536              		.size	PWM_Light_Show_ReadControlRegister, .-PWM_Light_Show_ReadControlRegister
 537              		.section	.text.PWM_Light_Show_WriteControlRegister,"ax",%progbits
 538              		.align	2
 539              		.global	PWM_Light_Show_WriteControlRegister
 540              		.code	16
 541              		.thumb_func
 542              		.type	PWM_Light_Show_WriteControlRegister, %function
 543              	PWM_Light_Show_WriteControlRegister:
 544              	.LFB12:
 744:.\Generated_Source\PSoC4/PWM_Light_Show.c **** 
 745:.\Generated_Source\PSoC4/PWM_Light_Show.c **** 
 746:.\Generated_Source\PSoC4/PWM_Light_Show.c ****     /*******************************************************************************
 747:.\Generated_Source\PSoC4/PWM_Light_Show.c ****     * Function Name: PWM_Light_Show_WriteControlRegister
 748:.\Generated_Source\PSoC4/PWM_Light_Show.c ****     ********************************************************************************
 749:.\Generated_Source\PSoC4/PWM_Light_Show.c ****     *
 750:.\Generated_Source\PSoC4/PWM_Light_Show.c ****     * Summary:
 751:.\Generated_Source\PSoC4/PWM_Light_Show.c ****     *  Sets the bit field of the control register. This API is available only if
 752:.\Generated_Source\PSoC4/PWM_Light_Show.c ****     *  the control register is not removed.
 753:.\Generated_Source\PSoC4/PWM_Light_Show.c ****     *
 754:.\Generated_Source\PSoC4/PWM_Light_Show.c ****     * Parameters:
 755:.\Generated_Source\PSoC4/PWM_Light_Show.c ****     *  uint8 control: Control register bit field, The status register bits are:
 756:.\Generated_Source\PSoC4/PWM_Light_Show.c ****     *  [7]   : PWM Enable
 757:.\Generated_Source\PSoC4/PWM_Light_Show.c ****     *  [6]   : Reset
 758:.\Generated_Source\PSoC4/PWM_Light_Show.c ****     *  [5:3] : Compare Mode2
 759:.\Generated_Source\PSoC4/PWM_Light_Show.c ****     *  [2:0] : Compare Mode2
 760:.\Generated_Source\PSoC4/PWM_Light_Show.c ****     *
 761:.\Generated_Source\PSoC4/PWM_Light_Show.c ****     * Return:
 762:.\Generated_Source\PSoC4/PWM_Light_Show.c ****     *  None
 763:.\Generated_Source\PSoC4/PWM_Light_Show.c ****     *
 764:.\Generated_Source\PSoC4/PWM_Light_Show.c ****     *******************************************************************************/
 765:.\Generated_Source\PSoC4/PWM_Light_Show.c ****     void PWM_Light_Show_WriteControlRegister(uint8 control) 
 766:.\Generated_Source\PSoC4/PWM_Light_Show.c ****     {
ARM GAS  C:\Users\Admin\AppData\Local\Temp\ccLEIwe8.s 			page 24


 545              		.loc 1 766 0
 546              		.cfi_startproc
 547 0000 80B5     		push	{r7, lr}
 548              		.cfi_def_cfa_offset 8
 549              		.cfi_offset 7, -8
 550              		.cfi_offset 14, -4
 551 0002 82B0     		sub	sp, sp, #8
 552              		.cfi_def_cfa_offset 16
 553 0004 00AF     		add	r7, sp, #0
 554              		.cfi_def_cfa_register 7
 555 0006 021C     		mov	r2, r0
 556 0008 FB1D     		add	r3, r7, #7
 557 000a 1A70     		strb	r2, [r3]
 767:.\Generated_Source\PSoC4/PWM_Light_Show.c ****         CY_SET_REG8(PWM_Light_Show_CONTROL_PTR, control);
 558              		.loc 1 767 0
 559 000c 034B     		ldr	r3, .L42
 560 000e FA1D     		add	r2, r7, #7
 561 0010 1278     		ldrb	r2, [r2]
 562 0012 1A70     		strb	r2, [r3]
 768:.\Generated_Source\PSoC4/PWM_Light_Show.c ****     }
 563              		.loc 1 768 0
 564 0014 BD46     		mov	sp, r7
 565 0016 02B0     		add	sp, sp, #8
 566              		@ sp needed
 567 0018 80BD     		pop	{r7, pc}
 568              	.L43:
 569 001a C046     		.align	2
 570              	.L42:
 571 001c 70000F40 		.word	1074724976
 572              		.cfi_endproc
 573              	.LFE12:
 574              		.size	PWM_Light_Show_WriteControlRegister, .-PWM_Light_Show_WriteControlRegister
 575              		.section	.text.PWM_Light_Show_ReadCapture,"ax",%progbits
 576              		.align	2
 577              		.global	PWM_Light_Show_ReadCapture
 578              		.code	16
 579              		.thumb_func
 580              		.type	PWM_Light_Show_ReadCapture, %function
 581              	PWM_Light_Show_ReadCapture:
 582              	.LFB13:
 769:.\Generated_Source\PSoC4/PWM_Light_Show.c **** 
 770:.\Generated_Source\PSoC4/PWM_Light_Show.c **** #endif /* (PWM_Light_Show_UseControl) */
 771:.\Generated_Source\PSoC4/PWM_Light_Show.c **** 
 772:.\Generated_Source\PSoC4/PWM_Light_Show.c **** 
 773:.\Generated_Source\PSoC4/PWM_Light_Show.c **** #if (!PWM_Light_Show_UsingFixedFunction)
 774:.\Generated_Source\PSoC4/PWM_Light_Show.c **** 
 775:.\Generated_Source\PSoC4/PWM_Light_Show.c **** 
 776:.\Generated_Source\PSoC4/PWM_Light_Show.c ****     /*******************************************************************************
 777:.\Generated_Source\PSoC4/PWM_Light_Show.c ****     * Function Name: PWM_Light_Show_ReadCapture
 778:.\Generated_Source\PSoC4/PWM_Light_Show.c ****     ********************************************************************************
 779:.\Generated_Source\PSoC4/PWM_Light_Show.c ****     *
 780:.\Generated_Source\PSoC4/PWM_Light_Show.c ****     * Summary:
 781:.\Generated_Source\PSoC4/PWM_Light_Show.c ****     *  Reads the capture value from the capture FIFO.
 782:.\Generated_Source\PSoC4/PWM_Light_Show.c ****     *
 783:.\Generated_Source\PSoC4/PWM_Light_Show.c ****     * Parameters:
 784:.\Generated_Source\PSoC4/PWM_Light_Show.c ****     *  None
 785:.\Generated_Source\PSoC4/PWM_Light_Show.c ****     *
ARM GAS  C:\Users\Admin\AppData\Local\Temp\ccLEIwe8.s 			page 25


 786:.\Generated_Source\PSoC4/PWM_Light_Show.c ****     * Return:
 787:.\Generated_Source\PSoC4/PWM_Light_Show.c ****     *  uint8/uint16: The current capture value
 788:.\Generated_Source\PSoC4/PWM_Light_Show.c ****     *
 789:.\Generated_Source\PSoC4/PWM_Light_Show.c ****     *******************************************************************************/
 790:.\Generated_Source\PSoC4/PWM_Light_Show.c ****     uint16 PWM_Light_Show_ReadCapture(void) 
 791:.\Generated_Source\PSoC4/PWM_Light_Show.c ****     {
 583              		.loc 1 791 0
 584              		.cfi_startproc
 585 0000 80B5     		push	{r7, lr}
 586              		.cfi_def_cfa_offset 8
 587              		.cfi_offset 7, -8
 588              		.cfi_offset 14, -4
 589 0002 00AF     		add	r7, sp, #0
 590              		.cfi_def_cfa_register 7
 792:.\Generated_Source\PSoC4/PWM_Light_Show.c ****         return (CY_GET_REG16(PWM_Light_Show_CAPTURE_LSB_PTR));
 591              		.loc 1 792 0
 592 0004 024B     		ldr	r3, .L46
 593 0006 1B88     		ldrh	r3, [r3]
 594 0008 9BB2     		uxth	r3, r3
 793:.\Generated_Source\PSoC4/PWM_Light_Show.c ****     }
 595              		.loc 1 793 0
 596 000a 181C     		mov	r0, r3
 597 000c BD46     		mov	sp, r7
 598              		@ sp needed
 599 000e 80BD     		pop	{r7, pc}
 600              	.L47:
 601              		.align	2
 602              	.L46:
 603 0010 A0100F40 		.word	1074729120
 604              		.cfi_endproc
 605              	.LFE13:
 606              		.size	PWM_Light_Show_ReadCapture, .-PWM_Light_Show_ReadCapture
 607              		.section	.text.PWM_Light_Show_ReadCompare,"ax",%progbits
 608              		.align	2
 609              		.global	PWM_Light_Show_ReadCompare
 610              		.code	16
 611              		.thumb_func
 612              		.type	PWM_Light_Show_ReadCompare, %function
 613              	PWM_Light_Show_ReadCompare:
 614              	.LFB14:
 794:.\Generated_Source\PSoC4/PWM_Light_Show.c **** 
 795:.\Generated_Source\PSoC4/PWM_Light_Show.c **** #endif /* (!PWM_Light_Show_UsingFixedFunction) */
 796:.\Generated_Source\PSoC4/PWM_Light_Show.c **** 
 797:.\Generated_Source\PSoC4/PWM_Light_Show.c **** 
 798:.\Generated_Source\PSoC4/PWM_Light_Show.c **** #if (PWM_Light_Show_UseOneCompareMode)
 799:.\Generated_Source\PSoC4/PWM_Light_Show.c **** 
 800:.\Generated_Source\PSoC4/PWM_Light_Show.c **** 
 801:.\Generated_Source\PSoC4/PWM_Light_Show.c ****     /*******************************************************************************
 802:.\Generated_Source\PSoC4/PWM_Light_Show.c ****     * Function Name: PWM_Light_Show_ReadCompare
 803:.\Generated_Source\PSoC4/PWM_Light_Show.c ****     ********************************************************************************
 804:.\Generated_Source\PSoC4/PWM_Light_Show.c ****     *
 805:.\Generated_Source\PSoC4/PWM_Light_Show.c ****     * Summary:
 806:.\Generated_Source\PSoC4/PWM_Light_Show.c ****     *  Reads the compare value for the compare output when the PWM Mode parameter is
 807:.\Generated_Source\PSoC4/PWM_Light_Show.c ****     *  set to Dither mode, Center Aligned mode, or One Output mode.
 808:.\Generated_Source\PSoC4/PWM_Light_Show.c ****     *
 809:.\Generated_Source\PSoC4/PWM_Light_Show.c ****     * Parameters:
 810:.\Generated_Source\PSoC4/PWM_Light_Show.c ****     *  None
ARM GAS  C:\Users\Admin\AppData\Local\Temp\ccLEIwe8.s 			page 26


 811:.\Generated_Source\PSoC4/PWM_Light_Show.c ****     *
 812:.\Generated_Source\PSoC4/PWM_Light_Show.c ****     * Return:
 813:.\Generated_Source\PSoC4/PWM_Light_Show.c ****     *  uint8/uint16: Current compare value
 814:.\Generated_Source\PSoC4/PWM_Light_Show.c ****     *
 815:.\Generated_Source\PSoC4/PWM_Light_Show.c ****     *******************************************************************************/
 816:.\Generated_Source\PSoC4/PWM_Light_Show.c ****     uint16 PWM_Light_Show_ReadCompare(void) 
 817:.\Generated_Source\PSoC4/PWM_Light_Show.c ****     {
 615              		.loc 1 817 0
 616              		.cfi_startproc
 617 0000 80B5     		push	{r7, lr}
 618              		.cfi_def_cfa_offset 8
 619              		.cfi_offset 7, -8
 620              		.cfi_offset 14, -4
 621 0002 00AF     		add	r7, sp, #0
 622              		.cfi_def_cfa_register 7
 818:.\Generated_Source\PSoC4/PWM_Light_Show.c ****         #if(PWM_Light_Show_UsingFixedFunction)
 819:.\Generated_Source\PSoC4/PWM_Light_Show.c ****             return ((uint16)CY_GET_REG16(PWM_Light_Show_COMPARE1_LSB_PTR));
 820:.\Generated_Source\PSoC4/PWM_Light_Show.c ****         #else
 821:.\Generated_Source\PSoC4/PWM_Light_Show.c ****             return (CY_GET_REG16(PWM_Light_Show_COMPARE1_LSB_PTR));
 623              		.loc 1 821 0
 624 0004 024B     		ldr	r3, .L50
 625 0006 1B88     		ldrh	r3, [r3]
 626 0008 9BB2     		uxth	r3, r3
 822:.\Generated_Source\PSoC4/PWM_Light_Show.c ****         #endif /* (PWM_Light_Show_UsingFixedFunction) */
 823:.\Generated_Source\PSoC4/PWM_Light_Show.c ****     }
 627              		.loc 1 823 0
 628 000a 181C     		mov	r0, r3
 629 000c BD46     		mov	sp, r7
 630              		@ sp needed
 631 000e 80BD     		pop	{r7, pc}
 632              	.L51:
 633              		.align	2
 634              	.L50:
 635 0010 40100F40 		.word	1074729024
 636              		.cfi_endproc
 637              	.LFE14:
 638              		.size	PWM_Light_Show_ReadCompare, .-PWM_Light_Show_ReadCompare
 639              		.section	.text.PWM_Light_Show_ReadPeriod,"ax",%progbits
 640              		.align	2
 641              		.global	PWM_Light_Show_ReadPeriod
 642              		.code	16
 643              		.thumb_func
 644              		.type	PWM_Light_Show_ReadPeriod, %function
 645              	PWM_Light_Show_ReadPeriod:
 646              	.LFB15:
 824:.\Generated_Source\PSoC4/PWM_Light_Show.c **** 
 825:.\Generated_Source\PSoC4/PWM_Light_Show.c **** #else
 826:.\Generated_Source\PSoC4/PWM_Light_Show.c **** 
 827:.\Generated_Source\PSoC4/PWM_Light_Show.c **** 
 828:.\Generated_Source\PSoC4/PWM_Light_Show.c ****     /*******************************************************************************
 829:.\Generated_Source\PSoC4/PWM_Light_Show.c ****     * Function Name: PWM_Light_Show_ReadCompare1
 830:.\Generated_Source\PSoC4/PWM_Light_Show.c ****     ********************************************************************************
 831:.\Generated_Source\PSoC4/PWM_Light_Show.c ****     *
 832:.\Generated_Source\PSoC4/PWM_Light_Show.c ****     * Summary:
 833:.\Generated_Source\PSoC4/PWM_Light_Show.c ****     *  Reads the compare value for the compare1 output.
 834:.\Generated_Source\PSoC4/PWM_Light_Show.c ****     *
 835:.\Generated_Source\PSoC4/PWM_Light_Show.c ****     * Parameters:
ARM GAS  C:\Users\Admin\AppData\Local\Temp\ccLEIwe8.s 			page 27


 836:.\Generated_Source\PSoC4/PWM_Light_Show.c ****     *  None
 837:.\Generated_Source\PSoC4/PWM_Light_Show.c ****     *
 838:.\Generated_Source\PSoC4/PWM_Light_Show.c ****     * Return:
 839:.\Generated_Source\PSoC4/PWM_Light_Show.c ****     *  uint8/uint16: Current compare value.
 840:.\Generated_Source\PSoC4/PWM_Light_Show.c ****     *
 841:.\Generated_Source\PSoC4/PWM_Light_Show.c ****     *******************************************************************************/
 842:.\Generated_Source\PSoC4/PWM_Light_Show.c ****     uint16 PWM_Light_Show_ReadCompare1(void) 
 843:.\Generated_Source\PSoC4/PWM_Light_Show.c ****     {
 844:.\Generated_Source\PSoC4/PWM_Light_Show.c ****         return (CY_GET_REG16(PWM_Light_Show_COMPARE1_LSB_PTR));
 845:.\Generated_Source\PSoC4/PWM_Light_Show.c ****     }
 846:.\Generated_Source\PSoC4/PWM_Light_Show.c **** 
 847:.\Generated_Source\PSoC4/PWM_Light_Show.c **** 
 848:.\Generated_Source\PSoC4/PWM_Light_Show.c ****     /*******************************************************************************
 849:.\Generated_Source\PSoC4/PWM_Light_Show.c ****     * Function Name: PWM_Light_Show_ReadCompare2
 850:.\Generated_Source\PSoC4/PWM_Light_Show.c ****     ********************************************************************************
 851:.\Generated_Source\PSoC4/PWM_Light_Show.c ****     *
 852:.\Generated_Source\PSoC4/PWM_Light_Show.c ****     * Summary:
 853:.\Generated_Source\PSoC4/PWM_Light_Show.c ****     *  Reads the compare value for the compare2 output.
 854:.\Generated_Source\PSoC4/PWM_Light_Show.c ****     *
 855:.\Generated_Source\PSoC4/PWM_Light_Show.c ****     * Parameters:
 856:.\Generated_Source\PSoC4/PWM_Light_Show.c ****     *  None
 857:.\Generated_Source\PSoC4/PWM_Light_Show.c ****     *
 858:.\Generated_Source\PSoC4/PWM_Light_Show.c ****     * Return:
 859:.\Generated_Source\PSoC4/PWM_Light_Show.c ****     *  uint8/uint16: Current compare value.
 860:.\Generated_Source\PSoC4/PWM_Light_Show.c ****     *
 861:.\Generated_Source\PSoC4/PWM_Light_Show.c ****     *******************************************************************************/
 862:.\Generated_Source\PSoC4/PWM_Light_Show.c ****     uint16 PWM_Light_Show_ReadCompare2(void) 
 863:.\Generated_Source\PSoC4/PWM_Light_Show.c ****     {
 864:.\Generated_Source\PSoC4/PWM_Light_Show.c ****         return (CY_GET_REG16(PWM_Light_Show_COMPARE2_LSB_PTR));
 865:.\Generated_Source\PSoC4/PWM_Light_Show.c ****     }
 866:.\Generated_Source\PSoC4/PWM_Light_Show.c **** 
 867:.\Generated_Source\PSoC4/PWM_Light_Show.c **** #endif /* (PWM_Light_Show_UseOneCompareMode) */
 868:.\Generated_Source\PSoC4/PWM_Light_Show.c **** 
 869:.\Generated_Source\PSoC4/PWM_Light_Show.c **** 
 870:.\Generated_Source\PSoC4/PWM_Light_Show.c **** /*******************************************************************************
 871:.\Generated_Source\PSoC4/PWM_Light_Show.c **** * Function Name: PWM_Light_Show_ReadPeriod
 872:.\Generated_Source\PSoC4/PWM_Light_Show.c **** ********************************************************************************
 873:.\Generated_Source\PSoC4/PWM_Light_Show.c **** *
 874:.\Generated_Source\PSoC4/PWM_Light_Show.c **** * Summary:
 875:.\Generated_Source\PSoC4/PWM_Light_Show.c **** *  Reads the period value used by the PWM hardware.
 876:.\Generated_Source\PSoC4/PWM_Light_Show.c **** *
 877:.\Generated_Source\PSoC4/PWM_Light_Show.c **** * Parameters:
 878:.\Generated_Source\PSoC4/PWM_Light_Show.c **** *  None
 879:.\Generated_Source\PSoC4/PWM_Light_Show.c **** *
 880:.\Generated_Source\PSoC4/PWM_Light_Show.c **** * Return:
 881:.\Generated_Source\PSoC4/PWM_Light_Show.c **** *  uint8/16: Period value
 882:.\Generated_Source\PSoC4/PWM_Light_Show.c **** *
 883:.\Generated_Source\PSoC4/PWM_Light_Show.c **** *******************************************************************************/
 884:.\Generated_Source\PSoC4/PWM_Light_Show.c **** uint16 PWM_Light_Show_ReadPeriod(void) 
 885:.\Generated_Source\PSoC4/PWM_Light_Show.c **** {
 647              		.loc 1 885 0
 648              		.cfi_startproc
 649 0000 80B5     		push	{r7, lr}
 650              		.cfi_def_cfa_offset 8
 651              		.cfi_offset 7, -8
 652              		.cfi_offset 14, -4
 653 0002 00AF     		add	r7, sp, #0
ARM GAS  C:\Users\Admin\AppData\Local\Temp\ccLEIwe8.s 			page 28


 654              		.cfi_def_cfa_register 7
 886:.\Generated_Source\PSoC4/PWM_Light_Show.c ****     #if(PWM_Light_Show_UsingFixedFunction)
 887:.\Generated_Source\PSoC4/PWM_Light_Show.c ****         return ((uint16)CY_GET_REG16(PWM_Light_Show_PERIOD_LSB_PTR));
 888:.\Generated_Source\PSoC4/PWM_Light_Show.c ****     #else
 889:.\Generated_Source\PSoC4/PWM_Light_Show.c ****         return (CY_GET_REG16(PWM_Light_Show_PERIOD_LSB_PTR));
 655              		.loc 1 889 0
 656 0004 024B     		ldr	r3, .L54
 657 0006 1B88     		ldrh	r3, [r3]
 658 0008 9BB2     		uxth	r3, r3
 890:.\Generated_Source\PSoC4/PWM_Light_Show.c ****     #endif /* (PWM_Light_Show_UsingFixedFunction) */
 891:.\Generated_Source\PSoC4/PWM_Light_Show.c **** }
 659              		.loc 1 891 0
 660 000a 181C     		mov	r0, r3
 661 000c BD46     		mov	sp, r7
 662              		@ sp needed
 663 000e 80BD     		pop	{r7, pc}
 664              	.L55:
 665              		.align	2
 666              	.L54:
 667 0010 80100F40 		.word	1074729088
 668              		.cfi_endproc
 669              	.LFE15:
 670              		.size	PWM_Light_Show_ReadPeriod, .-PWM_Light_Show_ReadPeriod
 671              		.text
 672              	.Letext0:
 673              		.file 2 ".\\Generated_Source\\PSoC4\\cytypes.h"