ARM GAS  C:\Users\Admin\AppData\Local\Temp\ccv156xF.s 			page 1


   1              		.cpu cortex-m0
   2              		.fpu softvfp
   3              		.eabi_attribute 20, 1
   4              		.eabi_attribute 21, 1
   5              		.eabi_attribute 23, 3
   6              		.eabi_attribute 24, 1
   7              		.eabi_attribute 25, 1
   8              		.eabi_attribute 26, 1
   9              		.eabi_attribute 30, 6
  10              		.eabi_attribute 34, 0
  11              		.eabi_attribute 18, 4
  12              		.code	16
  13              		.file	"state.c"
  14              		.text
  15              	.Ltext0:
  16              		.cfi_sections	.debug_frame
  17              		.global	badge_state
  18              		.bss
  19              		.type	badge_state, %object
  20              		.size	badge_state, 1
  21              	badge_state:
  22 0000 00       		.space	1
  23              		.section	.text.verify_state,"ax",%progbits
  24              		.align	2
  25              		.global	verify_state
  26              		.code	16
  27              		.thumb_func
  28              		.type	verify_state, %function
  29              	verify_state:
  30              	.LFB33:
  31              		.file 1 ".\\state.c"
   1:.\state.c     **** /* ========================================
   2:.\state.c     ****  *
   3:.\state.c     ****  * Red Badge source code. The volunteer badge
   4:.\state.c     ****  * is used to send encoded morse code message.
   5:.\state.c     ****  *
   6:.\state.c     ****  * Author(s): Ryan Grandgenett <rmgrandgenett@unomaha.edu>
   7:.\state.c     ****  *
   8:.\state.c     ****  * Eye Color: Red
   9:.\state.c     ****  *
  10:.\state.c     ****  * Copyright Nullify, 2016
  11:.\state.c     ****  * All Rights Reserved
  12:.\state.c     ****  * UNPUBLISHED, LICENSED SOFTWARE.
  13:.\state.c     ****  *
  14:.\state.c     ****  * CONFIDENTIAL AND PROPRIETARY INFORMATION
  15:.\state.c     ****  * WHICH IS THE PROPERTY OF NULLIY.
  16:.\state.c     ****  *
  17:.\state.c     ****  * ========================================
  18:.\state.c     **** */
  19:.\state.c     **** #include <project.h>
  20:.\state.c     **** #include <string.h>
  21:.\state.c     **** #include <stdio.h>
  22:.\state.c     **** #include "state.h"
  23:.\state.c     **** 
  24:.\state.c     **** /* Global variable used to keep track of badge state */
  25:.\state.c     **** volatile uint8 badge_state = 0;
  26:.\state.c     **** 
ARM GAS  C:\Users\Admin\AppData\Local\Temp\ccv156xF.s 			page 2


  27:.\state.c     **** uint8 verify_state(uint8 state) {
  32              		.loc 1 27 0
  33              		.cfi_startproc
  34 0000 80B5     		push	{r7, lr}
  35              		.cfi_def_cfa_offset 8
  36              		.cfi_offset 7, -8
  37              		.cfi_offset 14, -4
  38 0002 82B0     		sub	sp, sp, #8
  39              		.cfi_def_cfa_offset 16
  40 0004 00AF     		add	r7, sp, #0
  41              		.cfi_def_cfa_register 7
  42 0006 021C     		mov	r2, r0
  43 0008 FB1D     		add	r3, r7, #7
  44 000a 1A70     		strb	r2, [r3]
  28:.\state.c     ****     if (badge_state == state) {
  45              		.loc 1 28 0
  46 000c 064B     		ldr	r3, .L4
  47 000e 1B78     		ldrb	r3, [r3]
  48 0010 DBB2     		uxtb	r3, r3
  49 0012 FA1D     		add	r2, r7, #7
  50 0014 1278     		ldrb	r2, [r2]
  51 0016 9A42     		cmp	r2, r3
  52 0018 01D1     		bne	.L2
  29:.\state.c     ****         return 1;   
  53              		.loc 1 29 0
  54 001a 0123     		mov	r3, #1
  55 001c 00E0     		b	.L3
  56              	.L2:
  30:.\state.c     ****     }
  31:.\state.c     ****     else {
  32:.\state.c     ****         return 0;
  57              		.loc 1 32 0
  58 001e 0023     		mov	r3, #0
  59              	.L3:
  33:.\state.c     ****     }
  34:.\state.c     **** }...
  60              		.loc 1 34 0
  61 0020 181C     		mov	r0, r3
  62 0022 BD46     		mov	sp, r7
  63 0024 02B0     		add	sp, sp, #8
  64              		@ sp needed
  65 0026 80BD     		pop	{r7, pc}
  66              	.L5:
  67              		.align	2
  68              	.L4:
  69 0028 00000000 		.word	badge_state
  70              		.cfi_endproc
  71              	.LFE33:
  72              		.size	verify_state, .-verify_state
  73              		.text
  74              	.Letext0:
  75              		.file 2 ".\\Generated_Source\\PSoC4/cytypes.h"