ARM GAS  C:\Users\Admin\AppData\Local\Temp\cc5236K1.s 			page 1


   1              		.cpu cortex-m0
   2              		.fpu softvfp
   3              		.eabi_attribute 20, 1
   4              		.eabi_attribute 21, 1
   5              		.eabi_attribute 23, 3
   6              		.eabi_attribute 24, 1
   7              		.eabi_attribute 25, 1
   8              		.eabi_attribute 26, 1
   9              		.eabi_attribute 30, 6
  10              		.eabi_attribute 34, 0
  11              		.eabi_attribute 18, 4
  12              		.code	16
  13              		.file	"SWB_Timer.c"
  14              		.text
  15              	.Ltext0:
  16              		.cfi_sections	.debug_frame
  17              		.global	SWB_Timer_initVar
  18              		.bss
  19              		.type	SWB_Timer_initVar, %object
  20              		.size	SWB_Timer_initVar, 1
  21              	SWB_Timer_initVar:
  22 0000 00       		.space	1
  23              		.section	.text.SWB_Timer_Init,"ax",%progbits
  24              		.align	2
  25              		.global	SWB_Timer_Init
  26              		.code	16
  27              		.thumb_func
  28              		.type	SWB_Timer_Init, %function
  29              	SWB_Timer_Init:
  30              	.LFB0:
  31              		.file 1 ".\\Generated_Source\\PSoC4\\SWB_Timer.c"
   1:.\Generated_Source\PSoC4/SWB_Timer.c **** /*******************************************************************************
   2:.\Generated_Source\PSoC4/SWB_Timer.c **** * File Name: SWB_Timer.c
   3:.\Generated_Source\PSoC4/SWB_Timer.c **** * Version 2.0
   4:.\Generated_Source\PSoC4/SWB_Timer.c **** *
   5:.\Generated_Source\PSoC4/SWB_Timer.c **** * Description:
   6:.\Generated_Source\PSoC4/SWB_Timer.c **** *  This file provides the source code to the API for the SWB_Timer
   7:.\Generated_Source\PSoC4/SWB_Timer.c **** *  component
   8:.\Generated_Source\PSoC4/SWB_Timer.c **** *
   9:.\Generated_Source\PSoC4/SWB_Timer.c **** * Note:
  10:.\Generated_Source\PSoC4/SWB_Timer.c **** *  None
  11:.\Generated_Source\PSoC4/SWB_Timer.c **** *
  12:.\Generated_Source\PSoC4/SWB_Timer.c **** ********************************************************************************
  13:.\Generated_Source\PSoC4/SWB_Timer.c **** * Copyright 2013-2014, Cypress Semiconductor Corporation.  All rights reserved.
  14:.\Generated_Source\PSoC4/SWB_Timer.c **** * You may use this file only in accordance with the license, terms, conditions,
  15:.\Generated_Source\PSoC4/SWB_Timer.c **** * disclaimers, and limitations in the end user license agreement accompanying
  16:.\Generated_Source\PSoC4/SWB_Timer.c **** * the software package with which this file was provided.
  17:.\Generated_Source\PSoC4/SWB_Timer.c **** *******************************************************************************/
  18:.\Generated_Source\PSoC4/SWB_Timer.c **** 
  19:.\Generated_Source\PSoC4/SWB_Timer.c **** #include "SWB_Timer.h"
  20:.\Generated_Source\PSoC4/SWB_Timer.c **** 
  21:.\Generated_Source\PSoC4/SWB_Timer.c **** uint8 SWB_Timer_initVar = 0u;
  22:.\Generated_Source\PSoC4/SWB_Timer.c **** 
  23:.\Generated_Source\PSoC4/SWB_Timer.c **** 
  24:.\Generated_Source\PSoC4/SWB_Timer.c **** /*******************************************************************************
  25:.\Generated_Source\PSoC4/SWB_Timer.c **** * Function Name: SWB_Timer_Init
  26:.\Generated_Source\PSoC4/SWB_Timer.c **** ********************************************************************************
ARM GAS  C:\Users\Admin\AppData\Local\Temp\cc5236K1.s 			page 2


  27:.\Generated_Source\PSoC4/SWB_Timer.c **** *
  28:.\Generated_Source\PSoC4/SWB_Timer.c **** * Summary:
  29:.\Generated_Source\PSoC4/SWB_Timer.c **** *  Initialize/Restore default SWB_Timer configuration.
  30:.\Generated_Source\PSoC4/SWB_Timer.c **** *
  31:.\Generated_Source\PSoC4/SWB_Timer.c **** * Parameters:
  32:.\Generated_Source\PSoC4/SWB_Timer.c **** *  None
  33:.\Generated_Source\PSoC4/SWB_Timer.c **** *
  34:.\Generated_Source\PSoC4/SWB_Timer.c **** * Return:
  35:.\Generated_Source\PSoC4/SWB_Timer.c **** *  None
  36:.\Generated_Source\PSoC4/SWB_Timer.c **** *
  37:.\Generated_Source\PSoC4/SWB_Timer.c **** *******************************************************************************/
  38:.\Generated_Source\PSoC4/SWB_Timer.c **** void SWB_Timer_Init(void)
  39:.\Generated_Source\PSoC4/SWB_Timer.c **** {
  32              		.loc 1 39 0
  33              		.cfi_startproc
  34 0000 80B5     		push	{r7, lr}
  35              		.cfi_def_cfa_offset 8
  36              		.cfi_offset 7, -8
  37              		.cfi_offset 14, -4
  38 0002 00AF     		add	r7, sp, #0
  39              		.cfi_def_cfa_register 7
  40:.\Generated_Source\PSoC4/SWB_Timer.c **** 
  41:.\Generated_Source\PSoC4/SWB_Timer.c ****     /* Set values from customizer to CTRL */
  42:.\Generated_Source\PSoC4/SWB_Timer.c ****     #if (SWB_Timer__QUAD == SWB_Timer_CONFIG)
  43:.\Generated_Source\PSoC4/SWB_Timer.c ****         SWB_Timer_CONTROL_REG = SWB_Timer_CTRL_QUAD_BASE_CONFIG;
  44:.\Generated_Source\PSoC4/SWB_Timer.c ****         
  45:.\Generated_Source\PSoC4/SWB_Timer.c ****         /* Set values from customizer to CTRL1 */
  46:.\Generated_Source\PSoC4/SWB_Timer.c ****         SWB_Timer_TRIG_CONTROL1_REG  = SWB_Timer_QUAD_SIGNALS_MODES;
  47:.\Generated_Source\PSoC4/SWB_Timer.c **** 
  48:.\Generated_Source\PSoC4/SWB_Timer.c ****         /* Set values from customizer to INTR */
  49:.\Generated_Source\PSoC4/SWB_Timer.c ****         SWB_Timer_SetInterruptMode(SWB_Timer_QUAD_INTERRUPT_MASK);
  50:.\Generated_Source\PSoC4/SWB_Timer.c ****         
  51:.\Generated_Source\PSoC4/SWB_Timer.c ****          /* Set other values */
  52:.\Generated_Source\PSoC4/SWB_Timer.c ****         SWB_Timer_SetCounterMode(SWB_Timer_COUNT_DOWN);
  53:.\Generated_Source\PSoC4/SWB_Timer.c ****         SWB_Timer_WritePeriod(SWB_Timer_QUAD_PERIOD_INIT_VALUE);
  54:.\Generated_Source\PSoC4/SWB_Timer.c ****         SWB_Timer_WriteCounter(SWB_Timer_QUAD_PERIOD_INIT_VALUE);
  55:.\Generated_Source\PSoC4/SWB_Timer.c ****     #endif  /* (SWB_Timer__QUAD == SWB_Timer_CONFIG) */
  56:.\Generated_Source\PSoC4/SWB_Timer.c **** 
  57:.\Generated_Source\PSoC4/SWB_Timer.c ****     #if (SWB_Timer__TIMER == SWB_Timer_CONFIG)
  58:.\Generated_Source\PSoC4/SWB_Timer.c ****         SWB_Timer_CONTROL_REG = SWB_Timer_CTRL_TIMER_BASE_CONFIG;
  40              		.loc 1 58 0
  41 0004 094B     		ldr	r3, .L2
  42 0006 8022     		mov	r2, #128
  43 0008 9204     		lsl	r2, r2, #18
  44 000a 1A60     		str	r2, [r3]
  59:.\Generated_Source\PSoC4/SWB_Timer.c ****         
  60:.\Generated_Source\PSoC4/SWB_Timer.c ****         /* Set values from customizer to CTRL1 */
  61:.\Generated_Source\PSoC4/SWB_Timer.c ****         SWB_Timer_TRIG_CONTROL1_REG  = SWB_Timer_TIMER_SIGNALS_MODES;
  45              		.loc 1 61 0
  46 000c 084B     		ldr	r3, .L2+4
  47 000e 8A22     		mov	r2, #138
  48 0010 5200     		lsl	r2, r2, #1
  49 0012 1A60     		str	r2, [r3]
  62:.\Generated_Source\PSoC4/SWB_Timer.c ****     
  63:.\Generated_Source\PSoC4/SWB_Timer.c ****         /* Set values from customizer to INTR */
  64:.\Generated_Source\PSoC4/SWB_Timer.c ****         SWB_Timer_SetInterruptMode(SWB_Timer_TC_INTERRUPT_MASK);
  50              		.loc 1 64 0
ARM GAS  C:\Users\Admin\AppData\Local\Temp\cc5236K1.s 			page 3


  51 0014 0320     		mov	r0, #3
  52 0016 FFF7FEFF 		bl	SWB_Timer_SetInterruptMode
  65:.\Generated_Source\PSoC4/SWB_Timer.c ****         
  66:.\Generated_Source\PSoC4/SWB_Timer.c ****         /* Set other values from customizer */
  67:.\Generated_Source\PSoC4/SWB_Timer.c ****         SWB_Timer_WritePeriod(SWB_Timer_TC_PERIOD_VALUE );
  53              		.loc 1 67 0
  54 001a 064B     		ldr	r3, .L2+8
  55 001c 181C     		mov	r0, r3
  56 001e FFF7FEFF 		bl	SWB_Timer_WritePeriod
  68:.\Generated_Source\PSoC4/SWB_Timer.c **** 
  69:.\Generated_Source\PSoC4/SWB_Timer.c ****         #if (SWB_Timer__COMPARE == SWB_Timer_TC_COMP_CAP_MODE)
  70:.\Generated_Source\PSoC4/SWB_Timer.c ****             SWB_Timer_WriteCompare(SWB_Timer_TC_COMPARE_VALUE);
  71:.\Generated_Source\PSoC4/SWB_Timer.c **** 
  72:.\Generated_Source\PSoC4/SWB_Timer.c ****             #if (1u == SWB_Timer_TC_COMPARE_SWAP)
  73:.\Generated_Source\PSoC4/SWB_Timer.c ****                 SWB_Timer_SetCompareSwap(1u);
  74:.\Generated_Source\PSoC4/SWB_Timer.c ****                 SWB_Timer_WriteCompareBuf(SWB_Timer_TC_COMPARE_BUF_VALUE);
  75:.\Generated_Source\PSoC4/SWB_Timer.c ****             #endif  /* (1u == SWB_Timer_TC_COMPARE_SWAP) */
  76:.\Generated_Source\PSoC4/SWB_Timer.c ****         #endif  /* (SWB_Timer__COMPARE == SWB_Timer_TC_COMP_CAP_MODE) */
  77:.\Generated_Source\PSoC4/SWB_Timer.c **** 
  78:.\Generated_Source\PSoC4/SWB_Timer.c ****         /* Initialize counter value */
  79:.\Generated_Source\PSoC4/SWB_Timer.c ****         #if (SWB_Timer_CY_TCPWM_V2 && SWB_Timer_TIMER_UPDOWN_CNT_USED && !SWB_Timer_CY_TCPWM_4000)
  80:.\Generated_Source\PSoC4/SWB_Timer.c ****             SWB_Timer_WriteCounter(1u);
  81:.\Generated_Source\PSoC4/SWB_Timer.c ****         #elif(SWB_Timer__COUNT_DOWN == SWB_Timer_TC_COUNTER_MODE)
  82:.\Generated_Source\PSoC4/SWB_Timer.c ****             SWB_Timer_WriteCounter(SWB_Timer_TC_PERIOD_VALUE);
  83:.\Generated_Source\PSoC4/SWB_Timer.c ****         #else
  84:.\Generated_Source\PSoC4/SWB_Timer.c ****             SWB_Timer_WriteCounter(0u);
  57              		.loc 1 84 0
  58 0022 0020     		mov	r0, #0
  59 0024 FFF7FEFF 		bl	SWB_Timer_WriteCounter
  85:.\Generated_Source\PSoC4/SWB_Timer.c ****         #endif /* (SWB_Timer_CY_TCPWM_V2 && SWB_Timer_TIMER_UPDOWN_CNT_USED && !SWB_Timer_CY_TCPWM_
  86:.\Generated_Source\PSoC4/SWB_Timer.c ****     #endif  /* (SWB_Timer__TIMER == SWB_Timer_CONFIG) */
  87:.\Generated_Source\PSoC4/SWB_Timer.c **** 
  88:.\Generated_Source\PSoC4/SWB_Timer.c ****     #if (SWB_Timer__PWM_SEL == SWB_Timer_CONFIG)
  89:.\Generated_Source\PSoC4/SWB_Timer.c ****         SWB_Timer_CONTROL_REG = SWB_Timer_CTRL_PWM_BASE_CONFIG;
  90:.\Generated_Source\PSoC4/SWB_Timer.c **** 
  91:.\Generated_Source\PSoC4/SWB_Timer.c ****         #if (SWB_Timer__PWM_PR == SWB_Timer_PWM_MODE)
  92:.\Generated_Source\PSoC4/SWB_Timer.c ****             SWB_Timer_CONTROL_REG |= SWB_Timer_CTRL_PWM_RUN_MODE;
  93:.\Generated_Source\PSoC4/SWB_Timer.c ****             SWB_Timer_WriteCounter(SWB_Timer_PWM_PR_INIT_VALUE);
  94:.\Generated_Source\PSoC4/SWB_Timer.c ****         #else
  95:.\Generated_Source\PSoC4/SWB_Timer.c ****             SWB_Timer_CONTROL_REG |= SWB_Timer_CTRL_PWM_ALIGN | SWB_Timer_CTRL_PWM_KILL_EVENT;
  96:.\Generated_Source\PSoC4/SWB_Timer.c ****             
  97:.\Generated_Source\PSoC4/SWB_Timer.c ****             /* Initialize counter value */
  98:.\Generated_Source\PSoC4/SWB_Timer.c ****             #if (SWB_Timer_CY_TCPWM_V2 && SWB_Timer_PWM_UPDOWN_CNT_USED && !SWB_Timer_CY_TCPWM_4000
  99:.\Generated_Source\PSoC4/SWB_Timer.c ****                 SWB_Timer_WriteCounter(1u);
 100:.\Generated_Source\PSoC4/SWB_Timer.c ****             #elif (SWB_Timer__RIGHT == SWB_Timer_PWM_ALIGN)
 101:.\Generated_Source\PSoC4/SWB_Timer.c ****                 SWB_Timer_WriteCounter(SWB_Timer_PWM_PERIOD_VALUE);
 102:.\Generated_Source\PSoC4/SWB_Timer.c ****             #else 
 103:.\Generated_Source\PSoC4/SWB_Timer.c ****                 SWB_Timer_WriteCounter(0u);
 104:.\Generated_Source\PSoC4/SWB_Timer.c ****             #endif  /* (SWB_Timer_CY_TCPWM_V2 && SWB_Timer_PWM_UPDOWN_CNT_USED && !SWB_Timer_CY_TCP
 105:.\Generated_Source\PSoC4/SWB_Timer.c ****         #endif  /* (SWB_Timer__PWM_PR == SWB_Timer_PWM_MODE) */
 106:.\Generated_Source\PSoC4/SWB_Timer.c **** 
 107:.\Generated_Source\PSoC4/SWB_Timer.c ****         #if (SWB_Timer__PWM_DT == SWB_Timer_PWM_MODE)
 108:.\Generated_Source\PSoC4/SWB_Timer.c ****             SWB_Timer_CONTROL_REG |= SWB_Timer_CTRL_PWM_DEAD_TIME_CYCLE;
 109:.\Generated_Source\PSoC4/SWB_Timer.c ****         #endif  /* (SWB_Timer__PWM_DT == SWB_Timer_PWM_MODE) */
 110:.\Generated_Source\PSoC4/SWB_Timer.c **** 
 111:.\Generated_Source\PSoC4/SWB_Timer.c ****         #if (SWB_Timer__PWM == SWB_Timer_PWM_MODE)
 112:.\Generated_Source\PSoC4/SWB_Timer.c ****             SWB_Timer_CONTROL_REG |= SWB_Timer_CTRL_PWM_PRESCALER;
ARM GAS  C:\Users\Admin\AppData\Local\Temp\cc5236K1.s 			page 4


 113:.\Generated_Source\PSoC4/SWB_Timer.c ****         #endif  /* (SWB_Timer__PWM == SWB_Timer_PWM_MODE) */
 114:.\Generated_Source\PSoC4/SWB_Timer.c **** 
 115:.\Generated_Source\PSoC4/SWB_Timer.c ****         /* Set values from customizer to CTRL1 */
 116:.\Generated_Source\PSoC4/SWB_Timer.c ****         SWB_Timer_TRIG_CONTROL1_REG  = SWB_Timer_PWM_SIGNALS_MODES;
 117:.\Generated_Source\PSoC4/SWB_Timer.c ****     
 118:.\Generated_Source\PSoC4/SWB_Timer.c ****         /* Set values from customizer to INTR */
 119:.\Generated_Source\PSoC4/SWB_Timer.c ****         SWB_Timer_SetInterruptMode(SWB_Timer_PWM_INTERRUPT_MASK);
 120:.\Generated_Source\PSoC4/SWB_Timer.c **** 
 121:.\Generated_Source\PSoC4/SWB_Timer.c ****         /* Set values from customizer to CTRL2 */
 122:.\Generated_Source\PSoC4/SWB_Timer.c ****         #if (SWB_Timer__PWM_PR == SWB_Timer_PWM_MODE)
 123:.\Generated_Source\PSoC4/SWB_Timer.c ****             SWB_Timer_TRIG_CONTROL2_REG =
 124:.\Generated_Source\PSoC4/SWB_Timer.c ****                     (SWB_Timer_CC_MATCH_NO_CHANGE    |
 125:.\Generated_Source\PSoC4/SWB_Timer.c ****                     SWB_Timer_OVERLOW_NO_CHANGE      |
 126:.\Generated_Source\PSoC4/SWB_Timer.c ****                     SWB_Timer_UNDERFLOW_NO_CHANGE);
 127:.\Generated_Source\PSoC4/SWB_Timer.c ****         #else
 128:.\Generated_Source\PSoC4/SWB_Timer.c ****             #if (SWB_Timer__LEFT == SWB_Timer_PWM_ALIGN)
 129:.\Generated_Source\PSoC4/SWB_Timer.c ****                 SWB_Timer_TRIG_CONTROL2_REG = SWB_Timer_PWM_MODE_LEFT;
 130:.\Generated_Source\PSoC4/SWB_Timer.c ****             #endif  /* ( SWB_Timer_PWM_LEFT == SWB_Timer_PWM_ALIGN) */
 131:.\Generated_Source\PSoC4/SWB_Timer.c **** 
 132:.\Generated_Source\PSoC4/SWB_Timer.c ****             #if (SWB_Timer__RIGHT == SWB_Timer_PWM_ALIGN)
 133:.\Generated_Source\PSoC4/SWB_Timer.c ****                 SWB_Timer_TRIG_CONTROL2_REG = SWB_Timer_PWM_MODE_RIGHT;
 134:.\Generated_Source\PSoC4/SWB_Timer.c ****             #endif  /* ( SWB_Timer_PWM_RIGHT == SWB_Timer_PWM_ALIGN) */
 135:.\Generated_Source\PSoC4/SWB_Timer.c **** 
 136:.\Generated_Source\PSoC4/SWB_Timer.c ****             #if (SWB_Timer__CENTER == SWB_Timer_PWM_ALIGN)
 137:.\Generated_Source\PSoC4/SWB_Timer.c ****                 SWB_Timer_TRIG_CONTROL2_REG = SWB_Timer_PWM_MODE_CENTER;
 138:.\Generated_Source\PSoC4/SWB_Timer.c ****             #endif  /* ( SWB_Timer_PWM_CENTER == SWB_Timer_PWM_ALIGN) */
 139:.\Generated_Source\PSoC4/SWB_Timer.c **** 
 140:.\Generated_Source\PSoC4/SWB_Timer.c ****             #if (SWB_Timer__ASYMMETRIC == SWB_Timer_PWM_ALIGN)
 141:.\Generated_Source\PSoC4/SWB_Timer.c ****                 SWB_Timer_TRIG_CONTROL2_REG = SWB_Timer_PWM_MODE_ASYM;
 142:.\Generated_Source\PSoC4/SWB_Timer.c ****             #endif  /* (SWB_Timer__ASYMMETRIC == SWB_Timer_PWM_ALIGN) */
 143:.\Generated_Source\PSoC4/SWB_Timer.c ****         #endif  /* (SWB_Timer__PWM_PR == SWB_Timer_PWM_MODE) */
 144:.\Generated_Source\PSoC4/SWB_Timer.c **** 
 145:.\Generated_Source\PSoC4/SWB_Timer.c ****         /* Set other values from customizer */
 146:.\Generated_Source\PSoC4/SWB_Timer.c ****         SWB_Timer_WritePeriod(SWB_Timer_PWM_PERIOD_VALUE );
 147:.\Generated_Source\PSoC4/SWB_Timer.c ****         SWB_Timer_WriteCompare(SWB_Timer_PWM_COMPARE_VALUE);
 148:.\Generated_Source\PSoC4/SWB_Timer.c **** 
 149:.\Generated_Source\PSoC4/SWB_Timer.c ****         #if (1u == SWB_Timer_PWM_COMPARE_SWAP)
 150:.\Generated_Source\PSoC4/SWB_Timer.c ****             SWB_Timer_SetCompareSwap(1u);
 151:.\Generated_Source\PSoC4/SWB_Timer.c ****             SWB_Timer_WriteCompareBuf(SWB_Timer_PWM_COMPARE_BUF_VALUE);
 152:.\Generated_Source\PSoC4/SWB_Timer.c ****         #endif  /* (1u == SWB_Timer_PWM_COMPARE_SWAP) */
 153:.\Generated_Source\PSoC4/SWB_Timer.c **** 
 154:.\Generated_Source\PSoC4/SWB_Timer.c ****         #if (1u == SWB_Timer_PWM_PERIOD_SWAP)
 155:.\Generated_Source\PSoC4/SWB_Timer.c ****             SWB_Timer_SetPeriodSwap(1u);
 156:.\Generated_Source\PSoC4/SWB_Timer.c ****             SWB_Timer_WritePeriodBuf(SWB_Timer_PWM_PERIOD_BUF_VALUE);
 157:.\Generated_Source\PSoC4/SWB_Timer.c ****         #endif  /* (1u == SWB_Timer_PWM_PERIOD_SWAP) */
 158:.\Generated_Source\PSoC4/SWB_Timer.c ****     #endif  /* (SWB_Timer__PWM_SEL == SWB_Timer_CONFIG) */
 159:.\Generated_Source\PSoC4/SWB_Timer.c ****     
 160:.\Generated_Source\PSoC4/SWB_Timer.c **** }
  60              		.loc 1 160 0
  61 0028 BD46     		mov	sp, r7
  62              		@ sp needed
  63 002a 80BD     		pop	{r7, pc}
  64              	.L3:
  65              		.align	2
  66              	.L2:
  67 002c 00010540 		.word	1074069760
  68 0030 24010540 		.word	1074069796
ARM GAS  C:\Users\Admin\AppData\Local\Temp\cc5236K1.s 			page 5


  69 0034 FFFF0000 		.word	65535
  70              		.cfi_endproc
  71              	.LFE0:
  72              		.size	SWB_Timer_Init, .-SWB_Timer_Init
  73              		.section	.text.SWB_Timer_Enable,"ax",%progbits
  74              		.align	2
  75              		.global	SWB_Timer_Enable
  76              		.code	16
  77              		.thumb_func
  78              		.type	SWB_Timer_Enable, %function
  79              	SWB_Timer_Enable:
  80              	.LFB1:
 161:.\Generated_Source\PSoC4/SWB_Timer.c **** 
 162:.\Generated_Source\PSoC4/SWB_Timer.c **** 
 163:.\Generated_Source\PSoC4/SWB_Timer.c **** /*******************************************************************************
 164:.\Generated_Source\PSoC4/SWB_Timer.c **** * Function Name: SWB_Timer_Enable
 165:.\Generated_Source\PSoC4/SWB_Timer.c **** ********************************************************************************
 166:.\Generated_Source\PSoC4/SWB_Timer.c **** *
 167:.\Generated_Source\PSoC4/SWB_Timer.c **** * Summary:
 168:.\Generated_Source\PSoC4/SWB_Timer.c **** *  Enables the SWB_Timer.
 169:.\Generated_Source\PSoC4/SWB_Timer.c **** *
 170:.\Generated_Source\PSoC4/SWB_Timer.c **** * Parameters:
 171:.\Generated_Source\PSoC4/SWB_Timer.c **** *  None
 172:.\Generated_Source\PSoC4/SWB_Timer.c **** *
 173:.\Generated_Source\PSoC4/SWB_Timer.c **** * Return:
 174:.\Generated_Source\PSoC4/SWB_Timer.c **** *  None
 175:.\Generated_Source\PSoC4/SWB_Timer.c **** *
 176:.\Generated_Source\PSoC4/SWB_Timer.c **** *******************************************************************************/
 177:.\Generated_Source\PSoC4/SWB_Timer.c **** void SWB_Timer_Enable(void)
 178:.\Generated_Source\PSoC4/SWB_Timer.c **** {
  81              		.loc 1 178 0
  82              		.cfi_startproc
  83 0000 90B5     		push	{r4, r7, lr}
  84              		.cfi_def_cfa_offset 12
  85              		.cfi_offset 4, -12
  86              		.cfi_offset 7, -8
  87              		.cfi_offset 14, -4
  88 0002 83B0     		sub	sp, sp, #12
  89              		.cfi_def_cfa_offset 24
  90 0004 00AF     		add	r7, sp, #0
  91              		.cfi_def_cfa_register 7
 179:.\Generated_Source\PSoC4/SWB_Timer.c ****     uint8 enableInterrupts;
 180:.\Generated_Source\PSoC4/SWB_Timer.c **** 
 181:.\Generated_Source\PSoC4/SWB_Timer.c ****     enableInterrupts = CyEnterCriticalSection();
  92              		.loc 1 181 0
  93 0006 FC1D     		add	r4, r7, #7
  94 0008 FFF7FEFF 		bl	CyEnterCriticalSection
  95 000c 031C     		mov	r3, r0
  96 000e 2370     		strb	r3, [r4]
 182:.\Generated_Source\PSoC4/SWB_Timer.c ****     SWB_Timer_BLOCK_CONTROL_REG |= SWB_Timer_MASK;
  97              		.loc 1 182 0
  98 0010 064B     		ldr	r3, .L5
  99 0012 064A     		ldr	r2, .L5
 100 0014 1268     		ldr	r2, [r2]
 101 0016 0121     		mov	r1, #1
 102 0018 0A43     		orr	r2, r1
 103 001a 1A60     		str	r2, [r3]
ARM GAS  C:\Users\Admin\AppData\Local\Temp\cc5236K1.s 			page 6


 183:.\Generated_Source\PSoC4/SWB_Timer.c ****     CyExitCriticalSection(enableInterrupts);
 104              		.loc 1 183 0
 105 001c FB1D     		add	r3, r7, #7
 106 001e 1B78     		ldrb	r3, [r3]
 107 0020 181C     		mov	r0, r3
 108 0022 FFF7FEFF 		bl	CyExitCriticalSection
 184:.\Generated_Source\PSoC4/SWB_Timer.c **** 
 185:.\Generated_Source\PSoC4/SWB_Timer.c ****     /* Start Timer or PWM if start input is absent */
 186:.\Generated_Source\PSoC4/SWB_Timer.c ****     #if (SWB_Timer__PWM_SEL == SWB_Timer_CONFIG)
 187:.\Generated_Source\PSoC4/SWB_Timer.c ****         #if (0u == SWB_Timer_PWM_START_SIGNAL_PRESENT)
 188:.\Generated_Source\PSoC4/SWB_Timer.c ****             SWB_Timer_TriggerCommand(SWB_Timer_MASK, SWB_Timer_CMD_START);
 189:.\Generated_Source\PSoC4/SWB_Timer.c ****         #endif /* (0u == SWB_Timer_PWM_START_SIGNAL_PRESENT) */
 190:.\Generated_Source\PSoC4/SWB_Timer.c ****     #endif /* (SWB_Timer__PWM_SEL == SWB_Timer_CONFIG) */
 191:.\Generated_Source\PSoC4/SWB_Timer.c **** 
 192:.\Generated_Source\PSoC4/SWB_Timer.c ****     #if (SWB_Timer__TIMER == SWB_Timer_CONFIG)
 193:.\Generated_Source\PSoC4/SWB_Timer.c ****         #if (0u == SWB_Timer_TC_START_SIGNAL_PRESENT)
 194:.\Generated_Source\PSoC4/SWB_Timer.c ****             SWB_Timer_TriggerCommand(SWB_Timer_MASK, SWB_Timer_CMD_START);
 195:.\Generated_Source\PSoC4/SWB_Timer.c ****         #endif /* (0u == SWB_Timer_TC_START_SIGNAL_PRESENT) */
 196:.\Generated_Source\PSoC4/SWB_Timer.c ****     #endif /* (SWB_Timer__TIMER == SWB_Timer_CONFIG) */
 197:.\Generated_Source\PSoC4/SWB_Timer.c **** }
 109              		.loc 1 197 0
 110 0026 BD46     		mov	sp, r7
 111 0028 03B0     		add	sp, sp, #12
 112              		@ sp needed
 113 002a 90BD     		pop	{r4, r7, pc}
 114              	.L6:
 115              		.align	2
 116              	.L5:
 117 002c 00000540 		.word	1074069504
 118              		.cfi_endproc
 119              	.LFE1:
 120              		.size	SWB_Timer_Enable, .-SWB_Timer_Enable
 121              		.section	.text.SWB_Timer_Start,"ax",%progbits
 122              		.align	2
 123              		.global	SWB_Timer_Start
 124              		.code	16
 125              		.thumb_func
 126              		.type	SWB_Timer_Start, %function
 127              	SWB_Timer_Start:
 128              	.LFB2:
 198:.\Generated_Source\PSoC4/SWB_Timer.c **** 
 199:.\Generated_Source\PSoC4/SWB_Timer.c **** 
 200:.\Generated_Source\PSoC4/SWB_Timer.c **** /*******************************************************************************
 201:.\Generated_Source\PSoC4/SWB_Timer.c **** * Function Name: SWB_Timer_Start
 202:.\Generated_Source\PSoC4/SWB_Timer.c **** ********************************************************************************
 203:.\Generated_Source\PSoC4/SWB_Timer.c **** *
 204:.\Generated_Source\PSoC4/SWB_Timer.c **** * Summary:
 205:.\Generated_Source\PSoC4/SWB_Timer.c **** *  Initializes the SWB_Timer with default customizer
 206:.\Generated_Source\PSoC4/SWB_Timer.c **** *  values when called the first time and enables the SWB_Timer.
 207:.\Generated_Source\PSoC4/SWB_Timer.c **** *  For subsequent calls the configuration is left unchanged and the component is
 208:.\Generated_Source\PSoC4/SWB_Timer.c **** *  just enabled.
 209:.\Generated_Source\PSoC4/SWB_Timer.c **** *
 210:.\Generated_Source\PSoC4/SWB_Timer.c **** * Parameters:
 211:.\Generated_Source\PSoC4/SWB_Timer.c **** *  None
 212:.\Generated_Source\PSoC4/SWB_Timer.c **** *
 213:.\Generated_Source\PSoC4/SWB_Timer.c **** * Return:
 214:.\Generated_Source\PSoC4/SWB_Timer.c **** *  None
ARM GAS  C:\Users\Admin\AppData\Local\Temp\cc5236K1.s 			page 7


 215:.\Generated_Source\PSoC4/SWB_Timer.c **** *
 216:.\Generated_Source\PSoC4/SWB_Timer.c **** * Global variables:
 217:.\Generated_Source\PSoC4/SWB_Timer.c **** *  SWB_Timer_initVar: global variable is used to indicate initial
 218:.\Generated_Source\PSoC4/SWB_Timer.c **** *  configuration of this component.  The variable is initialized to zero and set
 219:.\Generated_Source\PSoC4/SWB_Timer.c **** *  to 1 the first time SWB_Timer_Start() is called. This allows
 220:.\Generated_Source\PSoC4/SWB_Timer.c **** *  enabling/disabling a component without re-initialization in all subsequent
 221:.\Generated_Source\PSoC4/SWB_Timer.c **** *  calls to the SWB_Timer_Start() routine.
 222:.\Generated_Source\PSoC4/SWB_Timer.c **** *
 223:.\Generated_Source\PSoC4/SWB_Timer.c **** *******************************************************************************/
 224:.\Generated_Source\PSoC4/SWB_Timer.c **** void SWB_Timer_Start(void)
 225:.\Generated_Source\PSoC4/SWB_Timer.c **** {
 129              		.loc 1 225 0
 130              		.cfi_startproc
 131 0000 80B5     		push	{r7, lr}
 132              		.cfi_def_cfa_offset 8
 133              		.cfi_offset 7, -8
 134              		.cfi_offset 14, -4
 135 0002 00AF     		add	r7, sp, #0
 136              		.cfi_def_cfa_register 7
 226:.\Generated_Source\PSoC4/SWB_Timer.c ****     if (0u == SWB_Timer_initVar)
 137              		.loc 1 226 0
 138 0004 064B     		ldr	r3, .L9
 139 0006 1B78     		ldrb	r3, [r3]
 140 0008 002B     		cmp	r3, #0
 141 000a 04D1     		bne	.L8
 227:.\Generated_Source\PSoC4/SWB_Timer.c ****     {
 228:.\Generated_Source\PSoC4/SWB_Timer.c ****         SWB_Timer_Init();
 142              		.loc 1 228 0
 143 000c FFF7FEFF 		bl	SWB_Timer_Init
 229:.\Generated_Source\PSoC4/SWB_Timer.c ****         SWB_Timer_initVar = 1u;
 144              		.loc 1 229 0
 145 0010 034B     		ldr	r3, .L9
 146 0012 0122     		mov	r2, #1
 147 0014 1A70     		strb	r2, [r3]
 148              	.L8:
 230:.\Generated_Source\PSoC4/SWB_Timer.c ****     }
 231:.\Generated_Source\PSoC4/SWB_Timer.c **** 
 232:.\Generated_Source\PSoC4/SWB_Timer.c ****     SWB_Timer_Enable();
 149              		.loc 1 232 0
 150 0016 FFF7FEFF 		bl	SWB_Timer_Enable
 233:.\Generated_Source\PSoC4/SWB_Timer.c **** }
 151              		.loc 1 233 0
 152 001a BD46     		mov	sp, r7
 153              		@ sp needed
 154 001c 80BD     		pop	{r7, pc}
 155              	.L10:
 156 001e C046     		.align	2
 157              	.L9:
 158 0020 00000000 		.word	SWB_Timer_initVar
 159              		.cfi_endproc
 160              	.LFE2:
 161              		.size	SWB_Timer_Start, .-SWB_Timer_Start
 162              		.section	.text.SWB_Timer_Stop,"ax",%progbits
 163              		.align	2
 164              		.global	SWB_Timer_Stop
 165              		.code	16
 166              		.thumb_func
ARM GAS  C:\Users\Admin\AppData\Local\Temp\cc5236K1.s 			page 8


 167              		.type	SWB_Timer_Stop, %function
 168              	SWB_Timer_Stop:
 169              	.LFB3:
 234:.\Generated_Source\PSoC4/SWB_Timer.c **** 
 235:.\Generated_Source\PSoC4/SWB_Timer.c **** 
 236:.\Generated_Source\PSoC4/SWB_Timer.c **** /*******************************************************************************
 237:.\Generated_Source\PSoC4/SWB_Timer.c **** * Function Name: SWB_Timer_Stop
 238:.\Generated_Source\PSoC4/SWB_Timer.c **** ********************************************************************************
 239:.\Generated_Source\PSoC4/SWB_Timer.c **** *
 240:.\Generated_Source\PSoC4/SWB_Timer.c **** * Summary:
 241:.\Generated_Source\PSoC4/SWB_Timer.c **** *  Disables the SWB_Timer.
 242:.\Generated_Source\PSoC4/SWB_Timer.c **** *
 243:.\Generated_Source\PSoC4/SWB_Timer.c **** * Parameters:
 244:.\Generated_Source\PSoC4/SWB_Timer.c **** *  None
 245:.\Generated_Source\PSoC4/SWB_Timer.c **** *
 246:.\Generated_Source\PSoC4/SWB_Timer.c **** * Return:
 247:.\Generated_Source\PSoC4/SWB_Timer.c **** *  None
 248:.\Generated_Source\PSoC4/SWB_Timer.c **** *
 249:.\Generated_Source\PSoC4/SWB_Timer.c **** *******************************************************************************/
 250:.\Generated_Source\PSoC4/SWB_Timer.c **** void SWB_Timer_Stop(void)
 251:.\Generated_Source\PSoC4/SWB_Timer.c **** {
 170              		.loc 1 251 0
 171              		.cfi_startproc
 172 0000 90B5     		push	{r4, r7, lr}
 173              		.cfi_def_cfa_offset 12
 174              		.cfi_offset 4, -12
 175              		.cfi_offset 7, -8
 176              		.cfi_offset 14, -4
 177 0002 83B0     		sub	sp, sp, #12
 178              		.cfi_def_cfa_offset 24
 179 0004 00AF     		add	r7, sp, #0
 180              		.cfi_def_cfa_register 7
 252:.\Generated_Source\PSoC4/SWB_Timer.c ****     uint8 enableInterrupts;
 253:.\Generated_Source\PSoC4/SWB_Timer.c **** 
 254:.\Generated_Source\PSoC4/SWB_Timer.c ****     enableInterrupts = CyEnterCriticalSection();
 181              		.loc 1 254 0
 182 0006 FC1D     		add	r4, r7, #7
 183 0008 FFF7FEFF 		bl	CyEnterCriticalSection
 184 000c 031C     		mov	r3, r0
 185 000e 2370     		strb	r3, [r4]
 255:.\Generated_Source\PSoC4/SWB_Timer.c **** 
 256:.\Generated_Source\PSoC4/SWB_Timer.c ****     SWB_Timer_BLOCK_CONTROL_REG &= (uint32)~SWB_Timer_MASK;
 186              		.loc 1 256 0
 187 0010 064B     		ldr	r3, .L12
 188 0012 064A     		ldr	r2, .L12
 189 0014 1268     		ldr	r2, [r2]
 190 0016 0121     		mov	r1, #1
 191 0018 8A43     		bic	r2, r1
 192 001a 1A60     		str	r2, [r3]
 257:.\Generated_Source\PSoC4/SWB_Timer.c **** 
 258:.\Generated_Source\PSoC4/SWB_Timer.c ****     CyExitCriticalSection(enableInterrupts);
 193              		.loc 1 258 0
 194 001c FB1D     		add	r3, r7, #7
 195 001e 1B78     		ldrb	r3, [r3]
 196 0020 181C     		mov	r0, r3
 197 0022 FFF7FEFF 		bl	CyExitCriticalSection
 259:.\Generated_Source\PSoC4/SWB_Timer.c **** }
ARM GAS  C:\Users\Admin\AppData\Local\Temp\cc5236K1.s 			page 9


 198              		.loc 1 259 0
 199 0026 BD46     		mov	sp, r7
 200 0028 03B0     		add	sp, sp, #12
 201              		@ sp needed
 202 002a 90BD     		pop	{r4, r7, pc}
 203              	.L13:
 204              		.align	2
 205              	.L12:
 206 002c 00000540 		.word	1074069504
 207              		.cfi_endproc
 208              	.LFE3:
 209              		.size	SWB_Timer_Stop, .-SWB_Timer_Stop
 210              		.section	.text.SWB_Timer_SetMode,"ax",%progbits
 211              		.align	2
 212              		.global	SWB_Timer_SetMode
 213              		.code	16
 214              		.thumb_func
 215              		.type	SWB_Timer_SetMode, %function
 216              	SWB_Timer_SetMode:
 217              	.LFB4:
 260:.\Generated_Source\PSoC4/SWB_Timer.c **** 
 261:.\Generated_Source\PSoC4/SWB_Timer.c **** 
 262:.\Generated_Source\PSoC4/SWB_Timer.c **** /*******************************************************************************
 263:.\Generated_Source\PSoC4/SWB_Timer.c **** * Function Name: SWB_Timer_SetMode
 264:.\Generated_Source\PSoC4/SWB_Timer.c **** ********************************************************************************
 265:.\Generated_Source\PSoC4/SWB_Timer.c **** *
 266:.\Generated_Source\PSoC4/SWB_Timer.c **** * Summary:
 267:.\Generated_Source\PSoC4/SWB_Timer.c **** *  Sets the operation mode of the SWB_Timer. This function is used when
 268:.\Generated_Source\PSoC4/SWB_Timer.c **** *  configured as a generic SWB_Timer and the actual mode of operation is
 269:.\Generated_Source\PSoC4/SWB_Timer.c **** *  set at runtime. The mode must be set while the component is disabled.
 270:.\Generated_Source\PSoC4/SWB_Timer.c **** *
 271:.\Generated_Source\PSoC4/SWB_Timer.c **** * Parameters:
 272:.\Generated_Source\PSoC4/SWB_Timer.c **** *  mode: Mode for the SWB_Timer to operate in
 273:.\Generated_Source\PSoC4/SWB_Timer.c **** *   Values:
 274:.\Generated_Source\PSoC4/SWB_Timer.c **** *   - SWB_Timer_MODE_TIMER_COMPARE - Timer / Counter with
 275:.\Generated_Source\PSoC4/SWB_Timer.c **** *                                                 compare capability
 276:.\Generated_Source\PSoC4/SWB_Timer.c **** *         - SWB_Timer_MODE_TIMER_CAPTURE - Timer / Counter with
 277:.\Generated_Source\PSoC4/SWB_Timer.c **** *                                                 capture capability
 278:.\Generated_Source\PSoC4/SWB_Timer.c **** *         - SWB_Timer_MODE_QUAD - Quadrature decoder
 279:.\Generated_Source\PSoC4/SWB_Timer.c **** *         - SWB_Timer_MODE_PWM - PWM
 280:.\Generated_Source\PSoC4/SWB_Timer.c **** *         - SWB_Timer_MODE_PWM_DT - PWM with dead time
 281:.\Generated_Source\PSoC4/SWB_Timer.c **** *         - SWB_Timer_MODE_PWM_PR - PWM with pseudo random capability
 282:.\Generated_Source\PSoC4/SWB_Timer.c **** *
 283:.\Generated_Source\PSoC4/SWB_Timer.c **** * Return:
 284:.\Generated_Source\PSoC4/SWB_Timer.c **** *  None
 285:.\Generated_Source\PSoC4/SWB_Timer.c **** *
 286:.\Generated_Source\PSoC4/SWB_Timer.c **** *******************************************************************************/
 287:.\Generated_Source\PSoC4/SWB_Timer.c **** void SWB_Timer_SetMode(uint32 mode)
 288:.\Generated_Source\PSoC4/SWB_Timer.c **** {
 218              		.loc 1 288 0
 219              		.cfi_startproc
 220 0000 90B5     		push	{r4, r7, lr}
 221              		.cfi_def_cfa_offset 12
 222              		.cfi_offset 4, -12
 223              		.cfi_offset 7, -8
 224              		.cfi_offset 14, -4
 225 0002 85B0     		sub	sp, sp, #20
ARM GAS  C:\Users\Admin\AppData\Local\Temp\cc5236K1.s 			page 10


 226              		.cfi_def_cfa_offset 32
 227 0004 00AF     		add	r7, sp, #0
 228              		.cfi_def_cfa_register 7
 229 0006 7860     		str	r0, [r7, #4]
 289:.\Generated_Source\PSoC4/SWB_Timer.c ****     uint8 enableInterrupts;
 290:.\Generated_Source\PSoC4/SWB_Timer.c **** 
 291:.\Generated_Source\PSoC4/SWB_Timer.c ****     enableInterrupts = CyEnterCriticalSection();
 230              		.loc 1 291 0
 231 0008 3C1C     		mov	r4, r7
 232 000a 0F34     		add	r4, r4, #15
 233 000c FFF7FEFF 		bl	CyEnterCriticalSection
 234 0010 031C     		mov	r3, r0
 235 0012 2370     		strb	r3, [r4]
 292:.\Generated_Source\PSoC4/SWB_Timer.c **** 
 293:.\Generated_Source\PSoC4/SWB_Timer.c ****     SWB_Timer_CONTROL_REG &= (uint32)~SWB_Timer_MODE_MASK;
 236              		.loc 1 293 0
 237 0014 0A4B     		ldr	r3, .L15
 238 0016 0A4A     		ldr	r2, .L15
 239 0018 1168     		ldr	r1, [r2]
 240 001a 0A4A     		ldr	r2, .L15+4
 241 001c 0A40     		and	r2, r1
 242 001e 1A60     		str	r2, [r3]
 294:.\Generated_Source\PSoC4/SWB_Timer.c ****     SWB_Timer_CONTROL_REG |= mode;
 243              		.loc 1 294 0
 244 0020 074B     		ldr	r3, .L15
 245 0022 074A     		ldr	r2, .L15
 246 0024 1168     		ldr	r1, [r2]
 247 0026 7A68     		ldr	r2, [r7, #4]
 248 0028 0A43     		orr	r2, r1
 249 002a 1A60     		str	r2, [r3]
 295:.\Generated_Source\PSoC4/SWB_Timer.c **** 
 296:.\Generated_Source\PSoC4/SWB_Timer.c ****     CyExitCriticalSection(enableInterrupts);
 250              		.loc 1 296 0
 251 002c 3B1C     		mov	r3, r7
 252 002e 0F33     		add	r3, r3, #15
 253 0030 1B78     		ldrb	r3, [r3]
 254 0032 181C     		mov	r0, r3
 255 0034 FFF7FEFF 		bl	CyExitCriticalSection
 297:.\Generated_Source\PSoC4/SWB_Timer.c **** }
 256              		.loc 1 297 0
 257 0038 BD46     		mov	sp, r7
 258 003a 05B0     		add	sp, sp, #20
 259              		@ sp needed
 260 003c 90BD     		pop	{r4, r7, pc}
 261              	.L16:
 262 003e C046     		.align	2
 263              	.L15:
 264 0040 00010540 		.word	1074069760
 265 0044 FFFFFFF8 		.word	-117440513
 266              		.cfi_endproc
 267              	.LFE4:
 268              		.size	SWB_Timer_SetMode, .-SWB_Timer_SetMode
 269              		.section	.text.SWB_Timer_SetQDMode,"ax",%progbits
 270              		.align	2
 271              		.global	SWB_Timer_SetQDMode
 272              		.code	16
 273              		.thumb_func
ARM GAS  C:\Users\Admin\AppData\Local\Temp\cc5236K1.s 			page 11


 274              		.type	SWB_Timer_SetQDMode, %function
 275              	SWB_Timer_SetQDMode:
 276              	.LFB5:
 298:.\Generated_Source\PSoC4/SWB_Timer.c **** 
 299:.\Generated_Source\PSoC4/SWB_Timer.c **** 
 300:.\Generated_Source\PSoC4/SWB_Timer.c **** /*******************************************************************************
 301:.\Generated_Source\PSoC4/SWB_Timer.c **** * Function Name: SWB_Timer_SetQDMode
 302:.\Generated_Source\PSoC4/SWB_Timer.c **** ********************************************************************************
 303:.\Generated_Source\PSoC4/SWB_Timer.c **** *
 304:.\Generated_Source\PSoC4/SWB_Timer.c **** * Summary:
 305:.\Generated_Source\PSoC4/SWB_Timer.c **** *  Sets the the Quadrature Decoder to one of the 3 supported modes.
 306:.\Generated_Source\PSoC4/SWB_Timer.c **** *  Its functionality is only applicable to Quadrature Decoder operation.
 307:.\Generated_Source\PSoC4/SWB_Timer.c **** *
 308:.\Generated_Source\PSoC4/SWB_Timer.c **** * Parameters:
 309:.\Generated_Source\PSoC4/SWB_Timer.c **** *  qdMode: Quadrature Decoder mode
 310:.\Generated_Source\PSoC4/SWB_Timer.c **** *   Values:
 311:.\Generated_Source\PSoC4/SWB_Timer.c **** *         - SWB_Timer_MODE_X1 - Counts on phi 1 rising
 312:.\Generated_Source\PSoC4/SWB_Timer.c **** *         - SWB_Timer_MODE_X2 - Counts on both edges of phi1 (2x faster)
 313:.\Generated_Source\PSoC4/SWB_Timer.c **** *         - SWB_Timer_MODE_X4 - Counts on both edges of phi1 and phi2
 314:.\Generated_Source\PSoC4/SWB_Timer.c **** *                                        (4x faster)
 315:.\Generated_Source\PSoC4/SWB_Timer.c **** *
 316:.\Generated_Source\PSoC4/SWB_Timer.c **** * Return:
 317:.\Generated_Source\PSoC4/SWB_Timer.c **** *  None
 318:.\Generated_Source\PSoC4/SWB_Timer.c **** *
 319:.\Generated_Source\PSoC4/SWB_Timer.c **** *******************************************************************************/
 320:.\Generated_Source\PSoC4/SWB_Timer.c **** void SWB_Timer_SetQDMode(uint32 qdMode)
 321:.\Generated_Source\PSoC4/SWB_Timer.c **** {
 277              		.loc 1 321 0
 278              		.cfi_startproc
 279 0000 90B5     		push	{r4, r7, lr}
 280              		.cfi_def_cfa_offset 12
 281              		.cfi_offset 4, -12
 282              		.cfi_offset 7, -8
 283              		.cfi_offset 14, -4
 284 0002 85B0     		sub	sp, sp, #20
 285              		.cfi_def_cfa_offset 32
 286 0004 00AF     		add	r7, sp, #0
 287              		.cfi_def_cfa_register 7
 288 0006 7860     		str	r0, [r7, #4]
 322:.\Generated_Source\PSoC4/SWB_Timer.c ****     uint8 enableInterrupts;
 323:.\Generated_Source\PSoC4/SWB_Timer.c **** 
 324:.\Generated_Source\PSoC4/SWB_Timer.c ****     enableInterrupts = CyEnterCriticalSection();
 289              		.loc 1 324 0
 290 0008 3C1C     		mov	r4, r7
 291 000a 0F34     		add	r4, r4, #15
 292 000c FFF7FEFF 		bl	CyEnterCriticalSection
 293 0010 031C     		mov	r3, r0
 294 0012 2370     		strb	r3, [r4]
 325:.\Generated_Source\PSoC4/SWB_Timer.c **** 
 326:.\Generated_Source\PSoC4/SWB_Timer.c ****     SWB_Timer_CONTROL_REG &= (uint32)~SWB_Timer_QUAD_MODE_MASK;
 295              		.loc 1 326 0
 296 0014 0A4B     		ldr	r3, .L18
 297 0016 0A4A     		ldr	r2, .L18
 298 0018 1168     		ldr	r1, [r2]
 299 001a 0A4A     		ldr	r2, .L18+4
 300 001c 0A40     		and	r2, r1
 301 001e 1A60     		str	r2, [r3]
ARM GAS  C:\Users\Admin\AppData\Local\Temp\cc5236K1.s 			page 12


 327:.\Generated_Source\PSoC4/SWB_Timer.c ****     SWB_Timer_CONTROL_REG |= qdMode;
 302              		.loc 1 327 0
 303 0020 074B     		ldr	r3, .L18
 304 0022 074A     		ldr	r2, .L18
 305 0024 1168     		ldr	r1, [r2]
 306 0026 7A68     		ldr	r2, [r7, #4]
 307 0028 0A43     		orr	r2, r1
 308 002a 1A60     		str	r2, [r3]
 328:.\Generated_Source\PSoC4/SWB_Timer.c **** 
 329:.\Generated_Source\PSoC4/SWB_Timer.c ****     CyExitCriticalSection(enableInterrupts);
 309              		.loc 1 329 0
 310 002c 3B1C     		mov	r3, r7
 311 002e 0F33     		add	r3, r3, #15
 312 0030 1B78     		ldrb	r3, [r3]
 313 0032 181C     		mov	r0, r3
 314 0034 FFF7FEFF 		bl	CyExitCriticalSection
 330:.\Generated_Source\PSoC4/SWB_Timer.c **** }
 315              		.loc 1 330 0
 316 0038 BD46     		mov	sp, r7
 317 003a 05B0     		add	sp, sp, #20
 318              		@ sp needed
 319 003c 90BD     		pop	{r4, r7, pc}
 320              	.L19:
 321 003e C046     		.align	2
 322              	.L18:
 323 0040 00010540 		.word	1074069760
 324 0044 FFFF8FFF 		.word	-7340033
 325              		.cfi_endproc
 326              	.LFE5:
 327              		.size	SWB_Timer_SetQDMode, .-SWB_Timer_SetQDMode
 328              		.section	.text.SWB_Timer_SetPrescaler,"ax",%progbits
 329              		.align	2
 330              		.global	SWB_Timer_SetPrescaler
 331              		.code	16
 332              		.thumb_func
 333              		.type	SWB_Timer_SetPrescaler, %function
 334              	SWB_Timer_SetPrescaler:
 335              	.LFB6:
 331:.\Generated_Source\PSoC4/SWB_Timer.c **** 
 332:.\Generated_Source\PSoC4/SWB_Timer.c **** 
 333:.\Generated_Source\PSoC4/SWB_Timer.c **** /*******************************************************************************
 334:.\Generated_Source\PSoC4/SWB_Timer.c **** * Function Name: SWB_Timer_SetPrescaler
 335:.\Generated_Source\PSoC4/SWB_Timer.c **** ********************************************************************************
 336:.\Generated_Source\PSoC4/SWB_Timer.c **** *
 337:.\Generated_Source\PSoC4/SWB_Timer.c **** * Summary:
 338:.\Generated_Source\PSoC4/SWB_Timer.c **** *  Sets the prescaler value that is applied to the clock input.  Not applicable
 339:.\Generated_Source\PSoC4/SWB_Timer.c **** *  to a PWM with the dead time mode or Quadrature Decoder mode.
 340:.\Generated_Source\PSoC4/SWB_Timer.c **** *
 341:.\Generated_Source\PSoC4/SWB_Timer.c **** * Parameters:
 342:.\Generated_Source\PSoC4/SWB_Timer.c **** *  prescaler: Prescaler divider value
 343:.\Generated_Source\PSoC4/SWB_Timer.c **** *   Values:
 344:.\Generated_Source\PSoC4/SWB_Timer.c **** *         - SWB_Timer_PRESCALE_DIVBY1    - Divide by 1 (no prescaling)
 345:.\Generated_Source\PSoC4/SWB_Timer.c **** *         - SWB_Timer_PRESCALE_DIVBY2    - Divide by 2
 346:.\Generated_Source\PSoC4/SWB_Timer.c **** *         - SWB_Timer_PRESCALE_DIVBY4    - Divide by 4
 347:.\Generated_Source\PSoC4/SWB_Timer.c **** *         - SWB_Timer_PRESCALE_DIVBY8    - Divide by 8
 348:.\Generated_Source\PSoC4/SWB_Timer.c **** *         - SWB_Timer_PRESCALE_DIVBY16   - Divide by 16
 349:.\Generated_Source\PSoC4/SWB_Timer.c **** *         - SWB_Timer_PRESCALE_DIVBY32   - Divide by 32
ARM GAS  C:\Users\Admin\AppData\Local\Temp\cc5236K1.s 			page 13


 350:.\Generated_Source\PSoC4/SWB_Timer.c **** *         - SWB_Timer_PRESCALE_DIVBY64   - Divide by 64
 351:.\Generated_Source\PSoC4/SWB_Timer.c **** *         - SWB_Timer_PRESCALE_DIVBY128  - Divide by 128
 352:.\Generated_Source\PSoC4/SWB_Timer.c **** *
 353:.\Generated_Source\PSoC4/SWB_Timer.c **** * Return:
 354:.\Generated_Source\PSoC4/SWB_Timer.c **** *  None
 355:.\Generated_Source\PSoC4/SWB_Timer.c **** *
 356:.\Generated_Source\PSoC4/SWB_Timer.c **** *******************************************************************************/
 357:.\Generated_Source\PSoC4/SWB_Timer.c **** void SWB_Timer_SetPrescaler(uint32 prescaler)
 358:.\Generated_Source\PSoC4/SWB_Timer.c **** {
 336              		.loc 1 358 0
 337              		.cfi_startproc
 338 0000 90B5     		push	{r4, r7, lr}
 339              		.cfi_def_cfa_offset 12
 340              		.cfi_offset 4, -12
 341              		.cfi_offset 7, -8
 342              		.cfi_offset 14, -4
 343 0002 85B0     		sub	sp, sp, #20
 344              		.cfi_def_cfa_offset 32
 345 0004 00AF     		add	r7, sp, #0
 346              		.cfi_def_cfa_register 7
 347 0006 7860     		str	r0, [r7, #4]
 359:.\Generated_Source\PSoC4/SWB_Timer.c ****     uint8 enableInterrupts;
 360:.\Generated_Source\PSoC4/SWB_Timer.c **** 
 361:.\Generated_Source\PSoC4/SWB_Timer.c ****     enableInterrupts = CyEnterCriticalSection();
 348              		.loc 1 361 0
 349 0008 3C1C     		mov	r4, r7
 350 000a 0F34     		add	r4, r4, #15
 351 000c FFF7FEFF 		bl	CyEnterCriticalSection
 352 0010 031C     		mov	r3, r0
 353 0012 2370     		strb	r3, [r4]
 362:.\Generated_Source\PSoC4/SWB_Timer.c **** 
 363:.\Generated_Source\PSoC4/SWB_Timer.c ****     SWB_Timer_CONTROL_REG &= (uint32)~SWB_Timer_PRESCALER_MASK;
 354              		.loc 1 363 0
 355 0014 0A4B     		ldr	r3, .L21
 356 0016 0A4A     		ldr	r2, .L21
 357 0018 1168     		ldr	r1, [r2]
 358 001a 0A4A     		ldr	r2, .L21+4
 359 001c 0A40     		and	r2, r1
 360 001e 1A60     		str	r2, [r3]
 364:.\Generated_Source\PSoC4/SWB_Timer.c ****     SWB_Timer_CONTROL_REG |= prescaler;
 361              		.loc 1 364 0
 362 0020 074B     		ldr	r3, .L21
 363 0022 074A     		ldr	r2, .L21
 364 0024 1168     		ldr	r1, [r2]
 365 0026 7A68     		ldr	r2, [r7, #4]
 366 0028 0A43     		orr	r2, r1
 367 002a 1A60     		str	r2, [r3]
 365:.\Generated_Source\PSoC4/SWB_Timer.c **** 
 366:.\Generated_Source\PSoC4/SWB_Timer.c ****     CyExitCriticalSection(enableInterrupts);
 368              		.loc 1 366 0
 369 002c 3B1C     		mov	r3, r7
 370 002e 0F33     		add	r3, r3, #15
 371 0030 1B78     		ldrb	r3, [r3]
 372 0032 181C     		mov	r0, r3
 373 0034 FFF7FEFF 		bl	CyExitCriticalSection
 367:.\Generated_Source\PSoC4/SWB_Timer.c **** }
 374              		.loc 1 367 0
ARM GAS  C:\Users\Admin\AppData\Local\Temp\cc5236K1.s 			page 14


 375 0038 BD46     		mov	sp, r7
 376 003a 05B0     		add	sp, sp, #20
 377              		@ sp needed
 378 003c 90BD     		pop	{r4, r7, pc}
 379              	.L22:
 380 003e C046     		.align	2
 381              	.L21:
 382 0040 00010540 		.word	1074069760
 383 0044 FF00FFFF 		.word	-65281
 384              		.cfi_endproc
 385              	.LFE6:
 386              		.size	SWB_Timer_SetPrescaler, .-SWB_Timer_SetPrescaler
 387              		.section	.text.SWB_Timer_SetOneShot,"ax",%progbits
 388              		.align	2
 389              		.global	SWB_Timer_SetOneShot
 390              		.code	16
 391              		.thumb_func
 392              		.type	SWB_Timer_SetOneShot, %function
 393              	SWB_Timer_SetOneShot:
 394              	.LFB7:
 368:.\Generated_Source\PSoC4/SWB_Timer.c **** 
 369:.\Generated_Source\PSoC4/SWB_Timer.c **** 
 370:.\Generated_Source\PSoC4/SWB_Timer.c **** /*******************************************************************************
 371:.\Generated_Source\PSoC4/SWB_Timer.c **** * Function Name: SWB_Timer_SetOneShot
 372:.\Generated_Source\PSoC4/SWB_Timer.c **** ********************************************************************************
 373:.\Generated_Source\PSoC4/SWB_Timer.c **** *
 374:.\Generated_Source\PSoC4/SWB_Timer.c **** * Summary:
 375:.\Generated_Source\PSoC4/SWB_Timer.c **** *  Writes the register that controls whether the SWB_Timer runs
 376:.\Generated_Source\PSoC4/SWB_Timer.c **** *  continuously or stops when terminal count is reached.  By default the
 377:.\Generated_Source\PSoC4/SWB_Timer.c **** *  SWB_Timer operates in the continuous mode.
 378:.\Generated_Source\PSoC4/SWB_Timer.c **** *
 379:.\Generated_Source\PSoC4/SWB_Timer.c **** * Parameters:
 380:.\Generated_Source\PSoC4/SWB_Timer.c **** *  oneShotEnable
 381:.\Generated_Source\PSoC4/SWB_Timer.c **** *   Values:
 382:.\Generated_Source\PSoC4/SWB_Timer.c **** *     - 0 - Continuous
 383:.\Generated_Source\PSoC4/SWB_Timer.c **** *     - 1 - Enable One Shot
 384:.\Generated_Source\PSoC4/SWB_Timer.c **** *
 385:.\Generated_Source\PSoC4/SWB_Timer.c **** * Return:
 386:.\Generated_Source\PSoC4/SWB_Timer.c **** *  None
 387:.\Generated_Source\PSoC4/SWB_Timer.c **** *
 388:.\Generated_Source\PSoC4/SWB_Timer.c **** *******************************************************************************/
 389:.\Generated_Source\PSoC4/SWB_Timer.c **** void SWB_Timer_SetOneShot(uint32 oneShotEnable)
 390:.\Generated_Source\PSoC4/SWB_Timer.c **** {
 395              		.loc 1 390 0
 396              		.cfi_startproc
 397 0000 90B5     		push	{r4, r7, lr}
 398              		.cfi_def_cfa_offset 12
 399              		.cfi_offset 4, -12
 400              		.cfi_offset 7, -8
 401              		.cfi_offset 14, -4
 402 0002 85B0     		sub	sp, sp, #20
 403              		.cfi_def_cfa_offset 32
 404 0004 00AF     		add	r7, sp, #0
 405              		.cfi_def_cfa_register 7
 406 0006 7860     		str	r0, [r7, #4]
 391:.\Generated_Source\PSoC4/SWB_Timer.c ****     uint8 enableInterrupts;
 392:.\Generated_Source\PSoC4/SWB_Timer.c **** 
ARM GAS  C:\Users\Admin\AppData\Local\Temp\cc5236K1.s 			page 15


 393:.\Generated_Source\PSoC4/SWB_Timer.c ****     enableInterrupts = CyEnterCriticalSection();
 407              		.loc 1 393 0
 408 0008 3C1C     		mov	r4, r7
 409 000a 0F34     		add	r4, r4, #15
 410 000c FFF7FEFF 		bl	CyEnterCriticalSection
 411 0010 031C     		mov	r3, r0
 412 0012 2370     		strb	r3, [r4]
 394:.\Generated_Source\PSoC4/SWB_Timer.c **** 
 395:.\Generated_Source\PSoC4/SWB_Timer.c ****     SWB_Timer_CONTROL_REG &= (uint32)~SWB_Timer_ONESHOT_MASK;
 413              		.loc 1 395 0
 414 0014 0B4B     		ldr	r3, .L24
 415 0016 0B4A     		ldr	r2, .L24
 416 0018 1168     		ldr	r1, [r2]
 417 001a 0B4A     		ldr	r2, .L24+4
 418 001c 0A40     		and	r2, r1
 419 001e 1A60     		str	r2, [r3]
 396:.\Generated_Source\PSoC4/SWB_Timer.c ****     SWB_Timer_CONTROL_REG |= ((uint32)((oneShotEnable & SWB_Timer_1BIT_MASK) <<
 420              		.loc 1 396 0
 421 0020 084B     		ldr	r3, .L24
 422 0022 084A     		ldr	r2, .L24
 423 0024 1168     		ldr	r1, [r2]
 424 0026 7868     		ldr	r0, [r7, #4]
 425 0028 0122     		mov	r2, #1
 426 002a 0240     		and	r2, r0
 427 002c 9204     		lsl	r2, r2, #18
 428 002e 0A43     		orr	r2, r1
 429 0030 1A60     		str	r2, [r3]
 397:.\Generated_Source\PSoC4/SWB_Timer.c ****                                                                SWB_Timer_ONESHOT_SHIFT));
 398:.\Generated_Source\PSoC4/SWB_Timer.c **** 
 399:.\Generated_Source\PSoC4/SWB_Timer.c ****     CyExitCriticalSection(enableInterrupts);
 430              		.loc 1 399 0
 431 0032 3B1C     		mov	r3, r7
 432 0034 0F33     		add	r3, r3, #15
 433 0036 1B78     		ldrb	r3, [r3]
 434 0038 181C     		mov	r0, r3
 435 003a FFF7FEFF 		bl	CyExitCriticalSection
 400:.\Generated_Source\PSoC4/SWB_Timer.c **** }
 436              		.loc 1 400 0
 437 003e BD46     		mov	sp, r7
 438 0040 05B0     		add	sp, sp, #20
 439              		@ sp needed
 440 0042 90BD     		pop	{r4, r7, pc}
 441              	.L25:
 442              		.align	2
 443              	.L24:
 444 0044 00010540 		.word	1074069760
 445 0048 FFFFFBFF 		.word	-262145
 446              		.cfi_endproc
 447              	.LFE7:
 448              		.size	SWB_Timer_SetOneShot, .-SWB_Timer_SetOneShot
 449              		.section	.text.SWB_Timer_SetPWMMode,"ax",%progbits
 450              		.align	2
 451              		.global	SWB_Timer_SetPWMMode
 452              		.code	16
 453              		.thumb_func
 454              		.type	SWB_Timer_SetPWMMode, %function
 455              	SWB_Timer_SetPWMMode:
ARM GAS  C:\Users\Admin\AppData\Local\Temp\cc5236K1.s 			page 16


 456              	.LFB8:
 401:.\Generated_Source\PSoC4/SWB_Timer.c **** 
 402:.\Generated_Source\PSoC4/SWB_Timer.c **** 
 403:.\Generated_Source\PSoC4/SWB_Timer.c **** /*******************************************************************************
 404:.\Generated_Source\PSoC4/SWB_Timer.c **** * Function Name: SWB_Timer_SetPWMMode
 405:.\Generated_Source\PSoC4/SWB_Timer.c **** ********************************************************************************
 406:.\Generated_Source\PSoC4/SWB_Timer.c **** *
 407:.\Generated_Source\PSoC4/SWB_Timer.c **** * Summary:
 408:.\Generated_Source\PSoC4/SWB_Timer.c **** *  Writes the control register that determines what mode of operation the PWM
 409:.\Generated_Source\PSoC4/SWB_Timer.c **** *  output lines are driven in.  There is a setting for what to do on a
 410:.\Generated_Source\PSoC4/SWB_Timer.c **** *  comparison match (CC_MATCH), on an overflow (OVERFLOW) and on an underflow
 411:.\Generated_Source\PSoC4/SWB_Timer.c **** *  (UNDERFLOW).  The value for each of the three must be ORed together to form
 412:.\Generated_Source\PSoC4/SWB_Timer.c **** *  the mode.
 413:.\Generated_Source\PSoC4/SWB_Timer.c **** *
 414:.\Generated_Source\PSoC4/SWB_Timer.c **** * Parameters:
 415:.\Generated_Source\PSoC4/SWB_Timer.c **** *  modeMask: A combination of three mode settings.  Mask must include a value
 416:.\Generated_Source\PSoC4/SWB_Timer.c **** *  for each of the three or use one of the preconfigured PWM settings.
 417:.\Generated_Source\PSoC4/SWB_Timer.c **** *   Values:
 418:.\Generated_Source\PSoC4/SWB_Timer.c **** *     - CC_MATCH_SET        - Set on comparison match
 419:.\Generated_Source\PSoC4/SWB_Timer.c **** *     - CC_MATCH_CLEAR      - Clear on comparison match
 420:.\Generated_Source\PSoC4/SWB_Timer.c **** *     - CC_MATCH_INVERT     - Invert on comparison match
 421:.\Generated_Source\PSoC4/SWB_Timer.c **** *     - CC_MATCH_NO_CHANGE  - No change on comparison match
 422:.\Generated_Source\PSoC4/SWB_Timer.c **** *     - OVERLOW_SET         - Set on overflow
 423:.\Generated_Source\PSoC4/SWB_Timer.c **** *     - OVERLOW_CLEAR       - Clear on  overflow
 424:.\Generated_Source\PSoC4/SWB_Timer.c **** *     - OVERLOW_INVERT      - Invert on overflow
 425:.\Generated_Source\PSoC4/SWB_Timer.c **** *     - OVERLOW_NO_CHANGE   - No change on overflow
 426:.\Generated_Source\PSoC4/SWB_Timer.c **** *     - UNDERFLOW_SET       - Set on underflow
 427:.\Generated_Source\PSoC4/SWB_Timer.c **** *     - UNDERFLOW_CLEAR     - Clear on underflow
 428:.\Generated_Source\PSoC4/SWB_Timer.c **** *     - UNDERFLOW_INVERT    - Invert on underflow
 429:.\Generated_Source\PSoC4/SWB_Timer.c **** *     - UNDERFLOW_NO_CHANGE - No change on underflow
 430:.\Generated_Source\PSoC4/SWB_Timer.c **** *     - PWM_MODE_LEFT       - Setting for left aligned PWM.  Should be combined
 431:.\Generated_Source\PSoC4/SWB_Timer.c **** *                             with up counting mode
 432:.\Generated_Source\PSoC4/SWB_Timer.c **** *     - PWM_MODE_RIGHT      - Setting for right aligned PWM.  Should be combined
 433:.\Generated_Source\PSoC4/SWB_Timer.c **** *                             with down counting mode
 434:.\Generated_Source\PSoC4/SWB_Timer.c **** *     - PWM_MODE_CENTER     - Setting for center aligned PWM.  Should be
 435:.\Generated_Source\PSoC4/SWB_Timer.c **** *                             combined with up/down 0 mode
 436:.\Generated_Source\PSoC4/SWB_Timer.c **** *     - PWM_MODE_ASYM       - Setting for asymmetric PWM.  Should be combined
 437:.\Generated_Source\PSoC4/SWB_Timer.c **** *                             with up/down 1 mode
 438:.\Generated_Source\PSoC4/SWB_Timer.c **** *
 439:.\Generated_Source\PSoC4/SWB_Timer.c **** * Return:
 440:.\Generated_Source\PSoC4/SWB_Timer.c **** *  None
 441:.\Generated_Source\PSoC4/SWB_Timer.c **** *
 442:.\Generated_Source\PSoC4/SWB_Timer.c **** *******************************************************************************/
 443:.\Generated_Source\PSoC4/SWB_Timer.c **** void SWB_Timer_SetPWMMode(uint32 modeMask)
 444:.\Generated_Source\PSoC4/SWB_Timer.c **** {
 457              		.loc 1 444 0
 458              		.cfi_startproc
 459 0000 80B5     		push	{r7, lr}
 460              		.cfi_def_cfa_offset 8
 461              		.cfi_offset 7, -8
 462              		.cfi_offset 14, -4
 463 0002 82B0     		sub	sp, sp, #8
 464              		.cfi_def_cfa_offset 16
 465 0004 00AF     		add	r7, sp, #0
 466              		.cfi_def_cfa_register 7
 467 0006 7860     		str	r0, [r7, #4]
 445:.\Generated_Source\PSoC4/SWB_Timer.c ****     SWB_Timer_TRIG_CONTROL2_REG = (modeMask & SWB_Timer_6BIT_MASK);
ARM GAS  C:\Users\Admin\AppData\Local\Temp\cc5236K1.s 			page 17


 468              		.loc 1 445 0
 469 0008 034B     		ldr	r3, .L27
 470 000a 7968     		ldr	r1, [r7, #4]
 471 000c 3F22     		mov	r2, #63
 472 000e 0A40     		and	r2, r1
 473 0010 1A60     		str	r2, [r3]
 446:.\Generated_Source\PSoC4/SWB_Timer.c **** }
 474              		.loc 1 446 0
 475 0012 BD46     		mov	sp, r7
 476 0014 02B0     		add	sp, sp, #8
 477              		@ sp needed
 478 0016 80BD     		pop	{r7, pc}
 479              	.L28:
 480              		.align	2
 481              	.L27:
 482 0018 28010540 		.word	1074069800
 483              		.cfi_endproc
 484              	.LFE8:
 485              		.size	SWB_Timer_SetPWMMode, .-SWB_Timer_SetPWMMode
 486              		.section	.text.SWB_Timer_SetPWMSyncKill,"ax",%progbits
 487              		.align	2
 488              		.global	SWB_Timer_SetPWMSyncKill
 489              		.code	16
 490              		.thumb_func
 491              		.type	SWB_Timer_SetPWMSyncKill, %function
 492              	SWB_Timer_SetPWMSyncKill:
 493              	.LFB9:
 447:.\Generated_Source\PSoC4/SWB_Timer.c **** 
 448:.\Generated_Source\PSoC4/SWB_Timer.c **** 
 449:.\Generated_Source\PSoC4/SWB_Timer.c **** 
 450:.\Generated_Source\PSoC4/SWB_Timer.c **** /*******************************************************************************
 451:.\Generated_Source\PSoC4/SWB_Timer.c **** * Function Name: SWB_Timer_SetPWMSyncKill
 452:.\Generated_Source\PSoC4/SWB_Timer.c **** ********************************************************************************
 453:.\Generated_Source\PSoC4/SWB_Timer.c **** *
 454:.\Generated_Source\PSoC4/SWB_Timer.c **** * Summary:
 455:.\Generated_Source\PSoC4/SWB_Timer.c **** *  Writes the register that controls whether the PWM kill signal (stop input)
 456:.\Generated_Source\PSoC4/SWB_Timer.c **** *  causes asynchronous or synchronous kill operation.  By default the kill
 457:.\Generated_Source\PSoC4/SWB_Timer.c **** *  operation is asynchronous.  This functionality is only applicable to the PWM
 458:.\Generated_Source\PSoC4/SWB_Timer.c **** *  and PWM with dead time modes.
 459:.\Generated_Source\PSoC4/SWB_Timer.c **** *
 460:.\Generated_Source\PSoC4/SWB_Timer.c **** *  For Synchronous mode the kill signal disables both the line and line_n
 461:.\Generated_Source\PSoC4/SWB_Timer.c **** *  signals until the next terminal count.
 462:.\Generated_Source\PSoC4/SWB_Timer.c **** *
 463:.\Generated_Source\PSoC4/SWB_Timer.c **** *  For Asynchronous mode the kill signal disables both the line and line_n
 464:.\Generated_Source\PSoC4/SWB_Timer.c **** *  signals when the kill signal is present.  This mode should only be used
 465:.\Generated_Source\PSoC4/SWB_Timer.c **** *  when the kill signal (stop input) is configured in the pass through mode
 466:.\Generated_Source\PSoC4/SWB_Timer.c **** *  (Level sensitive signal).
 467:.\Generated_Source\PSoC4/SWB_Timer.c **** 
 468:.\Generated_Source\PSoC4/SWB_Timer.c **** *
 469:.\Generated_Source\PSoC4/SWB_Timer.c **** * Parameters:
 470:.\Generated_Source\PSoC4/SWB_Timer.c **** *  syncKillEnable
 471:.\Generated_Source\PSoC4/SWB_Timer.c **** *   Values:
 472:.\Generated_Source\PSoC4/SWB_Timer.c **** *     - 0 - Asynchronous
 473:.\Generated_Source\PSoC4/SWB_Timer.c **** *     - 1 - Synchronous
 474:.\Generated_Source\PSoC4/SWB_Timer.c **** *
 475:.\Generated_Source\PSoC4/SWB_Timer.c **** * Return:
 476:.\Generated_Source\PSoC4/SWB_Timer.c **** *  None
ARM GAS  C:\Users\Admin\AppData\Local\Temp\cc5236K1.s 			page 18


 477:.\Generated_Source\PSoC4/SWB_Timer.c **** *
 478:.\Generated_Source\PSoC4/SWB_Timer.c **** *******************************************************************************/
 479:.\Generated_Source\PSoC4/SWB_Timer.c **** void SWB_Timer_SetPWMSyncKill(uint32 syncKillEnable)
 480:.\Generated_Source\PSoC4/SWB_Timer.c **** {
 494              		.loc 1 480 0
 495              		.cfi_startproc
 496 0000 90B5     		push	{r4, r7, lr}
 497              		.cfi_def_cfa_offset 12
 498              		.cfi_offset 4, -12
 499              		.cfi_offset 7, -8
 500              		.cfi_offset 14, -4
 501 0002 85B0     		sub	sp, sp, #20
 502              		.cfi_def_cfa_offset 32
 503 0004 00AF     		add	r7, sp, #0
 504              		.cfi_def_cfa_register 7
 505 0006 7860     		str	r0, [r7, #4]
 481:.\Generated_Source\PSoC4/SWB_Timer.c ****     uint8 enableInterrupts;
 482:.\Generated_Source\PSoC4/SWB_Timer.c **** 
 483:.\Generated_Source\PSoC4/SWB_Timer.c ****     enableInterrupts = CyEnterCriticalSection();
 506              		.loc 1 483 0
 507 0008 3C1C     		mov	r4, r7
 508 000a 0F34     		add	r4, r4, #15
 509 000c FFF7FEFF 		bl	CyEnterCriticalSection
 510 0010 031C     		mov	r3, r0
 511 0012 2370     		strb	r3, [r4]
 484:.\Generated_Source\PSoC4/SWB_Timer.c **** 
 485:.\Generated_Source\PSoC4/SWB_Timer.c ****     SWB_Timer_CONTROL_REG &= (uint32)~SWB_Timer_PWM_SYNC_KILL_MASK;
 512              		.loc 1 485 0
 513 0014 0B4B     		ldr	r3, .L30
 514 0016 0B4A     		ldr	r2, .L30
 515 0018 1268     		ldr	r2, [r2]
 516 001a 0421     		mov	r1, #4
 517 001c 8A43     		bic	r2, r1
 518 001e 1A60     		str	r2, [r3]
 486:.\Generated_Source\PSoC4/SWB_Timer.c ****     SWB_Timer_CONTROL_REG |= ((uint32)((syncKillEnable & SWB_Timer_1BIT_MASK)  <<
 519              		.loc 1 486 0
 520 0020 084B     		ldr	r3, .L30
 521 0022 084A     		ldr	r2, .L30
 522 0024 1168     		ldr	r1, [r2]
 523 0026 7868     		ldr	r0, [r7, #4]
 524 0028 0122     		mov	r2, #1
 525 002a 0240     		and	r2, r0
 526 002c 9200     		lsl	r2, r2, #2
 527 002e 0A43     		orr	r2, r1
 528 0030 1A60     		str	r2, [r3]
 487:.\Generated_Source\PSoC4/SWB_Timer.c ****                                                SWB_Timer_PWM_SYNC_KILL_SHIFT));
 488:.\Generated_Source\PSoC4/SWB_Timer.c **** 
 489:.\Generated_Source\PSoC4/SWB_Timer.c ****     CyExitCriticalSection(enableInterrupts);
 529              		.loc 1 489 0
 530 0032 3B1C     		mov	r3, r7
 531 0034 0F33     		add	r3, r3, #15
 532 0036 1B78     		ldrb	r3, [r3]
 533 0038 181C     		mov	r0, r3
 534 003a FFF7FEFF 		bl	CyExitCriticalSection
 490:.\Generated_Source\PSoC4/SWB_Timer.c **** }
 535              		.loc 1 490 0
 536 003e BD46     		mov	sp, r7
ARM GAS  C:\Users\Admin\AppData\Local\Temp\cc5236K1.s 			page 19


 537 0040 05B0     		add	sp, sp, #20
 538              		@ sp needed
 539 0042 90BD     		pop	{r4, r7, pc}
 540              	.L31:
 541              		.align	2
 542              	.L30:
 543 0044 00010540 		.word	1074069760
 544              		.cfi_endproc
 545              	.LFE9:
 546              		.size	SWB_Timer_SetPWMSyncKill, .-SWB_Timer_SetPWMSyncKill
 547              		.section	.text.SWB_Timer_SetPWMStopOnKill,"ax",%progbits
 548              		.align	2
 549              		.global	SWB_Timer_SetPWMStopOnKill
 550              		.code	16
 551              		.thumb_func
 552              		.type	SWB_Timer_SetPWMStopOnKill, %function
 553              	SWB_Timer_SetPWMStopOnKill:
 554              	.LFB10:
 491:.\Generated_Source\PSoC4/SWB_Timer.c **** 
 492:.\Generated_Source\PSoC4/SWB_Timer.c **** 
 493:.\Generated_Source\PSoC4/SWB_Timer.c **** /*******************************************************************************
 494:.\Generated_Source\PSoC4/SWB_Timer.c **** * Function Name: SWB_Timer_SetPWMStopOnKill
 495:.\Generated_Source\PSoC4/SWB_Timer.c **** ********************************************************************************
 496:.\Generated_Source\PSoC4/SWB_Timer.c **** *
 497:.\Generated_Source\PSoC4/SWB_Timer.c **** * Summary:
 498:.\Generated_Source\PSoC4/SWB_Timer.c **** *  Writes the register that controls whether the PWM kill signal (stop input)
 499:.\Generated_Source\PSoC4/SWB_Timer.c **** *  causes the PWM counter to stop.  By default the kill operation does not stop
 500:.\Generated_Source\PSoC4/SWB_Timer.c **** *  the counter.  This functionality is only applicable to the three PWM modes.
 501:.\Generated_Source\PSoC4/SWB_Timer.c **** *
 502:.\Generated_Source\PSoC4/SWB_Timer.c **** *
 503:.\Generated_Source\PSoC4/SWB_Timer.c **** * Parameters:
 504:.\Generated_Source\PSoC4/SWB_Timer.c **** *  stopOnKillEnable
 505:.\Generated_Source\PSoC4/SWB_Timer.c **** *   Values:
 506:.\Generated_Source\PSoC4/SWB_Timer.c **** *     - 0 - Don't stop
 507:.\Generated_Source\PSoC4/SWB_Timer.c **** *     - 1 - Stop
 508:.\Generated_Source\PSoC4/SWB_Timer.c **** *
 509:.\Generated_Source\PSoC4/SWB_Timer.c **** * Return:
 510:.\Generated_Source\PSoC4/SWB_Timer.c **** *  None
 511:.\Generated_Source\PSoC4/SWB_Timer.c **** *
 512:.\Generated_Source\PSoC4/SWB_Timer.c **** *******************************************************************************/
 513:.\Generated_Source\PSoC4/SWB_Timer.c **** void SWB_Timer_SetPWMStopOnKill(uint32 stopOnKillEnable)
 514:.\Generated_Source\PSoC4/SWB_Timer.c **** {
 555              		.loc 1 514 0
 556              		.cfi_startproc
 557 0000 90B5     		push	{r4, r7, lr}
 558              		.cfi_def_cfa_offset 12
 559              		.cfi_offset 4, -12
 560              		.cfi_offset 7, -8
 561              		.cfi_offset 14, -4
 562 0002 85B0     		sub	sp, sp, #20
 563              		.cfi_def_cfa_offset 32
 564 0004 00AF     		add	r7, sp, #0
 565              		.cfi_def_cfa_register 7
 566 0006 7860     		str	r0, [r7, #4]
 515:.\Generated_Source\PSoC4/SWB_Timer.c ****     uint8 enableInterrupts;
 516:.\Generated_Source\PSoC4/SWB_Timer.c **** 
 517:.\Generated_Source\PSoC4/SWB_Timer.c ****     enableInterrupts = CyEnterCriticalSection();
ARM GAS  C:\Users\Admin\AppData\Local\Temp\cc5236K1.s 			page 20


 567              		.loc 1 517 0
 568 0008 3C1C     		mov	r4, r7
 569 000a 0F34     		add	r4, r4, #15
 570 000c FFF7FEFF 		bl	CyEnterCriticalSection
 571 0010 031C     		mov	r3, r0
 572 0012 2370     		strb	r3, [r4]
 518:.\Generated_Source\PSoC4/SWB_Timer.c **** 
 519:.\Generated_Source\PSoC4/SWB_Timer.c ****     SWB_Timer_CONTROL_REG &= (uint32)~SWB_Timer_PWM_STOP_KILL_MASK;
 573              		.loc 1 519 0
 574 0014 0B4B     		ldr	r3, .L33
 575 0016 0B4A     		ldr	r2, .L33
 576 0018 1268     		ldr	r2, [r2]
 577 001a 0821     		mov	r1, #8
 578 001c 8A43     		bic	r2, r1
 579 001e 1A60     		str	r2, [r3]
 520:.\Generated_Source\PSoC4/SWB_Timer.c ****     SWB_Timer_CONTROL_REG |= ((uint32)((stopOnKillEnable & SWB_Timer_1BIT_MASK)  <<
 580              		.loc 1 520 0
 581 0020 084B     		ldr	r3, .L33
 582 0022 084A     		ldr	r2, .L33
 583 0024 1168     		ldr	r1, [r2]
 584 0026 7868     		ldr	r0, [r7, #4]
 585 0028 0122     		mov	r2, #1
 586 002a 0240     		and	r2, r0
 587 002c D200     		lsl	r2, r2, #3
 588 002e 0A43     		orr	r2, r1
 589 0030 1A60     		str	r2, [r3]
 521:.\Generated_Source\PSoC4/SWB_Timer.c ****                                                          SWB_Timer_PWM_STOP_KILL_SHIFT));
 522:.\Generated_Source\PSoC4/SWB_Timer.c **** 
 523:.\Generated_Source\PSoC4/SWB_Timer.c ****     CyExitCriticalSection(enableInterrupts);
 590              		.loc 1 523 0
 591 0032 3B1C     		mov	r3, r7
 592 0034 0F33     		add	r3, r3, #15
 593 0036 1B78     		ldrb	r3, [r3]
 594 0038 181C     		mov	r0, r3
 595 003a FFF7FEFF 		bl	CyExitCriticalSection
 524:.\Generated_Source\PSoC4/SWB_Timer.c **** }
 596              		.loc 1 524 0
 597 003e BD46     		mov	sp, r7
 598 0040 05B0     		add	sp, sp, #20
 599              		@ sp needed
 600 0042 90BD     		pop	{r4, r7, pc}
 601              	.L34:
 602              		.align	2
 603              	.L33:
 604 0044 00010540 		.word	1074069760
 605              		.cfi_endproc
 606              	.LFE10:
 607              		.size	SWB_Timer_SetPWMStopOnKill, .-SWB_Timer_SetPWMStopOnKill
 608              		.section	.text.SWB_Timer_SetPWMDeadTime,"ax",%progbits
 609              		.align	2
 610              		.global	SWB_Timer_SetPWMDeadTime
 611              		.code	16
 612              		.thumb_func
 613              		.type	SWB_Timer_SetPWMDeadTime, %function
 614              	SWB_Timer_SetPWMDeadTime:
 615              	.LFB11:
 525:.\Generated_Source\PSoC4/SWB_Timer.c **** 
ARM GAS  C:\Users\Admin\AppData\Local\Temp\cc5236K1.s 			page 21


 526:.\Generated_Source\PSoC4/SWB_Timer.c **** 
 527:.\Generated_Source\PSoC4/SWB_Timer.c **** /*******************************************************************************
 528:.\Generated_Source\PSoC4/SWB_Timer.c **** * Function Name: SWB_Timer_SetPWMDeadTime
 529:.\Generated_Source\PSoC4/SWB_Timer.c **** ********************************************************************************
 530:.\Generated_Source\PSoC4/SWB_Timer.c **** *
 531:.\Generated_Source\PSoC4/SWB_Timer.c **** * Summary:
 532:.\Generated_Source\PSoC4/SWB_Timer.c **** *  Writes the dead time control value.  This value delays the rising edge of
 533:.\Generated_Source\PSoC4/SWB_Timer.c **** *  both the line and line_n signals the designated number of cycles resulting
 534:.\Generated_Source\PSoC4/SWB_Timer.c **** *  in both signals being inactive for that many cycles.  This functionality is
 535:.\Generated_Source\PSoC4/SWB_Timer.c **** *  only applicable to the PWM in the dead time mode.
 536:.\Generated_Source\PSoC4/SWB_Timer.c **** 
 537:.\Generated_Source\PSoC4/SWB_Timer.c **** *
 538:.\Generated_Source\PSoC4/SWB_Timer.c **** * Parameters:
 539:.\Generated_Source\PSoC4/SWB_Timer.c **** *  Dead time to insert
 540:.\Generated_Source\PSoC4/SWB_Timer.c **** *   Values: 0 to 255
 541:.\Generated_Source\PSoC4/SWB_Timer.c **** *
 542:.\Generated_Source\PSoC4/SWB_Timer.c **** * Return:
 543:.\Generated_Source\PSoC4/SWB_Timer.c **** *  None
 544:.\Generated_Source\PSoC4/SWB_Timer.c **** *
 545:.\Generated_Source\PSoC4/SWB_Timer.c **** *******************************************************************************/
 546:.\Generated_Source\PSoC4/SWB_Timer.c **** void SWB_Timer_SetPWMDeadTime(uint32 deadTime)
 547:.\Generated_Source\PSoC4/SWB_Timer.c **** {
 616              		.loc 1 547 0
 617              		.cfi_startproc
 618 0000 90B5     		push	{r4, r7, lr}
 619              		.cfi_def_cfa_offset 12
 620              		.cfi_offset 4, -12
 621              		.cfi_offset 7, -8
 622              		.cfi_offset 14, -4
 623 0002 85B0     		sub	sp, sp, #20
 624              		.cfi_def_cfa_offset 32
 625 0004 00AF     		add	r7, sp, #0
 626              		.cfi_def_cfa_register 7
 627 0006 7860     		str	r0, [r7, #4]
 548:.\Generated_Source\PSoC4/SWB_Timer.c ****     uint8 enableInterrupts;
 549:.\Generated_Source\PSoC4/SWB_Timer.c **** 
 550:.\Generated_Source\PSoC4/SWB_Timer.c ****     enableInterrupts = CyEnterCriticalSection();
 628              		.loc 1 550 0
 629 0008 3C1C     		mov	r4, r7
 630 000a 0F34     		add	r4, r4, #15
 631 000c FFF7FEFF 		bl	CyEnterCriticalSection
 632 0010 031C     		mov	r3, r0
 633 0012 2370     		strb	r3, [r4]
 551:.\Generated_Source\PSoC4/SWB_Timer.c **** 
 552:.\Generated_Source\PSoC4/SWB_Timer.c ****     SWB_Timer_CONTROL_REG &= (uint32)~SWB_Timer_PRESCALER_MASK;
 634              		.loc 1 552 0
 635 0014 0B4B     		ldr	r3, .L36
 636 0016 0B4A     		ldr	r2, .L36
 637 0018 1168     		ldr	r1, [r2]
 638 001a 0B4A     		ldr	r2, .L36+4
 639 001c 0A40     		and	r2, r1
 640 001e 1A60     		str	r2, [r3]
 553:.\Generated_Source\PSoC4/SWB_Timer.c ****     SWB_Timer_CONTROL_REG |= ((uint32)((deadTime & SWB_Timer_8BIT_MASK) <<
 641              		.loc 1 553 0
 642 0020 084B     		ldr	r3, .L36
 643 0022 084A     		ldr	r2, .L36
 644 0024 1168     		ldr	r1, [r2]
ARM GAS  C:\Users\Admin\AppData\Local\Temp\cc5236K1.s 			page 22


 645 0026 7A68     		ldr	r2, [r7, #4]
 646 0028 1202     		lsl	r2, r2, #8
 647 002a 1204     		lsl	r2, r2, #16
 648 002c 120C     		lsr	r2, r2, #16
 649 002e 0A43     		orr	r2, r1
 650 0030 1A60     		str	r2, [r3]
 554:.\Generated_Source\PSoC4/SWB_Timer.c ****                                                           SWB_Timer_PRESCALER_SHIFT));
 555:.\Generated_Source\PSoC4/SWB_Timer.c **** 
 556:.\Generated_Source\PSoC4/SWB_Timer.c ****     CyExitCriticalSection(enableInterrupts);
 651              		.loc 1 556 0
 652 0032 3B1C     		mov	r3, r7
 653 0034 0F33     		add	r3, r3, #15
 654 0036 1B78     		ldrb	r3, [r3]
 655 0038 181C     		mov	r0, r3
 656 003a FFF7FEFF 		bl	CyExitCriticalSection
 557:.\Generated_Source\PSoC4/SWB_Timer.c **** }
 657              		.loc 1 557 0
 658 003e BD46     		mov	sp, r7
 659 0040 05B0     		add	sp, sp, #20
 660              		@ sp needed
 661 0042 90BD     		pop	{r4, r7, pc}
 662              	.L37:
 663              		.align	2
 664              	.L36:
 665 0044 00010540 		.word	1074069760
 666 0048 FF00FFFF 		.word	-65281
 667              		.cfi_endproc
 668              	.LFE11:
 669              		.size	SWB_Timer_SetPWMDeadTime, .-SWB_Timer_SetPWMDeadTime
 670              		.section	.text.SWB_Timer_SetPWMInvert,"ax",%progbits
 671              		.align	2
 672              		.global	SWB_Timer_SetPWMInvert
 673              		.code	16
 674              		.thumb_func
 675              		.type	SWB_Timer_SetPWMInvert, %function
 676              	SWB_Timer_SetPWMInvert:
 677              	.LFB12:
 558:.\Generated_Source\PSoC4/SWB_Timer.c **** 
 559:.\Generated_Source\PSoC4/SWB_Timer.c **** 
 560:.\Generated_Source\PSoC4/SWB_Timer.c **** /*******************************************************************************
 561:.\Generated_Source\PSoC4/SWB_Timer.c **** * Function Name: SWB_Timer_SetPWMInvert
 562:.\Generated_Source\PSoC4/SWB_Timer.c **** ********************************************************************************
 563:.\Generated_Source\PSoC4/SWB_Timer.c **** *
 564:.\Generated_Source\PSoC4/SWB_Timer.c **** * Summary:
 565:.\Generated_Source\PSoC4/SWB_Timer.c **** *  Writes the bits that control whether the line and line_n outputs are
 566:.\Generated_Source\PSoC4/SWB_Timer.c **** *  inverted from their normal output values.  This functionality is only
 567:.\Generated_Source\PSoC4/SWB_Timer.c **** *  applicable to the three PWM modes.
 568:.\Generated_Source\PSoC4/SWB_Timer.c **** *
 569:.\Generated_Source\PSoC4/SWB_Timer.c **** * Parameters:
 570:.\Generated_Source\PSoC4/SWB_Timer.c **** *  mask: Mask of outputs to invert.
 571:.\Generated_Source\PSoC4/SWB_Timer.c **** *   Values:
 572:.\Generated_Source\PSoC4/SWB_Timer.c **** *         - SWB_Timer_INVERT_LINE   - Inverts the line output
 573:.\Generated_Source\PSoC4/SWB_Timer.c **** *         - SWB_Timer_INVERT_LINE_N - Inverts the line_n output
 574:.\Generated_Source\PSoC4/SWB_Timer.c **** *
 575:.\Generated_Source\PSoC4/SWB_Timer.c **** * Return:
 576:.\Generated_Source\PSoC4/SWB_Timer.c **** *  None
 577:.\Generated_Source\PSoC4/SWB_Timer.c **** *
ARM GAS  C:\Users\Admin\AppData\Local\Temp\cc5236K1.s 			page 23


 578:.\Generated_Source\PSoC4/SWB_Timer.c **** *******************************************************************************/
 579:.\Generated_Source\PSoC4/SWB_Timer.c **** void SWB_Timer_SetPWMInvert(uint32 mask)
 580:.\Generated_Source\PSoC4/SWB_Timer.c **** {
 678              		.loc 1 580 0
 679              		.cfi_startproc
 680 0000 90B5     		push	{r4, r7, lr}
 681              		.cfi_def_cfa_offset 12
 682              		.cfi_offset 4, -12
 683              		.cfi_offset 7, -8
 684              		.cfi_offset 14, -4
 685 0002 85B0     		sub	sp, sp, #20
 686              		.cfi_def_cfa_offset 32
 687 0004 00AF     		add	r7, sp, #0
 688              		.cfi_def_cfa_register 7
 689 0006 7860     		str	r0, [r7, #4]
 581:.\Generated_Source\PSoC4/SWB_Timer.c ****     uint8 enableInterrupts;
 582:.\Generated_Source\PSoC4/SWB_Timer.c **** 
 583:.\Generated_Source\PSoC4/SWB_Timer.c ****     enableInterrupts = CyEnterCriticalSection();
 690              		.loc 1 583 0
 691 0008 3C1C     		mov	r4, r7
 692 000a 0F34     		add	r4, r4, #15
 693 000c FFF7FEFF 		bl	CyEnterCriticalSection
 694 0010 031C     		mov	r3, r0
 695 0012 2370     		strb	r3, [r4]
 584:.\Generated_Source\PSoC4/SWB_Timer.c **** 
 585:.\Generated_Source\PSoC4/SWB_Timer.c ****     SWB_Timer_CONTROL_REG &= (uint32)~SWB_Timer_INV_OUT_MASK;
 696              		.loc 1 585 0
 697 0014 0A4B     		ldr	r3, .L39
 698 0016 0A4A     		ldr	r2, .L39
 699 0018 1168     		ldr	r1, [r2]
 700 001a 0A4A     		ldr	r2, .L39+4
 701 001c 0A40     		and	r2, r1
 702 001e 1A60     		str	r2, [r3]
 586:.\Generated_Source\PSoC4/SWB_Timer.c ****     SWB_Timer_CONTROL_REG |= mask;
 703              		.loc 1 586 0
 704 0020 074B     		ldr	r3, .L39
 705 0022 074A     		ldr	r2, .L39
 706 0024 1168     		ldr	r1, [r2]
 707 0026 7A68     		ldr	r2, [r7, #4]
 708 0028 0A43     		orr	r2, r1
 709 002a 1A60     		str	r2, [r3]
 587:.\Generated_Source\PSoC4/SWB_Timer.c **** 
 588:.\Generated_Source\PSoC4/SWB_Timer.c ****     CyExitCriticalSection(enableInterrupts);
 710              		.loc 1 588 0
 711 002c 3B1C     		mov	r3, r7
 712 002e 0F33     		add	r3, r3, #15
 713 0030 1B78     		ldrb	r3, [r3]
 714 0032 181C     		mov	r0, r3
 715 0034 FFF7FEFF 		bl	CyExitCriticalSection
 589:.\Generated_Source\PSoC4/SWB_Timer.c **** }
 716              		.loc 1 589 0
 717 0038 BD46     		mov	sp, r7
 718 003a 05B0     		add	sp, sp, #20
 719              		@ sp needed
 720 003c 90BD     		pop	{r4, r7, pc}
 721              	.L40:
 722 003e C046     		.align	2
ARM GAS  C:\Users\Admin\AppData\Local\Temp\cc5236K1.s 			page 24


 723              	.L39:
 724 0040 00010540 		.word	1074069760
 725 0044 FFFFCFFF 		.word	-3145729
 726              		.cfi_endproc
 727              	.LFE12:
 728              		.size	SWB_Timer_SetPWMInvert, .-SWB_Timer_SetPWMInvert
 729              		.section	.text.SWB_Timer_WriteCounter,"ax",%progbits
 730              		.align	2
 731              		.global	SWB_Timer_WriteCounter
 732              		.code	16
 733              		.thumb_func
 734              		.type	SWB_Timer_WriteCounter, %function
 735              	SWB_Timer_WriteCounter:
 736              	.LFB13:
 590:.\Generated_Source\PSoC4/SWB_Timer.c **** 
 591:.\Generated_Source\PSoC4/SWB_Timer.c **** 
 592:.\Generated_Source\PSoC4/SWB_Timer.c **** 
 593:.\Generated_Source\PSoC4/SWB_Timer.c **** /*******************************************************************************
 594:.\Generated_Source\PSoC4/SWB_Timer.c **** * Function Name: SWB_Timer_WriteCounter
 595:.\Generated_Source\PSoC4/SWB_Timer.c **** ********************************************************************************
 596:.\Generated_Source\PSoC4/SWB_Timer.c **** *
 597:.\Generated_Source\PSoC4/SWB_Timer.c **** * Summary:
 598:.\Generated_Source\PSoC4/SWB_Timer.c **** *  Writes a new 16bit counter value directly into the counter register, thus
 599:.\Generated_Source\PSoC4/SWB_Timer.c **** *  setting the counter (not the period) to the value written. It is not
 600:.\Generated_Source\PSoC4/SWB_Timer.c **** *  advised to write to this field when the counter is running.
 601:.\Generated_Source\PSoC4/SWB_Timer.c **** *
 602:.\Generated_Source\PSoC4/SWB_Timer.c **** * Parameters:
 603:.\Generated_Source\PSoC4/SWB_Timer.c **** *  count: value to write
 604:.\Generated_Source\PSoC4/SWB_Timer.c **** *
 605:.\Generated_Source\PSoC4/SWB_Timer.c **** * Return:
 606:.\Generated_Source\PSoC4/SWB_Timer.c **** *  None
 607:.\Generated_Source\PSoC4/SWB_Timer.c **** *
 608:.\Generated_Source\PSoC4/SWB_Timer.c **** *******************************************************************************/
 609:.\Generated_Source\PSoC4/SWB_Timer.c **** void SWB_Timer_WriteCounter(uint32 count)
 610:.\Generated_Source\PSoC4/SWB_Timer.c **** {
 737              		.loc 1 610 0
 738              		.cfi_startproc
 739 0000 80B5     		push	{r7, lr}
 740              		.cfi_def_cfa_offset 8
 741              		.cfi_offset 7, -8
 742              		.cfi_offset 14, -4
 743 0002 82B0     		sub	sp, sp, #8
 744              		.cfi_def_cfa_offset 16
 745 0004 00AF     		add	r7, sp, #0
 746              		.cfi_def_cfa_register 7
 747 0006 7860     		str	r0, [r7, #4]
 611:.\Generated_Source\PSoC4/SWB_Timer.c ****     SWB_Timer_COUNTER_REG = (count & SWB_Timer_16BIT_MASK);
 748              		.loc 1 611 0
 749 0008 034B     		ldr	r3, .L42
 750 000a 7A68     		ldr	r2, [r7, #4]
 751 000c 1204     		lsl	r2, r2, #16
 752 000e 120C     		lsr	r2, r2, #16
 753 0010 1A60     		str	r2, [r3]
 612:.\Generated_Source\PSoC4/SWB_Timer.c **** }
 754              		.loc 1 612 0
 755 0012 BD46     		mov	sp, r7
 756 0014 02B0     		add	sp, sp, #8
ARM GAS  C:\Users\Admin\AppData\Local\Temp\cc5236K1.s 			page 25


 757              		@ sp needed
 758 0016 80BD     		pop	{r7, pc}
 759              	.L43:
 760              		.align	2
 761              	.L42:
 762 0018 08010540 		.word	1074069768
 763              		.cfi_endproc
 764              	.LFE13:
 765              		.size	SWB_Timer_WriteCounter, .-SWB_Timer_WriteCounter
 766              		.section	.text.SWB_Timer_ReadCounter,"ax",%progbits
 767              		.align	2
 768              		.global	SWB_Timer_ReadCounter
 769              		.code	16
 770              		.thumb_func
 771              		.type	SWB_Timer_ReadCounter, %function
 772              	SWB_Timer_ReadCounter:
 773              	.LFB14:
 613:.\Generated_Source\PSoC4/SWB_Timer.c **** 
 614:.\Generated_Source\PSoC4/SWB_Timer.c **** 
 615:.\Generated_Source\PSoC4/SWB_Timer.c **** /*******************************************************************************
 616:.\Generated_Source\PSoC4/SWB_Timer.c **** * Function Name: SWB_Timer_ReadCounter
 617:.\Generated_Source\PSoC4/SWB_Timer.c **** ********************************************************************************
 618:.\Generated_Source\PSoC4/SWB_Timer.c **** *
 619:.\Generated_Source\PSoC4/SWB_Timer.c **** * Summary:
 620:.\Generated_Source\PSoC4/SWB_Timer.c **** *  Reads the current counter value.
 621:.\Generated_Source\PSoC4/SWB_Timer.c **** *
 622:.\Generated_Source\PSoC4/SWB_Timer.c **** * Parameters:
 623:.\Generated_Source\PSoC4/SWB_Timer.c **** *  None
 624:.\Generated_Source\PSoC4/SWB_Timer.c **** *
 625:.\Generated_Source\PSoC4/SWB_Timer.c **** * Return:
 626:.\Generated_Source\PSoC4/SWB_Timer.c **** *  Current counter value
 627:.\Generated_Source\PSoC4/SWB_Timer.c **** *
 628:.\Generated_Source\PSoC4/SWB_Timer.c **** *******************************************************************************/
 629:.\Generated_Source\PSoC4/SWB_Timer.c **** uint32 SWB_Timer_ReadCounter(void)
 630:.\Generated_Source\PSoC4/SWB_Timer.c **** {
 774              		.loc 1 630 0
 775              		.cfi_startproc
 776 0000 80B5     		push	{r7, lr}
 777              		.cfi_def_cfa_offset 8
 778              		.cfi_offset 7, -8
 779              		.cfi_offset 14, -4
 780 0002 00AF     		add	r7, sp, #0
 781              		.cfi_def_cfa_register 7
 631:.\Generated_Source\PSoC4/SWB_Timer.c ****     return (SWB_Timer_COUNTER_REG & SWB_Timer_16BIT_MASK);
 782              		.loc 1 631 0
 783 0004 034B     		ldr	r3, .L46
 784 0006 1B68     		ldr	r3, [r3]
 785 0008 1B04     		lsl	r3, r3, #16
 786 000a 1B0C     		lsr	r3, r3, #16
 632:.\Generated_Source\PSoC4/SWB_Timer.c **** }
 787              		.loc 1 632 0
 788 000c 181C     		mov	r0, r3
 789 000e BD46     		mov	sp, r7
 790              		@ sp needed
 791 0010 80BD     		pop	{r7, pc}
 792              	.L47:
 793 0012 C046     		.align	2
ARM GAS  C:\Users\Admin\AppData\Local\Temp\cc5236K1.s 			page 26


 794              	.L46:
 795 0014 08010540 		.word	1074069768
 796              		.cfi_endproc
 797              	.LFE14:
 798              		.size	SWB_Timer_ReadCounter, .-SWB_Timer_ReadCounter
 799              		.section	.text.SWB_Timer_SetCounterMode,"ax",%progbits
 800              		.align	2
 801              		.global	SWB_Timer_SetCounterMode
 802              		.code	16
 803              		.thumb_func
 804              		.type	SWB_Timer_SetCounterMode, %function
 805              	SWB_Timer_SetCounterMode:
 806              	.LFB15:
 633:.\Generated_Source\PSoC4/SWB_Timer.c **** 
 634:.\Generated_Source\PSoC4/SWB_Timer.c **** 
 635:.\Generated_Source\PSoC4/SWB_Timer.c **** /*******************************************************************************
 636:.\Generated_Source\PSoC4/SWB_Timer.c **** * Function Name: SWB_Timer_SetCounterMode
 637:.\Generated_Source\PSoC4/SWB_Timer.c **** ********************************************************************************
 638:.\Generated_Source\PSoC4/SWB_Timer.c **** *
 639:.\Generated_Source\PSoC4/SWB_Timer.c **** * Summary:
 640:.\Generated_Source\PSoC4/SWB_Timer.c **** *  Sets the counter mode.  Applicable to all modes except Quadrature Decoder
 641:.\Generated_Source\PSoC4/SWB_Timer.c **** *  and the PWM with a pseudo random output.
 642:.\Generated_Source\PSoC4/SWB_Timer.c **** *
 643:.\Generated_Source\PSoC4/SWB_Timer.c **** * Parameters:
 644:.\Generated_Source\PSoC4/SWB_Timer.c **** *  counterMode: Enumerated counter type values
 645:.\Generated_Source\PSoC4/SWB_Timer.c **** *   Values:
 646:.\Generated_Source\PSoC4/SWB_Timer.c **** *     - SWB_Timer_COUNT_UP       - Counts up
 647:.\Generated_Source\PSoC4/SWB_Timer.c **** *     - SWB_Timer_COUNT_DOWN     - Counts down
 648:.\Generated_Source\PSoC4/SWB_Timer.c **** *     - SWB_Timer_COUNT_UPDOWN0  - Counts up and down. Terminal count
 649:.\Generated_Source\PSoC4/SWB_Timer.c **** *                                         generated when counter reaches 0
 650:.\Generated_Source\PSoC4/SWB_Timer.c **** *     - SWB_Timer_COUNT_UPDOWN1  - Counts up and down. Terminal count
 651:.\Generated_Source\PSoC4/SWB_Timer.c **** *                                         generated both when counter reaches 0
 652:.\Generated_Source\PSoC4/SWB_Timer.c **** *                                         and period
 653:.\Generated_Source\PSoC4/SWB_Timer.c **** *
 654:.\Generated_Source\PSoC4/SWB_Timer.c **** * Return:
 655:.\Generated_Source\PSoC4/SWB_Timer.c **** *  None
 656:.\Generated_Source\PSoC4/SWB_Timer.c **** *
 657:.\Generated_Source\PSoC4/SWB_Timer.c **** *******************************************************************************/
 658:.\Generated_Source\PSoC4/SWB_Timer.c **** void SWB_Timer_SetCounterMode(uint32 counterMode)
 659:.\Generated_Source\PSoC4/SWB_Timer.c **** {
 807              		.loc 1 659 0
 808              		.cfi_startproc
 809 0000 90B5     		push	{r4, r7, lr}
 810              		.cfi_def_cfa_offset 12
 811              		.cfi_offset 4, -12
 812              		.cfi_offset 7, -8
 813              		.cfi_offset 14, -4
 814 0002 85B0     		sub	sp, sp, #20
 815              		.cfi_def_cfa_offset 32
 816 0004 00AF     		add	r7, sp, #0
 817              		.cfi_def_cfa_register 7
 818 0006 7860     		str	r0, [r7, #4]
 660:.\Generated_Source\PSoC4/SWB_Timer.c ****     uint8 enableInterrupts;
 661:.\Generated_Source\PSoC4/SWB_Timer.c **** 
 662:.\Generated_Source\PSoC4/SWB_Timer.c ****     enableInterrupts = CyEnterCriticalSection();
 819              		.loc 1 662 0
 820 0008 3C1C     		mov	r4, r7
ARM GAS  C:\Users\Admin\AppData\Local\Temp\cc5236K1.s 			page 27


 821 000a 0F34     		add	r4, r4, #15
 822 000c FFF7FEFF 		bl	CyEnterCriticalSection
 823 0010 031C     		mov	r3, r0
 824 0012 2370     		strb	r3, [r4]
 663:.\Generated_Source\PSoC4/SWB_Timer.c **** 
 664:.\Generated_Source\PSoC4/SWB_Timer.c ****     SWB_Timer_CONTROL_REG &= (uint32)~SWB_Timer_UPDOWN_MASK;
 825              		.loc 1 664 0
 826 0014 0A4B     		ldr	r3, .L49
 827 0016 0A4A     		ldr	r2, .L49
 828 0018 1168     		ldr	r1, [r2]
 829 001a 0A4A     		ldr	r2, .L49+4
 830 001c 0A40     		and	r2, r1
 831 001e 1A60     		str	r2, [r3]
 665:.\Generated_Source\PSoC4/SWB_Timer.c ****     SWB_Timer_CONTROL_REG |= counterMode;
 832              		.loc 1 665 0
 833 0020 074B     		ldr	r3, .L49
 834 0022 074A     		ldr	r2, .L49
 835 0024 1168     		ldr	r1, [r2]
 836 0026 7A68     		ldr	r2, [r7, #4]
 837 0028 0A43     		orr	r2, r1
 838 002a 1A60     		str	r2, [r3]
 666:.\Generated_Source\PSoC4/SWB_Timer.c **** 
 667:.\Generated_Source\PSoC4/SWB_Timer.c ****     CyExitCriticalSection(enableInterrupts);
 839              		.loc 1 667 0
 840 002c 3B1C     		mov	r3, r7
 841 002e 0F33     		add	r3, r3, #15
 842 0030 1B78     		ldrb	r3, [r3]
 843 0032 181C     		mov	r0, r3
 844 0034 FFF7FEFF 		bl	CyExitCriticalSection
 668:.\Generated_Source\PSoC4/SWB_Timer.c **** }
 845              		.loc 1 668 0
 846 0038 BD46     		mov	sp, r7
 847 003a 05B0     		add	sp, sp, #20
 848              		@ sp needed
 849 003c 90BD     		pop	{r4, r7, pc}
 850              	.L50:
 851 003e C046     		.align	2
 852              	.L49:
 853 0040 00010540 		.word	1074069760
 854 0044 FFFFFCFF 		.word	-196609
 855              		.cfi_endproc
 856              	.LFE15:
 857              		.size	SWB_Timer_SetCounterMode, .-SWB_Timer_SetCounterMode
 858              		.section	.text.SWB_Timer_WritePeriod,"ax",%progbits
 859              		.align	2
 860              		.global	SWB_Timer_WritePeriod
 861              		.code	16
 862              		.thumb_func
 863              		.type	SWB_Timer_WritePeriod, %function
 864              	SWB_Timer_WritePeriod:
 865              	.LFB16:
 669:.\Generated_Source\PSoC4/SWB_Timer.c **** 
 670:.\Generated_Source\PSoC4/SWB_Timer.c **** 
 671:.\Generated_Source\PSoC4/SWB_Timer.c **** /*******************************************************************************
 672:.\Generated_Source\PSoC4/SWB_Timer.c **** * Function Name: SWB_Timer_WritePeriod
 673:.\Generated_Source\PSoC4/SWB_Timer.c **** ********************************************************************************
 674:.\Generated_Source\PSoC4/SWB_Timer.c **** *
ARM GAS  C:\Users\Admin\AppData\Local\Temp\cc5236K1.s 			page 28


 675:.\Generated_Source\PSoC4/SWB_Timer.c **** * Summary:
 676:.\Generated_Source\PSoC4/SWB_Timer.c **** *  Writes the 16 bit period register with the new period value.
 677:.\Generated_Source\PSoC4/SWB_Timer.c **** *  To cause the counter to count for N cycles this register should be written
 678:.\Generated_Source\PSoC4/SWB_Timer.c **** *  with N-1 (counts from 0 to period inclusive).
 679:.\Generated_Source\PSoC4/SWB_Timer.c **** *
 680:.\Generated_Source\PSoC4/SWB_Timer.c **** * Parameters:
 681:.\Generated_Source\PSoC4/SWB_Timer.c **** *  period: Period value
 682:.\Generated_Source\PSoC4/SWB_Timer.c **** *
 683:.\Generated_Source\PSoC4/SWB_Timer.c **** * Return:
 684:.\Generated_Source\PSoC4/SWB_Timer.c **** *  None
 685:.\Generated_Source\PSoC4/SWB_Timer.c **** *
 686:.\Generated_Source\PSoC4/SWB_Timer.c **** *******************************************************************************/
 687:.\Generated_Source\PSoC4/SWB_Timer.c **** void SWB_Timer_WritePeriod(uint32 period)
 688:.\Generated_Source\PSoC4/SWB_Timer.c **** {
 866              		.loc 1 688 0
 867              		.cfi_startproc
 868 0000 80B5     		push	{r7, lr}
 869              		.cfi_def_cfa_offset 8
 870              		.cfi_offset 7, -8
 871              		.cfi_offset 14, -4
 872 0002 82B0     		sub	sp, sp, #8
 873              		.cfi_def_cfa_offset 16
 874 0004 00AF     		add	r7, sp, #0
 875              		.cfi_def_cfa_register 7
 876 0006 7860     		str	r0, [r7, #4]
 689:.\Generated_Source\PSoC4/SWB_Timer.c ****     SWB_Timer_PERIOD_REG = (period & SWB_Timer_16BIT_MASK);
 877              		.loc 1 689 0
 878 0008 034B     		ldr	r3, .L52
 879 000a 7A68     		ldr	r2, [r7, #4]
 880 000c 1204     		lsl	r2, r2, #16
 881 000e 120C     		lsr	r2, r2, #16
 882 0010 1A60     		str	r2, [r3]
 690:.\Generated_Source\PSoC4/SWB_Timer.c **** }
 883              		.loc 1 690 0
 884 0012 BD46     		mov	sp, r7
 885 0014 02B0     		add	sp, sp, #8
 886              		@ sp needed
 887 0016 80BD     		pop	{r7, pc}
 888              	.L53:
 889              		.align	2
 890              	.L52:
 891 0018 14010540 		.word	1074069780
 892              		.cfi_endproc
 893              	.LFE16:
 894              		.size	SWB_Timer_WritePeriod, .-SWB_Timer_WritePeriod
 895              		.section	.text.SWB_Timer_ReadPeriod,"ax",%progbits
 896              		.align	2
 897              		.global	SWB_Timer_ReadPeriod
 898              		.code	16
 899              		.thumb_func
 900              		.type	SWB_Timer_ReadPeriod, %function
 901              	SWB_Timer_ReadPeriod:
 902              	.LFB17:
 691:.\Generated_Source\PSoC4/SWB_Timer.c **** 
 692:.\Generated_Source\PSoC4/SWB_Timer.c **** 
 693:.\Generated_Source\PSoC4/SWB_Timer.c **** /*******************************************************************************
 694:.\Generated_Source\PSoC4/SWB_Timer.c **** * Function Name: SWB_Timer_ReadPeriod
ARM GAS  C:\Users\Admin\AppData\Local\Temp\cc5236K1.s 			page 29


 695:.\Generated_Source\PSoC4/SWB_Timer.c **** ********************************************************************************
 696:.\Generated_Source\PSoC4/SWB_Timer.c **** *
 697:.\Generated_Source\PSoC4/SWB_Timer.c **** * Summary:
 698:.\Generated_Source\PSoC4/SWB_Timer.c **** *  Reads the 16 bit period register.
 699:.\Generated_Source\PSoC4/SWB_Timer.c **** *
 700:.\Generated_Source\PSoC4/SWB_Timer.c **** * Parameters:
 701:.\Generated_Source\PSoC4/SWB_Timer.c **** *  None
 702:.\Generated_Source\PSoC4/SWB_Timer.c **** *
 703:.\Generated_Source\PSoC4/SWB_Timer.c **** * Return:
 704:.\Generated_Source\PSoC4/SWB_Timer.c **** *  Period value
 705:.\Generated_Source\PSoC4/SWB_Timer.c **** *
 706:.\Generated_Source\PSoC4/SWB_Timer.c **** *******************************************************************************/
 707:.\Generated_Source\PSoC4/SWB_Timer.c **** uint32 SWB_Timer_ReadPeriod(void)
 708:.\Generated_Source\PSoC4/SWB_Timer.c **** {
 903              		.loc 1 708 0
 904              		.cfi_startproc
 905 0000 80B5     		push	{r7, lr}
 906              		.cfi_def_cfa_offset 8
 907              		.cfi_offset 7, -8
 908              		.cfi_offset 14, -4
 909 0002 00AF     		add	r7, sp, #0
 910              		.cfi_def_cfa_register 7
 709:.\Generated_Source\PSoC4/SWB_Timer.c ****     return (SWB_Timer_PERIOD_REG & SWB_Timer_16BIT_MASK);
 911              		.loc 1 709 0
 912 0004 034B     		ldr	r3, .L56
 913 0006 1B68     		ldr	r3, [r3]
 914 0008 1B04     		lsl	r3, r3, #16
 915 000a 1B0C     		lsr	r3, r3, #16
 710:.\Generated_Source\PSoC4/SWB_Timer.c **** }
 916              		.loc 1 710 0
 917 000c 181C     		mov	r0, r3
 918 000e BD46     		mov	sp, r7
 919              		@ sp needed
 920 0010 80BD     		pop	{r7, pc}
 921              	.L57:
 922 0012 C046     		.align	2
 923              	.L56:
 924 0014 14010540 		.word	1074069780
 925              		.cfi_endproc
 926              	.LFE17:
 927              		.size	SWB_Timer_ReadPeriod, .-SWB_Timer_ReadPeriod
 928              		.section	.text.SWB_Timer_SetCompareSwap,"ax",%progbits
 929              		.align	2
 930              		.global	SWB_Timer_SetCompareSwap
 931              		.code	16
 932              		.thumb_func
 933              		.type	SWB_Timer_SetCompareSwap, %function
 934              	SWB_Timer_SetCompareSwap:
 935              	.LFB18:
 711:.\Generated_Source\PSoC4/SWB_Timer.c **** 
 712:.\Generated_Source\PSoC4/SWB_Timer.c **** 
 713:.\Generated_Source\PSoC4/SWB_Timer.c **** /*******************************************************************************
 714:.\Generated_Source\PSoC4/SWB_Timer.c **** * Function Name: SWB_Timer_SetCompareSwap
 715:.\Generated_Source\PSoC4/SWB_Timer.c **** ********************************************************************************
 716:.\Generated_Source\PSoC4/SWB_Timer.c **** *
 717:.\Generated_Source\PSoC4/SWB_Timer.c **** * Summary:
 718:.\Generated_Source\PSoC4/SWB_Timer.c **** *  Writes the register that controls whether the compare registers are
ARM GAS  C:\Users\Admin\AppData\Local\Temp\cc5236K1.s 			page 30


 719:.\Generated_Source\PSoC4/SWB_Timer.c **** *  swapped. When enabled in the Timer/Counter mode(without capture) the swap
 720:.\Generated_Source\PSoC4/SWB_Timer.c **** *  occurs at a TC event. In the PWM mode the swap occurs at the next TC event
 721:.\Generated_Source\PSoC4/SWB_Timer.c **** *  following a hardware switch event.
 722:.\Generated_Source\PSoC4/SWB_Timer.c **** *
 723:.\Generated_Source\PSoC4/SWB_Timer.c **** * Parameters:
 724:.\Generated_Source\PSoC4/SWB_Timer.c **** *  swapEnable
 725:.\Generated_Source\PSoC4/SWB_Timer.c **** *   Values:
 726:.\Generated_Source\PSoC4/SWB_Timer.c **** *     - 0 - Disable swap
 727:.\Generated_Source\PSoC4/SWB_Timer.c **** *     - 1 - Enable swap
 728:.\Generated_Source\PSoC4/SWB_Timer.c **** *
 729:.\Generated_Source\PSoC4/SWB_Timer.c **** * Return:
 730:.\Generated_Source\PSoC4/SWB_Timer.c **** *  None
 731:.\Generated_Source\PSoC4/SWB_Timer.c **** *
 732:.\Generated_Source\PSoC4/SWB_Timer.c **** *******************************************************************************/
 733:.\Generated_Source\PSoC4/SWB_Timer.c **** void SWB_Timer_SetCompareSwap(uint32 swapEnable)
 734:.\Generated_Source\PSoC4/SWB_Timer.c **** {
 936              		.loc 1 734 0
 937              		.cfi_startproc
 938 0000 90B5     		push	{r4, r7, lr}
 939              		.cfi_def_cfa_offset 12
 940              		.cfi_offset 4, -12
 941              		.cfi_offset 7, -8
 942              		.cfi_offset 14, -4
 943 0002 85B0     		sub	sp, sp, #20
 944              		.cfi_def_cfa_offset 32
 945 0004 00AF     		add	r7, sp, #0
 946              		.cfi_def_cfa_register 7
 947 0006 7860     		str	r0, [r7, #4]
 735:.\Generated_Source\PSoC4/SWB_Timer.c ****     uint8 enableInterrupts;
 736:.\Generated_Source\PSoC4/SWB_Timer.c **** 
 737:.\Generated_Source\PSoC4/SWB_Timer.c ****     enableInterrupts = CyEnterCriticalSection();
 948              		.loc 1 737 0
 949 0008 3C1C     		mov	r4, r7
 950 000a 0F34     		add	r4, r4, #15
 951 000c FFF7FEFF 		bl	CyEnterCriticalSection
 952 0010 031C     		mov	r3, r0
 953 0012 2370     		strb	r3, [r4]
 738:.\Generated_Source\PSoC4/SWB_Timer.c **** 
 739:.\Generated_Source\PSoC4/SWB_Timer.c ****     SWB_Timer_CONTROL_REG &= (uint32)~SWB_Timer_RELOAD_CC_MASK;
 954              		.loc 1 739 0
 955 0014 0B4B     		ldr	r3, .L59
 956 0016 0B4A     		ldr	r2, .L59
 957 0018 1268     		ldr	r2, [r2]
 958 001a 0121     		mov	r1, #1
 959 001c 8A43     		bic	r2, r1
 960 001e 1A60     		str	r2, [r3]
 740:.\Generated_Source\PSoC4/SWB_Timer.c ****     SWB_Timer_CONTROL_REG |= (swapEnable & SWB_Timer_1BIT_MASK);
 961              		.loc 1 740 0
 962 0020 084B     		ldr	r3, .L59
 963 0022 084A     		ldr	r2, .L59
 964 0024 1168     		ldr	r1, [r2]
 965 0026 7868     		ldr	r0, [r7, #4]
 966 0028 0122     		mov	r2, #1
 967 002a 0240     		and	r2, r0
 968 002c 0A43     		orr	r2, r1
 969 002e 1A60     		str	r2, [r3]
 741:.\Generated_Source\PSoC4/SWB_Timer.c **** 
ARM GAS  C:\Users\Admin\AppData\Local\Temp\cc5236K1.s 			page 31


 742:.\Generated_Source\PSoC4/SWB_Timer.c ****     CyExitCriticalSection(enableInterrupts);
 970              		.loc 1 742 0
 971 0030 3B1C     		mov	r3, r7
 972 0032 0F33     		add	r3, r3, #15
 973 0034 1B78     		ldrb	r3, [r3]
 974 0036 181C     		mov	r0, r3
 975 0038 FFF7FEFF 		bl	CyExitCriticalSection
 743:.\Generated_Source\PSoC4/SWB_Timer.c **** }
 976              		.loc 1 743 0
 977 003c BD46     		mov	sp, r7
 978 003e 05B0     		add	sp, sp, #20
 979              		@ sp needed
 980 0040 90BD     		pop	{r4, r7, pc}
 981              	.L60:
 982 0042 C046     		.align	2
 983              	.L59:
 984 0044 00010540 		.word	1074069760
 985              		.cfi_endproc
 986              	.LFE18:
 987              		.size	SWB_Timer_SetCompareSwap, .-SWB_Timer_SetCompareSwap
 988              		.section	.text.SWB_Timer_WritePeriodBuf,"ax",%progbits
 989              		.align	2
 990              		.global	SWB_Timer_WritePeriodBuf
 991              		.code	16
 992              		.thumb_func
 993              		.type	SWB_Timer_WritePeriodBuf, %function
 994              	SWB_Timer_WritePeriodBuf:
 995              	.LFB19:
 744:.\Generated_Source\PSoC4/SWB_Timer.c **** 
 745:.\Generated_Source\PSoC4/SWB_Timer.c **** 
 746:.\Generated_Source\PSoC4/SWB_Timer.c **** /*******************************************************************************
 747:.\Generated_Source\PSoC4/SWB_Timer.c **** * Function Name: SWB_Timer_WritePeriodBuf
 748:.\Generated_Source\PSoC4/SWB_Timer.c **** ********************************************************************************
 749:.\Generated_Source\PSoC4/SWB_Timer.c **** *
 750:.\Generated_Source\PSoC4/SWB_Timer.c **** * Summary:
 751:.\Generated_Source\PSoC4/SWB_Timer.c **** *  Writes the 16 bit period buf register with the new period value.
 752:.\Generated_Source\PSoC4/SWB_Timer.c **** *
 753:.\Generated_Source\PSoC4/SWB_Timer.c **** * Parameters:
 754:.\Generated_Source\PSoC4/SWB_Timer.c **** *  periodBuf: Period value
 755:.\Generated_Source\PSoC4/SWB_Timer.c **** *
 756:.\Generated_Source\PSoC4/SWB_Timer.c **** * Return:
 757:.\Generated_Source\PSoC4/SWB_Timer.c **** *  None
 758:.\Generated_Source\PSoC4/SWB_Timer.c **** *
 759:.\Generated_Source\PSoC4/SWB_Timer.c **** *******************************************************************************/
 760:.\Generated_Source\PSoC4/SWB_Timer.c **** void SWB_Timer_WritePeriodBuf(uint32 periodBuf)
 761:.\Generated_Source\PSoC4/SWB_Timer.c **** {
 996              		.loc 1 761 0
 997              		.cfi_startproc
 998 0000 80B5     		push	{r7, lr}
 999              		.cfi_def_cfa_offset 8
 1000              		.cfi_offset 7, -8
 1001              		.cfi_offset 14, -4
 1002 0002 82B0     		sub	sp, sp, #8
 1003              		.cfi_def_cfa_offset 16
 1004 0004 00AF     		add	r7, sp, #0
 1005              		.cfi_def_cfa_register 7
 1006 0006 7860     		str	r0, [r7, #4]
ARM GAS  C:\Users\Admin\AppData\Local\Temp\cc5236K1.s 			page 32


 762:.\Generated_Source\PSoC4/SWB_Timer.c ****     SWB_Timer_PERIOD_BUF_REG = (periodBuf & SWB_Timer_16BIT_MASK);
 1007              		.loc 1 762 0
 1008 0008 034B     		ldr	r3, .L62
 1009 000a 7A68     		ldr	r2, [r7, #4]
 1010 000c 1204     		lsl	r2, r2, #16
 1011 000e 120C     		lsr	r2, r2, #16
 1012 0010 1A60     		str	r2, [r3]
 763:.\Generated_Source\PSoC4/SWB_Timer.c **** }
 1013              		.loc 1 763 0
 1014 0012 BD46     		mov	sp, r7
 1015 0014 02B0     		add	sp, sp, #8
 1016              		@ sp needed
 1017 0016 80BD     		pop	{r7, pc}
 1018              	.L63:
 1019              		.align	2
 1020              	.L62:
 1021 0018 18010540 		.word	1074069784
 1022              		.cfi_endproc
 1023              	.LFE19:
 1024              		.size	SWB_Timer_WritePeriodBuf, .-SWB_Timer_WritePeriodBuf
 1025              		.section	.text.SWB_Timer_ReadPeriodBuf,"ax",%progbits
 1026              		.align	2
 1027              		.global	SWB_Timer_ReadPeriodBuf
 1028              		.code	16
 1029              		.thumb_func
 1030              		.type	SWB_Timer_ReadPeriodBuf, %function
 1031              	SWB_Timer_ReadPeriodBuf:
 1032              	.LFB20:
 764:.\Generated_Source\PSoC4/SWB_Timer.c **** 
 765:.\Generated_Source\PSoC4/SWB_Timer.c **** 
 766:.\Generated_Source\PSoC4/SWB_Timer.c **** /*******************************************************************************
 767:.\Generated_Source\PSoC4/SWB_Timer.c **** * Function Name: SWB_Timer_ReadPeriodBuf
 768:.\Generated_Source\PSoC4/SWB_Timer.c **** ********************************************************************************
 769:.\Generated_Source\PSoC4/SWB_Timer.c **** *
 770:.\Generated_Source\PSoC4/SWB_Timer.c **** * Summary:
 771:.\Generated_Source\PSoC4/SWB_Timer.c **** *  Reads the 16 bit period buf register.
 772:.\Generated_Source\PSoC4/SWB_Timer.c **** *
 773:.\Generated_Source\PSoC4/SWB_Timer.c **** * Parameters:
 774:.\Generated_Source\PSoC4/SWB_Timer.c **** *  None
 775:.\Generated_Source\PSoC4/SWB_Timer.c **** *
 776:.\Generated_Source\PSoC4/SWB_Timer.c **** * Return:
 777:.\Generated_Source\PSoC4/SWB_Timer.c **** *  Period value
 778:.\Generated_Source\PSoC4/SWB_Timer.c **** *
 779:.\Generated_Source\PSoC4/SWB_Timer.c **** *******************************************************************************/
 780:.\Generated_Source\PSoC4/SWB_Timer.c **** uint32 SWB_Timer_ReadPeriodBuf(void)
 781:.\Generated_Source\PSoC4/SWB_Timer.c **** {
 1033              		.loc 1 781 0
 1034              		.cfi_startproc
 1035 0000 80B5     		push	{r7, lr}
 1036              		.cfi_def_cfa_offset 8
 1037              		.cfi_offset 7, -8
 1038              		.cfi_offset 14, -4
 1039 0002 00AF     		add	r7, sp, #0
 1040              		.cfi_def_cfa_register 7
 782:.\Generated_Source\PSoC4/SWB_Timer.c ****     return (SWB_Timer_PERIOD_BUF_REG & SWB_Timer_16BIT_MASK);
 1041              		.loc 1 782 0
 1042 0004 034B     		ldr	r3, .L66
ARM GAS  C:\Users\Admin\AppData\Local\Temp\cc5236K1.s 			page 33


 1043 0006 1B68     		ldr	r3, [r3]
 1044 0008 1B04     		lsl	r3, r3, #16
 1045 000a 1B0C     		lsr	r3, r3, #16
 783:.\Generated_Source\PSoC4/SWB_Timer.c **** }
 1046              		.loc 1 783 0
 1047 000c 181C     		mov	r0, r3
 1048 000e BD46     		mov	sp, r7
 1049              		@ sp needed
 1050 0010 80BD     		pop	{r7, pc}
 1051              	.L67:
 1052 0012 C046     		.align	2
 1053              	.L66:
 1054 0014 18010540 		.word	1074069784
 1055              		.cfi_endproc
 1056              	.LFE20:
 1057              		.size	SWB_Timer_ReadPeriodBuf, .-SWB_Timer_ReadPeriodBuf
 1058              		.section	.text.SWB_Timer_SetPeriodSwap,"ax",%progbits
 1059              		.align	2
 1060              		.global	SWB_Timer_SetPeriodSwap
 1061              		.code	16
 1062              		.thumb_func
 1063              		.type	SWB_Timer_SetPeriodSwap, %function
 1064              	SWB_Timer_SetPeriodSwap:
 1065              	.LFB21:
 784:.\Generated_Source\PSoC4/SWB_Timer.c **** 
 785:.\Generated_Source\PSoC4/SWB_Timer.c **** 
 786:.\Generated_Source\PSoC4/SWB_Timer.c **** /*******************************************************************************
 787:.\Generated_Source\PSoC4/SWB_Timer.c **** * Function Name: SWB_Timer_SetPeriodSwap
 788:.\Generated_Source\PSoC4/SWB_Timer.c **** ********************************************************************************
 789:.\Generated_Source\PSoC4/SWB_Timer.c **** *
 790:.\Generated_Source\PSoC4/SWB_Timer.c **** * Summary:
 791:.\Generated_Source\PSoC4/SWB_Timer.c **** *  Writes the register that controls whether the period registers are
 792:.\Generated_Source\PSoC4/SWB_Timer.c **** *  swapped. When enabled in Timer/Counter mode the swap occurs at a TC event.
 793:.\Generated_Source\PSoC4/SWB_Timer.c **** *  In the PWM mode the swap occurs at the next TC event following a hardware
 794:.\Generated_Source\PSoC4/SWB_Timer.c **** *  switch event.
 795:.\Generated_Source\PSoC4/SWB_Timer.c **** *
 796:.\Generated_Source\PSoC4/SWB_Timer.c **** * Parameters:
 797:.\Generated_Source\PSoC4/SWB_Timer.c **** *  swapEnable
 798:.\Generated_Source\PSoC4/SWB_Timer.c **** *   Values:
 799:.\Generated_Source\PSoC4/SWB_Timer.c **** *     - 0 - Disable swap
 800:.\Generated_Source\PSoC4/SWB_Timer.c **** *     - 1 - Enable swap
 801:.\Generated_Source\PSoC4/SWB_Timer.c **** *
 802:.\Generated_Source\PSoC4/SWB_Timer.c **** * Return:
 803:.\Generated_Source\PSoC4/SWB_Timer.c **** *  None
 804:.\Generated_Source\PSoC4/SWB_Timer.c **** *
 805:.\Generated_Source\PSoC4/SWB_Timer.c **** *******************************************************************************/
 806:.\Generated_Source\PSoC4/SWB_Timer.c **** void SWB_Timer_SetPeriodSwap(uint32 swapEnable)
 807:.\Generated_Source\PSoC4/SWB_Timer.c **** {
 1066              		.loc 1 807 0
 1067              		.cfi_startproc
 1068 0000 90B5     		push	{r4, r7, lr}
 1069              		.cfi_def_cfa_offset 12
 1070              		.cfi_offset 4, -12
 1071              		.cfi_offset 7, -8
 1072              		.cfi_offset 14, -4
 1073 0002 85B0     		sub	sp, sp, #20
 1074              		.cfi_def_cfa_offset 32
ARM GAS  C:\Users\Admin\AppData\Local\Temp\cc5236K1.s 			page 34


 1075 0004 00AF     		add	r7, sp, #0
 1076              		.cfi_def_cfa_register 7
 1077 0006 7860     		str	r0, [r7, #4]
 808:.\Generated_Source\PSoC4/SWB_Timer.c ****     uint8 enableInterrupts;
 809:.\Generated_Source\PSoC4/SWB_Timer.c **** 
 810:.\Generated_Source\PSoC4/SWB_Timer.c ****     enableInterrupts = CyEnterCriticalSection();
 1078              		.loc 1 810 0
 1079 0008 3C1C     		mov	r4, r7
 1080 000a 0F34     		add	r4, r4, #15
 1081 000c FFF7FEFF 		bl	CyEnterCriticalSection
 1082 0010 031C     		mov	r3, r0
 1083 0012 2370     		strb	r3, [r4]
 811:.\Generated_Source\PSoC4/SWB_Timer.c **** 
 812:.\Generated_Source\PSoC4/SWB_Timer.c ****     SWB_Timer_CONTROL_REG &= (uint32)~SWB_Timer_RELOAD_PERIOD_MASK;
 1084              		.loc 1 812 0
 1085 0014 0B4B     		ldr	r3, .L69
 1086 0016 0B4A     		ldr	r2, .L69
 1087 0018 1268     		ldr	r2, [r2]
 1088 001a 0221     		mov	r1, #2
 1089 001c 8A43     		bic	r2, r1
 1090 001e 1A60     		str	r2, [r3]
 813:.\Generated_Source\PSoC4/SWB_Timer.c ****     SWB_Timer_CONTROL_REG |= ((uint32)((swapEnable & SWB_Timer_1BIT_MASK) <<
 1091              		.loc 1 813 0
 1092 0020 084B     		ldr	r3, .L69
 1093 0022 084A     		ldr	r2, .L69
 1094 0024 1168     		ldr	r1, [r2]
 1095 0026 7868     		ldr	r0, [r7, #4]
 1096 0028 0122     		mov	r2, #1
 1097 002a 0240     		and	r2, r0
 1098 002c 5200     		lsl	r2, r2, #1
 1099 002e 0A43     		orr	r2, r1
 1100 0030 1A60     		str	r2, [r3]
 814:.\Generated_Source\PSoC4/SWB_Timer.c ****                                                             SWB_Timer_RELOAD_PERIOD_SHIFT));
 815:.\Generated_Source\PSoC4/SWB_Timer.c **** 
 816:.\Generated_Source\PSoC4/SWB_Timer.c ****     CyExitCriticalSection(enableInterrupts);
 1101              		.loc 1 816 0
 1102 0032 3B1C     		mov	r3, r7
 1103 0034 0F33     		add	r3, r3, #15
 1104 0036 1B78     		ldrb	r3, [r3]
 1105 0038 181C     		mov	r0, r3
 1106 003a FFF7FEFF 		bl	CyExitCriticalSection
 817:.\Generated_Source\PSoC4/SWB_Timer.c **** }
 1107              		.loc 1 817 0
 1108 003e BD46     		mov	sp, r7
 1109 0040 05B0     		add	sp, sp, #20
 1110              		@ sp needed
 1111 0042 90BD     		pop	{r4, r7, pc}
 1112              	.L70:
 1113              		.align	2
 1114              	.L69:
 1115 0044 00010540 		.word	1074069760
 1116              		.cfi_endproc
 1117              	.LFE21:
 1118              		.size	SWB_Timer_SetPeriodSwap, .-SWB_Timer_SetPeriodSwap
 1119              		.section	.text.SWB_Timer_WriteCompare,"ax",%progbits
 1120              		.align	2
 1121              		.global	SWB_Timer_WriteCompare
ARM GAS  C:\Users\Admin\AppData\Local\Temp\cc5236K1.s 			page 35


 1122              		.code	16
 1123              		.thumb_func
 1124              		.type	SWB_Timer_WriteCompare, %function
 1125              	SWB_Timer_WriteCompare:
 1126              	.LFB22:
 818:.\Generated_Source\PSoC4/SWB_Timer.c **** 
 819:.\Generated_Source\PSoC4/SWB_Timer.c **** 
 820:.\Generated_Source\PSoC4/SWB_Timer.c **** /*******************************************************************************
 821:.\Generated_Source\PSoC4/SWB_Timer.c **** * Function Name: SWB_Timer_WriteCompare
 822:.\Generated_Source\PSoC4/SWB_Timer.c **** ********************************************************************************
 823:.\Generated_Source\PSoC4/SWB_Timer.c **** *
 824:.\Generated_Source\PSoC4/SWB_Timer.c **** * Summary:
 825:.\Generated_Source\PSoC4/SWB_Timer.c **** *  Writes the 16 bit compare register with the new compare value. Not
 826:.\Generated_Source\PSoC4/SWB_Timer.c **** *  applicable for Timer/Counter with Capture or in Quadrature Decoder modes.
 827:.\Generated_Source\PSoC4/SWB_Timer.c **** *
 828:.\Generated_Source\PSoC4/SWB_Timer.c **** * Parameters:
 829:.\Generated_Source\PSoC4/SWB_Timer.c **** *  compare: Compare value
 830:.\Generated_Source\PSoC4/SWB_Timer.c **** *
 831:.\Generated_Source\PSoC4/SWB_Timer.c **** * Return:
 832:.\Generated_Source\PSoC4/SWB_Timer.c **** *  None
 833:.\Generated_Source\PSoC4/SWB_Timer.c **** *
 834:.\Generated_Source\PSoC4/SWB_Timer.c **** *******************************************************************************/
 835:.\Generated_Source\PSoC4/SWB_Timer.c **** void SWB_Timer_WriteCompare(uint32 compare)
 836:.\Generated_Source\PSoC4/SWB_Timer.c **** {
 1127              		.loc 1 836 0
 1128              		.cfi_startproc
 1129 0000 80B5     		push	{r7, lr}
 1130              		.cfi_def_cfa_offset 8
 1131              		.cfi_offset 7, -8
 1132              		.cfi_offset 14, -4
 1133 0002 82B0     		sub	sp, sp, #8
 1134              		.cfi_def_cfa_offset 16
 1135 0004 00AF     		add	r7, sp, #0
 1136              		.cfi_def_cfa_register 7
 1137 0006 7860     		str	r0, [r7, #4]
 837:.\Generated_Source\PSoC4/SWB_Timer.c ****     #if (SWB_Timer_CY_TCPWM_4000)
 838:.\Generated_Source\PSoC4/SWB_Timer.c ****         uint32 currentMode;
 839:.\Generated_Source\PSoC4/SWB_Timer.c ****     #endif /* (SWB_Timer_CY_TCPWM_4000) */
 840:.\Generated_Source\PSoC4/SWB_Timer.c **** 
 841:.\Generated_Source\PSoC4/SWB_Timer.c ****     #if (SWB_Timer_CY_TCPWM_4000)
 842:.\Generated_Source\PSoC4/SWB_Timer.c ****         currentMode = ((SWB_Timer_CONTROL_REG & SWB_Timer_UPDOWN_MASK) >> SWB_Timer_UPDOWN_SHIFT);
 843:.\Generated_Source\PSoC4/SWB_Timer.c **** 
 844:.\Generated_Source\PSoC4/SWB_Timer.c ****         if (((uint32)SWB_Timer__COUNT_DOWN == currentMode) && (0xFFFFu != compare))
 845:.\Generated_Source\PSoC4/SWB_Timer.c ****         {
 846:.\Generated_Source\PSoC4/SWB_Timer.c ****             compare++;
 847:.\Generated_Source\PSoC4/SWB_Timer.c ****         }
 848:.\Generated_Source\PSoC4/SWB_Timer.c ****         else if (((uint32)SWB_Timer__COUNT_UP == currentMode) && (0u != compare))
 849:.\Generated_Source\PSoC4/SWB_Timer.c ****         {
 850:.\Generated_Source\PSoC4/SWB_Timer.c ****             compare--;
 851:.\Generated_Source\PSoC4/SWB_Timer.c ****         }
 852:.\Generated_Source\PSoC4/SWB_Timer.c ****         else
 853:.\Generated_Source\PSoC4/SWB_Timer.c ****         {
 854:.\Generated_Source\PSoC4/SWB_Timer.c ****         }
 855:.\Generated_Source\PSoC4/SWB_Timer.c ****         
 856:.\Generated_Source\PSoC4/SWB_Timer.c ****     
 857:.\Generated_Source\PSoC4/SWB_Timer.c ****     #endif /* (SWB_Timer_CY_TCPWM_4000) */
 858:.\Generated_Source\PSoC4/SWB_Timer.c ****     
ARM GAS  C:\Users\Admin\AppData\Local\Temp\cc5236K1.s 			page 36


 859:.\Generated_Source\PSoC4/SWB_Timer.c ****     SWB_Timer_COMP_CAP_REG = (compare & SWB_Timer_16BIT_MASK);
 1138              		.loc 1 859 0
 1139 0008 034B     		ldr	r3, .L72
 1140 000a 7A68     		ldr	r2, [r7, #4]
 1141 000c 1204     		lsl	r2, r2, #16
 1142 000e 120C     		lsr	r2, r2, #16
 1143 0010 1A60     		str	r2, [r3]
 860:.\Generated_Source\PSoC4/SWB_Timer.c **** }
 1144              		.loc 1 860 0
 1145 0012 BD46     		mov	sp, r7
 1146 0014 02B0     		add	sp, sp, #8
 1147              		@ sp needed
 1148 0016 80BD     		pop	{r7, pc}
 1149              	.L73:
 1150              		.align	2
 1151              	.L72:
 1152 0018 0C010540 		.word	1074069772
 1153              		.cfi_endproc
 1154              	.LFE22:
 1155              		.size	SWB_Timer_WriteCompare, .-SWB_Timer_WriteCompare
 1156              		.section	.text.SWB_Timer_ReadCompare,"ax",%progbits
 1157              		.align	2
 1158              		.global	SWB_Timer_ReadCompare
 1159              		.code	16
 1160              		.thumb_func
 1161              		.type	SWB_Timer_ReadCompare, %function
 1162              	SWB_Timer_ReadCompare:
 1163              	.LFB23:
 861:.\Generated_Source\PSoC4/SWB_Timer.c **** 
 862:.\Generated_Source\PSoC4/SWB_Timer.c **** 
 863:.\Generated_Source\PSoC4/SWB_Timer.c **** /*******************************************************************************
 864:.\Generated_Source\PSoC4/SWB_Timer.c **** * Function Name: SWB_Timer_ReadCompare
 865:.\Generated_Source\PSoC4/SWB_Timer.c **** ********************************************************************************
 866:.\Generated_Source\PSoC4/SWB_Timer.c **** *
 867:.\Generated_Source\PSoC4/SWB_Timer.c **** * Summary:
 868:.\Generated_Source\PSoC4/SWB_Timer.c **** *  Reads the compare register. Not applicable for Timer/Counter with Capture
 869:.\Generated_Source\PSoC4/SWB_Timer.c **** *  or in Quadrature Decoder modes.
 870:.\Generated_Source\PSoC4/SWB_Timer.c **** *
 871:.\Generated_Source\PSoC4/SWB_Timer.c **** * Parameters:
 872:.\Generated_Source\PSoC4/SWB_Timer.c **** *  None
 873:.\Generated_Source\PSoC4/SWB_Timer.c **** *
 874:.\Generated_Source\PSoC4/SWB_Timer.c **** * Return:
 875:.\Generated_Source\PSoC4/SWB_Timer.c **** *  Compare value
 876:.\Generated_Source\PSoC4/SWB_Timer.c **** *
 877:.\Generated_Source\PSoC4/SWB_Timer.c **** *******************************************************************************/
 878:.\Generated_Source\PSoC4/SWB_Timer.c **** uint32 SWB_Timer_ReadCompare(void)
 879:.\Generated_Source\PSoC4/SWB_Timer.c **** {
 1164              		.loc 1 879 0
 1165              		.cfi_startproc
 1166 0000 80B5     		push	{r7, lr}
 1167              		.cfi_def_cfa_offset 8
 1168              		.cfi_offset 7, -8
 1169              		.cfi_offset 14, -4
 1170 0002 00AF     		add	r7, sp, #0
 1171              		.cfi_def_cfa_register 7
 880:.\Generated_Source\PSoC4/SWB_Timer.c ****     #if (SWB_Timer_CY_TCPWM_4000)
 881:.\Generated_Source\PSoC4/SWB_Timer.c ****         uint32 currentMode;
ARM GAS  C:\Users\Admin\AppData\Local\Temp\cc5236K1.s 			page 37


 882:.\Generated_Source\PSoC4/SWB_Timer.c ****         uint32 regVal;
 883:.\Generated_Source\PSoC4/SWB_Timer.c ****     #endif /* (SWB_Timer_CY_TCPWM_4000) */
 884:.\Generated_Source\PSoC4/SWB_Timer.c **** 
 885:.\Generated_Source\PSoC4/SWB_Timer.c ****     #if (SWB_Timer_CY_TCPWM_4000)
 886:.\Generated_Source\PSoC4/SWB_Timer.c ****         currentMode = ((SWB_Timer_CONTROL_REG & SWB_Timer_UPDOWN_MASK) >> SWB_Timer_UPDOWN_SHIFT);
 887:.\Generated_Source\PSoC4/SWB_Timer.c ****         
 888:.\Generated_Source\PSoC4/SWB_Timer.c ****         regVal = SWB_Timer_COMP_CAP_REG;
 889:.\Generated_Source\PSoC4/SWB_Timer.c ****         
 890:.\Generated_Source\PSoC4/SWB_Timer.c ****         if (((uint32)SWB_Timer__COUNT_DOWN == currentMode) && (0u != regVal))
 891:.\Generated_Source\PSoC4/SWB_Timer.c ****         {
 892:.\Generated_Source\PSoC4/SWB_Timer.c ****             regVal--;
 893:.\Generated_Source\PSoC4/SWB_Timer.c ****         }
 894:.\Generated_Source\PSoC4/SWB_Timer.c ****         else if (((uint32)SWB_Timer__COUNT_UP == currentMode) && (0xFFFFu != regVal))
 895:.\Generated_Source\PSoC4/SWB_Timer.c ****         {
 896:.\Generated_Source\PSoC4/SWB_Timer.c ****             regVal++;
 897:.\Generated_Source\PSoC4/SWB_Timer.c ****         }
 898:.\Generated_Source\PSoC4/SWB_Timer.c ****         else
 899:.\Generated_Source\PSoC4/SWB_Timer.c ****         {
 900:.\Generated_Source\PSoC4/SWB_Timer.c ****         }
 901:.\Generated_Source\PSoC4/SWB_Timer.c **** 
 902:.\Generated_Source\PSoC4/SWB_Timer.c ****         return (regVal & SWB_Timer_16BIT_MASK);
 903:.\Generated_Source\PSoC4/SWB_Timer.c ****     #else
 904:.\Generated_Source\PSoC4/SWB_Timer.c ****         return (SWB_Timer_COMP_CAP_REG & SWB_Timer_16BIT_MASK);
 1172              		.loc 1 904 0
 1173 0004 034B     		ldr	r3, .L76
 1174 0006 1B68     		ldr	r3, [r3]
 1175 0008 1B04     		lsl	r3, r3, #16
 1176 000a 1B0C     		lsr	r3, r3, #16
 905:.\Generated_Source\PSoC4/SWB_Timer.c ****     #endif /* (SWB_Timer_CY_TCPWM_4000) */
 906:.\Generated_Source\PSoC4/SWB_Timer.c **** }
 1177              		.loc 1 906 0
 1178 000c 181C     		mov	r0, r3
 1179 000e BD46     		mov	sp, r7
 1180              		@ sp needed
 1181 0010 80BD     		pop	{r7, pc}
 1182              	.L77:
 1183 0012 C046     		.align	2
 1184              	.L76:
 1185 0014 0C010540 		.word	1074069772
 1186              		.cfi_endproc
 1187              	.LFE23:
 1188              		.size	SWB_Timer_ReadCompare, .-SWB_Timer_ReadCompare
 1189              		.section	.text.SWB_Timer_WriteCompareBuf,"ax",%progbits
 1190              		.align	2
 1191              		.global	SWB_Timer_WriteCompareBuf
 1192              		.code	16
 1193              		.thumb_func
 1194              		.type	SWB_Timer_WriteCompareBuf, %function
 1195              	SWB_Timer_WriteCompareBuf:
 1196              	.LFB24:
 907:.\Generated_Source\PSoC4/SWB_Timer.c **** 
 908:.\Generated_Source\PSoC4/SWB_Timer.c **** 
 909:.\Generated_Source\PSoC4/SWB_Timer.c **** /*******************************************************************************
 910:.\Generated_Source\PSoC4/SWB_Timer.c **** * Function Name: SWB_Timer_WriteCompareBuf
 911:.\Generated_Source\PSoC4/SWB_Timer.c **** ********************************************************************************
 912:.\Generated_Source\PSoC4/SWB_Timer.c **** *
 913:.\Generated_Source\PSoC4/SWB_Timer.c **** * Summary:
ARM GAS  C:\Users\Admin\AppData\Local\Temp\cc5236K1.s 			page 38


 914:.\Generated_Source\PSoC4/SWB_Timer.c **** *  Writes the 16 bit compare buffer register with the new compare value. Not
 915:.\Generated_Source\PSoC4/SWB_Timer.c **** *  applicable for Timer/Counter with Capture or in Quadrature Decoder modes.
 916:.\Generated_Source\PSoC4/SWB_Timer.c **** *
 917:.\Generated_Source\PSoC4/SWB_Timer.c **** * Parameters:
 918:.\Generated_Source\PSoC4/SWB_Timer.c **** *  compareBuf: Compare value
 919:.\Generated_Source\PSoC4/SWB_Timer.c **** *
 920:.\Generated_Source\PSoC4/SWB_Timer.c **** * Return:
 921:.\Generated_Source\PSoC4/SWB_Timer.c **** *  None
 922:.\Generated_Source\PSoC4/SWB_Timer.c **** *
 923:.\Generated_Source\PSoC4/SWB_Timer.c **** *******************************************************************************/
 924:.\Generated_Source\PSoC4/SWB_Timer.c **** void SWB_Timer_WriteCompareBuf(uint32 compareBuf)
 925:.\Generated_Source\PSoC4/SWB_Timer.c **** {
 1197              		.loc 1 925 0
 1198              		.cfi_startproc
 1199 0000 80B5     		push	{r7, lr}
 1200              		.cfi_def_cfa_offset 8
 1201              		.cfi_offset 7, -8
 1202              		.cfi_offset 14, -4
 1203 0002 82B0     		sub	sp, sp, #8
 1204              		.cfi_def_cfa_offset 16
 1205 0004 00AF     		add	r7, sp, #0
 1206              		.cfi_def_cfa_register 7
 1207 0006 7860     		str	r0, [r7, #4]
 926:.\Generated_Source\PSoC4/SWB_Timer.c ****     #if (SWB_Timer_CY_TCPWM_4000)
 927:.\Generated_Source\PSoC4/SWB_Timer.c ****         uint32 currentMode;
 928:.\Generated_Source\PSoC4/SWB_Timer.c ****     #endif /* (SWB_Timer_CY_TCPWM_4000) */
 929:.\Generated_Source\PSoC4/SWB_Timer.c **** 
 930:.\Generated_Source\PSoC4/SWB_Timer.c ****     #if (SWB_Timer_CY_TCPWM_4000)
 931:.\Generated_Source\PSoC4/SWB_Timer.c ****         currentMode = ((SWB_Timer_CONTROL_REG & SWB_Timer_UPDOWN_MASK) >> SWB_Timer_UPDOWN_SHIFT);
 932:.\Generated_Source\PSoC4/SWB_Timer.c **** 
 933:.\Generated_Source\PSoC4/SWB_Timer.c ****         if (((uint32)SWB_Timer__COUNT_DOWN == currentMode) && (0xFFFFu != compareBuf))
 934:.\Generated_Source\PSoC4/SWB_Timer.c ****         {
 935:.\Generated_Source\PSoC4/SWB_Timer.c ****             compareBuf++;
 936:.\Generated_Source\PSoC4/SWB_Timer.c ****         }
 937:.\Generated_Source\PSoC4/SWB_Timer.c ****         else if (((uint32)SWB_Timer__COUNT_UP == currentMode) && (0u != compareBuf))
 938:.\Generated_Source\PSoC4/SWB_Timer.c ****         {
 939:.\Generated_Source\PSoC4/SWB_Timer.c ****             compareBuf --;
 940:.\Generated_Source\PSoC4/SWB_Timer.c ****         }
 941:.\Generated_Source\PSoC4/SWB_Timer.c ****         else
 942:.\Generated_Source\PSoC4/SWB_Timer.c ****         {
 943:.\Generated_Source\PSoC4/SWB_Timer.c ****         }
 944:.\Generated_Source\PSoC4/SWB_Timer.c ****     #endif /* (SWB_Timer_CY_TCPWM_4000) */
 945:.\Generated_Source\PSoC4/SWB_Timer.c ****     
 946:.\Generated_Source\PSoC4/SWB_Timer.c ****     SWB_Timer_COMP_CAP_BUF_REG = (compareBuf & SWB_Timer_16BIT_MASK);
 1208              		.loc 1 946 0
 1209 0008 034B     		ldr	r3, .L79
 1210 000a 7A68     		ldr	r2, [r7, #4]
 1211 000c 1204     		lsl	r2, r2, #16
 1212 000e 120C     		lsr	r2, r2, #16
 1213 0010 1A60     		str	r2, [r3]
 947:.\Generated_Source\PSoC4/SWB_Timer.c **** }
 1214              		.loc 1 947 0
 1215 0012 BD46     		mov	sp, r7
 1216 0014 02B0     		add	sp, sp, #8
 1217              		@ sp needed
 1218 0016 80BD     		pop	{r7, pc}
 1219              	.L80:
ARM GAS  C:\Users\Admin\AppData\Local\Temp\cc5236K1.s 			page 39


 1220              		.align	2
 1221              	.L79:
 1222 0018 10010540 		.word	1074069776
 1223              		.cfi_endproc
 1224              	.LFE24:
 1225              		.size	SWB_Timer_WriteCompareBuf, .-SWB_Timer_WriteCompareBuf
 1226              		.section	.text.SWB_Timer_ReadCompareBuf,"ax",%progbits
 1227              		.align	2
 1228              		.global	SWB_Timer_ReadCompareBuf
 1229              		.code	16
 1230              		.thumb_func
 1231              		.type	SWB_Timer_ReadCompareBuf, %function
 1232              	SWB_Timer_ReadCompareBuf:
 1233              	.LFB25:
 948:.\Generated_Source\PSoC4/SWB_Timer.c **** 
 949:.\Generated_Source\PSoC4/SWB_Timer.c **** 
 950:.\Generated_Source\PSoC4/SWB_Timer.c **** /*******************************************************************************
 951:.\Generated_Source\PSoC4/SWB_Timer.c **** * Function Name: SWB_Timer_ReadCompareBuf
 952:.\Generated_Source\PSoC4/SWB_Timer.c **** ********************************************************************************
 953:.\Generated_Source\PSoC4/SWB_Timer.c **** *
 954:.\Generated_Source\PSoC4/SWB_Timer.c **** * Summary:
 955:.\Generated_Source\PSoC4/SWB_Timer.c **** *  Reads the compare buffer register. Not applicable for Timer/Counter with
 956:.\Generated_Source\PSoC4/SWB_Timer.c **** *  Capture or in Quadrature Decoder modes.
 957:.\Generated_Source\PSoC4/SWB_Timer.c **** *
 958:.\Generated_Source\PSoC4/SWB_Timer.c **** * Parameters:
 959:.\Generated_Source\PSoC4/SWB_Timer.c **** *  None
 960:.\Generated_Source\PSoC4/SWB_Timer.c **** *
 961:.\Generated_Source\PSoC4/SWB_Timer.c **** * Return:
 962:.\Generated_Source\PSoC4/SWB_Timer.c **** *  Compare buffer value
 963:.\Generated_Source\PSoC4/SWB_Timer.c **** *
 964:.\Generated_Source\PSoC4/SWB_Timer.c **** *******************************************************************************/
 965:.\Generated_Source\PSoC4/SWB_Timer.c **** uint32 SWB_Timer_ReadCompareBuf(void)
 966:.\Generated_Source\PSoC4/SWB_Timer.c **** {
 1234              		.loc 1 966 0
 1235              		.cfi_startproc
 1236 0000 80B5     		push	{r7, lr}
 1237              		.cfi_def_cfa_offset 8
 1238              		.cfi_offset 7, -8
 1239              		.cfi_offset 14, -4
 1240 0002 00AF     		add	r7, sp, #0
 1241              		.cfi_def_cfa_register 7
 967:.\Generated_Source\PSoC4/SWB_Timer.c ****     #if (SWB_Timer_CY_TCPWM_4000)
 968:.\Generated_Source\PSoC4/SWB_Timer.c ****         uint32 currentMode;
 969:.\Generated_Source\PSoC4/SWB_Timer.c ****         uint32 regVal;
 970:.\Generated_Source\PSoC4/SWB_Timer.c ****     #endif /* (SWB_Timer_CY_TCPWM_4000) */
 971:.\Generated_Source\PSoC4/SWB_Timer.c **** 
 972:.\Generated_Source\PSoC4/SWB_Timer.c ****     #if (SWB_Timer_CY_TCPWM_4000)
 973:.\Generated_Source\PSoC4/SWB_Timer.c ****         currentMode = ((SWB_Timer_CONTROL_REG & SWB_Timer_UPDOWN_MASK) >> SWB_Timer_UPDOWN_SHIFT);
 974:.\Generated_Source\PSoC4/SWB_Timer.c **** 
 975:.\Generated_Source\PSoC4/SWB_Timer.c ****         regVal = SWB_Timer_COMP_CAP_BUF_REG;
 976:.\Generated_Source\PSoC4/SWB_Timer.c ****         
 977:.\Generated_Source\PSoC4/SWB_Timer.c ****         if (((uint32)SWB_Timer__COUNT_DOWN == currentMode) && (0u != regVal))
 978:.\Generated_Source\PSoC4/SWB_Timer.c ****         {
 979:.\Generated_Source\PSoC4/SWB_Timer.c ****             regVal--;
 980:.\Generated_Source\PSoC4/SWB_Timer.c ****         }
 981:.\Generated_Source\PSoC4/SWB_Timer.c ****         else if (((uint32)SWB_Timer__COUNT_UP == currentMode) && (0xFFFFu != regVal))
 982:.\Generated_Source\PSoC4/SWB_Timer.c ****         {
ARM GAS  C:\Users\Admin\AppData\Local\Temp\cc5236K1.s 			page 40


 983:.\Generated_Source\PSoC4/SWB_Timer.c ****             regVal++;
 984:.\Generated_Source\PSoC4/SWB_Timer.c ****         }
 985:.\Generated_Source\PSoC4/SWB_Timer.c ****         else
 986:.\Generated_Source\PSoC4/SWB_Timer.c ****         {
 987:.\Generated_Source\PSoC4/SWB_Timer.c ****         }
 988:.\Generated_Source\PSoC4/SWB_Timer.c **** 
 989:.\Generated_Source\PSoC4/SWB_Timer.c ****         return (regVal & SWB_Timer_16BIT_MASK);
 990:.\Generated_Source\PSoC4/SWB_Timer.c ****     #else
 991:.\Generated_Source\PSoC4/SWB_Timer.c ****         return (SWB_Timer_COMP_CAP_BUF_REG & SWB_Timer_16BIT_MASK);
 1242              		.loc 1 991 0
 1243 0004 034B     		ldr	r3, .L83
 1244 0006 1B68     		ldr	r3, [r3]
 1245 0008 1B04     		lsl	r3, r3, #16
 1246 000a 1B0C     		lsr	r3, r3, #16
 992:.\Generated_Source\PSoC4/SWB_Timer.c ****     #endif /* (SWB_Timer_CY_TCPWM_4000) */
 993:.\Generated_Source\PSoC4/SWB_Timer.c **** }
 1247              		.loc 1 993 0
 1248 000c 181C     		mov	r0, r3
 1249 000e BD46     		mov	sp, r7
 1250              		@ sp needed
 1251 0010 80BD     		pop	{r7, pc}
 1252              	.L84:
 1253 0012 C046     		.align	2
 1254              	.L83:
 1255 0014 10010540 		.word	1074069776
 1256              		.cfi_endproc
 1257              	.LFE25:
 1258              		.size	SWB_Timer_ReadCompareBuf, .-SWB_Timer_ReadCompareBuf
 1259              		.section	.text.SWB_Timer_ReadCapture,"ax",%progbits
 1260              		.align	2
 1261              		.global	SWB_Timer_ReadCapture
 1262              		.code	16
 1263              		.thumb_func
 1264              		.type	SWB_Timer_ReadCapture, %function
 1265              	SWB_Timer_ReadCapture:
 1266              	.LFB26:
 994:.\Generated_Source\PSoC4/SWB_Timer.c **** 
 995:.\Generated_Source\PSoC4/SWB_Timer.c **** 
 996:.\Generated_Source\PSoC4/SWB_Timer.c **** /*******************************************************************************
 997:.\Generated_Source\PSoC4/SWB_Timer.c **** * Function Name: SWB_Timer_ReadCapture
 998:.\Generated_Source\PSoC4/SWB_Timer.c **** ********************************************************************************
 999:.\Generated_Source\PSoC4/SWB_Timer.c **** *
1000:.\Generated_Source\PSoC4/SWB_Timer.c **** * Summary:
1001:.\Generated_Source\PSoC4/SWB_Timer.c **** *  Reads the captured counter value. This API is applicable only for
1002:.\Generated_Source\PSoC4/SWB_Timer.c **** *  Timer/Counter with the capture mode and Quadrature Decoder modes.
1003:.\Generated_Source\PSoC4/SWB_Timer.c **** *
1004:.\Generated_Source\PSoC4/SWB_Timer.c **** * Parameters:
1005:.\Generated_Source\PSoC4/SWB_Timer.c **** *  None
1006:.\Generated_Source\PSoC4/SWB_Timer.c **** *
1007:.\Generated_Source\PSoC4/SWB_Timer.c **** * Return:
1008:.\Generated_Source\PSoC4/SWB_Timer.c **** *  Capture value
1009:.\Generated_Source\PSoC4/SWB_Timer.c **** *
1010:.\Generated_Source\PSoC4/SWB_Timer.c **** *******************************************************************************/
1011:.\Generated_Source\PSoC4/SWB_Timer.c **** uint32 SWB_Timer_ReadCapture(void)
1012:.\Generated_Source\PSoC4/SWB_Timer.c **** {
 1267              		.loc 1 1012 0
 1268              		.cfi_startproc
ARM GAS  C:\Users\Admin\AppData\Local\Temp\cc5236K1.s 			page 41


 1269 0000 80B5     		push	{r7, lr}
 1270              		.cfi_def_cfa_offset 8
 1271              		.cfi_offset 7, -8
 1272              		.cfi_offset 14, -4
 1273 0002 00AF     		add	r7, sp, #0
 1274              		.cfi_def_cfa_register 7
1013:.\Generated_Source\PSoC4/SWB_Timer.c ****     return (SWB_Timer_COMP_CAP_REG & SWB_Timer_16BIT_MASK);
 1275              		.loc 1 1013 0
 1276 0004 034B     		ldr	r3, .L87
 1277 0006 1B68     		ldr	r3, [r3]
 1278 0008 1B04     		lsl	r3, r3, #16
 1279 000a 1B0C     		lsr	r3, r3, #16
1014:.\Generated_Source\PSoC4/SWB_Timer.c **** }
 1280              		.loc 1 1014 0
 1281 000c 181C     		mov	r0, r3
 1282 000e BD46     		mov	sp, r7
 1283              		@ sp needed
 1284 0010 80BD     		pop	{r7, pc}
 1285              	.L88:
 1286 0012 C046     		.align	2
 1287              	.L87:
 1288 0014 0C010540 		.word	1074069772
 1289              		.cfi_endproc
 1290              	.LFE26:
 1291              		.size	SWB_Timer_ReadCapture, .-SWB_Timer_ReadCapture
 1292              		.section	.text.SWB_Timer_ReadCaptureBuf,"ax",%progbits
 1293              		.align	2
 1294              		.global	SWB_Timer_ReadCaptureBuf
 1295              		.code	16
 1296              		.thumb_func
 1297              		.type	SWB_Timer_ReadCaptureBuf, %function
 1298              	SWB_Timer_ReadCaptureBuf:
 1299              	.LFB27:
1015:.\Generated_Source\PSoC4/SWB_Timer.c **** 
1016:.\Generated_Source\PSoC4/SWB_Timer.c **** 
1017:.\Generated_Source\PSoC4/SWB_Timer.c **** /*******************************************************************************
1018:.\Generated_Source\PSoC4/SWB_Timer.c **** * Function Name: SWB_Timer_ReadCaptureBuf
1019:.\Generated_Source\PSoC4/SWB_Timer.c **** ********************************************************************************
1020:.\Generated_Source\PSoC4/SWB_Timer.c **** *
1021:.\Generated_Source\PSoC4/SWB_Timer.c **** * Summary:
1022:.\Generated_Source\PSoC4/SWB_Timer.c **** *  Reads the capture buffer register. This API is applicable only for
1023:.\Generated_Source\PSoC4/SWB_Timer.c **** *  Timer/Counter with the capture mode and Quadrature Decoder modes.
1024:.\Generated_Source\PSoC4/SWB_Timer.c **** *
1025:.\Generated_Source\PSoC4/SWB_Timer.c **** * Parameters:
1026:.\Generated_Source\PSoC4/SWB_Timer.c **** *  None
1027:.\Generated_Source\PSoC4/SWB_Timer.c **** *
1028:.\Generated_Source\PSoC4/SWB_Timer.c **** * Return:
1029:.\Generated_Source\PSoC4/SWB_Timer.c **** *  Capture buffer value
1030:.\Generated_Source\PSoC4/SWB_Timer.c **** *
1031:.\Generated_Source\PSoC4/SWB_Timer.c **** *******************************************************************************/
1032:.\Generated_Source\PSoC4/SWB_Timer.c **** uint32 SWB_Timer_ReadCaptureBuf(void)
1033:.\Generated_Source\PSoC4/SWB_Timer.c **** {
 1300              		.loc 1 1033 0
 1301              		.cfi_startproc
 1302 0000 80B5     		push	{r7, lr}
 1303              		.cfi_def_cfa_offset 8
 1304              		.cfi_offset 7, -8
ARM GAS  C:\Users\Admin\AppData\Local\Temp\cc5236K1.s 			page 42


 1305              		.cfi_offset 14, -4
 1306 0002 00AF     		add	r7, sp, #0
 1307              		.cfi_def_cfa_register 7
1034:.\Generated_Source\PSoC4/SWB_Timer.c ****     return (SWB_Timer_COMP_CAP_BUF_REG & SWB_Timer_16BIT_MASK);
 1308              		.loc 1 1034 0
 1309 0004 034B     		ldr	r3, .L91
 1310 0006 1B68     		ldr	r3, [r3]
 1311 0008 1B04     		lsl	r3, r3, #16
 1312 000a 1B0C     		lsr	r3, r3, #16
1035:.\Generated_Source\PSoC4/SWB_Timer.c **** }
 1313              		.loc 1 1035 0
 1314 000c 181C     		mov	r0, r3
 1315 000e BD46     		mov	sp, r7
 1316              		@ sp needed
 1317 0010 80BD     		pop	{r7, pc}
 1318              	.L92:
 1319 0012 C046     		.align	2
 1320              	.L91:
 1321 0014 10010540 		.word	1074069776
 1322              		.cfi_endproc
 1323              	.LFE27:
 1324              		.size	SWB_Timer_ReadCaptureBuf, .-SWB_Timer_ReadCaptureBuf
 1325              		.section	.text.SWB_Timer_SetCaptureMode,"ax",%progbits
 1326              		.align	2
 1327              		.global	SWB_Timer_SetCaptureMode
 1328              		.code	16
 1329              		.thumb_func
 1330              		.type	SWB_Timer_SetCaptureMode, %function
 1331              	SWB_Timer_SetCaptureMode:
 1332              	.LFB28:
1036:.\Generated_Source\PSoC4/SWB_Timer.c **** 
1037:.\Generated_Source\PSoC4/SWB_Timer.c **** 
1038:.\Generated_Source\PSoC4/SWB_Timer.c **** /*******************************************************************************
1039:.\Generated_Source\PSoC4/SWB_Timer.c **** * Function Name: SWB_Timer_SetCaptureMode
1040:.\Generated_Source\PSoC4/SWB_Timer.c **** ********************************************************************************
1041:.\Generated_Source\PSoC4/SWB_Timer.c **** *
1042:.\Generated_Source\PSoC4/SWB_Timer.c **** * Summary:
1043:.\Generated_Source\PSoC4/SWB_Timer.c **** *  Sets the capture trigger mode. For PWM mode this is the switch input.
1044:.\Generated_Source\PSoC4/SWB_Timer.c **** *  This input is not applicable to the Timer/Counter without Capture and
1045:.\Generated_Source\PSoC4/SWB_Timer.c **** *  Quadrature Decoder modes.
1046:.\Generated_Source\PSoC4/SWB_Timer.c **** *
1047:.\Generated_Source\PSoC4/SWB_Timer.c **** * Parameters:
1048:.\Generated_Source\PSoC4/SWB_Timer.c **** *  triggerMode: Enumerated trigger mode value
1049:.\Generated_Source\PSoC4/SWB_Timer.c **** *   Values:
1050:.\Generated_Source\PSoC4/SWB_Timer.c **** *     - SWB_Timer_TRIG_LEVEL     - Level
1051:.\Generated_Source\PSoC4/SWB_Timer.c **** *     - SWB_Timer_TRIG_RISING    - Rising edge
1052:.\Generated_Source\PSoC4/SWB_Timer.c **** *     - SWB_Timer_TRIG_FALLING   - Falling edge
1053:.\Generated_Source\PSoC4/SWB_Timer.c **** *     - SWB_Timer_TRIG_BOTH      - Both rising and falling edge
1054:.\Generated_Source\PSoC4/SWB_Timer.c **** *
1055:.\Generated_Source\PSoC4/SWB_Timer.c **** * Return:
1056:.\Generated_Source\PSoC4/SWB_Timer.c **** *  None
1057:.\Generated_Source\PSoC4/SWB_Timer.c **** *
1058:.\Generated_Source\PSoC4/SWB_Timer.c **** *******************************************************************************/
1059:.\Generated_Source\PSoC4/SWB_Timer.c **** void SWB_Timer_SetCaptureMode(uint32 triggerMode)
1060:.\Generated_Source\PSoC4/SWB_Timer.c **** {
 1333              		.loc 1 1060 0
 1334              		.cfi_startproc
ARM GAS  C:\Users\Admin\AppData\Local\Temp\cc5236K1.s 			page 43


 1335 0000 90B5     		push	{r4, r7, lr}
 1336              		.cfi_def_cfa_offset 12
 1337              		.cfi_offset 4, -12
 1338              		.cfi_offset 7, -8
 1339              		.cfi_offset 14, -4
 1340 0002 85B0     		sub	sp, sp, #20
 1341              		.cfi_def_cfa_offset 32
 1342 0004 00AF     		add	r7, sp, #0
 1343              		.cfi_def_cfa_register 7
 1344 0006 7860     		str	r0, [r7, #4]
1061:.\Generated_Source\PSoC4/SWB_Timer.c ****     uint8 enableInterrupts;
1062:.\Generated_Source\PSoC4/SWB_Timer.c **** 
1063:.\Generated_Source\PSoC4/SWB_Timer.c ****     enableInterrupts = CyEnterCriticalSection();
 1345              		.loc 1 1063 0
 1346 0008 3C1C     		mov	r4, r7
 1347 000a 0F34     		add	r4, r4, #15
 1348 000c FFF7FEFF 		bl	CyEnterCriticalSection
 1349 0010 031C     		mov	r3, r0
 1350 0012 2370     		strb	r3, [r4]
1064:.\Generated_Source\PSoC4/SWB_Timer.c **** 
1065:.\Generated_Source\PSoC4/SWB_Timer.c ****     SWB_Timer_TRIG_CONTROL1_REG &= (uint32)~SWB_Timer_CAPTURE_MASK;
 1351              		.loc 1 1065 0
 1352 0014 0A4B     		ldr	r3, .L94
 1353 0016 0A4A     		ldr	r2, .L94
 1354 0018 1268     		ldr	r2, [r2]
 1355 001a 0321     		mov	r1, #3
 1356 001c 8A43     		bic	r2, r1
 1357 001e 1A60     		str	r2, [r3]
1066:.\Generated_Source\PSoC4/SWB_Timer.c ****     SWB_Timer_TRIG_CONTROL1_REG |= triggerMode;
 1358              		.loc 1 1066 0
 1359 0020 074B     		ldr	r3, .L94
 1360 0022 074A     		ldr	r2, .L94
 1361 0024 1168     		ldr	r1, [r2]
 1362 0026 7A68     		ldr	r2, [r7, #4]
 1363 0028 0A43     		orr	r2, r1
 1364 002a 1A60     		str	r2, [r3]
1067:.\Generated_Source\PSoC4/SWB_Timer.c **** 
1068:.\Generated_Source\PSoC4/SWB_Timer.c ****     CyExitCriticalSection(enableInterrupts);
 1365              		.loc 1 1068 0
 1366 002c 3B1C     		mov	r3, r7
 1367 002e 0F33     		add	r3, r3, #15
 1368 0030 1B78     		ldrb	r3, [r3]
 1369 0032 181C     		mov	r0, r3
 1370 0034 FFF7FEFF 		bl	CyExitCriticalSection
1069:.\Generated_Source\PSoC4/SWB_Timer.c **** }
 1371              		.loc 1 1069 0
 1372 0038 BD46     		mov	sp, r7
 1373 003a 05B0     		add	sp, sp, #20
 1374              		@ sp needed
 1375 003c 90BD     		pop	{r4, r7, pc}
 1376              	.L95:
 1377 003e C046     		.align	2
 1378              	.L94:
 1379 0040 24010540 		.word	1074069796
 1380              		.cfi_endproc
 1381              	.LFE28:
 1382              		.size	SWB_Timer_SetCaptureMode, .-SWB_Timer_SetCaptureMode
ARM GAS  C:\Users\Admin\AppData\Local\Temp\cc5236K1.s 			page 44


 1383              		.section	.text.SWB_Timer_SetReloadMode,"ax",%progbits
 1384              		.align	2
 1385              		.global	SWB_Timer_SetReloadMode
 1386              		.code	16
 1387              		.thumb_func
 1388              		.type	SWB_Timer_SetReloadMode, %function
 1389              	SWB_Timer_SetReloadMode:
 1390              	.LFB29:
1070:.\Generated_Source\PSoC4/SWB_Timer.c **** 
1071:.\Generated_Source\PSoC4/SWB_Timer.c **** 
1072:.\Generated_Source\PSoC4/SWB_Timer.c **** /*******************************************************************************
1073:.\Generated_Source\PSoC4/SWB_Timer.c **** * Function Name: SWB_Timer_SetReloadMode
1074:.\Generated_Source\PSoC4/SWB_Timer.c **** ********************************************************************************
1075:.\Generated_Source\PSoC4/SWB_Timer.c **** *
1076:.\Generated_Source\PSoC4/SWB_Timer.c **** * Summary:
1077:.\Generated_Source\PSoC4/SWB_Timer.c **** *  Sets the reload trigger mode. For Quadrature Decoder mode this is the index
1078:.\Generated_Source\PSoC4/SWB_Timer.c **** *  input.
1079:.\Generated_Source\PSoC4/SWB_Timer.c **** *
1080:.\Generated_Source\PSoC4/SWB_Timer.c **** * Parameters:
1081:.\Generated_Source\PSoC4/SWB_Timer.c **** *  triggerMode: Enumerated trigger mode value
1082:.\Generated_Source\PSoC4/SWB_Timer.c **** *   Values:
1083:.\Generated_Source\PSoC4/SWB_Timer.c **** *     - SWB_Timer_TRIG_LEVEL     - Level
1084:.\Generated_Source\PSoC4/SWB_Timer.c **** *     - SWB_Timer_TRIG_RISING    - Rising edge
1085:.\Generated_Source\PSoC4/SWB_Timer.c **** *     - SWB_Timer_TRIG_FALLING   - Falling edge
1086:.\Generated_Source\PSoC4/SWB_Timer.c **** *     - SWB_Timer_TRIG_BOTH      - Both rising and falling edge
1087:.\Generated_Source\PSoC4/SWB_Timer.c **** *
1088:.\Generated_Source\PSoC4/SWB_Timer.c **** * Return:
1089:.\Generated_Source\PSoC4/SWB_Timer.c **** *  None
1090:.\Generated_Source\PSoC4/SWB_Timer.c **** *
1091:.\Generated_Source\PSoC4/SWB_Timer.c **** *******************************************************************************/
1092:.\Generated_Source\PSoC4/SWB_Timer.c **** void SWB_Timer_SetReloadMode(uint32 triggerMode)
1093:.\Generated_Source\PSoC4/SWB_Timer.c **** {
 1391              		.loc 1 1093 0
 1392              		.cfi_startproc
 1393 0000 90B5     		push	{r4, r7, lr}
 1394              		.cfi_def_cfa_offset 12
 1395              		.cfi_offset 4, -12
 1396              		.cfi_offset 7, -8
 1397              		.cfi_offset 14, -4
 1398 0002 85B0     		sub	sp, sp, #20
 1399              		.cfi_def_cfa_offset 32
 1400 0004 00AF     		add	r7, sp, #0
 1401              		.cfi_def_cfa_register 7
 1402 0006 7860     		str	r0, [r7, #4]
1094:.\Generated_Source\PSoC4/SWB_Timer.c ****     uint8 enableInterrupts;
1095:.\Generated_Source\PSoC4/SWB_Timer.c **** 
1096:.\Generated_Source\PSoC4/SWB_Timer.c ****     enableInterrupts = CyEnterCriticalSection();
 1403              		.loc 1 1096 0
 1404 0008 3C1C     		mov	r4, r7
 1405 000a 0F34     		add	r4, r4, #15
 1406 000c FFF7FEFF 		bl	CyEnterCriticalSection
 1407 0010 031C     		mov	r3, r0
 1408 0012 2370     		strb	r3, [r4]
1097:.\Generated_Source\PSoC4/SWB_Timer.c **** 
1098:.\Generated_Source\PSoC4/SWB_Timer.c ****     SWB_Timer_TRIG_CONTROL1_REG &= (uint32)~SWB_Timer_RELOAD_MASK;
 1409              		.loc 1 1098 0
 1410 0014 0A4B     		ldr	r3, .L97
ARM GAS  C:\Users\Admin\AppData\Local\Temp\cc5236K1.s 			page 45


 1411 0016 0A4A     		ldr	r2, .L97
 1412 0018 1268     		ldr	r2, [r2]
 1413 001a 3021     		mov	r1, #48
 1414 001c 8A43     		bic	r2, r1
 1415 001e 1A60     		str	r2, [r3]
1099:.\Generated_Source\PSoC4/SWB_Timer.c ****     SWB_Timer_TRIG_CONTROL1_REG |= ((uint32)(triggerMode << SWB_Timer_RELOAD_SHIFT));
 1416              		.loc 1 1099 0
 1417 0020 074B     		ldr	r3, .L97
 1418 0022 074A     		ldr	r2, .L97
 1419 0024 1168     		ldr	r1, [r2]
 1420 0026 7A68     		ldr	r2, [r7, #4]
 1421 0028 1201     		lsl	r2, r2, #4
 1422 002a 0A43     		orr	r2, r1
 1423 002c 1A60     		str	r2, [r3]
1100:.\Generated_Source\PSoC4/SWB_Timer.c **** 
1101:.\Generated_Source\PSoC4/SWB_Timer.c ****     CyExitCriticalSection(enableInterrupts);
 1424              		.loc 1 1101 0
 1425 002e 3B1C     		mov	r3, r7
 1426 0030 0F33     		add	r3, r3, #15
 1427 0032 1B78     		ldrb	r3, [r3]
 1428 0034 181C     		mov	r0, r3
 1429 0036 FFF7FEFF 		bl	CyExitCriticalSection
1102:.\Generated_Source\PSoC4/SWB_Timer.c **** }
 1430              		.loc 1 1102 0
 1431 003a BD46     		mov	sp, r7
 1432 003c 05B0     		add	sp, sp, #20
 1433              		@ sp needed
 1434 003e 90BD     		pop	{r4, r7, pc}
 1435              	.L98:
 1436              		.align	2
 1437              	.L97:
 1438 0040 24010540 		.word	1074069796
 1439              		.cfi_endproc
 1440              	.LFE29:
 1441              		.size	SWB_Timer_SetReloadMode, .-SWB_Timer_SetReloadMode
 1442              		.section	.text.SWB_Timer_SetStartMode,"ax",%progbits
 1443              		.align	2
 1444              		.global	SWB_Timer_SetStartMode
 1445              		.code	16
 1446              		.thumb_func
 1447              		.type	SWB_Timer_SetStartMode, %function
 1448              	SWB_Timer_SetStartMode:
 1449              	.LFB30:
1103:.\Generated_Source\PSoC4/SWB_Timer.c **** 
1104:.\Generated_Source\PSoC4/SWB_Timer.c **** 
1105:.\Generated_Source\PSoC4/SWB_Timer.c **** /*******************************************************************************
1106:.\Generated_Source\PSoC4/SWB_Timer.c **** * Function Name: SWB_Timer_SetStartMode
1107:.\Generated_Source\PSoC4/SWB_Timer.c **** ********************************************************************************
1108:.\Generated_Source\PSoC4/SWB_Timer.c **** *
1109:.\Generated_Source\PSoC4/SWB_Timer.c **** * Summary:
1110:.\Generated_Source\PSoC4/SWB_Timer.c **** *  Sets the start trigger mode. For Quadrature Decoder mode this is the
1111:.\Generated_Source\PSoC4/SWB_Timer.c **** *  phiB input.
1112:.\Generated_Source\PSoC4/SWB_Timer.c **** *
1113:.\Generated_Source\PSoC4/SWB_Timer.c **** * Parameters:
1114:.\Generated_Source\PSoC4/SWB_Timer.c **** *  triggerMode: Enumerated trigger mode value
1115:.\Generated_Source\PSoC4/SWB_Timer.c **** *   Values:
1116:.\Generated_Source\PSoC4/SWB_Timer.c **** *     - SWB_Timer_TRIG_LEVEL     - Level
ARM GAS  C:\Users\Admin\AppData\Local\Temp\cc5236K1.s 			page 46


1117:.\Generated_Source\PSoC4/SWB_Timer.c **** *     - SWB_Timer_TRIG_RISING    - Rising edge
1118:.\Generated_Source\PSoC4/SWB_Timer.c **** *     - SWB_Timer_TRIG_FALLING   - Falling edge
1119:.\Generated_Source\PSoC4/SWB_Timer.c **** *     - SWB_Timer_TRIG_BOTH      - Both rising and falling edge
1120:.\Generated_Source\PSoC4/SWB_Timer.c **** *
1121:.\Generated_Source\PSoC4/SWB_Timer.c **** * Return:
1122:.\Generated_Source\PSoC4/SWB_Timer.c **** *  None
1123:.\Generated_Source\PSoC4/SWB_Timer.c **** *
1124:.\Generated_Source\PSoC4/SWB_Timer.c **** *******************************************************************************/
1125:.\Generated_Source\PSoC4/SWB_Timer.c **** void SWB_Timer_SetStartMode(uint32 triggerMode)
1126:.\Generated_Source\PSoC4/SWB_Timer.c **** {
 1450              		.loc 1 1126 0
 1451              		.cfi_startproc
 1452 0000 90B5     		push	{r4, r7, lr}
 1453              		.cfi_def_cfa_offset 12
 1454              		.cfi_offset 4, -12
 1455              		.cfi_offset 7, -8
 1456              		.cfi_offset 14, -4
 1457 0002 85B0     		sub	sp, sp, #20
 1458              		.cfi_def_cfa_offset 32
 1459 0004 00AF     		add	r7, sp, #0
 1460              		.cfi_def_cfa_register 7
 1461 0006 7860     		str	r0, [r7, #4]
1127:.\Generated_Source\PSoC4/SWB_Timer.c ****     uint8 enableInterrupts;
1128:.\Generated_Source\PSoC4/SWB_Timer.c **** 
1129:.\Generated_Source\PSoC4/SWB_Timer.c ****     enableInterrupts = CyEnterCriticalSection();
 1462              		.loc 1 1129 0
 1463 0008 3C1C     		mov	r4, r7
 1464 000a 0F34     		add	r4, r4, #15
 1465 000c FFF7FEFF 		bl	CyEnterCriticalSection
 1466 0010 031C     		mov	r3, r0
 1467 0012 2370     		strb	r3, [r4]
1130:.\Generated_Source\PSoC4/SWB_Timer.c **** 
1131:.\Generated_Source\PSoC4/SWB_Timer.c ****     SWB_Timer_TRIG_CONTROL1_REG &= (uint32)~SWB_Timer_START_MASK;
 1468              		.loc 1 1131 0
 1469 0014 0A4B     		ldr	r3, .L100
 1470 0016 0A4A     		ldr	r2, .L100
 1471 0018 1168     		ldr	r1, [r2]
 1472 001a 0A4A     		ldr	r2, .L100+4
 1473 001c 0A40     		and	r2, r1
 1474 001e 1A60     		str	r2, [r3]
1132:.\Generated_Source\PSoC4/SWB_Timer.c ****     SWB_Timer_TRIG_CONTROL1_REG |= ((uint32)(triggerMode << SWB_Timer_START_SHIFT));
 1475              		.loc 1 1132 0
 1476 0020 074B     		ldr	r3, .L100
 1477 0022 074A     		ldr	r2, .L100
 1478 0024 1168     		ldr	r1, [r2]
 1479 0026 7A68     		ldr	r2, [r7, #4]
 1480 0028 1202     		lsl	r2, r2, #8
 1481 002a 0A43     		orr	r2, r1
 1482 002c 1A60     		str	r2, [r3]
1133:.\Generated_Source\PSoC4/SWB_Timer.c **** 
1134:.\Generated_Source\PSoC4/SWB_Timer.c ****     CyExitCriticalSection(enableInterrupts);
 1483              		.loc 1 1134 0
 1484 002e 3B1C     		mov	r3, r7
 1485 0030 0F33     		add	r3, r3, #15
 1486 0032 1B78     		ldrb	r3, [r3]
 1487 0034 181C     		mov	r0, r3
 1488 0036 FFF7FEFF 		bl	CyExitCriticalSection
ARM GAS  C:\Users\Admin\AppData\Local\Temp\cc5236K1.s 			page 47


1135:.\Generated_Source\PSoC4/SWB_Timer.c **** }
 1489              		.loc 1 1135 0
 1490 003a BD46     		mov	sp, r7
 1491 003c 05B0     		add	sp, sp, #20
 1492              		@ sp needed
 1493 003e 90BD     		pop	{r4, r7, pc}
 1494              	.L101:
 1495              		.align	2
 1496              	.L100:
 1497 0040 24010540 		.word	1074069796
 1498 0044 FFFCFFFF 		.word	-769
 1499              		.cfi_endproc
 1500              	.LFE30:
 1501              		.size	SWB_Timer_SetStartMode, .-SWB_Timer_SetStartMode
 1502              		.section	.text.SWB_Timer_SetStopMode,"ax",%progbits
 1503              		.align	2
 1504              		.global	SWB_Timer_SetStopMode
 1505              		.code	16
 1506              		.thumb_func
 1507              		.type	SWB_Timer_SetStopMode, %function
 1508              	SWB_Timer_SetStopMode:
 1509              	.LFB31:
1136:.\Generated_Source\PSoC4/SWB_Timer.c **** 
1137:.\Generated_Source\PSoC4/SWB_Timer.c **** 
1138:.\Generated_Source\PSoC4/SWB_Timer.c **** /*******************************************************************************
1139:.\Generated_Source\PSoC4/SWB_Timer.c **** * Function Name: SWB_Timer_SetStopMode
1140:.\Generated_Source\PSoC4/SWB_Timer.c **** ********************************************************************************
1141:.\Generated_Source\PSoC4/SWB_Timer.c **** *
1142:.\Generated_Source\PSoC4/SWB_Timer.c **** * Summary:
1143:.\Generated_Source\PSoC4/SWB_Timer.c **** *  Sets the stop trigger mode. For PWM mode this is the kill input.
1144:.\Generated_Source\PSoC4/SWB_Timer.c **** *
1145:.\Generated_Source\PSoC4/SWB_Timer.c **** * Parameters:
1146:.\Generated_Source\PSoC4/SWB_Timer.c **** *  triggerMode: Enumerated trigger mode value
1147:.\Generated_Source\PSoC4/SWB_Timer.c **** *   Values:
1148:.\Generated_Source\PSoC4/SWB_Timer.c **** *     - SWB_Timer_TRIG_LEVEL     - Level
1149:.\Generated_Source\PSoC4/SWB_Timer.c **** *     - SWB_Timer_TRIG_RISING    - Rising edge
1150:.\Generated_Source\PSoC4/SWB_Timer.c **** *     - SWB_Timer_TRIG_FALLING   - Falling edge
1151:.\Generated_Source\PSoC4/SWB_Timer.c **** *     - SWB_Timer_TRIG_BOTH      - Both rising and falling edge
1152:.\Generated_Source\PSoC4/SWB_Timer.c **** *
1153:.\Generated_Source\PSoC4/SWB_Timer.c **** * Return:
1154:.\Generated_Source\PSoC4/SWB_Timer.c **** *  None
1155:.\Generated_Source\PSoC4/SWB_Timer.c **** *
1156:.\Generated_Source\PSoC4/SWB_Timer.c **** *******************************************************************************/
1157:.\Generated_Source\PSoC4/SWB_Timer.c **** void SWB_Timer_SetStopMode(uint32 triggerMode)
1158:.\Generated_Source\PSoC4/SWB_Timer.c **** {
 1510              		.loc 1 1158 0
 1511              		.cfi_startproc
 1512 0000 90B5     		push	{r4, r7, lr}
 1513              		.cfi_def_cfa_offset 12
 1514              		.cfi_offset 4, -12
 1515              		.cfi_offset 7, -8
 1516              		.cfi_offset 14, -4
 1517 0002 85B0     		sub	sp, sp, #20
 1518              		.cfi_def_cfa_offset 32
 1519 0004 00AF     		add	r7, sp, #0
 1520              		.cfi_def_cfa_register 7
 1521 0006 7860     		str	r0, [r7, #4]
ARM GAS  C:\Users\Admin\AppData\Local\Temp\cc5236K1.s 			page 48


1159:.\Generated_Source\PSoC4/SWB_Timer.c ****     uint8 enableInterrupts;
1160:.\Generated_Source\PSoC4/SWB_Timer.c **** 
1161:.\Generated_Source\PSoC4/SWB_Timer.c ****     enableInterrupts = CyEnterCriticalSection();
 1522              		.loc 1 1161 0
 1523 0008 3C1C     		mov	r4, r7
 1524 000a 0F34     		add	r4, r4, #15
 1525 000c FFF7FEFF 		bl	CyEnterCriticalSection
 1526 0010 031C     		mov	r3, r0
 1527 0012 2370     		strb	r3, [r4]
1162:.\Generated_Source\PSoC4/SWB_Timer.c **** 
1163:.\Generated_Source\PSoC4/SWB_Timer.c ****     SWB_Timer_TRIG_CONTROL1_REG &= (uint32)~SWB_Timer_STOP_MASK;
 1528              		.loc 1 1163 0
 1529 0014 0A4B     		ldr	r3, .L103
 1530 0016 0A4A     		ldr	r2, .L103
 1531 0018 1268     		ldr	r2, [r2]
 1532 001a C021     		mov	r1, #192
 1533 001c 8A43     		bic	r2, r1
 1534 001e 1A60     		str	r2, [r3]
1164:.\Generated_Source\PSoC4/SWB_Timer.c ****     SWB_Timer_TRIG_CONTROL1_REG |= ((uint32)(triggerMode << SWB_Timer_STOP_SHIFT));
 1535              		.loc 1 1164 0
 1536 0020 074B     		ldr	r3, .L103
 1537 0022 074A     		ldr	r2, .L103
 1538 0024 1168     		ldr	r1, [r2]
 1539 0026 7A68     		ldr	r2, [r7, #4]
 1540 0028 9201     		lsl	r2, r2, #6
 1541 002a 0A43     		orr	r2, r1
 1542 002c 1A60     		str	r2, [r3]
1165:.\Generated_Source\PSoC4/SWB_Timer.c **** 
1166:.\Generated_Source\PSoC4/SWB_Timer.c ****     CyExitCriticalSection(enableInterrupts);
 1543              		.loc 1 1166 0
 1544 002e 3B1C     		mov	r3, r7
 1545 0030 0F33     		add	r3, r3, #15
 1546 0032 1B78     		ldrb	r3, [r3]
 1547 0034 181C     		mov	r0, r3
 1548 0036 FFF7FEFF 		bl	CyExitCriticalSection
1167:.\Generated_Source\PSoC4/SWB_Timer.c **** }
 1549              		.loc 1 1167 0
 1550 003a BD46     		mov	sp, r7
 1551 003c 05B0     		add	sp, sp, #20
 1552              		@ sp needed
 1553 003e 90BD     		pop	{r4, r7, pc}
 1554              	.L104:
 1555              		.align	2
 1556              	.L103:
 1557 0040 24010540 		.word	1074069796
 1558              		.cfi_endproc
 1559              	.LFE31:
 1560              		.size	SWB_Timer_SetStopMode, .-SWB_Timer_SetStopMode
 1561              		.section	.text.SWB_Timer_SetCountMode,"ax",%progbits
 1562              		.align	2
 1563              		.global	SWB_Timer_SetCountMode
 1564              		.code	16
 1565              		.thumb_func
 1566              		.type	SWB_Timer_SetCountMode, %function
 1567              	SWB_Timer_SetCountMode:
 1568              	.LFB32:
1168:.\Generated_Source\PSoC4/SWB_Timer.c **** 
ARM GAS  C:\Users\Admin\AppData\Local\Temp\cc5236K1.s 			page 49


1169:.\Generated_Source\PSoC4/SWB_Timer.c **** 
1170:.\Generated_Source\PSoC4/SWB_Timer.c **** /*******************************************************************************
1171:.\Generated_Source\PSoC4/SWB_Timer.c **** * Function Name: SWB_Timer_SetCountMode
1172:.\Generated_Source\PSoC4/SWB_Timer.c **** ********************************************************************************
1173:.\Generated_Source\PSoC4/SWB_Timer.c **** *
1174:.\Generated_Source\PSoC4/SWB_Timer.c **** * Summary:
1175:.\Generated_Source\PSoC4/SWB_Timer.c **** *  Sets the count trigger mode. For Quadrature Decoder mode this is the phiA
1176:.\Generated_Source\PSoC4/SWB_Timer.c **** *  input.
1177:.\Generated_Source\PSoC4/SWB_Timer.c **** *
1178:.\Generated_Source\PSoC4/SWB_Timer.c **** * Parameters:
1179:.\Generated_Source\PSoC4/SWB_Timer.c **** *  triggerMode: Enumerated trigger mode value
1180:.\Generated_Source\PSoC4/SWB_Timer.c **** *   Values:
1181:.\Generated_Source\PSoC4/SWB_Timer.c **** *     - SWB_Timer_TRIG_LEVEL     - Level
1182:.\Generated_Source\PSoC4/SWB_Timer.c **** *     - SWB_Timer_TRIG_RISING    - Rising edge
1183:.\Generated_Source\PSoC4/SWB_Timer.c **** *     - SWB_Timer_TRIG_FALLING   - Falling edge
1184:.\Generated_Source\PSoC4/SWB_Timer.c **** *     - SWB_Timer_TRIG_BOTH      - Both rising and falling edge
1185:.\Generated_Source\PSoC4/SWB_Timer.c **** *
1186:.\Generated_Source\PSoC4/SWB_Timer.c **** * Return:
1187:.\Generated_Source\PSoC4/SWB_Timer.c **** *  None
1188:.\Generated_Source\PSoC4/SWB_Timer.c **** *
1189:.\Generated_Source\PSoC4/SWB_Timer.c **** *******************************************************************************/
1190:.\Generated_Source\PSoC4/SWB_Timer.c **** void SWB_Timer_SetCountMode(uint32 triggerMode)
1191:.\Generated_Source\PSoC4/SWB_Timer.c **** {
 1569              		.loc 1 1191 0
 1570              		.cfi_startproc
 1571 0000 90B5     		push	{r4, r7, lr}
 1572              		.cfi_def_cfa_offset 12
 1573              		.cfi_offset 4, -12
 1574              		.cfi_offset 7, -8
 1575              		.cfi_offset 14, -4
 1576 0002 85B0     		sub	sp, sp, #20
 1577              		.cfi_def_cfa_offset 32
 1578 0004 00AF     		add	r7, sp, #0
 1579              		.cfi_def_cfa_register 7
 1580 0006 7860     		str	r0, [r7, #4]
1192:.\Generated_Source\PSoC4/SWB_Timer.c ****     uint8 enableInterrupts;
1193:.\Generated_Source\PSoC4/SWB_Timer.c **** 
1194:.\Generated_Source\PSoC4/SWB_Timer.c ****     enableInterrupts = CyEnterCriticalSection();
 1581              		.loc 1 1194 0
 1582 0008 3C1C     		mov	r4, r7
 1583 000a 0F34     		add	r4, r4, #15
 1584 000c FFF7FEFF 		bl	CyEnterCriticalSection
 1585 0010 031C     		mov	r3, r0
 1586 0012 2370     		strb	r3, [r4]
1195:.\Generated_Source\PSoC4/SWB_Timer.c **** 
1196:.\Generated_Source\PSoC4/SWB_Timer.c ****     SWB_Timer_TRIG_CONTROL1_REG &= (uint32)~SWB_Timer_COUNT_MASK;
 1587              		.loc 1 1196 0
 1588 0014 0A4B     		ldr	r3, .L106
 1589 0016 0A4A     		ldr	r2, .L106
 1590 0018 1268     		ldr	r2, [r2]
 1591 001a 0C21     		mov	r1, #12
 1592 001c 8A43     		bic	r2, r1
 1593 001e 1A60     		str	r2, [r3]
1197:.\Generated_Source\PSoC4/SWB_Timer.c ****     SWB_Timer_TRIG_CONTROL1_REG |= ((uint32)(triggerMode << SWB_Timer_COUNT_SHIFT));
 1594              		.loc 1 1197 0
 1595 0020 074B     		ldr	r3, .L106
 1596 0022 074A     		ldr	r2, .L106
ARM GAS  C:\Users\Admin\AppData\Local\Temp\cc5236K1.s 			page 50


 1597 0024 1168     		ldr	r1, [r2]
 1598 0026 7A68     		ldr	r2, [r7, #4]
 1599 0028 9200     		lsl	r2, r2, #2
 1600 002a 0A43     		orr	r2, r1
 1601 002c 1A60     		str	r2, [r3]
1198:.\Generated_Source\PSoC4/SWB_Timer.c **** 
1199:.\Generated_Source\PSoC4/SWB_Timer.c ****     CyExitCriticalSection(enableInterrupts);
 1602              		.loc 1 1199 0
 1603 002e 3B1C     		mov	r3, r7
 1604 0030 0F33     		add	r3, r3, #15
 1605 0032 1B78     		ldrb	r3, [r3]
 1606 0034 181C     		mov	r0, r3
 1607 0036 FFF7FEFF 		bl	CyExitCriticalSection
1200:.\Generated_Source\PSoC4/SWB_Timer.c **** }
 1608              		.loc 1 1200 0
 1609 003a BD46     		mov	sp, r7
 1610 003c 05B0     		add	sp, sp, #20
 1611              		@ sp needed
 1612 003e 90BD     		pop	{r4, r7, pc}
 1613              	.L107:
 1614              		.align	2
 1615              	.L106:
 1616 0040 24010540 		.word	1074069796
 1617              		.cfi_endproc
 1618              	.LFE32:
 1619              		.size	SWB_Timer_SetCountMode, .-SWB_Timer_SetCountMode
 1620              		.section	.text.SWB_Timer_TriggerCommand,"ax",%progbits
 1621              		.align	2
 1622              		.global	SWB_Timer_TriggerCommand
 1623              		.code	16
 1624              		.thumb_func
 1625              		.type	SWB_Timer_TriggerCommand, %function
 1626              	SWB_Timer_TriggerCommand:
 1627              	.LFB33:
1201:.\Generated_Source\PSoC4/SWB_Timer.c **** 
1202:.\Generated_Source\PSoC4/SWB_Timer.c **** 
1203:.\Generated_Source\PSoC4/SWB_Timer.c **** /*******************************************************************************
1204:.\Generated_Source\PSoC4/SWB_Timer.c **** * Function Name: SWB_Timer_TriggerCommand
1205:.\Generated_Source\PSoC4/SWB_Timer.c **** ********************************************************************************
1206:.\Generated_Source\PSoC4/SWB_Timer.c **** *
1207:.\Generated_Source\PSoC4/SWB_Timer.c **** * Summary:
1208:.\Generated_Source\PSoC4/SWB_Timer.c **** *  Triggers the designated command to occur on the designated TCPWM instances.
1209:.\Generated_Source\PSoC4/SWB_Timer.c **** *  The mask can be used to apply this command simultaneously to more than one
1210:.\Generated_Source\PSoC4/SWB_Timer.c **** *  instance.  This allows multiple TCPWM instances to be synchronized.
1211:.\Generated_Source\PSoC4/SWB_Timer.c **** *
1212:.\Generated_Source\PSoC4/SWB_Timer.c **** * Parameters:
1213:.\Generated_Source\PSoC4/SWB_Timer.c **** *  mask: A combination of mask bits for each instance of the TCPWM that the
1214:.\Generated_Source\PSoC4/SWB_Timer.c **** *        command should apply to.  This function from one instance can be used
1215:.\Generated_Source\PSoC4/SWB_Timer.c **** *        to apply the command to any of the instances in the design.
1216:.\Generated_Source\PSoC4/SWB_Timer.c **** *        The mask value for a specific instance is available with the MASK
1217:.\Generated_Source\PSoC4/SWB_Timer.c **** *        define.
1218:.\Generated_Source\PSoC4/SWB_Timer.c **** *  command: Enumerated command values. Capture command only applicable for
1219:.\Generated_Source\PSoC4/SWB_Timer.c **** *           Timer/Counter with Capture and PWM modes.
1220:.\Generated_Source\PSoC4/SWB_Timer.c **** *   Values:
1221:.\Generated_Source\PSoC4/SWB_Timer.c **** *     - SWB_Timer_CMD_CAPTURE    - Trigger Capture command
1222:.\Generated_Source\PSoC4/SWB_Timer.c **** *     - SWB_Timer_CMD_RELOAD     - Trigger Reload command
1223:.\Generated_Source\PSoC4/SWB_Timer.c **** *     - SWB_Timer_CMD_STOP       - Trigger Stop command
ARM GAS  C:\Users\Admin\AppData\Local\Temp\cc5236K1.s 			page 51


1224:.\Generated_Source\PSoC4/SWB_Timer.c **** *     - SWB_Timer_CMD_START      - Trigger Start command
1225:.\Generated_Source\PSoC4/SWB_Timer.c **** *
1226:.\Generated_Source\PSoC4/SWB_Timer.c **** * Return:
1227:.\Generated_Source\PSoC4/SWB_Timer.c **** *  None
1228:.\Generated_Source\PSoC4/SWB_Timer.c **** *
1229:.\Generated_Source\PSoC4/SWB_Timer.c **** *******************************************************************************/
1230:.\Generated_Source\PSoC4/SWB_Timer.c **** void SWB_Timer_TriggerCommand(uint32 mask, uint32 command)
1231:.\Generated_Source\PSoC4/SWB_Timer.c **** {
 1628              		.loc 1 1231 0
 1629              		.cfi_startproc
 1630 0000 90B5     		push	{r4, r7, lr}
 1631              		.cfi_def_cfa_offset 12
 1632              		.cfi_offset 4, -12
 1633              		.cfi_offset 7, -8
 1634              		.cfi_offset 14, -4
 1635 0002 85B0     		sub	sp, sp, #20
 1636              		.cfi_def_cfa_offset 32
 1637 0004 00AF     		add	r7, sp, #0
 1638              		.cfi_def_cfa_register 7
 1639 0006 7860     		str	r0, [r7, #4]
 1640 0008 3960     		str	r1, [r7]
1232:.\Generated_Source\PSoC4/SWB_Timer.c ****     uint8 enableInterrupts;
1233:.\Generated_Source\PSoC4/SWB_Timer.c **** 
1234:.\Generated_Source\PSoC4/SWB_Timer.c ****     enableInterrupts = CyEnterCriticalSection();
 1641              		.loc 1 1234 0
 1642 000a 3C1C     		mov	r4, r7
 1643 000c 0F34     		add	r4, r4, #15
 1644 000e FFF7FEFF 		bl	CyEnterCriticalSection
 1645 0012 031C     		mov	r3, r0
 1646 0014 2370     		strb	r3, [r4]
1235:.\Generated_Source\PSoC4/SWB_Timer.c **** 
1236:.\Generated_Source\PSoC4/SWB_Timer.c ****     SWB_Timer_COMMAND_REG = ((uint32)(mask << command));
 1647              		.loc 1 1236 0
 1648 0016 084B     		ldr	r3, .L109
 1649 0018 3A68     		ldr	r2, [r7]
 1650 001a 7968     		ldr	r1, [r7, #4]
 1651 001c 081C     		mov	r0, r1
 1652 001e 9040     		lsl	r0, r0, r2
 1653 0020 021C     		mov	r2, r0
 1654 0022 1A60     		str	r2, [r3]
1237:.\Generated_Source\PSoC4/SWB_Timer.c **** 
1238:.\Generated_Source\PSoC4/SWB_Timer.c ****     CyExitCriticalSection(enableInterrupts);
 1655              		.loc 1 1238 0
 1656 0024 3B1C     		mov	r3, r7
 1657 0026 0F33     		add	r3, r3, #15
 1658 0028 1B78     		ldrb	r3, [r3]
 1659 002a 181C     		mov	r0, r3
 1660 002c FFF7FEFF 		bl	CyExitCriticalSection
1239:.\Generated_Source\PSoC4/SWB_Timer.c **** }
 1661              		.loc 1 1239 0
 1662 0030 BD46     		mov	sp, r7
 1663 0032 05B0     		add	sp, sp, #20
 1664              		@ sp needed
 1665 0034 90BD     		pop	{r4, r7, pc}
 1666              	.L110:
 1667 0036 C046     		.align	2
 1668              	.L109:
ARM GAS  C:\Users\Admin\AppData\Local\Temp\cc5236K1.s 			page 52


 1669 0038 08000540 		.word	1074069512
 1670              		.cfi_endproc
 1671              	.LFE33:
 1672              		.size	SWB_Timer_TriggerCommand, .-SWB_Timer_TriggerCommand
 1673              		.section	.text.SWB_Timer_ReadStatus,"ax",%progbits
 1674              		.align	2
 1675              		.global	SWB_Timer_ReadStatus
 1676              		.code	16
 1677              		.thumb_func
 1678              		.type	SWB_Timer_ReadStatus, %function
 1679              	SWB_Timer_ReadStatus:
 1680              	.LFB34:
1240:.\Generated_Source\PSoC4/SWB_Timer.c **** 
1241:.\Generated_Source\PSoC4/SWB_Timer.c **** 
1242:.\Generated_Source\PSoC4/SWB_Timer.c **** /*******************************************************************************
1243:.\Generated_Source\PSoC4/SWB_Timer.c **** * Function Name: SWB_Timer_ReadStatus
1244:.\Generated_Source\PSoC4/SWB_Timer.c **** ********************************************************************************
1245:.\Generated_Source\PSoC4/SWB_Timer.c **** *
1246:.\Generated_Source\PSoC4/SWB_Timer.c **** * Summary:
1247:.\Generated_Source\PSoC4/SWB_Timer.c **** *  Reads the status of the SWB_Timer.
1248:.\Generated_Source\PSoC4/SWB_Timer.c **** *
1249:.\Generated_Source\PSoC4/SWB_Timer.c **** * Parameters:
1250:.\Generated_Source\PSoC4/SWB_Timer.c **** *  None
1251:.\Generated_Source\PSoC4/SWB_Timer.c **** *
1252:.\Generated_Source\PSoC4/SWB_Timer.c **** * Return:
1253:.\Generated_Source\PSoC4/SWB_Timer.c **** *  Status
1254:.\Generated_Source\PSoC4/SWB_Timer.c **** *   Values:
1255:.\Generated_Source\PSoC4/SWB_Timer.c **** *     - SWB_Timer_STATUS_DOWN    - Set if counting down
1256:.\Generated_Source\PSoC4/SWB_Timer.c **** *     - SWB_Timer_STATUS_RUNNING - Set if counter is running
1257:.\Generated_Source\PSoC4/SWB_Timer.c **** *
1258:.\Generated_Source\PSoC4/SWB_Timer.c **** *******************************************************************************/
1259:.\Generated_Source\PSoC4/SWB_Timer.c **** uint32 SWB_Timer_ReadStatus(void)
1260:.\Generated_Source\PSoC4/SWB_Timer.c **** {
 1681              		.loc 1 1260 0
 1682              		.cfi_startproc
 1683 0000 80B5     		push	{r7, lr}
 1684              		.cfi_def_cfa_offset 8
 1685              		.cfi_offset 7, -8
 1686              		.cfi_offset 14, -4
 1687 0002 00AF     		add	r7, sp, #0
 1688              		.cfi_def_cfa_register 7
1261:.\Generated_Source\PSoC4/SWB_Timer.c ****     return ((SWB_Timer_STATUS_REG >> SWB_Timer_RUNNING_STATUS_SHIFT) |
 1689              		.loc 1 1261 0
 1690 0004 054B     		ldr	r3, .L113
 1691 0006 1B68     		ldr	r3, [r3]
 1692 0008 9A0F     		lsr	r2, r3, #30
1262:.\Generated_Source\PSoC4/SWB_Timer.c ****             (SWB_Timer_STATUS_REG & SWB_Timer_STATUS_DOWN));
 1693              		.loc 1 1262 0
 1694 000a 044B     		ldr	r3, .L113
 1695 000c 1968     		ldr	r1, [r3]
 1696 000e 0123     		mov	r3, #1
 1697 0010 0B40     		and	r3, r1
1261:.\Generated_Source\PSoC4/SWB_Timer.c ****     return ((SWB_Timer_STATUS_REG >> SWB_Timer_RUNNING_STATUS_SHIFT) |
 1698              		.loc 1 1261 0
 1699 0012 1343     		orr	r3, r2
1263:.\Generated_Source\PSoC4/SWB_Timer.c **** }
 1700              		.loc 1 1263 0
ARM GAS  C:\Users\Admin\AppData\Local\Temp\cc5236K1.s 			page 53


 1701 0014 181C     		mov	r0, r3
 1702 0016 BD46     		mov	sp, r7
 1703              		@ sp needed
 1704 0018 80BD     		pop	{r7, pc}
 1705              	.L114:
 1706 001a C046     		.align	2
 1707              	.L113:
 1708 001c 04010540 		.word	1074069764
 1709              		.cfi_endproc
 1710              	.LFE34:
 1711              		.size	SWB_Timer_ReadStatus, .-SWB_Timer_ReadStatus
 1712              		.section	.text.SWB_Timer_SetInterruptMode,"ax",%progbits
 1713              		.align	2
 1714              		.global	SWB_Timer_SetInterruptMode
 1715              		.code	16
 1716              		.thumb_func
 1717              		.type	SWB_Timer_SetInterruptMode, %function
 1718              	SWB_Timer_SetInterruptMode:
 1719              	.LFB35:
1264:.\Generated_Source\PSoC4/SWB_Timer.c **** 
1265:.\Generated_Source\PSoC4/SWB_Timer.c **** 
1266:.\Generated_Source\PSoC4/SWB_Timer.c **** /*******************************************************************************
1267:.\Generated_Source\PSoC4/SWB_Timer.c **** * Function Name: SWB_Timer_SetInterruptMode
1268:.\Generated_Source\PSoC4/SWB_Timer.c **** ********************************************************************************
1269:.\Generated_Source\PSoC4/SWB_Timer.c **** *
1270:.\Generated_Source\PSoC4/SWB_Timer.c **** * Summary:
1271:.\Generated_Source\PSoC4/SWB_Timer.c **** *  Sets the interrupt mask to control which interrupt
1272:.\Generated_Source\PSoC4/SWB_Timer.c **** *  requests generate the interrupt signal.
1273:.\Generated_Source\PSoC4/SWB_Timer.c **** *
1274:.\Generated_Source\PSoC4/SWB_Timer.c **** * Parameters:
1275:.\Generated_Source\PSoC4/SWB_Timer.c **** *   interruptMask: Mask of bits to be enabled
1276:.\Generated_Source\PSoC4/SWB_Timer.c **** *   Values:
1277:.\Generated_Source\PSoC4/SWB_Timer.c **** *     - SWB_Timer_INTR_MASK_TC       - Terminal count mask
1278:.\Generated_Source\PSoC4/SWB_Timer.c **** *     - SWB_Timer_INTR_MASK_CC_MATCH - Compare count / capture mask
1279:.\Generated_Source\PSoC4/SWB_Timer.c **** *
1280:.\Generated_Source\PSoC4/SWB_Timer.c **** * Return:
1281:.\Generated_Source\PSoC4/SWB_Timer.c **** *  None
1282:.\Generated_Source\PSoC4/SWB_Timer.c **** *
1283:.\Generated_Source\PSoC4/SWB_Timer.c **** *******************************************************************************/
1284:.\Generated_Source\PSoC4/SWB_Timer.c **** void SWB_Timer_SetInterruptMode(uint32 interruptMask)
1285:.\Generated_Source\PSoC4/SWB_Timer.c **** {
 1720              		.loc 1 1285 0
 1721              		.cfi_startproc
 1722 0000 80B5     		push	{r7, lr}
 1723              		.cfi_def_cfa_offset 8
 1724              		.cfi_offset 7, -8
 1725              		.cfi_offset 14, -4
 1726 0002 82B0     		sub	sp, sp, #8
 1727              		.cfi_def_cfa_offset 16
 1728 0004 00AF     		add	r7, sp, #0
 1729              		.cfi_def_cfa_register 7
 1730 0006 7860     		str	r0, [r7, #4]
1286:.\Generated_Source\PSoC4/SWB_Timer.c ****     SWB_Timer_INTERRUPT_MASK_REG =  interruptMask;
 1731              		.loc 1 1286 0
 1732 0008 024B     		ldr	r3, .L116
 1733 000a 7A68     		ldr	r2, [r7, #4]
 1734 000c 1A60     		str	r2, [r3]
ARM GAS  C:\Users\Admin\AppData\Local\Temp\cc5236K1.s 			page 54


1287:.\Generated_Source\PSoC4/SWB_Timer.c **** }
 1735              		.loc 1 1287 0
 1736 000e BD46     		mov	sp, r7
 1737 0010 02B0     		add	sp, sp, #8
 1738              		@ sp needed
 1739 0012 80BD     		pop	{r7, pc}
 1740              	.L117:
 1741              		.align	2
 1742              	.L116:
 1743 0014 38010540 		.word	1074069816
 1744              		.cfi_endproc
 1745              	.LFE35:
 1746              		.size	SWB_Timer_SetInterruptMode, .-SWB_Timer_SetInterruptMode
 1747              		.section	.text.SWB_Timer_GetInterruptSourceMasked,"ax",%progbits
 1748              		.align	2
 1749              		.global	SWB_Timer_GetInterruptSourceMasked
 1750              		.code	16
 1751              		.thumb_func
 1752              		.type	SWB_Timer_GetInterruptSourceMasked, %function
 1753              	SWB_Timer_GetInterruptSourceMasked:
 1754              	.LFB36:
1288:.\Generated_Source\PSoC4/SWB_Timer.c **** 
1289:.\Generated_Source\PSoC4/SWB_Timer.c **** 
1290:.\Generated_Source\PSoC4/SWB_Timer.c **** /*******************************************************************************
1291:.\Generated_Source\PSoC4/SWB_Timer.c **** * Function Name: SWB_Timer_GetInterruptSourceMasked
1292:.\Generated_Source\PSoC4/SWB_Timer.c **** ********************************************************************************
1293:.\Generated_Source\PSoC4/SWB_Timer.c **** *
1294:.\Generated_Source\PSoC4/SWB_Timer.c **** * Summary:
1295:.\Generated_Source\PSoC4/SWB_Timer.c **** *  Gets the interrupt requests masked by the interrupt mask.
1296:.\Generated_Source\PSoC4/SWB_Timer.c **** *
1297:.\Generated_Source\PSoC4/SWB_Timer.c **** * Parameters:
1298:.\Generated_Source\PSoC4/SWB_Timer.c **** *   None
1299:.\Generated_Source\PSoC4/SWB_Timer.c **** *
1300:.\Generated_Source\PSoC4/SWB_Timer.c **** * Return:
1301:.\Generated_Source\PSoC4/SWB_Timer.c **** *  Masked interrupt source
1302:.\Generated_Source\PSoC4/SWB_Timer.c **** *   Values:
1303:.\Generated_Source\PSoC4/SWB_Timer.c **** *     - SWB_Timer_INTR_MASK_TC       - Terminal count mask
1304:.\Generated_Source\PSoC4/SWB_Timer.c **** *     - SWB_Timer_INTR_MASK_CC_MATCH - Compare count / capture mask
1305:.\Generated_Source\PSoC4/SWB_Timer.c **** *
1306:.\Generated_Source\PSoC4/SWB_Timer.c **** *******************************************************************************/
1307:.\Generated_Source\PSoC4/SWB_Timer.c **** uint32 SWB_Timer_GetInterruptSourceMasked(void)
1308:.\Generated_Source\PSoC4/SWB_Timer.c **** {
 1755              		.loc 1 1308 0
 1756              		.cfi_startproc
 1757 0000 80B5     		push	{r7, lr}
 1758              		.cfi_def_cfa_offset 8
 1759              		.cfi_offset 7, -8
 1760              		.cfi_offset 14, -4
 1761 0002 00AF     		add	r7, sp, #0
 1762              		.cfi_def_cfa_register 7
1309:.\Generated_Source\PSoC4/SWB_Timer.c ****     return (SWB_Timer_INTERRUPT_MASKED_REG);
 1763              		.loc 1 1309 0
 1764 0004 024B     		ldr	r3, .L120
 1765 0006 1B68     		ldr	r3, [r3]
1310:.\Generated_Source\PSoC4/SWB_Timer.c **** }
 1766              		.loc 1 1310 0
 1767 0008 181C     		mov	r0, r3
ARM GAS  C:\Users\Admin\AppData\Local\Temp\cc5236K1.s 			page 55


 1768 000a BD46     		mov	sp, r7
 1769              		@ sp needed
 1770 000c 80BD     		pop	{r7, pc}
 1771              	.L121:
 1772 000e C046     		.align	2
 1773              	.L120:
 1774 0010 3C010540 		.word	1074069820
 1775              		.cfi_endproc
 1776              	.LFE36:
 1777              		.size	SWB_Timer_GetInterruptSourceMasked, .-SWB_Timer_GetInterruptSourceMasked
 1778              		.section	.text.SWB_Timer_GetInterruptSource,"ax",%progbits
 1779              		.align	2
 1780              		.global	SWB_Timer_GetInterruptSource
 1781              		.code	16
 1782              		.thumb_func
 1783              		.type	SWB_Timer_GetInterruptSource, %function
 1784              	SWB_Timer_GetInterruptSource:
 1785              	.LFB37:
1311:.\Generated_Source\PSoC4/SWB_Timer.c **** 
1312:.\Generated_Source\PSoC4/SWB_Timer.c **** 
1313:.\Generated_Source\PSoC4/SWB_Timer.c **** /*******************************************************************************
1314:.\Generated_Source\PSoC4/SWB_Timer.c **** * Function Name: SWB_Timer_GetInterruptSource
1315:.\Generated_Source\PSoC4/SWB_Timer.c **** ********************************************************************************
1316:.\Generated_Source\PSoC4/SWB_Timer.c **** *
1317:.\Generated_Source\PSoC4/SWB_Timer.c **** * Summary:
1318:.\Generated_Source\PSoC4/SWB_Timer.c **** *  Gets the interrupt requests (without masking).
1319:.\Generated_Source\PSoC4/SWB_Timer.c **** *
1320:.\Generated_Source\PSoC4/SWB_Timer.c **** * Parameters:
1321:.\Generated_Source\PSoC4/SWB_Timer.c **** *  None
1322:.\Generated_Source\PSoC4/SWB_Timer.c **** *
1323:.\Generated_Source\PSoC4/SWB_Timer.c **** * Return:
1324:.\Generated_Source\PSoC4/SWB_Timer.c **** *  Interrupt request value
1325:.\Generated_Source\PSoC4/SWB_Timer.c **** *   Values:
1326:.\Generated_Source\PSoC4/SWB_Timer.c **** *     - SWB_Timer_INTR_MASK_TC       - Terminal count mask
1327:.\Generated_Source\PSoC4/SWB_Timer.c **** *     - SWB_Timer_INTR_MASK_CC_MATCH - Compare count / capture mask
1328:.\Generated_Source\PSoC4/SWB_Timer.c **** *
1329:.\Generated_Source\PSoC4/SWB_Timer.c **** *******************************************************************************/
1330:.\Generated_Source\PSoC4/SWB_Timer.c **** uint32 SWB_Timer_GetInterruptSource(void)
1331:.\Generated_Source\PSoC4/SWB_Timer.c **** {
 1786              		.loc 1 1331 0
 1787              		.cfi_startproc
 1788 0000 80B5     		push	{r7, lr}
 1789              		.cfi_def_cfa_offset 8
 1790              		.cfi_offset 7, -8
 1791              		.cfi_offset 14, -4
 1792 0002 00AF     		add	r7, sp, #0
 1793              		.cfi_def_cfa_register 7
1332:.\Generated_Source\PSoC4/SWB_Timer.c ****     return (SWB_Timer_INTERRUPT_REQ_REG);
 1794              		.loc 1 1332 0
 1795 0004 024B     		ldr	r3, .L124
 1796 0006 1B68     		ldr	r3, [r3]
1333:.\Generated_Source\PSoC4/SWB_Timer.c **** }
 1797              		.loc 1 1333 0
 1798 0008 181C     		mov	r0, r3
 1799 000a BD46     		mov	sp, r7
 1800              		@ sp needed
 1801 000c 80BD     		pop	{r7, pc}
ARM GAS  C:\Users\Admin\AppData\Local\Temp\cc5236K1.s 			page 56


 1802              	.L125:
 1803 000e C046     		.align	2
 1804              	.L124:
 1805 0010 30010540 		.word	1074069808
 1806              		.cfi_endproc
 1807              	.LFE37:
 1808              		.size	SWB_Timer_GetInterruptSource, .-SWB_Timer_GetInterruptSource
 1809              		.section	.text.SWB_Timer_ClearInterrupt,"ax",%progbits
 1810              		.align	2
 1811              		.global	SWB_Timer_ClearInterrupt
 1812              		.code	16
 1813              		.thumb_func
 1814              		.type	SWB_Timer_ClearInterrupt, %function
 1815              	SWB_Timer_ClearInterrupt:
 1816              	.LFB38:
1334:.\Generated_Source\PSoC4/SWB_Timer.c **** 
1335:.\Generated_Source\PSoC4/SWB_Timer.c **** 
1336:.\Generated_Source\PSoC4/SWB_Timer.c **** /*******************************************************************************
1337:.\Generated_Source\PSoC4/SWB_Timer.c **** * Function Name: SWB_Timer_ClearInterrupt
1338:.\Generated_Source\PSoC4/SWB_Timer.c **** ********************************************************************************
1339:.\Generated_Source\PSoC4/SWB_Timer.c **** *
1340:.\Generated_Source\PSoC4/SWB_Timer.c **** * Summary:
1341:.\Generated_Source\PSoC4/SWB_Timer.c **** *  Clears the interrupt request.
1342:.\Generated_Source\PSoC4/SWB_Timer.c **** *
1343:.\Generated_Source\PSoC4/SWB_Timer.c **** * Parameters:
1344:.\Generated_Source\PSoC4/SWB_Timer.c **** *   interruptMask: Mask of interrupts to clear
1345:.\Generated_Source\PSoC4/SWB_Timer.c **** *   Values:
1346:.\Generated_Source\PSoC4/SWB_Timer.c **** *     - SWB_Timer_INTR_MASK_TC       - Terminal count mask
1347:.\Generated_Source\PSoC4/SWB_Timer.c **** *     - SWB_Timer_INTR_MASK_CC_MATCH - Compare count / capture mask
1348:.\Generated_Source\PSoC4/SWB_Timer.c **** *
1349:.\Generated_Source\PSoC4/SWB_Timer.c **** * Return:
1350:.\Generated_Source\PSoC4/SWB_Timer.c **** *  None
1351:.\Generated_Source\PSoC4/SWB_Timer.c **** *
1352:.\Generated_Source\PSoC4/SWB_Timer.c **** *******************************************************************************/
1353:.\Generated_Source\PSoC4/SWB_Timer.c **** void SWB_Timer_ClearInterrupt(uint32 interruptMask)
1354:.\Generated_Source\PSoC4/SWB_Timer.c **** {
 1817              		.loc 1 1354 0
 1818              		.cfi_startproc
 1819 0000 80B5     		push	{r7, lr}
 1820              		.cfi_def_cfa_offset 8
 1821              		.cfi_offset 7, -8
 1822              		.cfi_offset 14, -4
 1823 0002 82B0     		sub	sp, sp, #8
 1824              		.cfi_def_cfa_offset 16
 1825 0004 00AF     		add	r7, sp, #0
 1826              		.cfi_def_cfa_register 7
 1827 0006 7860     		str	r0, [r7, #4]
1355:.\Generated_Source\PSoC4/SWB_Timer.c ****     SWB_Timer_INTERRUPT_REQ_REG = interruptMask;
 1828              		.loc 1 1355 0
 1829 0008 024B     		ldr	r3, .L127
 1830 000a 7A68     		ldr	r2, [r7, #4]
 1831 000c 1A60     		str	r2, [r3]
1356:.\Generated_Source\PSoC4/SWB_Timer.c **** }
 1832              		.loc 1 1356 0
 1833 000e BD46     		mov	sp, r7
 1834 0010 02B0     		add	sp, sp, #8
 1835              		@ sp needed
ARM GAS  C:\Users\Admin\AppData\Local\Temp\cc5236K1.s 			page 57


 1836 0012 80BD     		pop	{r7, pc}
 1837              	.L128:
 1838              		.align	2
 1839              	.L127:
 1840 0014 30010540 		.word	1074069808
 1841              		.cfi_endproc
 1842              	.LFE38:
 1843              		.size	SWB_Timer_ClearInterrupt, .-SWB_Timer_ClearInterrupt
 1844              		.section	.text.SWB_Timer_SetInterrupt,"ax",%progbits
 1845              		.align	2
 1846              		.global	SWB_Timer_SetInterrupt
 1847              		.code	16
 1848              		.thumb_func
 1849              		.type	SWB_Timer_SetInterrupt, %function
 1850              	SWB_Timer_SetInterrupt:
 1851              	.LFB39:
1357:.\Generated_Source\PSoC4/SWB_Timer.c **** 
1358:.\Generated_Source\PSoC4/SWB_Timer.c **** 
1359:.\Generated_Source\PSoC4/SWB_Timer.c **** /*******************************************************************************
1360:.\Generated_Source\PSoC4/SWB_Timer.c **** * Function Name: SWB_Timer_SetInterrupt
1361:.\Generated_Source\PSoC4/SWB_Timer.c **** ********************************************************************************
1362:.\Generated_Source\PSoC4/SWB_Timer.c **** *
1363:.\Generated_Source\PSoC4/SWB_Timer.c **** * Summary:
1364:.\Generated_Source\PSoC4/SWB_Timer.c **** *  Sets a software interrupt request.
1365:.\Generated_Source\PSoC4/SWB_Timer.c **** *
1366:.\Generated_Source\PSoC4/SWB_Timer.c **** * Parameters:
1367:.\Generated_Source\PSoC4/SWB_Timer.c **** *   interruptMask: Mask of interrupts to set
1368:.\Generated_Source\PSoC4/SWB_Timer.c **** *   Values:
1369:.\Generated_Source\PSoC4/SWB_Timer.c **** *     - SWB_Timer_INTR_MASK_TC       - Terminal count mask
1370:.\Generated_Source\PSoC4/SWB_Timer.c **** *     - SWB_Timer_INTR_MASK_CC_MATCH - Compare count / capture mask
1371:.\Generated_Source\PSoC4/SWB_Timer.c **** *
1372:.\Generated_Source\PSoC4/SWB_Timer.c **** * Return:
1373:.\Generated_Source\PSoC4/SWB_Timer.c **** *  None
1374:.\Generated_Source\PSoC4/SWB_Timer.c **** *
1375:.\Generated_Source\PSoC4/SWB_Timer.c **** *******************************************************************************/
1376:.\Generated_Source\PSoC4/SWB_Timer.c **** void SWB_Timer_SetInterrupt(uint32 interruptMask)
1377:.\Generated_Source\PSoC4/SWB_Timer.c **** {
 1852              		.loc 1 1377 0
 1853              		.cfi_startproc
 1854 0000 80B5     		push	{r7, lr}
 1855              		.cfi_def_cfa_offset 8
 1856              		.cfi_offset 7, -8
 1857              		.cfi_offset 14, -4
 1858 0002 82B0     		sub	sp, sp, #8
 1859              		.cfi_def_cfa_offset 16
 1860 0004 00AF     		add	r7, sp, #0
 1861              		.cfi_def_cfa_register 7
 1862 0006 7860     		str	r0, [r7, #4]
1378:.\Generated_Source\PSoC4/SWB_Timer.c ****     SWB_Timer_INTERRUPT_SET_REG = interruptMask;
 1863              		.loc 1 1378 0
 1864 0008 024B     		ldr	r3, .L130
 1865 000a 7A68     		ldr	r2, [r7, #4]
 1866 000c 1A60     		str	r2, [r3]
1379:.\Generated_Source\PSoC4/SWB_Timer.c **** }
 1867              		.loc 1 1379 0
 1868 000e BD46     		mov	sp, r7
 1869 0010 02B0     		add	sp, sp, #8
ARM GAS  C:\Users\Admin\AppData\Local\Temp\cc5236K1.s 			page 58


 1870              		@ sp needed
 1871 0012 80BD     		pop	{r7, pc}
 1872              	.L131:
 1873              		.align	2
 1874              	.L130:
 1875 0014 34010540 		.word	1074069812
 1876              		.cfi_endproc
 1877              	.LFE39:
 1878              		.size	SWB_Timer_SetInterrupt, .-SWB_Timer_SetInterrupt
 1879              		.text
 1880              	.Letext0:
 1881              		.file 2 ".\\Generated_Source\\PSoC4\\cytypes.h"