ARM GAS  C:\Users\Admin\AppData\Local\Temp\cczF04ft.s 			page 1


   1              		.cpu cortex-m0
   2              		.fpu softvfp
   3              		.eabi_attribute 20, 1
   4              		.eabi_attribute 21, 1
   5              		.eabi_attribute 23, 3
   6              		.eabi_attribute 24, 1
   7              		.eabi_attribute 25, 1
   8              		.eabi_attribute 26, 1
   9              		.eabi_attribute 30, 6
  10              		.eabi_attribute 34, 0
  11              		.eabi_attribute 18, 4
  12              		.code	16
  13              		.file	"togglelib.c"
  14              		.text
  15              	.Ltext0:
  16              		.cfi_sections	.debug_frame
  17              		.comm	Volunteer_Sequence,21,4
  18              		.comm	Organizer_Sequence,21,4
  19              		.section	.text.SWL_Handler,"ax",%progbits
  20              		.align	2
  21              		.global	SWL_Handler
  22              		.code	16
  23              		.thumb_func
  24              		.type	SWL_Handler, %function
  25              	SWL_Handler:
  26              	.LFB33:
  27              		.file 1 ".\\togglelib.c"
   1:.\togglelib.c **** /* ========================================
   2:.\togglelib.c ****  *
   3:.\togglelib.c ****  * Copyright Nullify, 2016
   4:.\togglelib.c ****  * All Rights Reserved
   5:.\togglelib.c ****  * UNPUBLISHED, LICENSED SOFTWARE.
   6:.\togglelib.c ****  *
   7:.\togglelib.c ****  * CONFIDENTIAL AND PROPRIETARY INFORMATION
   8:.\togglelib.c ****  * WHICH IS THE PROPERTY OF NULLIY.
   9:.\togglelib.c ****  *
  10:.\togglelib.c ****  * ========================================
  11:.\togglelib.c **** */
  12:.\togglelib.c **** #include <project.h>
  13:.\togglelib.c **** #include <stdio.h>
  14:.\togglelib.c **** #include <time.h>
  15:.\togglelib.c **** #include <stdlib.h>
  16:.\togglelib.c **** #include "lightlib.h"
  17:.\togglelib.c **** #include "togglelib.h"
  18:.\togglelib.c **** #include "state.h"
  19:.\togglelib.c **** 
  20:.\togglelib.c **** /* Global Structures used to signal state change for badge  */
  21:.\togglelib.c **** volatile struct Magic_Toggle_Sequence Volunteer_Sequence;
  22:.\togglelib.c **** volatile struct Magic_Toggle_Sequence Organizer_Sequence;
  23:.\togglelib.c **** 
  24:.\togglelib.c **** /* Signal handler for left toggle press */
  25:.\togglelib.c **** CY_ISR( SWL_Handler ) {
  28              		.loc 1 25 0
  29              		.cfi_startproc
  30 0000 90B5     		push	{r4, r7, lr}
  31              		.cfi_def_cfa_offset 12
  32              		.cfi_offset 4, -12
ARM GAS  C:\Users\Admin\AppData\Local\Temp\cczF04ft.s 			page 2


  33              		.cfi_offset 7, -8
  34              		.cfi_offset 14, -4
  35 0002 83B0     		sub	sp, sp, #12
  36              		.cfi_def_cfa_offset 24
  37 0004 00AF     		add	r7, sp, #0
  38              		.cfi_def_cfa_register 7
  26:.\togglelib.c ****     uint8* sequance; 
  27:.\togglelib.c ****     uint8 index;
  28:.\togglelib.c ****     
  29:.\togglelib.c ****     /* Determine what state the badge is currently in */
  30:.\togglelib.c ****     switch(badge_state) {
  39              		.loc 1 30 0
  40 0006 404B     		ldr	r3, .L11
  41 0008 1B78     		ldrb	r3, [r3]
  42 000a DBB2     		uxtb	r3, r3
  43 000c 012B     		cmp	r3, #1
  44 000e 02D0     		beq	.L3
  45 0010 022B     		cmp	r3, #2
  46 0012 33D0     		beq	.L4
  47 0014 6FE0     		b	.L2
  48              	.L3:
  31:.\togglelib.c ****         case VOLUNTEER:
  32:.\togglelib.c ****             sequance = get_magic_toggle_sequance(ORGANIZER);
  49              		.loc 1 32 0
  50 0016 0220     		mov	r0, #2
  51 0018 FFF7FEFF 		bl	get_magic_toggle_sequance
  52 001c 031C     		mov	r3, r0
  53 001e 3B60     		str	r3, [r7]
  33:.\togglelib.c ****             index = get_magic_toggle_index(ORGANIZER);
  54              		.loc 1 33 0
  55 0020 FC1D     		add	r4, r7, #7
  56 0022 0220     		mov	r0, #2
  57 0024 FFF7FEFF 		bl	get_magic_toggle_index
  58 0028 031C     		mov	r3, r0
  59 002a 2370     		strb	r3, [r4]
  34:.\togglelib.c ****             
  35:.\togglelib.c ****             /* Check if the toggle is the next value in the sequance */
  36:.\togglelib.c ****             if (sequance[index] == LEFT_TOGGLE) {
  60              		.loc 1 36 0
  61 002c FB1D     		add	r3, r7, #7
  62 002e 1B78     		ldrb	r3, [r3]
  63 0030 3A68     		ldr	r2, [r7]
  64 0032 D318     		add	r3, r2, r3
  65 0034 1B78     		ldrb	r3, [r3]
  66 0036 012B     		cmp	r3, #1
  67 0038 05D1     		bne	.L5
  37:.\togglelib.c ****                 index += 1;
  68              		.loc 1 37 0
  69 003a FB1D     		add	r3, r7, #7
  70 003c FA1D     		add	r2, r7, #7
  71 003e 1278     		ldrb	r2, [r2]
  72 0040 0132     		add	r2, r2, #1
  73 0042 1A70     		strb	r2, [r3]
  74 0044 02E0     		b	.L6
  75              	.L5:
  38:.\togglelib.c ****             }
  39:.\togglelib.c ****             else {
ARM GAS  C:\Users\Admin\AppData\Local\Temp\cczF04ft.s 			page 3


  40:.\togglelib.c ****                 index = 0;
  76              		.loc 1 40 0
  77 0046 FB1D     		add	r3, r7, #7
  78 0048 0022     		mov	r2, #0
  79 004a 1A70     		strb	r2, [r3]
  80              	.L6:
  41:.\togglelib.c ****             }
  42:.\togglelib.c ****                    
  43:.\togglelib.c ****            /* If the sequance is found change the state of the badge */
  44:.\togglelib.c ****            if (index == strlen(sequance)){
  81              		.loc 1 44 0
  82 004c FB1D     		add	r3, r7, #7
  83 004e 1C78     		ldrb	r4, [r3]
  84 0050 3B68     		ldr	r3, [r7]
  85 0052 181C     		mov	r0, r3
  86 0054 FFF7FEFF 		bl	strlen
  87 0058 031C     		mov	r3, r0
  88 005a 9C42     		cmp	r4, r3
  89 005c 07D1     		bne	.L7
  45:.\togglelib.c ****             badge_state = ORGANIZER;
  90              		.loc 1 45 0
  91 005e 2A4B     		ldr	r3, .L11
  92 0060 0222     		mov	r2, #2
  93 0062 1A70     		strb	r2, [r3]
  46:.\togglelib.c ****             PWM_Organizer_Start();
  94              		.loc 1 46 0
  95 0064 FFF7FEFF 		bl	PWM_Organizer_Start
  47:.\togglelib.c ****             index = 0;
  96              		.loc 1 47 0
  97 0068 FB1D     		add	r3, r7, #7
  98 006a 0022     		mov	r2, #0
  99 006c 1A70     		strb	r2, [r3]
 100              	.L7:
  48:.\togglelib.c ****            }
  49:.\togglelib.c ****         
  50:.\togglelib.c ****            /* Update the value in the toggle struct */
  51:.\togglelib.c ****             set_magic_toggle_index(ORGANIZER, index);
 101              		.loc 1 51 0
 102 006e FB1D     		add	r3, r7, #7
 103 0070 1B78     		ldrb	r3, [r3]
 104 0072 0220     		mov	r0, #2
 105 0074 191C     		mov	r1, r3
 106 0076 FFF7FEFF 		bl	set_magic_toggle_index
  52:.\togglelib.c ****         break;
 107              		.loc 1 52 0
 108 007a 3CE0     		b	.L2
 109              	.L4:
  53:.\togglelib.c ****         case ORGANIZER:
  54:.\togglelib.c ****             sequance = get_magic_toggle_sequance(VOLUNTEER);
 110              		.loc 1 54 0
 111 007c 0120     		mov	r0, #1
 112 007e FFF7FEFF 		bl	get_magic_toggle_sequance
 113 0082 031C     		mov	r3, r0
 114 0084 3B60     		str	r3, [r7]
  55:.\togglelib.c ****             index = get_magic_toggle_index(VOLUNTEER);
 115              		.loc 1 55 0
 116 0086 FC1D     		add	r4, r7, #7
ARM GAS  C:\Users\Admin\AppData\Local\Temp\cczF04ft.s 			page 4


 117 0088 0120     		mov	r0, #1
 118 008a FFF7FEFF 		bl	get_magic_toggle_index
 119 008e 031C     		mov	r3, r0
 120 0090 2370     		strb	r3, [r4]
  56:.\togglelib.c ****             
  57:.\togglelib.c ****             /* Check if the toggle is the next value in the sequance */
  58:.\togglelib.c ****             if (sequance[index] == LEFT_TOGGLE) {
 121              		.loc 1 58 0
 122 0092 FB1D     		add	r3, r7, #7
 123 0094 1B78     		ldrb	r3, [r3]
 124 0096 3A68     		ldr	r2, [r7]
 125 0098 D318     		add	r3, r2, r3
 126 009a 1B78     		ldrb	r3, [r3]
 127 009c 012B     		cmp	r3, #1
 128 009e 05D1     		bne	.L8
  59:.\togglelib.c ****                 index += 1;
 129              		.loc 1 59 0
 130 00a0 FB1D     		add	r3, r7, #7
 131 00a2 FA1D     		add	r2, r7, #7
 132 00a4 1278     		ldrb	r2, [r2]
 133 00a6 0132     		add	r2, r2, #1
 134 00a8 1A70     		strb	r2, [r3]
 135 00aa 02E0     		b	.L9
 136              	.L8:
  60:.\togglelib.c ****             }
  61:.\togglelib.c ****             else {
  62:.\togglelib.c ****                 index = 0;
 137              		.loc 1 62 0
 138 00ac FB1D     		add	r3, r7, #7
 139 00ae 0022     		mov	r2, #0
 140 00b0 1A70     		strb	r2, [r3]
 141              	.L9:
  63:.\togglelib.c ****             }
  64:.\togglelib.c ****                    
  65:.\togglelib.c ****            /* If the sequance is found change the state of the badge */
  66:.\togglelib.c ****            if (index == strlen(sequance)){
 142              		.loc 1 66 0
 143 00b2 FB1D     		add	r3, r7, #7
 144 00b4 1C78     		ldrb	r4, [r3]
 145 00b6 3B68     		ldr	r3, [r7]
 146 00b8 181C     		mov	r0, r3
 147 00ba FFF7FEFF 		bl	strlen
 148 00be 031C     		mov	r3, r0
 149 00c0 9C42     		cmp	r4, r3
 150 00c2 11D1     		bne	.L10
  67:.\togglelib.c ****             badge_state = VOLUNTEER;
 151              		.loc 1 67 0
 152 00c4 104B     		ldr	r3, .L11
 153 00c6 0122     		mov	r2, #1
 154 00c8 1A70     		strb	r2, [r3]
  68:.\togglelib.c ****             PWM_Organizer_Stop();
 155              		.loc 1 68 0
 156 00ca FFF7FEFF 		bl	PWM_Organizer_Stop
  69:.\togglelib.c ****             turn_off(LEFT_RIGHT_LED);
 157              		.loc 1 69 0
 158 00ce 0320     		mov	r0, #3
 159 00d0 FFF7FEFF 		bl	turn_off
ARM GAS  C:\Users\Admin\AppData\Local\Temp\cczF04ft.s 			page 5


  70:.\togglelib.c ****             set_color(LEFT_RIGHT_LED, GREEN);
 160              		.loc 1 70 0
 161 00d4 0320     		mov	r0, #3
 162 00d6 0421     		mov	r1, #4
 163 00d8 FFF7FEFF 		bl	set_color
  71:.\togglelib.c ****             turn_on(LEFT_RIGHT_LED);
 164              		.loc 1 71 0
 165 00dc 0320     		mov	r0, #3
 166 00de FFF7FEFF 		bl	turn_on
  72:.\togglelib.c ****             index = 0;
 167              		.loc 1 72 0
 168 00e2 FB1D     		add	r3, r7, #7
 169 00e4 0022     		mov	r2, #0
 170 00e6 1A70     		strb	r2, [r3]
 171              	.L10:
  73:.\togglelib.c ****            }
  74:.\togglelib.c ****         
  75:.\togglelib.c ****            /* Update the value in the VOLUNTEER toggle struct */
  76:.\togglelib.c ****             set_magic_toggle_index(VOLUNTEER, index);
 172              		.loc 1 76 0
 173 00e8 FB1D     		add	r3, r7, #7
 174 00ea 1B78     		ldrb	r3, [r3]
 175 00ec 0120     		mov	r0, #1
 176 00ee 191C     		mov	r1, r3
 177 00f0 FFF7FEFF 		bl	set_magic_toggle_index
  77:.\togglelib.c ****         break;
 178              		.loc 1 77 0
 179 00f4 C046     		mov	r8, r8
 180              	.L2:
  78:.\togglelib.c ****     }
  79:.\togglelib.c ****     
  80:.\togglelib.c ****     /* Delay for a long press and clear interrupt */
  81:.\togglelib.c ****     CyDelay(TOGGLE_DELAY);
 181              		.loc 1 81 0
 182 00f6 9620     		mov	r0, #150
 183 00f8 FFF7FEFF 		bl	CyDelay
  82:.\togglelib.c ****     SWL_ClearInterrupt();
 184              		.loc 1 82 0
 185 00fc FFF7FEFF 		bl	SWL_ClearInterrupt
  83:.\togglelib.c **** }
 186              		.loc 1 83 0
 187 0100 BD46     		mov	sp, r7
 188 0102 03B0     		add	sp, sp, #12
 189              		@ sp needed
 190 0104 90BD     		pop	{r4, r7, pc}
 191              	.L12:
 192 0106 C046     		.align	2
 193              	.L11:
 194 0108 00000000 		.word	badge_state
 195              		.cfi_endproc
 196              	.LFE33:
 197              		.size	SWL_Handler, .-SWL_Handler
 198              		.section	.text.SWR_Handler,"ax",%progbits
 199              		.align	2
 200              		.global	SWR_Handler
 201              		.code	16
 202              		.thumb_func
ARM GAS  C:\Users\Admin\AppData\Local\Temp\cczF04ft.s 			page 6


 203              		.type	SWR_Handler, %function
 204              	SWR_Handler:
 205              	.LFB34:
  84:.\togglelib.c **** 
  85:.\togglelib.c **** /* Signal handler for right toggle press */
  86:.\togglelib.c **** CY_ISR( SWR_Handler ) {
 206              		.loc 1 86 0
 207              		.cfi_startproc
 208 0000 90B5     		push	{r4, r7, lr}
 209              		.cfi_def_cfa_offset 12
 210              		.cfi_offset 4, -12
 211              		.cfi_offset 7, -8
 212              		.cfi_offset 14, -4
 213 0002 83B0     		sub	sp, sp, #12
 214              		.cfi_def_cfa_offset 24
 215 0004 00AF     		add	r7, sp, #0
 216              		.cfi_def_cfa_register 7
  87:.\togglelib.c ****     uint8* sequance; 
  88:.\togglelib.c ****     uint8 index;
  89:.\togglelib.c ****     
  90:.\togglelib.c ****     /* Determine what state the badge is currently in */
  91:.\togglelib.c ****     switch(badge_state) {
 217              		.loc 1 91 0
 218 0006 404B     		ldr	r3, .L23
 219 0008 1B78     		ldrb	r3, [r3]
 220 000a DBB2     		uxtb	r3, r3
 221 000c 012B     		cmp	r3, #1
 222 000e 02D0     		beq	.L15
 223 0010 022B     		cmp	r3, #2
 224 0012 33D0     		beq	.L16
 225 0014 6FE0     		b	.L14
 226              	.L15:
  92:.\togglelib.c ****         case VOLUNTEER:
  93:.\togglelib.c ****             sequance = get_magic_toggle_sequance(ORGANIZER);
 227              		.loc 1 93 0
 228 0016 0220     		mov	r0, #2
 229 0018 FFF7FEFF 		bl	get_magic_toggle_sequance
 230 001c 031C     		mov	r3, r0
 231 001e 3B60     		str	r3, [r7]
  94:.\togglelib.c ****             index = get_magic_toggle_index(ORGANIZER);
 232              		.loc 1 94 0
 233 0020 FC1D     		add	r4, r7, #7
 234 0022 0220     		mov	r0, #2
 235 0024 FFF7FEFF 		bl	get_magic_toggle_index
 236 0028 031C     		mov	r3, r0
 237 002a 2370     		strb	r3, [r4]
  95:.\togglelib.c ****             
  96:.\togglelib.c ****             /* Check if the toggle is the next value in the sequance */
  97:.\togglelib.c ****             if (sequance[index] == RIGHT_TOGGLE) {
 238              		.loc 1 97 0
 239 002c FB1D     		add	r3, r7, #7
 240 002e 1B78     		ldrb	r3, [r3]
 241 0030 3A68     		ldr	r2, [r7]
 242 0032 D318     		add	r3, r2, r3
 243 0034 1B78     		ldrb	r3, [r3]
 244 0036 022B     		cmp	r3, #2
 245 0038 05D1     		bne	.L17
ARM GAS  C:\Users\Admin\AppData\Local\Temp\cczF04ft.s 			page 7


  98:.\togglelib.c ****                 index += 1;
 246              		.loc 1 98 0
 247 003a FB1D     		add	r3, r7, #7
 248 003c FA1D     		add	r2, r7, #7
 249 003e 1278     		ldrb	r2, [r2]
 250 0040 0132     		add	r2, r2, #1
 251 0042 1A70     		strb	r2, [r3]
 252 0044 02E0     		b	.L18
 253              	.L17:
  99:.\togglelib.c ****             }
 100:.\togglelib.c ****             else {
 101:.\togglelib.c ****                 index = 0;
 254              		.loc 1 101 0
 255 0046 FB1D     		add	r3, r7, #7
 256 0048 0022     		mov	r2, #0
 257 004a 1A70     		strb	r2, [r3]
 258              	.L18:
 102:.\togglelib.c ****             }
 103:.\togglelib.c ****                    
 104:.\togglelib.c ****            /* If the sequance is found change the state of the badge */
 105:.\togglelib.c ****            if (index == strlen(sequance)){
 259              		.loc 1 105 0
 260 004c FB1D     		add	r3, r7, #7
 261 004e 1C78     		ldrb	r4, [r3]
 262 0050 3B68     		ldr	r3, [r7]
 263 0052 181C     		mov	r0, r3
 264 0054 FFF7FEFF 		bl	strlen
 265 0058 031C     		mov	r3, r0
 266 005a 9C42     		cmp	r4, r3
 267 005c 07D1     		bne	.L19
 106:.\togglelib.c ****             badge_state = ORGANIZER;
 268              		.loc 1 106 0
 269 005e 2A4B     		ldr	r3, .L23
 270 0060 0222     		mov	r2, #2
 271 0062 1A70     		strb	r2, [r3]
 107:.\togglelib.c ****             PWM_Organizer_Start();
 272              		.loc 1 107 0
 273 0064 FFF7FEFF 		bl	PWM_Organizer_Start
 108:.\togglelib.c ****             index = 0;
 274              		.loc 1 108 0
 275 0068 FB1D     		add	r3, r7, #7
 276 006a 0022     		mov	r2, #0
 277 006c 1A70     		strb	r2, [r3]
 278              	.L19:
 109:.\togglelib.c ****            }
 110:.\togglelib.c ****         
 111:.\togglelib.c ****            /* Update the value in the toggle struct */
 112:.\togglelib.c ****             set_magic_toggle_index(ORGANIZER, index);
 279              		.loc 1 112 0
 280 006e FB1D     		add	r3, r7, #7
 281 0070 1B78     		ldrb	r3, [r3]
 282 0072 0220     		mov	r0, #2
 283 0074 191C     		mov	r1, r3
 284 0076 FFF7FEFF 		bl	set_magic_toggle_index
 113:.\togglelib.c ****         break;
 285              		.loc 1 113 0
 286 007a 3CE0     		b	.L14
ARM GAS  C:\Users\Admin\AppData\Local\Temp\cczF04ft.s 			page 8


 287              	.L16:
 114:.\togglelib.c ****         case ORGANIZER:
 115:.\togglelib.c ****             sequance = get_magic_toggle_sequance(VOLUNTEER);
 288              		.loc 1 115 0
 289 007c 0120     		mov	r0, #1
 290 007e FFF7FEFF 		bl	get_magic_toggle_sequance
 291 0082 031C     		mov	r3, r0
 292 0084 3B60     		str	r3, [r7]
 116:.\togglelib.c ****             index = get_magic_toggle_index(VOLUNTEER);
 293              		.loc 1 116 0
 294 0086 FC1D     		add	r4, r7, #7
 295 0088 0120     		mov	r0, #1
 296 008a FFF7FEFF 		bl	get_magic_toggle_index
 297 008e 031C     		mov	r3, r0
 298 0090 2370     		strb	r3, [r4]
 117:.\togglelib.c ****             
 118:.\togglelib.c ****             /* Check if the toggle is the next value in the sequance */
 119:.\togglelib.c ****             if (sequance[index] == RIGHT_TOGGLE) {
 299              		.loc 1 119 0
 300 0092 FB1D     		add	r3, r7, #7
 301 0094 1B78     		ldrb	r3, [r3]
 302 0096 3A68     		ldr	r2, [r7]
 303 0098 D318     		add	r3, r2, r3
 304 009a 1B78     		ldrb	r3, [r3]
 305 009c 022B     		cmp	r3, #2
 306 009e 05D1     		bne	.L20
 120:.\togglelib.c ****                 index += 1;
 307              		.loc 1 120 0
 308 00a0 FB1D     		add	r3, r7, #7
 309 00a2 FA1D     		add	r2, r7, #7
 310 00a4 1278     		ldrb	r2, [r2]
 311 00a6 0132     		add	r2, r2, #1
 312 00a8 1A70     		strb	r2, [r3]
 313 00aa 02E0     		b	.L21
 314              	.L20:
 121:.\togglelib.c ****             }
 122:.\togglelib.c ****             else {
 123:.\togglelib.c ****                 index = 0;
 315              		.loc 1 123 0
 316 00ac FB1D     		add	r3, r7, #7
 317 00ae 0022     		mov	r2, #0
 318 00b0 1A70     		strb	r2, [r3]
 319              	.L21:
 124:.\togglelib.c ****             }
 125:.\togglelib.c ****                    
 126:.\togglelib.c ****            /* If the sequance is found change the state of the badge */
 127:.\togglelib.c ****            if (index == strlen(sequance)){
 320              		.loc 1 127 0
 321 00b2 FB1D     		add	r3, r7, #7
 322 00b4 1C78     		ldrb	r4, [r3]
 323 00b6 3B68     		ldr	r3, [r7]
 324 00b8 181C     		mov	r0, r3
 325 00ba FFF7FEFF 		bl	strlen
 326 00be 031C     		mov	r3, r0
 327 00c0 9C42     		cmp	r4, r3
 328 00c2 11D1     		bne	.L22
 128:.\togglelib.c ****             badge_state = VOLUNTEER;
ARM GAS  C:\Users\Admin\AppData\Local\Temp\cczF04ft.s 			page 9


 329              		.loc 1 128 0
 330 00c4 104B     		ldr	r3, .L23
 331 00c6 0122     		mov	r2, #1
 332 00c8 1A70     		strb	r2, [r3]
 129:.\togglelib.c ****             PWM_Organizer_Stop();
 333              		.loc 1 129 0
 334 00ca FFF7FEFF 		bl	PWM_Organizer_Stop
 130:.\togglelib.c ****             turn_off(LEFT_RIGHT_LED);
 335              		.loc 1 130 0
 336 00ce 0320     		mov	r0, #3
 337 00d0 FFF7FEFF 		bl	turn_off
 131:.\togglelib.c ****             set_color(LEFT_RIGHT_LED, GREEN);
 338              		.loc 1 131 0
 339 00d4 0320     		mov	r0, #3
 340 00d6 0421     		mov	r1, #4
 341 00d8 FFF7FEFF 		bl	set_color
 132:.\togglelib.c ****             turn_on(LEFT_RIGHT_LED);
 342              		.loc 1 132 0
 343 00dc 0320     		mov	r0, #3
 344 00de FFF7FEFF 		bl	turn_on
 133:.\togglelib.c ****             index = 0;
 345              		.loc 1 133 0
 346 00e2 FB1D     		add	r3, r7, #7
 347 00e4 0022     		mov	r2, #0
 348 00e6 1A70     		strb	r2, [r3]
 349              	.L22:
 134:.\togglelib.c ****            }
 135:.\togglelib.c ****         
 136:.\togglelib.c ****            /* Update the value in the VOLUNTEER toggle struct */
 137:.\togglelib.c ****             set_magic_toggle_index(VOLUNTEER, index);
 350              		.loc 1 137 0
 351 00e8 FB1D     		add	r3, r7, #7
 352 00ea 1B78     		ldrb	r3, [r3]
 353 00ec 0120     		mov	r0, #1
 354 00ee 191C     		mov	r1, r3
 355 00f0 FFF7FEFF 		bl	set_magic_toggle_index
 138:.\togglelib.c ****         break;
 356              		.loc 1 138 0
 357 00f4 C046     		mov	r8, r8
 358              	.L14:
 139:.\togglelib.c ****     }
 140:.\togglelib.c ****     
 141:.\togglelib.c ****     /* Delay for a long press and clear interrupt */
 142:.\togglelib.c ****     CyDelay(TOGGLE_DELAY);
 359              		.loc 1 142 0
 360 00f6 9620     		mov	r0, #150
 361 00f8 FFF7FEFF 		bl	CyDelay
 143:.\togglelib.c ****     SWR_ClearInterrupt();
 362              		.loc 1 143 0
 363 00fc FFF7FEFF 		bl	SWR_ClearInterrupt
 144:.\togglelib.c **** }
 364              		.loc 1 144 0
 365 0100 BD46     		mov	sp, r7
 366 0102 03B0     		add	sp, sp, #12
 367              		@ sp needed
 368 0104 90BD     		pop	{r4, r7, pc}
 369              	.L24:
ARM GAS  C:\Users\Admin\AppData\Local\Temp\cczF04ft.s 			page 10


 370 0106 C046     		.align	2
 371              	.L23:
 372 0108 00000000 		.word	badge_state
 373              		.cfi_endproc
 374              	.LFE34:
 375              		.size	SWR_Handler, .-SWR_Handler
 376              		.section	.text.SWB_Handler,"ax",%progbits
 377              		.align	2
 378              		.global	SWB_Handler
 379              		.code	16
 380              		.thumb_func
 381              		.type	SWB_Handler, %function
 382              	SWB_Handler:
 383              	.LFB35:
 145:.\togglelib.c **** 
 146:.\togglelib.c **** /* Signal handler for on board toggle press */
 147:.\togglelib.c **** CY_ISR( SWB_Handler ) {
 384              		.loc 1 147 0
 385              		.cfi_startproc
 386 0000 80B5     		push	{r7, lr}
 387              		.cfi_def_cfa_offset 8
 388              		.cfi_offset 7, -8
 389              		.cfi_offset 14, -4
 390 0002 00AF     		add	r7, sp, #0
 391              		.cfi_def_cfa_register 7
 148:.\togglelib.c ****     /* Flip IR Status */
 149:.\togglelib.c ****     if (get_status(IR_LED) == OFF) {
 392              		.loc 1 149 0
 393 0004 0420     		mov	r0, #4
 394 0006 FFF7FEFF 		bl	get_status
 395 000a 031C     		mov	r3, r0
 396 000c 002B     		cmp	r3, #0
 397 000e 03D1     		bne	.L26
 150:.\togglelib.c ****         turn_on(IR_LED);
 398              		.loc 1 150 0
 399 0010 0420     		mov	r0, #4
 400 0012 FFF7FEFF 		bl	turn_on
 401 0016 02E0     		b	.L27
 402              	.L26:
 151:.\togglelib.c ****     } 
 152:.\togglelib.c ****     else {
 153:.\togglelib.c ****          turn_off(IR_LED);
 403              		.loc 1 153 0
 404 0018 0420     		mov	r0, #4
 405 001a FFF7FEFF 		bl	turn_off
 406              	.L27:
 154:.\togglelib.c ****     }
 155:.\togglelib.c ****     
 156:.\togglelib.c ****     if (get_status(BOARD_LED) == OFF) {
 407              		.loc 1 156 0
 408 001e 0520     		mov	r0, #5
 409 0020 FFF7FEFF 		bl	get_status
 410 0024 031C     		mov	r3, r0
 411 0026 002B     		cmp	r3, #0
 412 0028 03D1     		bne	.L28
 157:.\togglelib.c ****         turn_on(BOARD_LED);
 413              		.loc 1 157 0
ARM GAS  C:\Users\Admin\AppData\Local\Temp\cczF04ft.s 			page 11


 414 002a 0520     		mov	r0, #5
 415 002c FFF7FEFF 		bl	turn_on
 416 0030 02E0     		b	.L29
 417              	.L28:
 158:.\togglelib.c ****     } 
 159:.\togglelib.c ****     else {
 160:.\togglelib.c ****          turn_off(BOARD_LED);
 418              		.loc 1 160 0
 419 0032 0520     		mov	r0, #5
 420 0034 FFF7FEFF 		bl	turn_off
 421              	.L29:
 161:.\togglelib.c ****     }
 162:.\togglelib.c ****     
 163:.\togglelib.c **** 
 164:.\togglelib.c ****     /* Clear interrupt */
 165:.\togglelib.c ****     SWB_ClearInterrupt();
 422              		.loc 1 165 0
 423 0038 FFF7FEFF 		bl	SWB_ClearInterrupt
 166:.\togglelib.c **** }
 424              		.loc 1 166 0
 425 003c BD46     		mov	sp, r7
 426              		@ sp needed
 427 003e 80BD     		pop	{r7, pc}
 428              		.cfi_endproc
 429              	.LFE35:
 430              		.size	SWB_Handler, .-SWB_Handler
 431              		.global	__aeabi_idivmod
 432              		.section	.text.ORG_Handler,"ax",%progbits
 433              		.align	2
 434              		.global	ORG_Handler
 435              		.code	16
 436              		.thumb_func
 437              		.type	ORG_Handler, %function
 438              	ORG_Handler:
 439              	.LFB36:
 167:.\togglelib.c **** 
 168:.\togglelib.c **** /* Signal handler for organizer lights */
 169:.\togglelib.c **** CY_ISR( ORG_Handler ) {
 440              		.loc 1 169 0
 441              		.cfi_startproc
 442 0000 90B5     		push	{r4, r7, lr}
 443              		.cfi_def_cfa_offset 12
 444              		.cfi_offset 4, -12
 445              		.cfi_offset 7, -8
 446              		.cfi_offset 14, -4
 447 0002 85B0     		sub	sp, sp, #20
 448              		.cfi_def_cfa_offset 32
 449 0004 00AF     		add	r7, sp, #0
 450              		.cfi_def_cfa_register 7
 170:.\togglelib.c ****     /* */
 171:.\togglelib.c ****     uint8 current_color_left = get_color(LEFT_LED);
 451              		.loc 1 171 0
 452 0006 FC1D     		add	r4, r7, #7
 453 0008 0120     		mov	r0, #1
 454 000a FFF7FEFF 		bl	get_color
 455 000e 031C     		mov	r3, r0
 456 0010 2370     		strb	r3, [r4]
ARM GAS  C:\Users\Admin\AppData\Local\Temp\cczF04ft.s 			page 12


 172:.\togglelib.c ****     uint8 current_color_right = get_color(RIGHT_LED);
 457              		.loc 1 172 0
 458 0012 BC1D     		add	r4, r7, #6
 459 0014 0220     		mov	r0, #2
 460 0016 FFF7FEFF 		bl	get_color
 461 001a 031C     		mov	r3, r0
 462 001c 2370     		strb	r3, [r4]
 173:.\togglelib.c ****     uint32 rand_num_left = (rand() % 7) + 1;
 463              		.loc 1 173 0
 464 001e FFF7FEFF 		bl	rand
 465 0022 031C     		mov	r3, r0
 466 0024 181C     		mov	r0, r3
 467 0026 0721     		mov	r1, #7
 468 0028 FFF7FEFF 		bl	__aeabi_idivmod
 469 002c 0B1C     		mov	r3, r1
 470 002e 0133     		add	r3, r3, #1
 471 0030 FB60     		str	r3, [r7, #12]
 174:.\togglelib.c ****     uint32 rand_num_right = (rand() % 7) + 1;
 472              		.loc 1 174 0
 473 0032 FFF7FEFF 		bl	rand
 474 0036 031C     		mov	r3, r0
 475 0038 181C     		mov	r0, r3
 476 003a 0721     		mov	r1, #7
 477 003c FFF7FEFF 		bl	__aeabi_idivmod
 478 0040 0B1C     		mov	r3, r1
 479 0042 0133     		add	r3, r3, #1
 480 0044 BB60     		str	r3, [r7, #8]
 175:.\togglelib.c ****     
 176:.\togglelib.c ****     while (current_color_left == rand_num_left){
 481              		.loc 1 176 0
 482 0046 09E0     		b	.L31
 483              	.L32:
 177:.\togglelib.c ****         rand_num_left = (rand() % 7) + 1;
 484              		.loc 1 177 0
 485 0048 FFF7FEFF 		bl	rand
 486 004c 031C     		mov	r3, r0
 487 004e 181C     		mov	r0, r3
 488 0050 0721     		mov	r1, #7
 489 0052 FFF7FEFF 		bl	__aeabi_idivmod
 490 0056 0B1C     		mov	r3, r1
 491 0058 0133     		add	r3, r3, #1
 492 005a FB60     		str	r3, [r7, #12]
 493              	.L31:
 176:.\togglelib.c ****     while (current_color_left == rand_num_left){
 494              		.loc 1 176 0 discriminator 1
 495 005c FB1D     		add	r3, r7, #7
 496 005e 1A78     		ldrb	r2, [r3]
 497 0060 FB68     		ldr	r3, [r7, #12]
 498 0062 9A42     		cmp	r2, r3
 499 0064 F0D0     		beq	.L32
 178:.\togglelib.c ****     }
 179:.\togglelib.c ****     
 180:.\togglelib.c ****    while (current_color_right == rand_num_right){
 500              		.loc 1 180 0
 501 0066 09E0     		b	.L33
 502              	.L34:
 181:.\togglelib.c ****         rand_num_right = (rand() % 7) + 1;
ARM GAS  C:\Users\Admin\AppData\Local\Temp\cczF04ft.s 			page 13


 503              		.loc 1 181 0
 504 0068 FFF7FEFF 		bl	rand
 505 006c 031C     		mov	r3, r0
 506 006e 181C     		mov	r0, r3
 507 0070 0721     		mov	r1, #7
 508 0072 FFF7FEFF 		bl	__aeabi_idivmod
 509 0076 0B1C     		mov	r3, r1
 510 0078 0133     		add	r3, r3, #1
 511 007a BB60     		str	r3, [r7, #8]
 512              	.L33:
 180:.\togglelib.c ****    while (current_color_right == rand_num_right){
 513              		.loc 1 180 0 discriminator 1
 514 007c BB1D     		add	r3, r7, #6
 515 007e 1A78     		ldrb	r2, [r3]
 516 0080 BB68     		ldr	r3, [r7, #8]
 517 0082 9A42     		cmp	r2, r3
 518 0084 F0D0     		beq	.L34
 182:.\togglelib.c ****     }
 183:.\togglelib.c ****     
 184:.\togglelib.c ****     set_color(LEFT_LED, rand_num_left);
 519              		.loc 1 184 0
 520 0086 FB68     		ldr	r3, [r7, #12]
 521 0088 DBB2     		uxtb	r3, r3
 522 008a 0120     		mov	r0, #1
 523 008c 191C     		mov	r1, r3
 524 008e FFF7FEFF 		bl	set_color
 185:.\togglelib.c ****     set_color(RIGHT_LED, rand_num_right);
 525              		.loc 1 185 0
 526 0092 BB68     		ldr	r3, [r7, #8]
 527 0094 DBB2     		uxtb	r3, r3
 528 0096 0220     		mov	r0, #2
 529 0098 191C     		mov	r1, r3
 530 009a FFF7FEFF 		bl	set_color
 186:.\togglelib.c ****     turn_off(LEFT_RIGHT_LED);
 531              		.loc 1 186 0
 532 009e 0320     		mov	r0, #3
 533 00a0 FFF7FEFF 		bl	turn_off
 187:.\togglelib.c ****     turn_on(LEFT_RIGHT_LED);
 534              		.loc 1 187 0
 535 00a4 0320     		mov	r0, #3
 536 00a6 FFF7FEFF 		bl	turn_on
 188:.\togglelib.c ****     
 189:.\togglelib.c ****     ORG_Int_ClearPending();
 537              		.loc 1 189 0
 538 00aa FFF7FEFF 		bl	ORG_Int_ClearPending
 190:.\togglelib.c ****     PWM_Organizer_ReadStatusRegister();
 539              		.loc 1 190 0
 540 00ae FFF7FEFF 		bl	PWM_Organizer_ReadStatusRegister
 191:.\togglelib.c **** }
 541              		.loc 1 191 0
 542 00b2 BD46     		mov	sp, r7
 543 00b4 05B0     		add	sp, sp, #20
 544              		@ sp needed
 545 00b6 90BD     		pop	{r4, r7, pc}
 546              		.cfi_endproc
 547              	.LFE36:
 548              		.size	ORG_Handler, .-ORG_Handler
ARM GAS  C:\Users\Admin\AppData\Local\Temp\cczF04ft.s 			page 14


 549              		.section	.text.set_magic_toggle_sequance,"ax",%progbits
 550              		.align	2
 551              		.global	set_magic_toggle_sequance
 552              		.code	16
 553              		.thumb_func
 554              		.type	set_magic_toggle_sequance, %function
 555              	set_magic_toggle_sequance:
 556              	.LFB37:
 192:.\togglelib.c **** 
 193:.\togglelib.c **** /* Sets the magic toogle sequence of the global toggle state change structure */
 194:.\togglelib.c **** void set_magic_toggle_sequance(uint8 state_flag, uint8* sequance) {
 557              		.loc 1 194 0
 558              		.cfi_startproc
 559 0000 80B5     		push	{r7, lr}
 560              		.cfi_def_cfa_offset 8
 561              		.cfi_offset 7, -8
 562              		.cfi_offset 14, -4
 563 0002 82B0     		sub	sp, sp, #8
 564              		.cfi_def_cfa_offset 16
 565 0004 00AF     		add	r7, sp, #0
 566              		.cfi_def_cfa_register 7
 567 0006 021C     		mov	r2, r0
 568 0008 3960     		str	r1, [r7]
 569 000a FB1D     		add	r3, r7, #7
 570 000c 1A70     		strb	r2, [r3]
 195:.\togglelib.c ****     switch(state_flag) {
 571              		.loc 1 195 0
 572 000e FB1D     		add	r3, r7, #7
 573 0010 1B78     		ldrb	r3, [r3]
 574 0012 012B     		cmp	r3, #1
 575 0014 02D0     		beq	.L37
 576 0016 022B     		cmp	r3, #2
 577 0018 08D0     		beq	.L38
 578 001a 0FE0     		b	.L35
 579              	.L37:
 196:.\togglelib.c ****         case VOLUNTEER:
 197:.\togglelib.c ****             memmove(Volunteer_Sequence.sequance, sequance, MAX_SEQUENCE_SIZE);
 580              		.loc 1 197 0
 581 001c 094A     		ldr	r2, .L39
 582 001e 3B68     		ldr	r3, [r7]
 583 0020 101C     		mov	r0, r2
 584 0022 191C     		mov	r1, r3
 585 0024 1422     		mov	r2, #20
 586 0026 FFF7FEFF 		bl	memmove
 198:.\togglelib.c ****         break;
 587              		.loc 1 198 0
 588 002a 07E0     		b	.L35
 589              	.L38:
 199:.\togglelib.c ****         case ORGANIZER:
 200:.\togglelib.c ****             memmove(Organizer_Sequence.sequance, sequance, MAX_SEQUENCE_SIZE);
 590              		.loc 1 200 0
 591 002c 064A     		ldr	r2, .L39+4
 592 002e 3B68     		ldr	r3, [r7]
 593 0030 101C     		mov	r0, r2
 594 0032 191C     		mov	r1, r3
 595 0034 1422     		mov	r2, #20
 596 0036 FFF7FEFF 		bl	memmove
ARM GAS  C:\Users\Admin\AppData\Local\Temp\cczF04ft.s 			page 15


 201:.\togglelib.c ****         break;
 597              		.loc 1 201 0
 598 003a C046     		mov	r8, r8
 599              	.L35:
 202:.\togglelib.c ****     }   
 203:.\togglelib.c ****     
 204:.\togglelib.c **** }
 600              		.loc 1 204 0
 601 003c BD46     		mov	sp, r7
 602 003e 02B0     		add	sp, sp, #8
 603              		@ sp needed
 604 0040 80BD     		pop	{r7, pc}
 605              	.L40:
 606 0042 C046     		.align	2
 607              	.L39:
 608 0044 00000000 		.word	Volunteer_Sequence
 609 0048 00000000 		.word	Organizer_Sequence
 610              		.cfi_endproc
 611              	.LFE37:
 612              		.size	set_magic_toggle_sequance, .-set_magic_toggle_sequance
 613              		.section	.text.get_magic_toggle_sequance,"ax",%progbits
 614              		.align	2
 615              		.global	get_magic_toggle_sequance
 616              		.code	16
 617              		.thumb_func
 618              		.type	get_magic_toggle_sequance, %function
 619              	get_magic_toggle_sequance:
 620              	.LFB38:
 205:.\togglelib.c **** 
 206:.\togglelib.c **** /* Gets the magic toogle sequence of the global toggle state change structure */
 207:.\togglelib.c **** uint8* get_magic_toggle_sequance(uint8 state_flag) {
 621              		.loc 1 207 0
 622              		.cfi_startproc
 623 0000 80B5     		push	{r7, lr}
 624              		.cfi_def_cfa_offset 8
 625              		.cfi_offset 7, -8
 626              		.cfi_offset 14, -4
 627 0002 82B0     		sub	sp, sp, #8
 628              		.cfi_def_cfa_offset 16
 629 0004 00AF     		add	r7, sp, #0
 630              		.cfi_def_cfa_register 7
 631 0006 021C     		mov	r2, r0
 632 0008 FB1D     		add	r3, r7, #7
 633 000a 1A70     		strb	r2, [r3]
 208:.\togglelib.c ****     switch(state_flag) {
 634              		.loc 1 208 0
 635 000c FB1D     		add	r3, r7, #7
 636 000e 1B78     		ldrb	r3, [r3]
 637 0010 012B     		cmp	r3, #1
 638 0012 02D0     		beq	.L43
 639 0014 022B     		cmp	r3, #2
 640 0016 02D0     		beq	.L44
 641 0018 03E0     		b	.L46
 642              	.L43:
 209:.\togglelib.c ****         case VOLUNTEER:
 210:.\togglelib.c ****             return Volunteer_Sequence.sequance;
 643              		.loc 1 210 0
ARM GAS  C:\Users\Admin\AppData\Local\Temp\cczF04ft.s 			page 16


 644 001a 044B     		ldr	r3, .L47
 645 001c 02E0     		b	.L45
 646              	.L44:
 211:.\togglelib.c ****         break;
 212:.\togglelib.c ****         case ORGANIZER:
 213:.\togglelib.c ****              return Organizer_Sequence.sequance;
 647              		.loc 1 213 0
 648 001e 044B     		ldr	r3, .L47+4
 649 0020 00E0     		b	.L45
 650              	.L46:
 214:.\togglelib.c ****         break;
 215:.\togglelib.c ****     }
 216:.\togglelib.c ****     return NULL;
 651              		.loc 1 216 0
 652 0022 0023     		mov	r3, #0
 653              	.L45:
 217:.\togglelib.c **** }
 654              		.loc 1 217 0
 655 0024 181C     		mov	r0, r3
 656 0026 BD46     		mov	sp, r7
 657 0028 02B0     		add	sp, sp, #8
 658              		@ sp needed
 659 002a 80BD     		pop	{r7, pc}
 660              	.L48:
 661              		.align	2
 662              	.L47:
 663 002c 00000000 		.word	Volunteer_Sequence
 664 0030 00000000 		.word	Organizer_Sequence
 665              		.cfi_endproc
 666              	.LFE38:
 667              		.size	get_magic_toggle_sequance, .-get_magic_toggle_sequance
 668              		.section	.text.set_magic_toggle_index,"ax",%progbits
 669              		.align	2
 670              		.global	set_magic_toggle_index
 671              		.code	16
 672              		.thumb_func
 673              		.type	set_magic_toggle_index, %function
 674              	set_magic_toggle_index:
 675              	.LFB39:
 218:.\togglelib.c **** 
 219:.\togglelib.c **** /* Sets the index of the magic toogle sequence of the global toggle state change structure */
 220:.\togglelib.c **** void set_magic_toggle_index(uint8 state_flag, uint8 value) {
 676              		.loc 1 220 0
 677              		.cfi_startproc
 678 0000 80B5     		push	{r7, lr}
 679              		.cfi_def_cfa_offset 8
 680              		.cfi_offset 7, -8
 681              		.cfi_offset 14, -4
 682 0002 82B0     		sub	sp, sp, #8
 683              		.cfi_def_cfa_offset 16
 684 0004 00AF     		add	r7, sp, #0
 685              		.cfi_def_cfa_register 7
 686 0006 0A1C     		mov	r2, r1
 687 0008 FB1D     		add	r3, r7, #7
 688 000a 011C     		add	r1, r0, #0
 689 000c 1970     		strb	r1, [r3]
 690 000e BB1D     		add	r3, r7, #6
ARM GAS  C:\Users\Admin\AppData\Local\Temp\cczF04ft.s 			page 17


 691 0010 1A70     		strb	r2, [r3]
 221:.\togglelib.c ****     switch(state_flag) {
 692              		.loc 1 221 0
 693 0012 FB1D     		add	r3, r7, #7
 694 0014 1B78     		ldrb	r3, [r3]
 695 0016 012B     		cmp	r3, #1
 696 0018 02D0     		beq	.L51
 697 001a 022B     		cmp	r3, #2
 698 001c 05D0     		beq	.L52
 699 001e 09E0     		b	.L49
 700              	.L51:
 222:.\togglelib.c ****         case VOLUNTEER:
 223:.\togglelib.c ****             Volunteer_Sequence.index = value;
 701              		.loc 1 223 0
 702 0020 064B     		ldr	r3, .L53
 703 0022 BA1D     		add	r2, r7, #6
 704 0024 1278     		ldrb	r2, [r2]
 705 0026 1A75     		strb	r2, [r3, #20]
 224:.\togglelib.c ****         break;
 706              		.loc 1 224 0
 707 0028 04E0     		b	.L49
 708              	.L52:
 225:.\togglelib.c ****         case ORGANIZER:
 226:.\togglelib.c ****             Organizer_Sequence.index = value;
 709              		.loc 1 226 0
 710 002a 054B     		ldr	r3, .L53+4
 711 002c BA1D     		add	r2, r7, #6
 712 002e 1278     		ldrb	r2, [r2]
 713 0030 1A75     		strb	r2, [r3, #20]
 227:.\togglelib.c ****         break;
 714              		.loc 1 227 0
 715 0032 C046     		mov	r8, r8
 716              	.L49:
 228:.\togglelib.c ****     }
 229:.\togglelib.c **** }
 717              		.loc 1 229 0
 718 0034 BD46     		mov	sp, r7
 719 0036 02B0     		add	sp, sp, #8
 720              		@ sp needed
 721 0038 80BD     		pop	{r7, pc}
 722              	.L54:
 723 003a C046     		.align	2
 724              	.L53:
 725 003c 00000000 		.word	Volunteer_Sequence
 726 0040 00000000 		.word	Organizer_Sequence
 727              		.cfi_endproc
 728              	.LFE39:
 729              		.size	set_magic_toggle_index, .-set_magic_toggle_index
 730              		.section	.text.get_magic_toggle_index,"ax",%progbits
 731              		.align	2
 732              		.global	get_magic_toggle_index
 733              		.code	16
 734              		.thumb_func
 735              		.type	get_magic_toggle_index, %function
 736              	get_magic_toggle_index:
 737              	.LFB40:
 230:.\togglelib.c **** 
ARM GAS  C:\Users\Admin\AppData\Local\Temp\cczF04ft.s 			page 18


 231:.\togglelib.c **** /* Gets the index of the magic toogle sequence of the global toggle state change structure */
 232:.\togglelib.c **** uint8 get_magic_toggle_index(uint8 state_flag) {
 738              		.loc 1 232 0
 739              		.cfi_startproc
 740 0000 80B5     		push	{r7, lr}
 741              		.cfi_def_cfa_offset 8
 742              		.cfi_offset 7, -8
 743              		.cfi_offset 14, -4
 744 0002 82B0     		sub	sp, sp, #8
 745              		.cfi_def_cfa_offset 16
 746 0004 00AF     		add	r7, sp, #0
 747              		.cfi_def_cfa_register 7
 748 0006 021C     		mov	r2, r0
 749 0008 FB1D     		add	r3, r7, #7
 750 000a 1A70     		strb	r2, [r3]
 233:.\togglelib.c ****         switch(state_flag) {
 751              		.loc 1 233 0
 752 000c FB1D     		add	r3, r7, #7
 753 000e 1B78     		ldrb	r3, [r3]
 754 0010 012B     		cmp	r3, #1
 755 0012 02D0     		beq	.L57
 756 0014 022B     		cmp	r3, #2
 757 0016 04D0     		beq	.L58
 758 0018 07E0     		b	.L60
 759              	.L57:
 234:.\togglelib.c ****         case VOLUNTEER:
 235:.\togglelib.c ****             return Volunteer_Sequence.index;
 760              		.loc 1 235 0
 761 001a 064B     		ldr	r3, .L61
 762 001c 1B7D     		ldrb	r3, [r3, #20]
 763 001e DBB2     		uxtb	r3, r3
 764 0020 04E0     		b	.L59
 765              	.L58:
 236:.\togglelib.c ****         break;
 237:.\togglelib.c ****         case ORGANIZER:
 238:.\togglelib.c ****             return Organizer_Sequence.index;
 766              		.loc 1 238 0
 767 0022 054B     		ldr	r3, .L61+4
 768 0024 1B7D     		ldrb	r3, [r3, #20]
 769 0026 DBB2     		uxtb	r3, r3
 770 0028 00E0     		b	.L59
 771              	.L60:
 239:.\togglelib.c ****         break;
 240:.\togglelib.c ****     }
 241:.\togglelib.c ****     return -1;
 772              		.loc 1 241 0
 773 002a FF23     		mov	r3, #255
 774              	.L59:
 242:.\togglelib.c **** }
 775              		.loc 1 242 0
 776 002c 181C     		mov	r0, r3
 777 002e BD46     		mov	sp, r7
 778 0030 02B0     		add	sp, sp, #8
 779              		@ sp needed
 780 0032 80BD     		pop	{r7, pc}
 781              	.L62:
 782              		.align	2
ARM GAS  C:\Users\Admin\AppData\Local\Temp\cczF04ft.s 			page 19


 783              	.L61:
 784 0034 00000000 		.word	Volunteer_Sequence
 785 0038 00000000 		.word	Organizer_Sequence
 786              		.cfi_endproc
 787              	.LFE40:
 788              		.size	get_magic_toggle_index, .-get_magic_toggle_index
 789              		.section	.text.init_magic_toggle_sequance,"ax",%progbits
 790              		.align	2
 791              		.global	init_magic_toggle_sequance
 792              		.code	16
 793              		.thumb_func
 794              		.type	init_magic_toggle_sequance, %function
 795              	init_magic_toggle_sequance:
 796              	.LFB41:
 243:.\togglelib.c **** 
 244:.\togglelib.c **** /* Initialize the magic toogle structures */
 245:.\togglelib.c **** void init_magic_toggle_sequance(uint8 state_flag, uint8* sequance) {
 797              		.loc 1 245 0
 798              		.cfi_startproc
 799 0000 80B5     		push	{r7, lr}
 800              		.cfi_def_cfa_offset 8
 801              		.cfi_offset 7, -8
 802              		.cfi_offset 14, -4
 803 0002 82B0     		sub	sp, sp, #8
 804              		.cfi_def_cfa_offset 16
 805 0004 00AF     		add	r7, sp, #0
 806              		.cfi_def_cfa_register 7
 807 0006 021C     		mov	r2, r0
 808 0008 3960     		str	r1, [r7]
 809 000a FB1D     		add	r3, r7, #7
 810 000c 1A70     		strb	r2, [r3]
 246:.\togglelib.c ****     set_magic_toggle_sequance(state_flag, sequance);
 811              		.loc 1 246 0
 812 000e FB1D     		add	r3, r7, #7
 813 0010 1A78     		ldrb	r2, [r3]
 814 0012 3B68     		ldr	r3, [r7]
 815 0014 101C     		mov	r0, r2
 816 0016 191C     		mov	r1, r3
 817 0018 FFF7FEFF 		bl	set_magic_toggle_sequance
 247:.\togglelib.c ****     set_magic_toggle_index(state_flag, 0);
 818              		.loc 1 247 0
 819 001c FB1D     		add	r3, r7, #7
 820 001e 1B78     		ldrb	r3, [r3]
 821 0020 181C     		mov	r0, r3
 822 0022 0021     		mov	r1, #0
 823 0024 FFF7FEFF 		bl	set_magic_toggle_index
 248:.\togglelib.c **** }
 824              		.loc 1 248 0
 825 0028 BD46     		mov	sp, r7
 826 002a 02B0     		add	sp, sp, #8
 827              		@ sp needed
 828 002c 80BD     		pop	{r7, pc}
 829              		.cfi_endproc
 830              	.LFE41:
 831              		.size	init_magic_toggle_sequance, .-init_magic_toggle_sequance
 832 002e C046     		.section	.text.enable_toggle_interrupts,"ax",%progbits
 833              		.align	2
ARM GAS  C:\Users\Admin\AppData\Local\Temp\cczF04ft.s 			page 20


 834              		.global	enable_toggle_interrupts
 835              		.code	16
 836              		.thumb_func
 837              		.type	enable_toggle_interrupts, %function
 838              	enable_toggle_interrupts:
 839              	.LFB42:
 249:.\togglelib.c **** 
 250:.\togglelib.c **** void enable_toggle_interrupts() {
 840              		.loc 1 250 0
 841              		.cfi_startproc
 842 0000 80B5     		push	{r7, lr}
 843              		.cfi_def_cfa_offset 8
 844              		.cfi_offset 7, -8
 845              		.cfi_offset 14, -4
 846 0002 00AF     		add	r7, sp, #0
 847              		.cfi_def_cfa_register 7
 251:.\togglelib.c ****     /* Setup toggle interrupts  */
 252:.\togglelib.c ****     SWB_Int_StartEx( SWB_Handler );
 848              		.loc 1 252 0
 849 0004 0C4B     		ldr	r3, .L65
 850 0006 181C     		mov	r0, r3
 851 0008 FFF7FEFF 		bl	SWB_Int_StartEx
 253:.\togglelib.c ****     SWL_Int_StartEx( SWL_Handler );
 852              		.loc 1 253 0
 853 000c 0B4B     		ldr	r3, .L65+4
 854 000e 181C     		mov	r0, r3
 855 0010 FFF7FEFF 		bl	SWL_Int_StartEx
 254:.\togglelib.c ****     SWR_Int_StartEx( SWR_Handler );
 856              		.loc 1 254 0
 857 0014 0A4B     		ldr	r3, .L65+8
 858 0016 181C     		mov	r0, r3
 859 0018 FFF7FEFF 		bl	SWR_Int_StartEx
 255:.\togglelib.c ****     ORG_Int_StartEx( ORG_Handler );
 860              		.loc 1 255 0
 861 001c 094B     		ldr	r3, .L65+12
 862 001e 181C     		mov	r0, r3
 863 0020 FFF7FEFF 		bl	ORG_Int_StartEx
 256:.\togglelib.c ****     /* Seed random */
 257:.\togglelib.c ****     srand(time(NULL));
 864              		.loc 1 257 0
 865 0024 0020     		mov	r0, #0
 866 0026 FFF7FEFF 		bl	time
 867 002a 031C     		mov	r3, r0
 868 002c 181C     		mov	r0, r3
 869 002e FFF7FEFF 		bl	srand
 258:.\togglelib.c **** }...
 870              		.loc 1 258 0
 871 0032 BD46     		mov	sp, r7
 872              		@ sp needed
 873 0034 80BD     		pop	{r7, pc}
 874              	.L66:
 875 0036 C046     		.align	2
 876              	.L65:
 877 0038 00000000 		.word	SWB_Handler
 878 003c 00000000 		.word	SWL_Handler
 879 0040 00000000 		.word	SWR_Handler
 880 0044 00000000 		.word	ORG_Handler
ARM GAS  C:\Users\Admin\AppData\Local\Temp\cczF04ft.s 			page 21


 881              		.cfi_endproc
 882              	.LFE42:
 883              		.size	enable_toggle_interrupts, .-enable_toggle_interrupts
 884              		.text
 885              	.Letext0:
 886              		.file 2 ".\\Generated_Source\\PSoC4/cytypes.h"
 887              		.file 3 ".\\togglelib.h"
 888              		.file 4 ".\\state.h"