ARM GAS  C:\Users\Admin\AppData\Local\Temp\ccsEhnVH.s 			page 1


   1              		.cpu cortex-m0
   2              		.fpu softvfp
   3              		.eabi_attribute 20, 1
   4              		.eabi_attribute 21, 1
   5              		.eabi_attribute 23, 3
   6              		.eabi_attribute 24, 1
   7              		.eabi_attribute 25, 1
   8              		.eabi_attribute 26, 1
   9              		.eabi_attribute 30, 6
  10              		.eabi_attribute 34, 0
  11              		.eabi_attribute 18, 4
  12              		.code	16
  13              		.file	"main.c"
  14              		.text
  15              	.Ltext0:
  16              		.cfi_sections	.debug_frame
  17              		.global	show_flag
  18              		.bss
  19              		.type	show_flag, %object
  20              		.size	show_flag, 1
  21              	show_flag:
  22 0000 00       		.space	1
  23              		.section	.text.IR_Handler,"ax",%progbits
  24              		.align	2
  25              		.global	IR_Handler
  26              		.code	16
  27              		.thumb_func
  28              		.type	IR_Handler, %function
  29              	IR_Handler:
  30              	.LFB33:
  31              		.file 1 ".\\main.c"
   1:.\main.c      **** /* ========================================
   2:.\main.c      ****  *
   3:.\main.c      ****  * Copyright YOUR COMPANY, THE YEAR
   4:.\main.c      ****  * All Rights Reserved
   5:.\main.c      ****  * UNPUBLISHED, LICENSED SOFTWARE.
   6:.\main.c      ****  *
   7:.\main.c      ****  * CONFIDENTIAL AND PROPRIETARY INFORMATION
   8:.\main.c      ****  * WHICH IS THE PROPERTY OF your company.
   9:.\main.c      ****  *
  10:.\main.c      ****  * ========================================
  11:.\main.c      **** */
  12:.\main.c      **** #include <project.h>
  13:.\main.c      **** 
  14:.\main.c      **** volatile uint8 show_flag = 0;
  15:.\main.c      **** 
  16:.\main.c      **** /* Signal handler for left toggle press */
  17:.\main.c      **** CY_ISR( IR_Handler ) {
  32              		.loc 1 17 0
  33              		.cfi_startproc
  34 0000 80B5     		push	{r7, lr}
  35              		.cfi_def_cfa_offset 8
  36              		.cfi_offset 7, -8
  37              		.cfi_offset 14, -4
  38 0002 00AF     		add	r7, sp, #0
  39              		.cfi_def_cfa_register 7
  18:.\main.c      ****     LED_Write(1); 
ARM GAS  C:\Users\Admin\AppData\Local\Temp\ccsEhnVH.s 			page 2


  40              		.loc 1 18 0
  41 0004 0120     		mov	r0, #1
  42 0006 FFF7FEFF 		bl	LED_Write
  19:.\main.c      ****     show_flag = 1;
  43              		.loc 1 19 0
  44 000a 034B     		ldr	r3, .L2
  45 000c 0122     		mov	r2, #1
  46 000e 1A70     		strb	r2, [r3]
  20:.\main.c      ****     IR_REC_ClearInterrupt();
  47              		.loc 1 20 0
  48 0010 FFF7FEFF 		bl	IR_REC_ClearInterrupt
  21:.\main.c      **** }
  49              		.loc 1 21 0
  50 0014 BD46     		mov	sp, r7
  51              		@ sp needed
  52 0016 80BD     		pop	{r7, pc}
  53              	.L3:
  54              		.align	2
  55              	.L2:
  56 0018 00000000 		.word	show_flag
  57              		.cfi_endproc
  58              	.LFE33:
  59              		.size	IR_Handler, .-IR_Handler
  60              		.section	.rodata
  61              		.align	2
  62              	.LC3:
  63 0000 49522052 		.ascii	"IR Required For\000"
  63      65717569 
  63      72656420 
  63      466F7200 
  64              		.align	2
  65              	.LC5:
  66 0010 466C6167 		.ascii	"Flag\000"
  66      00
  67 0015 000000   		.align	2
  68              	.LC7:
  69 0018 466C6167 		.ascii	"Flag is:\000"
  69      2069733A 
  69      00
  70 0021 000000   		.align	2
  71              	.LC9:
  72 0024 5859444B 		.ascii	"XYDKSOCKODHIDSO\000"
  72      534F434B 
  72      4F444849 
  72      44534F00 
  73              		.section	.text.main,"ax",%progbits
  74              		.align	2
  75              		.global	main
  76              		.code	16
  77              		.thumb_func
  78              		.type	main, %function
  79              	main:
  80              	.LFB34:
  22:.\main.c      **** 
  23:.\main.c      **** 
  24:.\main.c      **** int main()
  25:.\main.c      **** {
ARM GAS  C:\Users\Admin\AppData\Local\Temp\ccsEhnVH.s 			page 3


  81              		.loc 1 25 0
  82              		.cfi_startproc
  83 0000 80B5     		push	{r7, lr}
  84              		.cfi_def_cfa_offset 8
  85              		.cfi_offset 7, -8
  86              		.cfi_offset 14, -4
  87 0002 00AF     		add	r7, sp, #0
  88              		.cfi_def_cfa_register 7
  26:.\main.c      ****     /* Place your initialization/startup code here (e.g. MyInst_Start()) */
  27:.\main.c      ****     CyGlobalIntEnable;
  89              		.loc 1 27 0
  90              	@ 27 ".\main.c" 1
  91 0004 62B6     		CPSIE   i
  92              	@ 0 "" 2
  28:.\main.c      **** 
  29:.\main.c      ****     IR_Int_StartEx( IR_Handler );
  93              		.loc 1 29 0
  94              		.code	16
  95 0006 244B     		ldr	r3, .L8
  96 0008 181C     		mov	r0, r3
  97 000a FFF7FEFF 		bl	IR_Int_StartEx
  30:.\main.c      ****     LED_Write(0);
  98              		.loc 1 30 0
  99 000e 0020     		mov	r0, #0
 100 0010 FFF7FEFF 		bl	LED_Write
  31:.\main.c      ****     
  32:.\main.c      ****     
  33:.\main.c      ****     //  Supply 5 Vdd to LCD display from MCU and power up Back Light  
  34:.\main.c      ****     Power_Up_LCD_Pin_1_Write(1);
 101              		.loc 1 34 0
 102 0014 0120     		mov	r0, #1
 103 0016 FFF7FEFF 		bl	Power_Up_LCD_Pin_1_Write
  35:.\main.c      ****     Back_Light_On_N_Write(0);
 104              		.loc 1 35 0
 105 001a 0020     		mov	r0, #0
 106 001c FFF7FEFF 		bl	Back_Light_On_N_Write
  36:.\main.c      ****     Back_Light_On_P_Write(1);
 107              		.loc 1 36 0
 108 0020 0120     		mov	r0, #1
 109 0022 FFF7FEFF 		bl	Back_Light_On_P_Write
  37:.\main.c      **** 
  38:.\main.c      ****     // Start LCD display    
  39:.\main.c      ****     LCD_Char_Start();
 110              		.loc 1 39 0
 111 0026 FFF7FEFF 		bl	LCD_Char_Start
  40:.\main.c      ****     LCD_Char_DisplayOn();
 112              		.loc 1 40 0
 113 002a 0C20     		mov	r0, #12
 114 002c FFF7FEFF 		bl	LCD_Char_WriteControl
 115              	.L7:
  41:.\main.c      ****     
  42:.\main.c      ****     
  43:.\main.c      ****     
  44:.\main.c      ****     
  45:.\main.c      ****     /* CyGlobalIntEnable; */ /* Uncomment this line to enable global interrupts. */
  46:.\main.c      ****     for(;;)
  47:.\main.c      ****     {
ARM GAS  C:\Users\Admin\AppData\Local\Temp\ccsEhnVH.s 			page 4


  48:.\main.c      ****         if (!show_flag) {
 116              		.loc 1 48 0
 117 0030 1A4B     		ldr	r3, .L8+4
 118 0032 1B78     		ldrb	r3, [r3]
 119 0034 DBB2     		uxtb	r3, r3
 120 0036 002B     		cmp	r3, #0
 121 0038 10D1     		bne	.L5
  49:.\main.c      ****           LCD_Char_Position(0,0);
 122              		.loc 1 49 0
 123 003a 0020     		mov	r0, #0
 124 003c 0021     		mov	r1, #0
 125 003e FFF7FEFF 		bl	LCD_Char_Position
  50:.\main.c      ****           LCD_Char_PrintString("IR Required For");
 126              		.loc 1 50 0
 127 0042 174B     		ldr	r3, .L8+8
 128 0044 181C     		mov	r0, r3
 129 0046 FFF7FEFF 		bl	LCD_Char_PrintString
  51:.\main.c      ****           LCD_Char_Position(1,6);
 130              		.loc 1 51 0
 131 004a 0120     		mov	r0, #1
 132 004c 0621     		mov	r1, #6
 133 004e FFF7FEFF 		bl	LCD_Char_Position
  52:.\main.c      ****           LCD_Char_PrintString("Flag");    
 134              		.loc 1 52 0
 135 0052 144B     		ldr	r3, .L8+12
 136 0054 181C     		mov	r0, r3
 137 0056 FFF7FEFF 		bl	LCD_Char_PrintString
  53:.\main.c      ****         } else {
  54:.\main.c      ****           LCD_Char_ClearDisplay();
  55:.\main.c      ****           LCD_Char_Position(0,0);
  56:.\main.c      ****           LCD_Char_PrintString("Flag is:");
  57:.\main.c      ****           LCD_Char_Position(1,0);
  58:.\main.c      ****           LCD_Char_PrintString("XYDKSOCKODHIDSO");
  59:.\main.c      ****           show_flag = 0;
  60:.\main.c      ****           CyDelay(3000);
  61:.\main.c      ****           LCD_Char_ClearDisplay();
  62:.\main.c      ****         }
  63:.\main.c      ****         
  64:.\main.c      ****         /* Place your application code here. */
  65:.\main.c      ****     }
 138              		.loc 1 65 0
 139 005a E9E7     		b	.L7
 140              	.L5:
  54:.\main.c      ****           LCD_Char_ClearDisplay();
 141              		.loc 1 54 0
 142 005c 0120     		mov	r0, #1
 143 005e FFF7FEFF 		bl	LCD_Char_WriteControl
  55:.\main.c      ****           LCD_Char_Position(0,0);
 144              		.loc 1 55 0
 145 0062 0020     		mov	r0, #0
 146 0064 0021     		mov	r1, #0
 147 0066 FFF7FEFF 		bl	LCD_Char_Position
  56:.\main.c      ****           LCD_Char_PrintString("Flag is:");
 148              		.loc 1 56 0
 149 006a 0F4B     		ldr	r3, .L8+16
 150 006c 181C     		mov	r0, r3
 151 006e FFF7FEFF 		bl	LCD_Char_PrintString
ARM GAS  C:\Users\Admin\AppData\Local\Temp\ccsEhnVH.s 			page 5


  57:.\main.c      ****           LCD_Char_Position(1,0);
 152              		.loc 1 57 0
 153 0072 0120     		mov	r0, #1
 154 0074 0021     		mov	r1, #0
 155 0076 FFF7FEFF 		bl	LCD_Char_Position
  58:.\main.c      ****           LCD_Char_PrintString("XYDKSOCKODHIDSO");
 156              		.loc 1 58 0
 157 007a 0C4B     		ldr	r3, .L8+20
 158 007c 181C     		mov	r0, r3
 159 007e FFF7FEFF 		bl	LCD_Char_PrintString
  59:.\main.c      ****           show_flag = 0;
 160              		.loc 1 59 0
 161 0082 064B     		ldr	r3, .L8+4
 162 0084 0022     		mov	r2, #0
 163 0086 1A70     		strb	r2, [r3]
  60:.\main.c      ****           CyDelay(3000);
 164              		.loc 1 60 0
 165 0088 094B     		ldr	r3, .L8+24
 166 008a 181C     		mov	r0, r3
 167 008c FFF7FEFF 		bl	CyDelay
  61:.\main.c      ****           LCD_Char_ClearDisplay();
 168              		.loc 1 61 0
 169 0090 0120     		mov	r0, #1
 170 0092 FFF7FEFF 		bl	LCD_Char_WriteControl
 171              		.loc 1 65 0
 172 0096 CBE7     		b	.L7
 173              	.L9:
 174              		.align	2
 175              	.L8:
 176 0098 00000000 		.word	IR_Handler
 177 009c 00000000 		.word	show_flag
 178 00a0 00000000 		.word	.LC3
 179 00a4 10000000 		.word	.LC5
 180 00a8 18000000 		.word	.LC7
 181 00ac 24000000 		.word	.LC9
 182 00b0 B80B0000 		.word	3000
 183              		.cfi_endproc
 184              	.LFE34:
 185              		.size	main, .-main
 186              		.text
 187              	.Letext0:
 188              		.file 2 ".\\Generated_Source\\PSoC4/cytypes.h"