ARM GAS  C:\Users\Admin\AppData\Local\Temp\cck8NDaJ.s 			page 1


   1              		.cpu cortex-m0
   2              		.fpu softvfp
   3              		.eabi_attribute 20, 1
   4              		.eabi_attribute 21, 1
   5              		.eabi_attribute 23, 3
   6              		.eabi_attribute 24, 1
   7              		.eabi_attribute 25, 1
   8              		.eabi_attribute 26, 1
   9              		.eabi_attribute 30, 4
  10              		.eabi_attribute 34, 0
  11              		.eabi_attribute 18, 4
  12              		.code	16
  13              		.file	"cyfitter_cfg.c"
  14              		.text
  15              	.Ltext0:
  16              		.cfi_sections	.debug_frame
  17              		.section	.psocinit,"ax",%progbits
  18              		.align	1
  19              		.global	cyfitter_cfg
  20              		.code	16
  21              		.thumb_func
  22              		.type	cyfitter_cfg, %function
  23              	cyfitter_cfg:
  24              	.LFB7:
  25              		.file 1 ".\\Generated_Source\\PSoC4\\cyfitter_cfg.c"
   1:.\Generated_Source\PSoC4/cyfitter_cfg.c **** /*******************************************************************************
   2:.\Generated_Source\PSoC4/cyfitter_cfg.c **** * FILENAME: cyfitter_cfg.c
   3:.\Generated_Source\PSoC4/cyfitter_cfg.c **** * PSoC Creator  3.1 SP1
   4:.\Generated_Source\PSoC4/cyfitter_cfg.c **** *
   5:.\Generated_Source\PSoC4/cyfitter_cfg.c **** * Description:
   6:.\Generated_Source\PSoC4/cyfitter_cfg.c **** * This file is automatically generated by PSoC Creator with device 
   7:.\Generated_Source\PSoC4/cyfitter_cfg.c **** * initialization code.  Except for the user defined sections in
   8:.\Generated_Source\PSoC4/cyfitter_cfg.c **** * CyClockStartupError(), this file should not be modified.
   9:.\Generated_Source\PSoC4/cyfitter_cfg.c **** *
  10:.\Generated_Source\PSoC4/cyfitter_cfg.c **** ********************************************************************************
  11:.\Generated_Source\PSoC4/cyfitter_cfg.c **** * Copyright 2013, Cypress Semiconductor Corporation.  All rights reserved.
  12:.\Generated_Source\PSoC4/cyfitter_cfg.c **** * You may use this file only in accordance with the license, terms, conditions, 
  13:.\Generated_Source\PSoC4/cyfitter_cfg.c **** * disclaimers, and limitations in the end user license agreement accompanying 
  14:.\Generated_Source\PSoC4/cyfitter_cfg.c **** * the software package with which this file was provided.
  15:.\Generated_Source\PSoC4/cyfitter_cfg.c **** ********************************************************************************/
  16:.\Generated_Source\PSoC4/cyfitter_cfg.c **** 
  17:.\Generated_Source\PSoC4/cyfitter_cfg.c **** #include <string.h>
  18:.\Generated_Source\PSoC4/cyfitter_cfg.c **** #include <cytypes.h>
  19:.\Generated_Source\PSoC4/cyfitter_cfg.c **** #include <cydevice_trm.h>
  20:.\Generated_Source\PSoC4/cyfitter_cfg.c **** #include <cyfitter.h>
  21:.\Generated_Source\PSoC4/cyfitter_cfg.c **** #include <CyLib.h>
  22:.\Generated_Source\PSoC4/cyfitter_cfg.c **** #include <cyfitter_cfg.h>
  23:.\Generated_Source\PSoC4/cyfitter_cfg.c **** 
  24:.\Generated_Source\PSoC4/cyfitter_cfg.c **** 
  25:.\Generated_Source\PSoC4/cyfitter_cfg.c **** #if defined(__GNUC__) || defined(__ARMCC_VERSION)
  26:.\Generated_Source\PSoC4/cyfitter_cfg.c ****     #define CYPACKED 
  27:.\Generated_Source\PSoC4/cyfitter_cfg.c ****     #define CYPACKED_ATTR __attribute__ ((packed))
  28:.\Generated_Source\PSoC4/cyfitter_cfg.c ****     #define CYALIGNED __attribute__ ((aligned))
  29:.\Generated_Source\PSoC4/cyfitter_cfg.c ****     #define CY_CFG_UNUSED __attribute__ ((unused))
  30:.\Generated_Source\PSoC4/cyfitter_cfg.c ****     #define CY_CFG_SECTION __attribute__ ((section(".psocinit")))
  31:.\Generated_Source\PSoC4/cyfitter_cfg.c ****     
  32:.\Generated_Source\PSoC4/cyfitter_cfg.c ****     #if defined(__ARMCC_VERSION)
ARM GAS  C:\Users\Admin\AppData\Local\Temp\cck8NDaJ.s 			page 2


  33:.\Generated_Source\PSoC4/cyfitter_cfg.c ****         #define CY_CFG_MEMORY_BARRIER() __memory_changed()
  34:.\Generated_Source\PSoC4/cyfitter_cfg.c ****     #else
  35:.\Generated_Source\PSoC4/cyfitter_cfg.c ****         #define CY_CFG_MEMORY_BARRIER() __sync_synchronize()
  36:.\Generated_Source\PSoC4/cyfitter_cfg.c ****     #endif
  37:.\Generated_Source\PSoC4/cyfitter_cfg.c ****     
  38:.\Generated_Source\PSoC4/cyfitter_cfg.c **** #elif defined(__ICCARM__)
  39:.\Generated_Source\PSoC4/cyfitter_cfg.c ****     #include <intrinsics.h>
  40:.\Generated_Source\PSoC4/cyfitter_cfg.c **** 
  41:.\Generated_Source\PSoC4/cyfitter_cfg.c ****     #define CYPACKED __packed
  42:.\Generated_Source\PSoC4/cyfitter_cfg.c ****     #define CYPACKED_ATTR 
  43:.\Generated_Source\PSoC4/cyfitter_cfg.c ****     #define CYALIGNED _Pragma("data_alignment=4")
  44:.\Generated_Source\PSoC4/cyfitter_cfg.c ****     #define CY_CFG_UNUSED _Pragma("diag_suppress=Pe177")
  45:.\Generated_Source\PSoC4/cyfitter_cfg.c ****     #define CY_CFG_SECTION _Pragma("location=\".psocinit\"")
  46:.\Generated_Source\PSoC4/cyfitter_cfg.c ****     
  47:.\Generated_Source\PSoC4/cyfitter_cfg.c ****     #define CY_CFG_MEMORY_BARRIER() __DMB()
  48:.\Generated_Source\PSoC4/cyfitter_cfg.c ****     
  49:.\Generated_Source\PSoC4/cyfitter_cfg.c **** #else
  50:.\Generated_Source\PSoC4/cyfitter_cfg.c ****     #error Unsupported toolchain
  51:.\Generated_Source\PSoC4/cyfitter_cfg.c **** #endif
  52:.\Generated_Source\PSoC4/cyfitter_cfg.c **** 
  53:.\Generated_Source\PSoC4/cyfitter_cfg.c **** 
  54:.\Generated_Source\PSoC4/cyfitter_cfg.c **** CY_CFG_UNUSED
  55:.\Generated_Source\PSoC4/cyfitter_cfg.c **** static void CYMEMZERO(void *s, size_t n);
  56:.\Generated_Source\PSoC4/cyfitter_cfg.c **** CY_CFG_UNUSED
  57:.\Generated_Source\PSoC4/cyfitter_cfg.c **** static void CYMEMZERO(void *s, size_t n)
  58:.\Generated_Source\PSoC4/cyfitter_cfg.c **** {
  59:.\Generated_Source\PSoC4/cyfitter_cfg.c **** 	(void)memset(s, 0, n);
  60:.\Generated_Source\PSoC4/cyfitter_cfg.c **** }
  61:.\Generated_Source\PSoC4/cyfitter_cfg.c **** CY_CFG_UNUSED
  62:.\Generated_Source\PSoC4/cyfitter_cfg.c **** static void CYCONFIGCPY(void *dest, const void *src, size_t n);
  63:.\Generated_Source\PSoC4/cyfitter_cfg.c **** CY_CFG_UNUSED
  64:.\Generated_Source\PSoC4/cyfitter_cfg.c **** static void CYCONFIGCPY(void *dest, const void *src, size_t n)
  65:.\Generated_Source\PSoC4/cyfitter_cfg.c **** {
  66:.\Generated_Source\PSoC4/cyfitter_cfg.c **** 	(void)memcpy(dest, src, n);
  67:.\Generated_Source\PSoC4/cyfitter_cfg.c **** }
  68:.\Generated_Source\PSoC4/cyfitter_cfg.c **** CY_CFG_UNUSED
  69:.\Generated_Source\PSoC4/cyfitter_cfg.c **** static void CYCONFIGCPYCODE(void *dest, const void *src, size_t n);
  70:.\Generated_Source\PSoC4/cyfitter_cfg.c **** CY_CFG_UNUSED
  71:.\Generated_Source\PSoC4/cyfitter_cfg.c **** static void CYCONFIGCPYCODE(void *dest, const void *src, size_t n)
  72:.\Generated_Source\PSoC4/cyfitter_cfg.c **** {
  73:.\Generated_Source\PSoC4/cyfitter_cfg.c **** 	(void)memcpy(dest, src, n);
  74:.\Generated_Source\PSoC4/cyfitter_cfg.c **** }
  75:.\Generated_Source\PSoC4/cyfitter_cfg.c **** 
  76:.\Generated_Source\PSoC4/cyfitter_cfg.c **** 
  77:.\Generated_Source\PSoC4/cyfitter_cfg.c **** 
  78:.\Generated_Source\PSoC4/cyfitter_cfg.c **** /* Clock startup error codes                                                   */
  79:.\Generated_Source\PSoC4/cyfitter_cfg.c **** #define CYCLOCKSTART_NO_ERROR    0u
  80:.\Generated_Source\PSoC4/cyfitter_cfg.c **** #define CYCLOCKSTART_XTAL_ERROR  1u
  81:.\Generated_Source\PSoC4/cyfitter_cfg.c **** #define CYCLOCKSTART_32KHZ_ERROR 2u
  82:.\Generated_Source\PSoC4/cyfitter_cfg.c **** #define CYCLOCKSTART_PLL_ERROR   3u
  83:.\Generated_Source\PSoC4/cyfitter_cfg.c **** 
  84:.\Generated_Source\PSoC4/cyfitter_cfg.c **** #ifdef CY_NEED_CYCLOCKSTARTUPERROR
  85:.\Generated_Source\PSoC4/cyfitter_cfg.c **** /*******************************************************************************
  86:.\Generated_Source\PSoC4/cyfitter_cfg.c **** * Function Name: CyClockStartupError
  87:.\Generated_Source\PSoC4/cyfitter_cfg.c **** ********************************************************************************
  88:.\Generated_Source\PSoC4/cyfitter_cfg.c **** * Summary:
  89:.\Generated_Source\PSoC4/cyfitter_cfg.c **** *  If an error is encountered during clock configuration (crystal startup error,
ARM GAS  C:\Users\Admin\AppData\Local\Temp\cck8NDaJ.s 			page 3


  90:.\Generated_Source\PSoC4/cyfitter_cfg.c **** *  PLL lock error, etc.), the system will end up here.  Unless reimplemented by
  91:.\Generated_Source\PSoC4/cyfitter_cfg.c **** *  the customer, this function will stop in an infinite loop.
  92:.\Generated_Source\PSoC4/cyfitter_cfg.c **** *
  93:.\Generated_Source\PSoC4/cyfitter_cfg.c **** * Parameters:
  94:.\Generated_Source\PSoC4/cyfitter_cfg.c **** *   void
  95:.\Generated_Source\PSoC4/cyfitter_cfg.c **** *
  96:.\Generated_Source\PSoC4/cyfitter_cfg.c **** * Return:
  97:.\Generated_Source\PSoC4/cyfitter_cfg.c **** *   void
  98:.\Generated_Source\PSoC4/cyfitter_cfg.c **** *
  99:.\Generated_Source\PSoC4/cyfitter_cfg.c **** *******************************************************************************/
 100:.\Generated_Source\PSoC4/cyfitter_cfg.c **** CY_CFG_UNUSED
 101:.\Generated_Source\PSoC4/cyfitter_cfg.c **** static void CyClockStartupError(uint8 errorCode);
 102:.\Generated_Source\PSoC4/cyfitter_cfg.c **** CY_CFG_UNUSED
 103:.\Generated_Source\PSoC4/cyfitter_cfg.c **** static void CyClockStartupError(uint8 errorCode)
 104:.\Generated_Source\PSoC4/cyfitter_cfg.c **** {
 105:.\Generated_Source\PSoC4/cyfitter_cfg.c ****     /* To remove the compiler warning if errorCode not used.                */
 106:.\Generated_Source\PSoC4/cyfitter_cfg.c ****     errorCode = errorCode;
 107:.\Generated_Source\PSoC4/cyfitter_cfg.c **** 
 108:.\Generated_Source\PSoC4/cyfitter_cfg.c ****     /* `#START CyClockStartupError` */
 109:.\Generated_Source\PSoC4/cyfitter_cfg.c **** 
 110:.\Generated_Source\PSoC4/cyfitter_cfg.c ****     /* If we have a clock startup error (bad MHz crystal, PLL lock, etc.),  */
 111:.\Generated_Source\PSoC4/cyfitter_cfg.c ****     /* we will end up here to allow the customer to implement something to  */
 112:.\Generated_Source\PSoC4/cyfitter_cfg.c ****     /* deal with the clock condition.                                       */
 113:.\Generated_Source\PSoC4/cyfitter_cfg.c **** 
 114:.\Generated_Source\PSoC4/cyfitter_cfg.c ****     /* `#END` */
 115:.\Generated_Source\PSoC4/cyfitter_cfg.c **** 
 116:.\Generated_Source\PSoC4/cyfitter_cfg.c ****     /* If nothing else, stop here since the clocks have not started         */
 117:.\Generated_Source\PSoC4/cyfitter_cfg.c ****     /* correctly.                                                           */
 118:.\Generated_Source\PSoC4/cyfitter_cfg.c ****     while(1) {}
 119:.\Generated_Source\PSoC4/cyfitter_cfg.c **** }
 120:.\Generated_Source\PSoC4/cyfitter_cfg.c **** #endif
 121:.\Generated_Source\PSoC4/cyfitter_cfg.c **** 
 122:.\Generated_Source\PSoC4/cyfitter_cfg.c **** #define CY_CFG_BASE_ADDR_COUNT 6u
 123:.\Generated_Source\PSoC4/cyfitter_cfg.c **** CYPACKED typedef struct
 124:.\Generated_Source\PSoC4/cyfitter_cfg.c **** {
 125:.\Generated_Source\PSoC4/cyfitter_cfg.c **** 	uint8 offset;
 126:.\Generated_Source\PSoC4/cyfitter_cfg.c **** 	uint8 value;
 127:.\Generated_Source\PSoC4/cyfitter_cfg.c **** } CYPACKED_ATTR cy_cfg_addrvalue_t;
 128:.\Generated_Source\PSoC4/cyfitter_cfg.c **** 
 129:.\Generated_Source\PSoC4/cyfitter_cfg.c **** 
 130:.\Generated_Source\PSoC4/cyfitter_cfg.c **** 
 131:.\Generated_Source\PSoC4/cyfitter_cfg.c **** /*******************************************************************************
 132:.\Generated_Source\PSoC4/cyfitter_cfg.c **** * Function Name: cfg_write_bytes32
 133:.\Generated_Source\PSoC4/cyfitter_cfg.c **** ********************************************************************************
 134:.\Generated_Source\PSoC4/cyfitter_cfg.c **** * Summary:
 135:.\Generated_Source\PSoC4/cyfitter_cfg.c **** *  This function is used for setting up the chip configuration areas that
 136:.\Generated_Source\PSoC4/cyfitter_cfg.c **** *  contain relatively sparse data.
 137:.\Generated_Source\PSoC4/cyfitter_cfg.c **** *
 138:.\Generated_Source\PSoC4/cyfitter_cfg.c **** * Parameters:
 139:.\Generated_Source\PSoC4/cyfitter_cfg.c **** *   void
 140:.\Generated_Source\PSoC4/cyfitter_cfg.c **** *
 141:.\Generated_Source\PSoC4/cyfitter_cfg.c **** * Return:
 142:.\Generated_Source\PSoC4/cyfitter_cfg.c **** *   void
 143:.\Generated_Source\PSoC4/cyfitter_cfg.c **** *
 144:.\Generated_Source\PSoC4/cyfitter_cfg.c **** *******************************************************************************/
 145:.\Generated_Source\PSoC4/cyfitter_cfg.c **** static void cfg_write_bytes32(const uint32 addr_table[], const cy_cfg_addrvalue_t data_table[]);
 146:.\Generated_Source\PSoC4/cyfitter_cfg.c **** static void cfg_write_bytes32(const uint32 addr_table[], const cy_cfg_addrvalue_t data_table[])
ARM GAS  C:\Users\Admin\AppData\Local\Temp\cck8NDaJ.s 			page 4


 147:.\Generated_Source\PSoC4/cyfitter_cfg.c **** {
 148:.\Generated_Source\PSoC4/cyfitter_cfg.c **** 	/* For 32-bit little-endian architectures */
 149:.\Generated_Source\PSoC4/cyfitter_cfg.c **** 	uint32 i, j = 0u;
 150:.\Generated_Source\PSoC4/cyfitter_cfg.c **** 	for (i = 0u; i < CY_CFG_BASE_ADDR_COUNT; i++)
 151:.\Generated_Source\PSoC4/cyfitter_cfg.c **** 	{
 152:.\Generated_Source\PSoC4/cyfitter_cfg.c **** 		uint32 baseAddr = addr_table[i];
 153:.\Generated_Source\PSoC4/cyfitter_cfg.c **** 		uint8 count = (uint8)baseAddr;
 154:.\Generated_Source\PSoC4/cyfitter_cfg.c **** 		baseAddr &= 0xFFFFFF00u;
 155:.\Generated_Source\PSoC4/cyfitter_cfg.c **** 		while (count != 0u)
 156:.\Generated_Source\PSoC4/cyfitter_cfg.c **** 		{
 157:.\Generated_Source\PSoC4/cyfitter_cfg.c **** 			CY_SET_XTND_REG8((void CYFAR *)(baseAddr + data_table[j].offset), data_table[j].value);
 158:.\Generated_Source\PSoC4/cyfitter_cfg.c **** 			j++;
 159:.\Generated_Source\PSoC4/cyfitter_cfg.c **** 			count--;
 160:.\Generated_Source\PSoC4/cyfitter_cfg.c **** 		}
 161:.\Generated_Source\PSoC4/cyfitter_cfg.c **** 	}
 162:.\Generated_Source\PSoC4/cyfitter_cfg.c **** }
 163:.\Generated_Source\PSoC4/cyfitter_cfg.c **** 
 164:.\Generated_Source\PSoC4/cyfitter_cfg.c **** /*******************************************************************************
 165:.\Generated_Source\PSoC4/cyfitter_cfg.c **** * Function Name: SetIMOBGTrims
 166:.\Generated_Source\PSoC4/cyfitter_cfg.c **** ********************************************************************************
 167:.\Generated_Source\PSoC4/cyfitter_cfg.c **** *
 168:.\Generated_Source\PSoC4/cyfitter_cfg.c **** * Summary:
 169:.\Generated_Source\PSoC4/cyfitter_cfg.c **** *   Performs the configuration of the bandgap trim for the IMO based on the given
 170:.\Generated_Source\PSoC4/cyfitter_cfg.c **** *   expected frequency of the IMO. 
 171:.\Generated_Source\PSoC4/cyfitter_cfg.c **** *
 172:.\Generated_Source\PSoC4/cyfitter_cfg.c **** * Parameters:
 173:.\Generated_Source\PSoC4/cyfitter_cfg.c **** *   imoFreq: Frequency for operation of the IMO.
 174:.\Generated_Source\PSoC4/cyfitter_cfg.c **** *
 175:.\Generated_Source\PSoC4/cyfitter_cfg.c **** * Return:
 176:.\Generated_Source\PSoC4/cyfitter_cfg.c **** *   void
 177:.\Generated_Source\PSoC4/cyfitter_cfg.c **** *
 178:.\Generated_Source\PSoC4/cyfitter_cfg.c **** *******************************************************************************/
 179:.\Generated_Source\PSoC4/cyfitter_cfg.c **** static void SetIMOBGTrims(uint8 imoFreq);
 180:.\Generated_Source\PSoC4/cyfitter_cfg.c **** CY_CFG_SECTION
 181:.\Generated_Source\PSoC4/cyfitter_cfg.c **** static void SetIMOBGTrims(uint8 imoFreq)
 182:.\Generated_Source\PSoC4/cyfitter_cfg.c **** {
 183:.\Generated_Source\PSoC4/cyfitter_cfg.c **** 	CYPACKED typedef struct {
 184:.\Generated_Source\PSoC4/cyfitter_cfg.c **** 		uint8 freq;
 185:.\Generated_Source\PSoC4/cyfitter_cfg.c **** 		uint8 absolute;
 186:.\Generated_Source\PSoC4/cyfitter_cfg.c **** 		uint8 tmpco;
 187:.\Generated_Source\PSoC4/cyfitter_cfg.c **** 	} CYPACKED_ATTR imo_trim_entry_t;
 188:.\Generated_Source\PSoC4/cyfitter_cfg.c **** 
 189:.\Generated_Source\PSoC4/cyfitter_cfg.c **** 	CYPACKED typedef struct {
 190:.\Generated_Source\PSoC4/cyfitter_cfg.c **** 		imo_trim_entry_t entries[4];
 191:.\Generated_Source\PSoC4/cyfitter_cfg.c **** 	} CYPACKED_ATTR imo_trim_table_t;
 192:.\Generated_Source\PSoC4/cyfitter_cfg.c **** 
 193:.\Generated_Source\PSoC4/cyfitter_cfg.c **** 	static const imo_trim_table_t *imo_trim_table = (const imo_trim_table_t *)CYREG_SFLASH_IMO_MAXF0;
 194:.\Generated_Source\PSoC4/cyfitter_cfg.c **** 	static const uint32 IMO_TRIM_FREQ_TABLE_ENTRIES = sizeof(imo_trim_table->entries)/sizeof(imo_trim_
 195:.\Generated_Source\PSoC4/cyfitter_cfg.c **** 
 196:.\Generated_Source\PSoC4/cyfitter_cfg.c **** 	int32 imoTrimIndex;
 197:.\Generated_Source\PSoC4/cyfitter_cfg.c **** 	uint8 setAbs;
 198:.\Generated_Source\PSoC4/cyfitter_cfg.c **** 	uint8 setTmpCo;
 199:.\Generated_Source\PSoC4/cyfitter_cfg.c **** 
 200:.\Generated_Source\PSoC4/cyfitter_cfg.c **** 	/* Traverse the SFLASH IMO frequency-dependent bandgap trim table to
 201:.\Generated_Source\PSoC4/cyfitter_cfg.c **** 	 * locate the appropriate value to trim the IMO bandgap based on freq. */
 202:.\Generated_Source\PSoC4/cyfitter_cfg.c **** 	setAbs = CY_GET_REG8((const void *)CYREG_SFLASH_IMO_ABS4);
 203:.\Generated_Source\PSoC4/cyfitter_cfg.c **** 	setTmpCo = CY_GET_REG8((const void *)CYREG_SFLASH_IMO_TMPCO4);
ARM GAS  C:\Users\Admin\AppData\Local\Temp\cck8NDaJ.s 			page 5


 204:.\Generated_Source\PSoC4/cyfitter_cfg.c **** 	for (imoTrimIndex = ((int32)IMO_TRIM_FREQ_TABLE_ENTRIES)-1;
 205:.\Generated_Source\PSoC4/cyfitter_cfg.c **** 	     (imoTrimIndex >= 0) && (imoFreq <= imo_trim_table->entries[imoTrimIndex].freq);
 206:.\Generated_Source\PSoC4/cyfitter_cfg.c **** 	     imoTrimIndex--)
 207:.\Generated_Source\PSoC4/cyfitter_cfg.c **** 	{
 208:.\Generated_Source\PSoC4/cyfitter_cfg.c **** 		setAbs = imo_trim_table->entries[imoTrimIndex].absolute;
 209:.\Generated_Source\PSoC4/cyfitter_cfg.c **** 		setTmpCo = imo_trim_table->entries[imoTrimIndex].tmpco;
 210:.\Generated_Source\PSoC4/cyfitter_cfg.c **** 	}
 211:.\Generated_Source\PSoC4/cyfitter_cfg.c **** 
 212:.\Generated_Source\PSoC4/cyfitter_cfg.c **** 	CY_SET_REG32((void *)CYREG_PWR_BG_TRIM4, setAbs);
 213:.\Generated_Source\PSoC4/cyfitter_cfg.c **** 	CY_SET_REG32((void *)CYREG_PWR_BG_TRIM5, setTmpCo);
 214:.\Generated_Source\PSoC4/cyfitter_cfg.c **** }
 215:.\Generated_Source\PSoC4/cyfitter_cfg.c **** 
 216:.\Generated_Source\PSoC4/cyfitter_cfg.c **** 
 217:.\Generated_Source\PSoC4/cyfitter_cfg.c **** 
 218:.\Generated_Source\PSoC4/cyfitter_cfg.c **** /*******************************************************************************
 219:.\Generated_Source\PSoC4/cyfitter_cfg.c **** * Function Name: ClockSetup
 220:.\Generated_Source\PSoC4/cyfitter_cfg.c **** ********************************************************************************
 221:.\Generated_Source\PSoC4/cyfitter_cfg.c **** *
 222:.\Generated_Source\PSoC4/cyfitter_cfg.c **** * Summary:
 223:.\Generated_Source\PSoC4/cyfitter_cfg.c **** *   Performs the initialization of all of the clocks in the device based on the
 224:.\Generated_Source\PSoC4/cyfitter_cfg.c **** *   settings in the Clock tab of the DWR.  This includes enabling the requested
 225:.\Generated_Source\PSoC4/cyfitter_cfg.c **** *   clocks and setting the necessary dividers to produce the desired frequency. 
 226:.\Generated_Source\PSoC4/cyfitter_cfg.c **** *
 227:.\Generated_Source\PSoC4/cyfitter_cfg.c **** * Parameters:
 228:.\Generated_Source\PSoC4/cyfitter_cfg.c **** *   void
 229:.\Generated_Source\PSoC4/cyfitter_cfg.c **** *
 230:.\Generated_Source\PSoC4/cyfitter_cfg.c **** * Return:
 231:.\Generated_Source\PSoC4/cyfitter_cfg.c **** *   void
 232:.\Generated_Source\PSoC4/cyfitter_cfg.c **** *
 233:.\Generated_Source\PSoC4/cyfitter_cfg.c **** *******************************************************************************/
 234:.\Generated_Source\PSoC4/cyfitter_cfg.c **** static void ClockSetup(void);
 235:.\Generated_Source\PSoC4/cyfitter_cfg.c **** CY_CFG_SECTION
 236:.\Generated_Source\PSoC4/cyfitter_cfg.c **** static void ClockSetup(void)
 237:.\Generated_Source\PSoC4/cyfitter_cfg.c **** {
 238:.\Generated_Source\PSoC4/cyfitter_cfg.c **** 	/* Enable HALF_EN before trimming for the flash accelerator. */
 239:.\Generated_Source\PSoC4/cyfitter_cfg.c **** 	CY_SET_REG32((void CYXDATA *)(CYREG_CLK_SELECT), (CY_GET_REG32((void *)CYREG_CLK_SELECT) | 0x00040
 240:.\Generated_Source\PSoC4/cyfitter_cfg.c **** 
 241:.\Generated_Source\PSoC4/cyfitter_cfg.c **** 	/* Trim IMO BG based on desired frequency. */
 242:.\Generated_Source\PSoC4/cyfitter_cfg.c **** 	SetIMOBGTrims(24u);
 243:.\Generated_Source\PSoC4/cyfitter_cfg.c **** 
 244:.\Generated_Source\PSoC4/cyfitter_cfg.c **** 	/* Going less than or equal to 24MHz, so update the clock speed then adjust trim value. */
 245:.\Generated_Source\PSoC4/cyfitter_cfg.c **** 	CY_SET_REG32((void CYXDATA *)(CYREG_CLK_IMO_TRIM2), (25u));
 246:.\Generated_Source\PSoC4/cyfitter_cfg.c **** 	CyDelayCycles(5u);
 247:.\Generated_Source\PSoC4/cyfitter_cfg.c **** 	CY_SET_REG32((void CYXDATA *)(CYREG_CLK_IMO_TRIM1), (CY_GET_REG8((void *)CYREG_SFLASH_IMO_TRIM21))
 248:.\Generated_Source\PSoC4/cyfitter_cfg.c **** 	CyDelayUs(5u);
 249:.\Generated_Source\PSoC4/cyfitter_cfg.c **** 
 250:.\Generated_Source\PSoC4/cyfitter_cfg.c **** 	/* Disable HALF_EN since it is not required at this IMO frequency. */
 251:.\Generated_Source\PSoC4/cyfitter_cfg.c **** 	CY_SET_REG32((void CYXDATA *)(CYREG_CLK_SELECT), (CY_GET_REG32((void *)CYREG_CLK_SELECT) & 0xFFFBF
 252:.\Generated_Source\PSoC4/cyfitter_cfg.c **** 	/* CYDEV_CLK_ILO_CONFIG Starting address: CYDEV_CLK_ILO_CONFIG */
 253:.\Generated_Source\PSoC4/cyfitter_cfg.c **** 	CY_SET_XTND_REG32((void CYFAR *)(CYREG_CLK_ILO_CONFIG), 0x80000006u);
 254:.\Generated_Source\PSoC4/cyfitter_cfg.c **** 
 255:.\Generated_Source\PSoC4/cyfitter_cfg.c **** 
 256:.\Generated_Source\PSoC4/cyfitter_cfg.c **** 	/* CYDEV_CLK_SELECT00 Starting address: CYDEV_CLK_SELECT00 */
 257:.\Generated_Source\PSoC4/cyfitter_cfg.c **** 	CY_SET_XTND_REG32((void CYFAR *)(CYREG_CLK_SELECT12), 0x00000010u);
 258:.\Generated_Source\PSoC4/cyfitter_cfg.c **** 
 259:.\Generated_Source\PSoC4/cyfitter_cfg.c **** 	/* CYDEV_CLK_IMO_CONFIG Starting address: CYDEV_CLK_IMO_CONFIG */
 260:.\Generated_Source\PSoC4/cyfitter_cfg.c **** 	CY_SET_XTND_REG32((void CYFAR *)(CYREG_CLK_IMO_CONFIG), 0x80000000u);
ARM GAS  C:\Users\Admin\AppData\Local\Temp\cck8NDaJ.s 			page 6


 261:.\Generated_Source\PSoC4/cyfitter_cfg.c **** 
 262:.\Generated_Source\PSoC4/cyfitter_cfg.c **** 	/* CYDEV_CLK_DIVIDER_A00 Starting address: CYDEV_CLK_DIVIDER_A00 */
 263:.\Generated_Source\PSoC4/cyfitter_cfg.c **** 	CY_SET_XTND_REG32((void CYFAR *)(CYREG_CLK_DIVIDER_A00), 0x8000176Fu);
 264:.\Generated_Source\PSoC4/cyfitter_cfg.c **** 
 265:.\Generated_Source\PSoC4/cyfitter_cfg.c **** }
 266:.\Generated_Source\PSoC4/cyfitter_cfg.c **** 
 267:.\Generated_Source\PSoC4/cyfitter_cfg.c **** 
 268:.\Generated_Source\PSoC4/cyfitter_cfg.c **** /* Analog API Functions */
 269:.\Generated_Source\PSoC4/cyfitter_cfg.c **** 
 270:.\Generated_Source\PSoC4/cyfitter_cfg.c **** 
 271:.\Generated_Source\PSoC4/cyfitter_cfg.c **** /*******************************************************************************
 272:.\Generated_Source\PSoC4/cyfitter_cfg.c **** * Function Name: AnalogSetDefault
 273:.\Generated_Source\PSoC4/cyfitter_cfg.c **** ********************************************************************************
 274:.\Generated_Source\PSoC4/cyfitter_cfg.c **** *
 275:.\Generated_Source\PSoC4/cyfitter_cfg.c **** * Summary:
 276:.\Generated_Source\PSoC4/cyfitter_cfg.c **** *  Sets up the analog portions of the chip to default values based on chip
 277:.\Generated_Source\PSoC4/cyfitter_cfg.c **** *  configuration options from the project.
 278:.\Generated_Source\PSoC4/cyfitter_cfg.c **** *
 279:.\Generated_Source\PSoC4/cyfitter_cfg.c **** * Parameters:
 280:.\Generated_Source\PSoC4/cyfitter_cfg.c **** *  void
 281:.\Generated_Source\PSoC4/cyfitter_cfg.c **** *
 282:.\Generated_Source\PSoC4/cyfitter_cfg.c **** * Return:
 283:.\Generated_Source\PSoC4/cyfitter_cfg.c **** *  void
 284:.\Generated_Source\PSoC4/cyfitter_cfg.c **** *
 285:.\Generated_Source\PSoC4/cyfitter_cfg.c **** *******************************************************************************/
 286:.\Generated_Source\PSoC4/cyfitter_cfg.c **** static void AnalogSetDefault(void);
 287:.\Generated_Source\PSoC4/cyfitter_cfg.c **** static void AnalogSetDefault(void)
 288:.\Generated_Source\PSoC4/cyfitter_cfg.c **** {
 289:.\Generated_Source\PSoC4/cyfitter_cfg.c **** }
 290:.\Generated_Source\PSoC4/cyfitter_cfg.c **** 
 291:.\Generated_Source\PSoC4/cyfitter_cfg.c **** #define CY_AMUX_UNUSED CYREG_CM0_ROM_DWT
 292:.\Generated_Source\PSoC4/cyfitter_cfg.c **** 
 293:.\Generated_Source\PSoC4/cyfitter_cfg.c **** 
 294:.\Generated_Source\PSoC4/cyfitter_cfg.c **** /*******************************************************************************
 295:.\Generated_Source\PSoC4/cyfitter_cfg.c **** * Function Name: cyfitter_cfg
 296:.\Generated_Source\PSoC4/cyfitter_cfg.c **** ********************************************************************************
 297:.\Generated_Source\PSoC4/cyfitter_cfg.c **** * Summary:
 298:.\Generated_Source\PSoC4/cyfitter_cfg.c **** *  This function is called by the start-up code for the selected device. It
 299:.\Generated_Source\PSoC4/cyfitter_cfg.c **** *  performs all of the necessary device configuration based on the design
 300:.\Generated_Source\PSoC4/cyfitter_cfg.c **** *  settings.  This includes settings from the Design Wide Resources (DWR) such
 301:.\Generated_Source\PSoC4/cyfitter_cfg.c **** *  as Clocks and Pins as well as any component configuration that is necessary.
 302:.\Generated_Source\PSoC4/cyfitter_cfg.c **** *
 303:.\Generated_Source\PSoC4/cyfitter_cfg.c **** * Parameters:  
 304:.\Generated_Source\PSoC4/cyfitter_cfg.c **** *   void
 305:.\Generated_Source\PSoC4/cyfitter_cfg.c **** *
 306:.\Generated_Source\PSoC4/cyfitter_cfg.c **** * Return:
 307:.\Generated_Source\PSoC4/cyfitter_cfg.c **** *   void
 308:.\Generated_Source\PSoC4/cyfitter_cfg.c **** *
 309:.\Generated_Source\PSoC4/cyfitter_cfg.c **** *******************************************************************************/
 310:.\Generated_Source\PSoC4/cyfitter_cfg.c **** CY_CFG_SECTION
 311:.\Generated_Source\PSoC4/cyfitter_cfg.c **** void cyfitter_cfg(void)
 312:.\Generated_Source\PSoC4/cyfitter_cfg.c **** {
  26              		.loc 1 312 0
  27              		.cfi_startproc
  28 0000 F7B5     		push	{r0, r1, r2, r4, r5, r6, r7, lr}
  29              		.cfi_def_cfa_offset 32
  30              		.cfi_offset 0, -32
ARM GAS  C:\Users\Admin\AppData\Local\Temp\cck8NDaJ.s 			page 7


  31              		.cfi_offset 1, -28
  32              		.cfi_offset 2, -24
  33              		.cfi_offset 4, -20
  34              		.cfi_offset 5, -16
  35              		.cfi_offset 6, -12
  36              		.cfi_offset 7, -8
  37              		.cfi_offset 14, -4
 313:.\Generated_Source\PSoC4/cyfitter_cfg.c **** 	/* Disable interrupts by default. Let user enable if/when they want. */
 314:.\Generated_Source\PSoC4/cyfitter_cfg.c **** 	CyGlobalIntDisable;
  38              		.loc 1 314 0
  39              	@ 314 ".\Generated_Source\PSoC4\cyfitter_cfg.c" 1
  40 0002 72B6     		CPSID   i
  41              	@ 0 "" 2
 315:.\Generated_Source\PSoC4/cyfitter_cfg.c **** 
 316:.\Generated_Source\PSoC4/cyfitter_cfg.c **** 	/* Enable the clock in the interrupt controller for the routed interrupts */
 317:.\Generated_Source\PSoC4/cyfitter_cfg.c **** 	CY_SET_REG8((void *)CYREG_UDB_UDBIF_INT_CLK_CTL, 0x01u);
  42              		.loc 1 317 0
  43              		.code	16
  44 0004 514B     		ldr	r3, .L11
  45 0006 0122     		mov	r2, #1
  46 0008 1A70     		strb	r2, [r3]
  47              	.LVL0:
  48              	.LBB18:
  49              	.LBB19:
  50              	.LBB20:
  51              	.LBB21:
  59:.\Generated_Source\PSoC4/cyfitter_cfg.c **** 	(void)memset(s, 0, n);
  52              		.loc 1 59 0
  53 000a 8022     		mov	r2, #128
  54 000c 0021     		mov	r1, #0
  55 000e D200     		lsl	r2, r2, #3
  56 0010 4F48     		ldr	r0, .L11+4
  57 0012 FFF7FEFF 		bl	memset
  58              	.LVL1:
  59 0016 8022     		mov	r2, #128
  60 0018 0021     		mov	r1, #0
  61 001a 4E48     		ldr	r0, .L11+8
  62 001c D200     		lsl	r2, r2, #3
  63 001e FFF7FEFF 		bl	memset
  64              	.LVL2:
  65 0022 0023     		mov	r3, #0
  66 0024 191C     		mov	r1, r3
  67              	.LVL3:
  68              	.L5:
  69              	.LBE21:
  70              	.LBE20:
  71              	.LBE19:
  72              	.LBB22:
  73              	.LBB23:
  74              	.LBB24:
 152:.\Generated_Source\PSoC4/cyfitter_cfg.c **** 		uint32 baseAddr = addr_table[i];
  75              		.loc 1 152 0
  76 0026 4C4C     		ldr	r4, .L11+12
  77 0028 1859     		ldr	r0, [r3, r4]
  78              	.LVL4:
  79 002a 1834     		add	r4, r4, #24
 153:.\Generated_Source\PSoC4/cyfitter_cfg.c **** 		uint8 count = (uint8)baseAddr;
ARM GAS  C:\Users\Admin\AppData\Local\Temp\cck8NDaJ.s 			page 8


  80              		.loc 1 153 0
  81 002c C2B2     		uxtb	r2, r0
  82 002e 0192     		str	r2, [sp, #4]
  83              	.LVL5:
 154:.\Generated_Source\PSoC4/cyfitter_cfg.c **** 		baseAddr &= 0xFFFFFF00u;
  84              		.loc 1 154 0
  85 0030 071C     		mov	r7, r0
  86 0032 FF22     		mov	r2, #255
  87 0034 9743     		bic	r7, r2
  88              	.LVL6:
  89 0036 4A00     		lsl	r2, r1, #1
  90 0038 A418     		add	r4, r4, r2
  91 003a 0022     		mov	r2, #0
  92              	.LVL7:
  93              	.L2:
 155:.\Generated_Source\PSoC4/cyfitter_cfg.c **** 		while (count != 0u)
  94              		.loc 1 155 0
  95 003c 019E     		ldr	r6, [sp, #4]
  96 003e D5B2     		uxtb	r5, r2
  97 0040 AE42     		cmp	r6, r5
  98 0042 09D0     		beq	.L10
  99 0044 5500     		lsl	r5, r2, #1
 157:.\Generated_Source\PSoC4/cyfitter_cfg.c **** 			CY_SET_XTND_REG8((void CYFAR *)(baseAddr + data_table[j].offset), data_table[j].value);
 100              		.loc 1 157 0
 101 0046 665D     		ldrb	r6, [r4, r5]
 102 0048 6519     		add	r5, r4, r5
 103 004a B446     		mov	ip, r6
 104 004c BC44     		add	ip, ip, r7
 105 004e 6D78     		ldrb	r5, [r5, #1]
 106 0050 6646     		mov	r6, ip
 107 0052 3570     		strb	r5, [r6]
 108              	.LVL8:
 109 0054 0132     		add	r2, r2, #1
 110              	.LVL9:
 111 0056 F1E7     		b	.L2
 112              	.LVL10:
 113              	.L10:
 114 0058 C0B2     		uxtb	r0, r0
 115              	.LVL11:
 116 005a 0433     		add	r3, r3, #4
 117              	.LVL12:
 118 005c 0918     		add	r1, r1, r0
 119              	.LVL13:
 120              	.LBE24:
 150:.\Generated_Source\PSoC4/cyfitter_cfg.c **** 	for (i = 0u; i < CY_CFG_BASE_ADDR_COUNT; i++)
 121              		.loc 1 150 0
 122 005e 182B     		cmp	r3, #24
 123 0060 E1D1     		bne	.L5
 124              	.LBE23:
 125              	.LBE22:
 318:.\Generated_Source\PSoC4/cyfitter_cfg.c **** 	{
 319:.\Generated_Source\PSoC4/cyfitter_cfg.c **** 		static const uint32 CYCODE cy_cfg_addr_table[] = {
 320:.\Generated_Source\PSoC4/cyfitter_cfg.c **** 			0x400F0001u, /* Base address: 0x400F0000 Count: 1 */
 321:.\Generated_Source\PSoC4/cyfitter_cfg.c **** 			0x400F323Cu, /* Base address: 0x400F3200 Count: 60 */
 322:.\Generated_Source\PSoC4/cyfitter_cfg.c **** 			0x400F331Cu, /* Base address: 0x400F3300 Count: 28 */
 323:.\Generated_Source\PSoC4/cyfitter_cfg.c **** 			0x400F4002u, /* Base address: 0x400F4000 Count: 2 */
 324:.\Generated_Source\PSoC4/cyfitter_cfg.c **** 			0x400F4103u, /* Base address: 0x400F4100 Count: 3 */
ARM GAS  C:\Users\Admin\AppData\Local\Temp\cck8NDaJ.s 			page 9


 325:.\Generated_Source\PSoC4/cyfitter_cfg.c **** 			0x400F6002u, /* Base address: 0x400F6000 Count: 2 */
 326:.\Generated_Source\PSoC4/cyfitter_cfg.c **** 		};
 327:.\Generated_Source\PSoC4/cyfitter_cfg.c **** 
 328:.\Generated_Source\PSoC4/cyfitter_cfg.c **** 		static const cy_cfg_addrvalue_t CYCODE cy_cfg_data_table[] = {
 329:.\Generated_Source\PSoC4/cyfitter_cfg.c **** 			{0x83u, 0x0Du},
 330:.\Generated_Source\PSoC4/cyfitter_cfg.c **** 			{0x2Eu, 0x01u},
 331:.\Generated_Source\PSoC4/cyfitter_cfg.c **** 			{0x30u, 0x01u},
 332:.\Generated_Source\PSoC4/cyfitter_cfg.c **** 			{0x36u, 0x01u},
 333:.\Generated_Source\PSoC4/cyfitter_cfg.c **** 			{0x40u, 0x10u},
 334:.\Generated_Source\PSoC4/cyfitter_cfg.c **** 			{0x41u, 0x05u},
 335:.\Generated_Source\PSoC4/cyfitter_cfg.c **** 			{0x49u, 0xFFu},
 336:.\Generated_Source\PSoC4/cyfitter_cfg.c **** 			{0x4Au, 0xFFu},
 337:.\Generated_Source\PSoC4/cyfitter_cfg.c **** 			{0x4Bu, 0xFFu},
 338:.\Generated_Source\PSoC4/cyfitter_cfg.c **** 			{0x4Du, 0xA0u},
 339:.\Generated_Source\PSoC4/cyfitter_cfg.c **** 			{0x4Fu, 0x04u},
 340:.\Generated_Source\PSoC4/cyfitter_cfg.c **** 			{0x50u, 0x18u},
 341:.\Generated_Source\PSoC4/cyfitter_cfg.c **** 			{0x52u, 0x80u},
 342:.\Generated_Source\PSoC4/cyfitter_cfg.c **** 			{0x58u, 0x04u},
 343:.\Generated_Source\PSoC4/cyfitter_cfg.c **** 			{0x5Au, 0x04u},
 344:.\Generated_Source\PSoC4/cyfitter_cfg.c **** 			{0x5Bu, 0x04u},
 345:.\Generated_Source\PSoC4/cyfitter_cfg.c **** 			{0x5Fu, 0x01u},
 346:.\Generated_Source\PSoC4/cyfitter_cfg.c **** 			{0x60u, 0x40u},
 347:.\Generated_Source\PSoC4/cyfitter_cfg.c **** 			{0x62u, 0xC0u},
 348:.\Generated_Source\PSoC4/cyfitter_cfg.c **** 			{0x64u, 0x40u},
 349:.\Generated_Source\PSoC4/cyfitter_cfg.c **** 			{0x65u, 0x40u},
 350:.\Generated_Source\PSoC4/cyfitter_cfg.c **** 			{0x66u, 0xC0u},
 351:.\Generated_Source\PSoC4/cyfitter_cfg.c **** 			{0x68u, 0xC0u},
 352:.\Generated_Source\PSoC4/cyfitter_cfg.c **** 			{0x6Au, 0xC0u},
 353:.\Generated_Source\PSoC4/cyfitter_cfg.c **** 			{0x6Cu, 0xC0u},
 354:.\Generated_Source\PSoC4/cyfitter_cfg.c **** 			{0x6Eu, 0xC0u},
 355:.\Generated_Source\PSoC4/cyfitter_cfg.c **** 			{0x80u, 0x02u},
 356:.\Generated_Source\PSoC4/cyfitter_cfg.c **** 			{0x8Eu, 0x04u},
 357:.\Generated_Source\PSoC4/cyfitter_cfg.c **** 			{0x9Eu, 0x04u},
 358:.\Generated_Source\PSoC4/cyfitter_cfg.c **** 			{0xA6u, 0x03u},
 359:.\Generated_Source\PSoC4/cyfitter_cfg.c **** 			{0xB0u, 0x01u},
 360:.\Generated_Source\PSoC4/cyfitter_cfg.c **** 			{0xB4u, 0x04u},
 361:.\Generated_Source\PSoC4/cyfitter_cfg.c **** 			{0xB6u, 0x02u},
 362:.\Generated_Source\PSoC4/cyfitter_cfg.c **** 			{0xBEu, 0x10u},
 363:.\Generated_Source\PSoC4/cyfitter_cfg.c **** 			{0xC0u, 0x40u},
 364:.\Generated_Source\PSoC4/cyfitter_cfg.c **** 			{0xC1u, 0x05u},
 365:.\Generated_Source\PSoC4/cyfitter_cfg.c **** 			{0xC5u, 0xD1u},
 366:.\Generated_Source\PSoC4/cyfitter_cfg.c **** 			{0xC7u, 0x20u},
 367:.\Generated_Source\PSoC4/cyfitter_cfg.c **** 			{0xC8u, 0x23u},
 368:.\Generated_Source\PSoC4/cyfitter_cfg.c **** 			{0xC9u, 0xFFu},
 369:.\Generated_Source\PSoC4/cyfitter_cfg.c **** 			{0xCAu, 0xFFu},
 370:.\Generated_Source\PSoC4/cyfitter_cfg.c **** 			{0xCBu, 0xFFu},
 371:.\Generated_Source\PSoC4/cyfitter_cfg.c **** 			{0xCDu, 0xAFu},
 372:.\Generated_Source\PSoC4/cyfitter_cfg.c **** 			{0xCEu, 0x0Fu},
 373:.\Generated_Source\PSoC4/cyfitter_cfg.c **** 			{0xCFu, 0x04u},
 374:.\Generated_Source\PSoC4/cyfitter_cfg.c **** 			{0xD0u, 0x18u},
 375:.\Generated_Source\PSoC4/cyfitter_cfg.c **** 			{0xD4u, 0x05u},
 376:.\Generated_Source\PSoC4/cyfitter_cfg.c **** 			{0xD6u, 0x04u},
 377:.\Generated_Source\PSoC4/cyfitter_cfg.c **** 			{0xD8u, 0x04u},
 378:.\Generated_Source\PSoC4/cyfitter_cfg.c **** 			{0xDAu, 0x04u},
 379:.\Generated_Source\PSoC4/cyfitter_cfg.c **** 			{0xDBu, 0x04u},
 380:.\Generated_Source\PSoC4/cyfitter_cfg.c **** 			{0xDFu, 0x01u},
 381:.\Generated_Source\PSoC4/cyfitter_cfg.c **** 			{0xE0u, 0x40u},
ARM GAS  C:\Users\Admin\AppData\Local\Temp\cck8NDaJ.s 			page 10


 382:.\Generated_Source\PSoC4/cyfitter_cfg.c **** 			{0xE2u, 0xC0u},
 383:.\Generated_Source\PSoC4/cyfitter_cfg.c **** 			{0xE4u, 0x40u},
 384:.\Generated_Source\PSoC4/cyfitter_cfg.c **** 			{0xE5u, 0x40u},
 385:.\Generated_Source\PSoC4/cyfitter_cfg.c **** 			{0xE6u, 0xC0u},
 386:.\Generated_Source\PSoC4/cyfitter_cfg.c **** 			{0xE8u, 0xC0u},
 387:.\Generated_Source\PSoC4/cyfitter_cfg.c **** 			{0xEAu, 0xC0u},
 388:.\Generated_Source\PSoC4/cyfitter_cfg.c **** 			{0xECu, 0xC0u},
 389:.\Generated_Source\PSoC4/cyfitter_cfg.c **** 			{0xEEu, 0xC0u},
 390:.\Generated_Source\PSoC4/cyfitter_cfg.c **** 			{0x01u, 0x02u},
 391:.\Generated_Source\PSoC4/cyfitter_cfg.c **** 			{0x02u, 0x02u},
 392:.\Generated_Source\PSoC4/cyfitter_cfg.c **** 			{0x09u, 0x80u},
 393:.\Generated_Source\PSoC4/cyfitter_cfg.c **** 			{0x10u, 0x20u},
 394:.\Generated_Source\PSoC4/cyfitter_cfg.c **** 			{0x17u, 0x80u},
 395:.\Generated_Source\PSoC4/cyfitter_cfg.c **** 			{0x19u, 0x42u},
 396:.\Generated_Source\PSoC4/cyfitter_cfg.c **** 			{0x1Au, 0x04u},
 397:.\Generated_Source\PSoC4/cyfitter_cfg.c **** 			{0x1Cu, 0x40u},
 398:.\Generated_Source\PSoC4/cyfitter_cfg.c **** 			{0x1Du, 0x80u},
 399:.\Generated_Source\PSoC4/cyfitter_cfg.c **** 			{0x40u, 0x40u},
 400:.\Generated_Source\PSoC4/cyfitter_cfg.c **** 			{0x45u, 0x80u},
 401:.\Generated_Source\PSoC4/cyfitter_cfg.c **** 			{0x48u, 0x20u},
 402:.\Generated_Source\PSoC4/cyfitter_cfg.c **** 			{0x49u, 0x01u},
 403:.\Generated_Source\PSoC4/cyfitter_cfg.c **** 			{0x4Au, 0x02u},
 404:.\Generated_Source\PSoC4/cyfitter_cfg.c **** 			{0x4Eu, 0x02u},
 405:.\Generated_Source\PSoC4/cyfitter_cfg.c **** 			{0x52u, 0x02u},
 406:.\Generated_Source\PSoC4/cyfitter_cfg.c **** 			{0x59u, 0x41u},
 407:.\Generated_Source\PSoC4/cyfitter_cfg.c **** 			{0x5Au, 0x04u},
 408:.\Generated_Source\PSoC4/cyfitter_cfg.c **** 			{0x63u, 0x80u},
 409:.\Generated_Source\PSoC4/cyfitter_cfg.c **** 			{0x77u, 0x80u},
 410:.\Generated_Source\PSoC4/cyfitter_cfg.c **** 			{0x83u, 0x40u},
 411:.\Generated_Source\PSoC4/cyfitter_cfg.c **** 			{0xC0u, 0x09u},
 412:.\Generated_Source\PSoC4/cyfitter_cfg.c **** 			{0xC2u, 0x01u},
 413:.\Generated_Source\PSoC4/cyfitter_cfg.c **** 			{0xC4u, 0x84u},
 414:.\Generated_Source\PSoC4/cyfitter_cfg.c **** 			{0xD0u, 0x11u},
 415:.\Generated_Source\PSoC4/cyfitter_cfg.c **** 			{0xD2u, 0x18u},
 416:.\Generated_Source\PSoC4/cyfitter_cfg.c **** 			{0xD6u, 0x0Bu},
 417:.\Generated_Source\PSoC4/cyfitter_cfg.c **** 			{0xD8u, 0x01u},
 418:.\Generated_Source\PSoC4/cyfitter_cfg.c **** 			{0x6Fu, 0x10u},
 419:.\Generated_Source\PSoC4/cyfitter_cfg.c **** 			{0xDAu, 0x80u},
 420:.\Generated_Source\PSoC4/cyfitter_cfg.c **** 			{0x83u, 0x10u},
 421:.\Generated_Source\PSoC4/cyfitter_cfg.c **** 			{0x9Fu, 0x10u},
 422:.\Generated_Source\PSoC4/cyfitter_cfg.c **** 			{0xE2u, 0x20u},
 423:.\Generated_Source\PSoC4/cyfitter_cfg.c **** 			{0x10u, 0x01u},
 424:.\Generated_Source\PSoC4/cyfitter_cfg.c **** 			{0x11u, 0x01u},
 425:.\Generated_Source\PSoC4/cyfitter_cfg.c **** 		};
 426:.\Generated_Source\PSoC4/cyfitter_cfg.c **** 
 427:.\Generated_Source\PSoC4/cyfitter_cfg.c **** 
 428:.\Generated_Source\PSoC4/cyfitter_cfg.c **** 
 429:.\Generated_Source\PSoC4/cyfitter_cfg.c **** 		CYPACKED typedef struct {
 430:.\Generated_Source\PSoC4/cyfitter_cfg.c **** 			void CYFAR *address;
 431:.\Generated_Source\PSoC4/cyfitter_cfg.c **** 			uint16 size;
 432:.\Generated_Source\PSoC4/cyfitter_cfg.c **** 		} CYPACKED_ATTR cfg_memset_t;
 433:.\Generated_Source\PSoC4/cyfitter_cfg.c **** 
 434:.\Generated_Source\PSoC4/cyfitter_cfg.c **** 		static const cfg_memset_t CYCODE cfg_memset_list [] = {
 435:.\Generated_Source\PSoC4/cyfitter_cfg.c **** 			/* address, size */
 436:.\Generated_Source\PSoC4/cyfitter_cfg.c **** 			{(void CYFAR *)(CYDEV_UDB_P0_U0_BASE), 1024u},
 437:.\Generated_Source\PSoC4/cyfitter_cfg.c **** 			{(void CYFAR *)(CYDEV_UDB_DSI0_BASE), 1024u},
 438:.\Generated_Source\PSoC4/cyfitter_cfg.c **** 		};
ARM GAS  C:\Users\Admin\AppData\Local\Temp\cck8NDaJ.s 			page 11


 439:.\Generated_Source\PSoC4/cyfitter_cfg.c **** 
 440:.\Generated_Source\PSoC4/cyfitter_cfg.c **** 		uint8 CYDATA i;
 441:.\Generated_Source\PSoC4/cyfitter_cfg.c **** 
 442:.\Generated_Source\PSoC4/cyfitter_cfg.c **** 		/* Zero out critical memory blocks before beginning configuration */
 443:.\Generated_Source\PSoC4/cyfitter_cfg.c **** 		for (i = 0u; i < (sizeof(cfg_memset_list)/sizeof(cfg_memset_list[0])); i++)
 444:.\Generated_Source\PSoC4/cyfitter_cfg.c **** 		{
 445:.\Generated_Source\PSoC4/cyfitter_cfg.c **** 			const cfg_memset_t CYCODE * CYDATA ms = &cfg_memset_list[i];
 446:.\Generated_Source\PSoC4/cyfitter_cfg.c **** 			CYMEMZERO(ms->address, (size_t)(uint32)(ms->size));
 447:.\Generated_Source\PSoC4/cyfitter_cfg.c **** 		}
 448:.\Generated_Source\PSoC4/cyfitter_cfg.c **** 
 449:.\Generated_Source\PSoC4/cyfitter_cfg.c **** 		cfg_write_bytes32(cy_cfg_addr_table, cy_cfg_data_table);
 450:.\Generated_Source\PSoC4/cyfitter_cfg.c **** 
 451:.\Generated_Source\PSoC4/cyfitter_cfg.c **** 		/* Perform normal device configuration. Order is not critical for these items. */
 452:.\Generated_Source\PSoC4/cyfitter_cfg.c **** 		CY_SET_XTND_REG16((void CYFAR *)(CYREG_UDB_BCTL0_DRV), 0x0100u);
 126              		.loc 1 452 0
 127 0062 3E4B     		ldr	r3, .L11+16
 128              	.LVL14:
 129 0064 8022     		mov	r2, #128
 130 0066 5200     		lsl	r2, r2, #1
 131 0068 1A80     		strh	r2, [r3]
 453:.\Generated_Source\PSoC4/cyfitter_cfg.c **** 		CY_SET_XTND_REG8((void CYFAR *)(CYREG_UDB_BCTL0_DRV + 0x2u), 0x01u);
 132              		.loc 1 453 0
 133 006a 3D4B     		ldr	r3, .L11+20
 134 006c 0122     		mov	r2, #1
 135 006e 1A70     		strb	r2, [r3]
 454:.\Generated_Source\PSoC4/cyfitter_cfg.c **** 
 455:.\Generated_Source\PSoC4/cyfitter_cfg.c **** 		/* HSIOM Starting address: CYDEV_HSIOM_BASE */
 456:.\Generated_Source\PSoC4/cyfitter_cfg.c **** 		CY_SET_XTND_REG32((void CYFAR *)(CYREG_HSIOM_PORT_SEL3), 0x0000EE00u);
 136              		.loc 1 456 0
 137 0070 EE21     		mov	r1, #238
 138              	.LVL15:
 139 0072 3C4B     		ldr	r3, .L11+24
 140 0074 0902     		lsl	r1, r1, #8
 141 0076 1960     		str	r1, [r3]
 457:.\Generated_Source\PSoC4/cyfitter_cfg.c **** 
 458:.\Generated_Source\PSoC4/cyfitter_cfg.c **** 		/* IOPINS0_1 Starting address: CYDEV_PRT1_DR */
 459:.\Generated_Source\PSoC4/cyfitter_cfg.c **** 		CY_SET_XTND_REG32((void CYFAR *)(CYREG_PRT1_DR), 0x00000008u);
 142              		.loc 1 459 0
 143 0078 3B4B     		ldr	r3, .L11+28
 144 007a 0821     		mov	r1, #8
 145 007c 1960     		str	r1, [r3]
 460:.\Generated_Source\PSoC4/cyfitter_cfg.c **** 		CY_SET_XTND_REG32((void CYFAR *)(CYREG_PRT1_PC), 0x00180400u);
 146              		.loc 1 460 0
 147 007e 3B49     		ldr	r1, .L11+32
 148 0080 3B4B     		ldr	r3, .L11+36
 461:.\Generated_Source\PSoC4/cyfitter_cfg.c **** 		CY_SET_XTND_REG32((void CYFAR *)(CYREG_PRT1_INTCFG), 0x00000080u);
 462:.\Generated_Source\PSoC4/cyfitter_cfg.c **** 
 463:.\Generated_Source\PSoC4/cyfitter_cfg.c **** 		/* IOPINS0_2 Starting address: CYDEV_PRT2_DR */
 464:.\Generated_Source\PSoC4/cyfitter_cfg.c **** 		CY_SET_XTND_REG32((void CYFAR *)(CYREG_PRT2_PC), 0x00DB6DB6u);
 465:.\Generated_Source\PSoC4/cyfitter_cfg.c **** 
 466:.\Generated_Source\PSoC4/cyfitter_cfg.c **** 		/* IOPINS0_3 Starting address: CYDEV_PRT3_DR */
 467:.\Generated_Source\PSoC4/cyfitter_cfg.c **** 		CY_SET_XTND_REG32((void CYFAR *)(CYREG_PRT3_PC), 0x001B0D80u);
 468:.\Generated_Source\PSoC4/cyfitter_cfg.c **** 
 469:.\Generated_Source\PSoC4/cyfitter_cfg.c **** 		/* UDB_PA_1 Starting address: CYDEV_UDB_PA1_BASE */
 470:.\Generated_Source\PSoC4/cyfitter_cfg.c **** 		CY_SET_XTND_REG32((void CYFAR *)(CYDEV_UDB_PA1_BASE), 0x00990000u);
 471:.\Generated_Source\PSoC4/cyfitter_cfg.c **** 		CY_SET_XTND_REG32((void CYFAR *)(CYREG_UDB_PA1_CFG4), 0x00800000u);
 149              		.loc 1 471 0
ARM GAS  C:\Users\Admin\AppData\Local\Temp\cck8NDaJ.s 			page 12


 150 0082 8020     		mov	r0, #128
 460:.\Generated_Source\PSoC4/cyfitter_cfg.c **** 		CY_SET_XTND_REG32((void CYFAR *)(CYREG_PRT1_PC), 0x00180400u);
 151              		.loc 1 460 0
 152 0084 1960     		str	r1, [r3]
 461:.\Generated_Source\PSoC4/cyfitter_cfg.c **** 		CY_SET_XTND_REG32((void CYFAR *)(CYREG_PRT1_INTCFG), 0x00000080u);
 153              		.loc 1 461 0
 154 0086 3B4B     		ldr	r3, .L11+40
 155 0088 8021     		mov	r1, #128
 156 008a 1960     		str	r1, [r3]
 464:.\Generated_Source\PSoC4/cyfitter_cfg.c **** 		CY_SET_XTND_REG32((void CYFAR *)(CYREG_PRT2_PC), 0x00DB6DB6u);
 157              		.loc 1 464 0
 158 008c 3A49     		ldr	r1, .L11+44
 159 008e 3B4B     		ldr	r3, .L11+48
 160              		.loc 1 471 0
 161 0090 0004     		lsl	r0, r0, #16
 464:.\Generated_Source\PSoC4/cyfitter_cfg.c **** 		CY_SET_XTND_REG32((void CYFAR *)(CYREG_PRT2_PC), 0x00DB6DB6u);
 162              		.loc 1 464 0
 163 0092 1960     		str	r1, [r3]
 467:.\Generated_Source\PSoC4/cyfitter_cfg.c **** 		CY_SET_XTND_REG32((void CYFAR *)(CYREG_PRT3_PC), 0x001B0D80u);
 164              		.loc 1 467 0
 165 0094 3A49     		ldr	r1, .L11+52
 166 0096 3B4B     		ldr	r3, .L11+56
 167 0098 1960     		str	r1, [r3]
 470:.\Generated_Source\PSoC4/cyfitter_cfg.c **** 		CY_SET_XTND_REG32((void CYFAR *)(CYDEV_UDB_PA1_BASE), 0x00990000u);
 168              		.loc 1 470 0
 169 009a 3B49     		ldr	r1, .L11+60
 170 009c 9923     		mov	r3, #153
 171 009e 1B04     		lsl	r3, r3, #16
 172 00a0 0B60     		str	r3, [r1]
 173              		.loc 1 471 0
 174 00a2 3A49     		ldr	r1, .L11+64
 175 00a4 0860     		str	r0, [r1]
 472:.\Generated_Source\PSoC4/cyfitter_cfg.c **** 
 473:.\Generated_Source\PSoC4/cyfitter_cfg.c **** 		/* UDB_PA_2 Starting address: CYDEV_UDB_PA2_BASE */
 474:.\Generated_Source\PSoC4/cyfitter_cfg.c **** 		CY_SET_XTND_REG32((void CYFAR *)(CYDEV_UDB_PA2_BASE), 0x00990000u);
 176              		.loc 1 474 0
 177 00a6 3A49     		ldr	r1, .L11+68
 475:.\Generated_Source\PSoC4/cyfitter_cfg.c **** 
 476:.\Generated_Source\PSoC4/cyfitter_cfg.c **** 		/* UDB_PA_3 Starting address: CYDEV_UDB_PA3_BASE */
 477:.\Generated_Source\PSoC4/cyfitter_cfg.c **** 		CY_SET_XTND_REG32((void CYFAR *)(CYDEV_UDB_PA3_BASE), 0x00990000u);
 478:.\Generated_Source\PSoC4/cyfitter_cfg.c **** 
 479:.\Generated_Source\PSoC4/cyfitter_cfg.c **** 		/* INT_SELECT Starting address: CYDEV_CPUSS_INTR_SELECT */
 480:.\Generated_Source\PSoC4/cyfitter_cfg.c **** 		CY_SET_XTND_REG32((void CYFAR *)(CYREG_CPUSS_INTR_SELECT), 0x00000001u);
 481:.\Generated_Source\PSoC4/cyfitter_cfg.c **** 
 482:.\Generated_Source\PSoC4/cyfitter_cfg.c **** 		/* INT_CONFIG Starting address: CYDEV_UDB_INT_CFG */
 483:.\Generated_Source\PSoC4/cyfitter_cfg.c **** 		CY_SET_XTND_REG32((void CYFAR *)(CYREG_UDB_INT_CFG), 0x00000002u);
 484:.\Generated_Source\PSoC4/cyfitter_cfg.c **** 
 485:.\Generated_Source\PSoC4/cyfitter_cfg.c **** 		/* Enable digital routing */
 486:.\Generated_Source\PSoC4/cyfitter_cfg.c **** 		CY_SET_XTND_REG8((void *)CYREG_UDB_UDBIF_BANK_CTL, CY_GET_XTND_REG8((void *)CYREG_UDB_UDBIF_BANK_
 487:.\Generated_Source\PSoC4/cyfitter_cfg.c **** 
 488:.\Generated_Source\PSoC4/cyfitter_cfg.c **** 		/* Enable UDB array */
 489:.\Generated_Source\PSoC4/cyfitter_cfg.c **** 		CY_SET_XTND_REG8((void *)CYREG_UDB_UDBIF_WAIT_CFG, (uint8)((CY_GET_XTND_REG8((void *)CYREG_UDB_UD
 178              		.loc 1 489 0
 179 00a8 3C20     		mov	r0, #60
 474:.\Generated_Source\PSoC4/cyfitter_cfg.c **** 		CY_SET_XTND_REG32((void CYFAR *)(CYDEV_UDB_PA2_BASE), 0x00990000u);
 180              		.loc 1 474 0
 181 00aa 0B60     		str	r3, [r1]
ARM GAS  C:\Users\Admin\AppData\Local\Temp\cck8NDaJ.s 			page 13


 477:.\Generated_Source\PSoC4/cyfitter_cfg.c **** 		CY_SET_XTND_REG32((void CYFAR *)(CYDEV_UDB_PA3_BASE), 0x00990000u);
 182              		.loc 1 477 0
 183 00ac 3949     		ldr	r1, .L11+72
 184 00ae 0B60     		str	r3, [r1]
 480:.\Generated_Source\PSoC4/cyfitter_cfg.c **** 		CY_SET_XTND_REG32((void CYFAR *)(CYREG_CPUSS_INTR_SELECT), 0x00000001u);
 185              		.loc 1 480 0
 186 00b0 394B     		ldr	r3, .L11+76
 187 00b2 1A60     		str	r2, [r3]
 483:.\Generated_Source\PSoC4/cyfitter_cfg.c **** 		CY_SET_XTND_REG32((void CYFAR *)(CYREG_UDB_INT_CFG), 0x00000002u);
 188              		.loc 1 483 0
 189 00b4 394B     		ldr	r3, .L11+80
 190 00b6 0222     		mov	r2, #2
 191 00b8 1A60     		str	r2, [r3]
 486:.\Generated_Source\PSoC4/cyfitter_cfg.c **** 		CY_SET_XTND_REG8((void *)CYREG_UDB_UDBIF_BANK_CTL, CY_GET_XTND_REG8((void *)CYREG_UDB_UDBIF_BANK_
 192              		.loc 1 486 0
 193 00ba 394B     		ldr	r3, .L11+84
 194 00bc 1978     		ldrb	r1, [r3]
 195 00be 0A43     		orr	r2, r1
 196 00c0 1A70     		strb	r2, [r3]
 197              		.loc 1 489 0
 198 00c2 384A     		ldr	r2, .L11+88
 199 00c4 1178     		ldrb	r1, [r2]
 200 00c6 8143     		bic	r1, r0
 201 00c8 1420     		mov	r0, #20
 202 00ca 0143     		orr	r1, r0
 203 00cc 1170     		strb	r1, [r2]
 490:.\Generated_Source\PSoC4/cyfitter_cfg.c **** 		CY_SET_XTND_REG8((void *)CYREG_UDB_UDBIF_BANK_CTL, (uint8)(CY_GET_XTND_REG8((void *)CYREG_UDB_UDB
 204              		.loc 1 490 0
 205 00ce 1A78     		ldrb	r2, [r3]
 206 00d0 1621     		mov	r1, #22
 207 00d2 0A43     		orr	r2, r1
 208 00d4 1A70     		strb	r2, [r3]
 209              	.LBE18:
 210              	.LBB25:
 211              	.LBB26:
 239:.\Generated_Source\PSoC4/cyfitter_cfg.c **** 	CY_SET_REG32((void CYXDATA *)(CYREG_CLK_SELECT), (CY_GET_REG32((void *)CYREG_CLK_SELECT) | 0x00040
 212              		.loc 1 239 0
 213 00d6 344A     		ldr	r2, .L11+92
 214 00d8 8023     		mov	r3, #128
 215 00da 1168     		ldr	r1, [r2]
 216 00dc DB02     		lsl	r3, r3, #11
 217 00de 0B43     		orr	r3, r1
 218 00e0 1360     		str	r3, [r2]
 219              	.LVL16:
 220              	.LBB27:
 221              	.LBB28:
 202:.\Generated_Source\PSoC4/cyfitter_cfg.c **** 	setAbs = CY_GET_REG8((const void *)CYREG_SFLASH_IMO_ABS4);
 222              		.loc 1 202 0
 223 00e2 324B     		ldr	r3, .L11+96
 224 00e4 141C     		mov	r4, r2
 225 00e6 1878     		ldrb	r0, [r3]
 203:.\Generated_Source\PSoC4/cyfitter_cfg.c **** 	setTmpCo = CY_GET_REG8((const void *)CYREG_SFLASH_IMO_TMPCO4);
 226              		.loc 1 203 0
 227 00e8 314B     		ldr	r3, .L11+100
 202:.\Generated_Source\PSoC4/cyfitter_cfg.c **** 	setAbs = CY_GET_REG8((const void *)CYREG_SFLASH_IMO_ABS4);
 228              		.loc 1 202 0
 229 00ea C0B2     		uxtb	r0, r0
ARM GAS  C:\Users\Admin\AppData\Local\Temp\cck8NDaJ.s 			page 14


 230              	.LVL17:
 203:.\Generated_Source\PSoC4/cyfitter_cfg.c **** 	setTmpCo = CY_GET_REG8((const void *)CYREG_SFLASH_IMO_TMPCO4);
 231              		.loc 1 203 0
 232 00ec 1978     		ldrb	r1, [r3]
 233 00ee 314B     		ldr	r3, .L11+104
 234 00f0 C9B2     		uxtb	r1, r1
 235              	.LVL18:
 236              	.L6:
 205:.\Generated_Source\PSoC4/cyfitter_cfg.c **** 	     (imoTrimIndex >= 0) && (imoFreq <= imo_trim_table->entries[imoTrimIndex].freq);
 237              		.loc 1 205 0
 238 00f2 1A78     		ldrb	r2, [r3]
 239 00f4 172A     		cmp	r2, #23
 240 00f6 05D9     		bls	.L7
 204:.\Generated_Source\PSoC4/cyfitter_cfg.c **** 	for (imoTrimIndex = ((int32)IMO_TRIM_FREQ_TABLE_ENTRIES)-1;
 241              		.loc 1 204 0
 242 00f8 2F4A     		ldr	r2, .L11+108
 208:.\Generated_Source\PSoC4/cyfitter_cfg.c **** 		setAbs = imo_trim_table->entries[imoTrimIndex].absolute;
 243              		.loc 1 208 0
 244 00fa 5878     		ldrb	r0, [r3, #1]
 245              	.LVL19:
 209:.\Generated_Source\PSoC4/cyfitter_cfg.c **** 		setTmpCo = imo_trim_table->entries[imoTrimIndex].tmpco;
 246              		.loc 1 209 0
 247 00fc 9978     		ldrb	r1, [r3, #2]
 248              	.LVL20:
 249 00fe 033B     		sub	r3, r3, #3
 250              	.LVL21:
 204:.\Generated_Source\PSoC4/cyfitter_cfg.c **** 	for (imoTrimIndex = ((int32)IMO_TRIM_FREQ_TABLE_ENTRIES)-1;
 251              		.loc 1 204 0
 252 0100 9342     		cmp	r3, r2
 253 0102 F6D1     		bne	.L6
 254              	.LVL22:
 255              	.L7:
 212:.\Generated_Source\PSoC4/cyfitter_cfg.c **** 	CY_SET_REG32((void *)CYREG_PWR_BG_TRIM4, setAbs);
 256              		.loc 1 212 0
 257 0104 2D4B     		ldr	r3, .L11+112
 258              	.LBE28:
 259              	.LBE27:
 245:.\Generated_Source\PSoC4/cyfitter_cfg.c **** 	CY_SET_REG32((void CYXDATA *)(CYREG_CLK_IMO_TRIM2), (25u));
 260              		.loc 1 245 0
 261 0106 1922     		mov	r2, #25
 262              	.LBB31:
 263              	.LBB29:
 212:.\Generated_Source\PSoC4/cyfitter_cfg.c **** 	CY_SET_REG32((void *)CYREG_PWR_BG_TRIM4, setAbs);
 264              		.loc 1 212 0
 265 0108 1860     		str	r0, [r3]
 213:.\Generated_Source\PSoC4/cyfitter_cfg.c **** 	CY_SET_REG32((void *)CYREG_PWR_BG_TRIM5, setTmpCo);
 266              		.loc 1 213 0
 267 010a 2D4B     		ldr	r3, .L11+116
 268              	.LBE29:
 269              	.LBE31:
 246:.\Generated_Source\PSoC4/cyfitter_cfg.c **** 	CyDelayCycles(5u);
 270              		.loc 1 246 0
 271 010c 0520     		mov	r0, #5
 272              	.LBB32:
 273              	.LBB30:
 213:.\Generated_Source\PSoC4/cyfitter_cfg.c **** 	CY_SET_REG32((void *)CYREG_PWR_BG_TRIM5, setTmpCo);
 274              		.loc 1 213 0
ARM GAS  C:\Users\Admin\AppData\Local\Temp\cck8NDaJ.s 			page 15


 275 010e 1960     		str	r1, [r3]
 276              	.LBE30:
 277              	.LBE32:
 245:.\Generated_Source\PSoC4/cyfitter_cfg.c **** 	CY_SET_REG32((void CYXDATA *)(CYREG_CLK_IMO_TRIM2), (25u));
 278              		.loc 1 245 0
 279 0110 2C4B     		ldr	r3, .L11+120
 280              	.LBE26:
 281              	.LBE25:
 491:.\Generated_Source\PSoC4/cyfitter_cfg.c **** 	}
 492:.\Generated_Source\PSoC4/cyfitter_cfg.c **** 
 493:.\Generated_Source\PSoC4/cyfitter_cfg.c **** 	/* Setup clocks based on selections from Clock DWR */
 494:.\Generated_Source\PSoC4/cyfitter_cfg.c **** 	ClockSetup();
 495:.\Generated_Source\PSoC4/cyfitter_cfg.c **** 
 496:.\Generated_Source\PSoC4/cyfitter_cfg.c **** 	/* Perform basic analog initialization to defaults */
 497:.\Generated_Source\PSoC4/cyfitter_cfg.c **** 	AnalogSetDefault();
 498:.\Generated_Source\PSoC4/cyfitter_cfg.c **** 
 499:.\Generated_Source\PSoC4/cyfitter_cfg.c **** }
 282              		.loc 1 499 0
 283              		@ sp needed
 284              	.LBB34:
 285              	.LBB33:
 245:.\Generated_Source\PSoC4/cyfitter_cfg.c **** 	CY_SET_REG32((void CYXDATA *)(CYREG_CLK_IMO_TRIM2), (25u));
 286              		.loc 1 245 0
 287 0112 1A60     		str	r2, [r3]
 246:.\Generated_Source\PSoC4/cyfitter_cfg.c **** 	CyDelayCycles(5u);
 288              		.loc 1 246 0
 289 0114 FFF7FEFF 		bl	CyDelayCycles
 290              	.LVL23:
 247:.\Generated_Source\PSoC4/cyfitter_cfg.c **** 	CY_SET_REG32((void CYXDATA *)(CYREG_CLK_IMO_TRIM1), (CY_GET_REG8((void *)CYREG_SFLASH_IMO_TRIM21))
 291              		.loc 1 247 0
 292 0118 2B4B     		ldr	r3, .L11+124
 248:.\Generated_Source\PSoC4/cyfitter_cfg.c **** 	CyDelayUs(5u);
 293              		.loc 1 248 0
 294 011a 0520     		mov	r0, #5
 247:.\Generated_Source\PSoC4/cyfitter_cfg.c **** 	CY_SET_REG32((void CYXDATA *)(CYREG_CLK_IMO_TRIM1), (CY_GET_REG8((void *)CYREG_SFLASH_IMO_TRIM21))
 295              		.loc 1 247 0
 296 011c 1A78     		ldrb	r2, [r3]
 297 011e 2B4B     		ldr	r3, .L11+128
 298 0120 D2B2     		uxtb	r2, r2
 299 0122 1A60     		str	r2, [r3]
 248:.\Generated_Source\PSoC4/cyfitter_cfg.c **** 	CyDelayUs(5u);
 300              		.loc 1 248 0
 301 0124 FFF7FEFF 		bl	CyDelayUs
 302              	.LVL24:
 251:.\Generated_Source\PSoC4/cyfitter_cfg.c **** 	CY_SET_REG32((void CYXDATA *)(CYREG_CLK_SELECT), (CY_GET_REG32((void *)CYREG_CLK_SELECT) & 0xFFFBF
 303              		.loc 1 251 0
 304 0128 2268     		ldr	r2, [r4]
 305 012a 294B     		ldr	r3, .L11+132
 306 012c 1340     		and	r3, r2
 307 012e 2360     		str	r3, [r4]
 253:.\Generated_Source\PSoC4/cyfitter_cfg.c **** 	CY_SET_XTND_REG32((void CYFAR *)(CYREG_CLK_ILO_CONFIG), 0x80000006u);
 308              		.loc 1 253 0
 309 0130 284A     		ldr	r2, .L11+136
 310 0132 294B     		ldr	r3, .L11+140
 311 0134 1A60     		str	r2, [r3]
 257:.\Generated_Source\PSoC4/cyfitter_cfg.c **** 	CY_SET_XTND_REG32((void CYFAR *)(CYREG_CLK_SELECT12), 0x00000010u);
 312              		.loc 1 257 0
ARM GAS  C:\Users\Admin\AppData\Local\Temp\cck8NDaJ.s 			page 16


 313 0136 294B     		ldr	r3, .L11+144
 314 0138 1022     		mov	r2, #16
 315 013a 1A60     		str	r2, [r3]
 260:.\Generated_Source\PSoC4/cyfitter_cfg.c **** 	CY_SET_XTND_REG32((void CYFAR *)(CYREG_CLK_IMO_CONFIG), 0x80000000u);
 316              		.loc 1 260 0
 317 013c 284B     		ldr	r3, .L11+148
 318 013e 8022     		mov	r2, #128
 319 0140 1206     		lsl	r2, r2, #24
 320 0142 1A60     		str	r2, [r3]
 263:.\Generated_Source\PSoC4/cyfitter_cfg.c **** 	CY_SET_XTND_REG32((void CYFAR *)(CYREG_CLK_DIVIDER_A00), 0x8000176Fu);
 321              		.loc 1 263 0
 322 0144 274A     		ldr	r2, .L11+152
 323 0146 284B     		ldr	r3, .L11+156
 324 0148 1A60     		str	r2, [r3]
 325              	.LVL25:
 326              	.LBE33:
 327              	.LBE34:
 328              		.loc 1 499 0
 329 014a F7BD     		pop	{r0, r1, r2, r4, r5, r6, r7, pc}
 330              	.L12:
 331              		.align	2
 332              	.L11:
 333 014c 1C700F40 		.word	1074753564
 334 0150 00300F40 		.word	1074737152
 335 0154 00400F40 		.word	1074741248
 336 0158 00000000 		.word	.LANCHOR0
 337 015c 00600F40 		.word	1074749440
 338 0160 02600F40 		.word	1074749442
 339 0164 0C000140 		.word	1073807372
 340 0168 00010440 		.word	1074004224
 341 016c 00041800 		.word	1573888
 342 0170 08010440 		.word	1074004232
 343 0174 0C010440 		.word	1074004236
 344 0178 B66DDB00 		.word	14380470
 345 017c 08020440 		.word	1074004488
 346 0180 800D1B00 		.word	1772928
 347 0184 08030440 		.word	1074004744
 348 0188 10500F40 		.word	1074745360
 349 018c 14500F40 		.word	1074745364
 350 0190 20500F40 		.word	1074745376
 351 0194 30500F40 		.word	1074745392
 352 0198 20000040 		.word	1073741856
 353 019c 00800F40 		.word	1074757632
 354 01a0 00700F40 		.word	1074753536
 355 01a4 01700F40 		.word	1074753537
 356 01a8 00010B40 		.word	1074462976
 357 01ac CCF1FF0F 		.word	268431820
 358 01b0 CDF1FF0F 		.word	268431821
 359 01b4 C9F1FF0F 		.word	268431817
 360 01b8 BDF1FF0F 		.word	268431805
 361 01bc 1CFF0B40 		.word	1074528028
 362 01c0 20FF0B40 		.word	1074528032
 363 01c4 2CFF0B40 		.word	1074528044
 364 01c8 E5F1FF0F 		.word	268431845
 365 01cc 28FF0B40 		.word	1074528040
 366 01d0 FFFFFBFF 		.word	-262145
 367 01d4 06000080 		.word	-2147483642
ARM GAS  C:\Users\Admin\AppData\Local\Temp\cck8NDaJ.s 			page 17


 368 01d8 04010B40 		.word	1074462980
 369 01dc 30020240 		.word	1073873456
 370 01e0 08010B40 		.word	1074462984
 371 01e4 6F170080 		.word	-2147477649
 372 01e8 00000240 		.word	1073872896
 373              		.cfi_endproc
 374              	.LFE7:
 375              		.size	cyfitter_cfg, .-cyfitter_cfg
 376              		.section	.rodata
 377              		.align	2
 378              		.set	.LANCHOR0,. + 0
 379              		.type	cy_cfg_addr_table.4729, %object
 380              		.size	cy_cfg_addr_table.4729, 24
 381              	cy_cfg_addr_table.4729:
 382 0000 01000F40 		.word	1074724865
 383 0004 3C320F40 		.word	1074737724
 384 0008 1C330F40 		.word	1074737948
 385 000c 02400F40 		.word	1074741250
 386 0010 03410F40 		.word	1074741507
 387 0014 02600F40 		.word	1074749442
 388              		.type	cy_cfg_data_table.4730, %object
 389              		.size	cy_cfg_data_table.4730, 192
 390              	cy_cfg_data_table.4730:
 391 0018 83       		.byte	-125
 392 0019 0D       		.byte	13
 393 001a 2E       		.byte	46
 394 001b 01       		.byte	1
 395 001c 30       		.byte	48
 396 001d 01       		.byte	1
 397 001e 36       		.byte	54
 398 001f 01       		.byte	1
 399 0020 40       		.byte	64
 400 0021 10       		.byte	16
 401 0022 41       		.byte	65
 402 0023 05       		.byte	5
 403 0024 49       		.byte	73
 404 0025 FF       		.byte	-1
 405 0026 4A       		.byte	74
 406 0027 FF       		.byte	-1
 407 0028 4B       		.byte	75
 408 0029 FF       		.byte	-1
 409 002a 4D       		.byte	77
 410 002b A0       		.byte	-96
 411 002c 4F       		.byte	79
 412 002d 04       		.byte	4
 413 002e 50       		.byte	80
 414 002f 18       		.byte	24
 415 0030 52       		.byte	82
 416 0031 80       		.byte	-128
 417 0032 58       		.byte	88
 418 0033 04       		.byte	4
 419 0034 5A       		.byte	90
 420 0035 04       		.byte	4
 421 0036 5B       		.byte	91
 422 0037 04       		.byte	4
 423 0038 5F       		.byte	95
 424 0039 01       		.byte	1
ARM GAS  C:\Users\Admin\AppData\Local\Temp\cck8NDaJ.s 			page 18


 425 003a 60       		.byte	96
 426 003b 40       		.byte	64
 427 003c 62       		.byte	98
 428 003d C0       		.byte	-64
 429 003e 64       		.byte	100
 430 003f 40       		.byte	64
 431 0040 65       		.byte	101
 432 0041 40       		.byte	64
 433 0042 66       		.byte	102
 434 0043 C0       		.byte	-64
 435 0044 68       		.byte	104
 436 0045 C0       		.byte	-64
 437 0046 6A       		.byte	106
 438 0047 C0       		.byte	-64
 439 0048 6C       		.byte	108
 440 0049 C0       		.byte	-64
 441 004a 6E       		.byte	110
 442 004b C0       		.byte	-64
 443 004c 80       		.byte	-128
 444 004d 02       		.byte	2
 445 004e 8E       		.byte	-114
 446 004f 04       		.byte	4
 447 0050 9E       		.byte	-98
 448 0051 04       		.byte	4
 449 0052 A6       		.byte	-90
 450 0053 03       		.byte	3
 451 0054 B0       		.byte	-80
 452 0055 01       		.byte	1
 453 0056 B4       		.byte	-76
 454 0057 04       		.byte	4
 455 0058 B6       		.byte	-74
 456 0059 02       		.byte	2
 457 005a BE       		.byte	-66
 458 005b 10       		.byte	16
 459 005c C0       		.byte	-64
 460 005d 40       		.byte	64
 461 005e C1       		.byte	-63
 462 005f 05       		.byte	5
 463 0060 C5       		.byte	-59
 464 0061 D1       		.byte	-47
 465 0062 C7       		.byte	-57
 466 0063 20       		.byte	32
 467 0064 C8       		.byte	-56
 468 0065 23       		.byte	35
 469 0066 C9       		.byte	-55
 470 0067 FF       		.byte	-1
 471 0068 CA       		.byte	-54
 472 0069 FF       		.byte	-1
 473 006a CB       		.byte	-53
 474 006b FF       		.byte	-1
 475 006c CD       		.byte	-51
 476 006d AF       		.byte	-81
 477 006e CE       		.byte	-50
 478 006f 0F       		.byte	15
 479 0070 CF       		.byte	-49
 480 0071 04       		.byte	4
 481 0072 D0       		.byte	-48
ARM GAS  C:\Users\Admin\AppData\Local\Temp\cck8NDaJ.s 			page 19


 482 0073 18       		.byte	24
 483 0074 D4       		.byte	-44
 484 0075 05       		.byte	5
 485 0076 D6       		.byte	-42
 486 0077 04       		.byte	4
 487 0078 D8       		.byte	-40
 488 0079 04       		.byte	4
 489 007a DA       		.byte	-38
 490 007b 04       		.byte	4
 491 007c DB       		.byte	-37
 492 007d 04       		.byte	4
 493 007e DF       		.byte	-33
 494 007f 01       		.byte	1
 495 0080 E0       		.byte	-32
 496 0081 40       		.byte	64
 497 0082 E2       		.byte	-30
 498 0083 C0       		.byte	-64
 499 0084 E4       		.byte	-28
 500 0085 40       		.byte	64
 501 0086 E5       		.byte	-27
 502 0087 40       		.byte	64
 503 0088 E6       		.byte	-26
 504 0089 C0       		.byte	-64
 505 008a E8       		.byte	-24
 506 008b C0       		.byte	-64
 507 008c EA       		.byte	-22
 508 008d C0       		.byte	-64
 509 008e EC       		.byte	-20
 510 008f C0       		.byte	-64
 511 0090 EE       		.byte	-18
 512 0091 C0       		.byte	-64
 513 0092 01       		.byte	1
 514 0093 02       		.byte	2
 515 0094 02       		.byte	2
 516 0095 02       		.byte	2
 517 0096 09       		.byte	9
 518 0097 80       		.byte	-128
 519 0098 10       		.byte	16
 520 0099 20       		.byte	32
 521 009a 17       		.byte	23
 522 009b 80       		.byte	-128
 523 009c 19       		.byte	25
 524 009d 42       		.byte	66
 525 009e 1A       		.byte	26
 526 009f 04       		.byte	4
 527 00a0 1C       		.byte	28
 528 00a1 40       		.byte	64
 529 00a2 1D       		.byte	29
 530 00a3 80       		.byte	-128
 531 00a4 40       		.byte	64
 532 00a5 40       		.byte	64
 533 00a6 45       		.byte	69
 534 00a7 80       		.byte	-128
 535 00a8 48       		.byte	72
 536 00a9 20       		.byte	32
 537 00aa 49       		.byte	73
 538 00ab 01       		.byte	1
ARM GAS  C:\Users\Admin\AppData\Local\Temp\cck8NDaJ.s 			page 20


 539 00ac 4A       		.byte	74
 540 00ad 02       		.byte	2
 541 00ae 4E       		.byte	78
 542 00af 02       		.byte	2
 543 00b0 52       		.byte	82
 544 00b1 02       		.byte	2
 545 00b2 59       		.byte	89
 546 00b3 41       		.byte	65
 547 00b4 5A       		.byte	90
 548 00b5 04       		.byte	4
 549 00b6 63       		.byte	99
 550 00b7 80       		.byte	-128
 551 00b8 77       		.byte	119
 552 00b9 80       		.byte	-128
 553 00ba 83       		.byte	-125
 554 00bb 40       		.byte	64
 555 00bc C0       		.byte	-64
 556 00bd 09       		.byte	9
 557 00be C2       		.byte	-62
 558 00bf 01       		.byte	1
 559 00c0 C4       		.byte	-60
 560 00c1 84       		.byte	-124
 561 00c2 D0       		.byte	-48
 562 00c3 11       		.byte	17
 563 00c4 D2       		.byte	-46
 564 00c5 18       		.byte	24
 565 00c6 D6       		.byte	-42
 566 00c7 0B       		.byte	11
 567 00c8 D8       		.byte	-40
 568 00c9 01       		.byte	1
 569 00ca 6F       		.byte	111
 570 00cb 10       		.byte	16
 571 00cc DA       		.byte	-38
 572 00cd 80       		.byte	-128
 573 00ce 83       		.byte	-125
 574 00cf 10       		.byte	16
 575 00d0 9F       		.byte	-97
 576 00d1 10       		.byte	16
 577 00d2 E2       		.byte	-30
 578 00d3 20       		.byte	32
 579 00d4 10       		.byte	16
 580 00d5 01       		.byte	1
 581 00d6 11       		.byte	17
 582 00d7 01       		.byte	1
 583              		.text
 584              	.Letext0:
 585              		.file 2 "c:\\program files\\cypress\\psoc creator\\3.1\\psoc creator\\import\\gnu_cs\\arm\\4.8.4\\
 586              		.file 3 ".\\Generated_Source\\PSoC4/cytypes.h"
 587              		.file 4 ".\\Generated_Source\\PSoC4/CyLib.h"