ARM GAS  C:\Users\Admin\AppData\Local\Temp\cc8UDPYe.s 			page 1


   1              		.cpu cortex-m0
   2              		.fpu softvfp
   3              		.eabi_attribute 20, 1
   4              		.eabi_attribute 21, 1
   5              		.eabi_attribute 23, 3
   6              		.eabi_attribute 24, 1
   7              		.eabi_attribute 25, 1
   8              		.eabi_attribute 26, 1
   9              		.eabi_attribute 30, 4
  10              		.eabi_attribute 34, 0
  11              		.eabi_attribute 18, 4
  12              		.code	16
  13              		.file	"LCD_Char_CustChars.c"
  14              		.text
  15              	.Ltext0:
  16              		.cfi_sections	.debug_frame
  17              		.section	.text.LCD_Char_LoadCustomFonts,"ax",%progbits
  18              		.align	1
  19              		.global	LCD_Char_LoadCustomFonts
  20              		.code	16
  21              		.thumb_func
  22              		.type	LCD_Char_LoadCustomFonts, %function
  23              	LCD_Char_LoadCustomFonts:
  24              	.LFB0:
  25              		.file 1 ".\\Generated_Source\\PSoC4\\LCD_Char_CustChars.c"
   1:.\Generated_Source\PSoC4/LCD_Char_CustChars.c **** /*******************************************************************************
   2:.\Generated_Source\PSoC4/LCD_Char_CustChars.c **** * File Name: LCD_Char_CustChars.c
   3:.\Generated_Source\PSoC4/LCD_Char_CustChars.c **** * Version 2.0
   4:.\Generated_Source\PSoC4/LCD_Char_CustChars.c **** *
   5:.\Generated_Source\PSoC4/LCD_Char_CustChars.c **** * Description:
   6:.\Generated_Source\PSoC4/LCD_Char_CustChars.c **** *  This file provides the source code for the Character LCD custom character
   7:.\Generated_Source\PSoC4/LCD_Char_CustChars.c **** *  API.
   8:.\Generated_Source\PSoC4/LCD_Char_CustChars.c **** *
   9:.\Generated_Source\PSoC4/LCD_Char_CustChars.c **** * Note:
  10:.\Generated_Source\PSoC4/LCD_Char_CustChars.c **** *
  11:.\Generated_Source\PSoC4/LCD_Char_CustChars.c **** ********************************************************************************
  12:.\Generated_Source\PSoC4/LCD_Char_CustChars.c **** * Copyright 2008-2014, Cypress Semiconductor Corporation.  All rights reserved.
  13:.\Generated_Source\PSoC4/LCD_Char_CustChars.c **** * You may use this file only in accordance with the license, terms, conditions,
  14:.\Generated_Source\PSoC4/LCD_Char_CustChars.c **** * disclaimers, and limitations in the end user license agreement accompanying
  15:.\Generated_Source\PSoC4/LCD_Char_CustChars.c **** * the software package with which this file was provided.
  16:.\Generated_Source\PSoC4/LCD_Char_CustChars.c **** *******************************************************************************/
  17:.\Generated_Source\PSoC4/LCD_Char_CustChars.c **** 
  18:.\Generated_Source\PSoC4/LCD_Char_CustChars.c **** #include "LCD_Char.h"
  19:.\Generated_Source\PSoC4/LCD_Char_CustChars.c **** 
  20:.\Generated_Source\PSoC4/LCD_Char_CustChars.c **** 
  21:.\Generated_Source\PSoC4/LCD_Char_CustChars.c **** uint8 const CYCODE LCD_Char_customFonts[] = \
  22:.\Generated_Source\PSoC4/LCD_Char_CustChars.c **** {
  23:.\Generated_Source\PSoC4/LCD_Char_CustChars.c ****     /* Character LCD_Char_CUSTOM_0   */
  24:.\Generated_Source\PSoC4/LCD_Char_CustChars.c ****         0x00u,    0x0Eu,    0x08u,    0x08u,    0x08u,    0x0Eu,    0x00u,    0x00u, \
  25:.\Generated_Source\PSoC4/LCD_Char_CustChars.c ****     /* Character LCD_Char_CUSTOM_1   */
  26:.\Generated_Source\PSoC4/LCD_Char_CustChars.c ****         0x00u,    0x0Au,    0x0Au,    0x04u,    0x04u,    0x04u,    0x00u,    0x00u, \
  27:.\Generated_Source\PSoC4/LCD_Char_CustChars.c ****     /* Character LCD_Char_CUSTOM_2   */
  28:.\Generated_Source\PSoC4/LCD_Char_CustChars.c ****         0x00u,    0x0Eu,    0x0Au,    0x0Eu,    0x08u,    0x08u,    0x00u,    0x00u, \
  29:.\Generated_Source\PSoC4/LCD_Char_CustChars.c ****     /* Character LCD_Char_CUSTOM_3   */
  30:.\Generated_Source\PSoC4/LCD_Char_CustChars.c ****         0x00u,    0x0Eu,    0x0Au,    0x0Cu,    0x0Au,    0x0Au,    0x00u,    0x00u, \
  31:.\Generated_Source\PSoC4/LCD_Char_CustChars.c ****     /* Character LCD_Char_CUSTOM_4   */
  32:.\Generated_Source\PSoC4/LCD_Char_CustChars.c ****         0x00u,    0x0Eu,    0x08u,    0x0Cu,    0x08u,    0x0Eu,    0x00u,    0x00u, \
ARM GAS  C:\Users\Admin\AppData\Local\Temp\cc8UDPYe.s 			page 2


  33:.\Generated_Source\PSoC4/LCD_Char_CustChars.c ****     /* Character LCD_Char_CUSTOM_5   */
  34:.\Generated_Source\PSoC4/LCD_Char_CustChars.c ****         0x00u,    0x0Eu,    0x08u,    0x0Eu,    0x02u,    0x0Eu,    0x00u,    0x00u, \
  35:.\Generated_Source\PSoC4/LCD_Char_CustChars.c ****     /* Character LCD_Char_CUSTOM_6   */
  36:.\Generated_Source\PSoC4/LCD_Char_CustChars.c ****         0x00u,    0x0Eu,    0x08u,    0x0Eu,    0x02u,    0x0Eu,    0x00u,    0x00u, \
  37:.\Generated_Source\PSoC4/LCD_Char_CustChars.c ****     /* Character LCD_Char_CUSTOM_7   */
  38:.\Generated_Source\PSoC4/LCD_Char_CustChars.c ****         0x00u,    0x04u,    0x04u,    0x04u,    0x00u,    0x04u,    0x00u,    0x00u \
  39:.\Generated_Source\PSoC4/LCD_Char_CustChars.c ****  };
  40:.\Generated_Source\PSoC4/LCD_Char_CustChars.c **** 
  41:.\Generated_Source\PSoC4/LCD_Char_CustChars.c **** 
  42:.\Generated_Source\PSoC4/LCD_Char_CustChars.c **** /*******************************************************************************
  43:.\Generated_Source\PSoC4/LCD_Char_CustChars.c **** * Function Name: LCD_Char_LoadCustomFonts
  44:.\Generated_Source\PSoC4/LCD_Char_CustChars.c **** ********************************************************************************
  45:.\Generated_Source\PSoC4/LCD_Char_CustChars.c **** *
  46:.\Generated_Source\PSoC4/LCD_Char_CustChars.c **** * Summary:
  47:.\Generated_Source\PSoC4/LCD_Char_CustChars.c **** *  Loads 8 custom font characters into the LCD Module for use.  Cannot use
  48:.\Generated_Source\PSoC4/LCD_Char_CustChars.c **** *  characters from two different font sets at once, but font sets can be
  49:.\Generated_Source\PSoC4/LCD_Char_CustChars.c **** *  switched out during runtime.
  50:.\Generated_Source\PSoC4/LCD_Char_CustChars.c **** *
  51:.\Generated_Source\PSoC4/LCD_Char_CustChars.c **** * Parameters:
  52:.\Generated_Source\PSoC4/LCD_Char_CustChars.c **** *  customData:  pointer to a constant array of 64 bytes representing 8 custom
  53:.\Generated_Source\PSoC4/LCD_Char_CustChars.c **** *               font characters.
  54:.\Generated_Source\PSoC4/LCD_Char_CustChars.c **** * Return:
  55:.\Generated_Source\PSoC4/LCD_Char_CustChars.c **** *  None.
  56:.\Generated_Source\PSoC4/LCD_Char_CustChars.c **** *
  57:.\Generated_Source\PSoC4/LCD_Char_CustChars.c **** * Theory:
  58:.\Generated_Source\PSoC4/LCD_Char_CustChars.c **** *  Prior to using this function user need to import the pointer to custom
  59:.\Generated_Source\PSoC4/LCD_Char_CustChars.c **** *  font array to your project by writting the following in the source code file
  60:.\Generated_Source\PSoC4/LCD_Char_CustChars.c **** *  where custom font will be used:
  61:.\Generated_Source\PSoC4/LCD_Char_CustChars.c **** *       extern uint8 const CYCODE LCD_Char_customFonts[];
  62:.\Generated_Source\PSoC4/LCD_Char_CustChars.c **** *  This function is not automatically called by the Start() routine and must be
  63:.\Generated_Source\PSoC4/LCD_Char_CustChars.c **** *  called manually by the user.
  64:.\Generated_Source\PSoC4/LCD_Char_CustChars.c **** *
  65:.\Generated_Source\PSoC4/LCD_Char_CustChars.c **** *******************************************************************************/
  66:.\Generated_Source\PSoC4/LCD_Char_CustChars.c **** void LCD_Char_LoadCustomFonts(uint8 const customData[]) 
  67:.\Generated_Source\PSoC4/LCD_Char_CustChars.c **** {
  26              		.loc 1 67 0
  27              		.cfi_startproc
  28              	.LVL0:
  29 0000 38B5     		push	{r3, r4, r5, lr}
  30              		.cfi_def_cfa_offset 16
  31              		.cfi_offset 3, -16
  32              		.cfi_offset 4, -12
  33              		.cfi_offset 5, -8
  34              		.cfi_offset 14, -4
  35              		.loc 1 67 0
  36 0002 051C     		mov	r5, r0
  68:.\Generated_Source\PSoC4/LCD_Char_CustChars.c ****     uint8 indexU8;
  69:.\Generated_Source\PSoC4/LCD_Char_CustChars.c **** 
  70:.\Generated_Source\PSoC4/LCD_Char_CustChars.c ****     LCD_Char_IsReady();
  37              		.loc 1 70 0
  38 0004 FFF7FEFF 		bl	LCD_Char_IsReady
  39              	.LVL1:
  71:.\Generated_Source\PSoC4/LCD_Char_CustChars.c **** 
  72:.\Generated_Source\PSoC4/LCD_Char_CustChars.c ****     /* Set starting address in the LCD Module.
  73:.\Generated_Source\PSoC4/LCD_Char_CustChars.c ****     * Optionally: Read the current address to restore at a later time.
  74:.\Generated_Source\PSoC4/LCD_Char_CustChars.c ****     */
  75:.\Generated_Source\PSoC4/LCD_Char_CustChars.c ****     LCD_Char_WriteControl(LCD_Char_CGRAM_0);
ARM GAS  C:\Users\Admin\AppData\Local\Temp\cc8UDPYe.s 			page 3


  40              		.loc 1 75 0
  41 0008 4020     		mov	r0, #64
  42 000a FFF7FEFF 		bl	LCD_Char_WriteControl
  43              	.LVL2:
  44 000e 0024     		mov	r4, #0
  45              	.LVL3:
  46              	.L3:
  76:.\Generated_Source\PSoC4/LCD_Char_CustChars.c **** 
  77:.\Generated_Source\PSoC4/LCD_Char_CustChars.c ****     /* Load in the 64 bytes of CustomChar Data */
  78:.\Generated_Source\PSoC4/LCD_Char_CustChars.c ****     for(indexU8 = 0u; indexU8 < LCD_Char_CUSTOM_CHAR_SET_LEN; indexU8++)
  79:.\Generated_Source\PSoC4/LCD_Char_CustChars.c ****     {
  80:.\Generated_Source\PSoC4/LCD_Char_CustChars.c ****         LCD_Char_WriteData(customData[indexU8]);
  47              		.loc 1 80 0 discriminator 2
  48 0010 285D     		ldrb	r0, [r5, r4]
  49 0012 0134     		add	r4, r4, #1
  50              	.LVL4:
  51 0014 FFF7FEFF 		bl	LCD_Char_WriteData
  52              	.LVL5:
  78:.\Generated_Source\PSoC4/LCD_Char_CustChars.c ****     for(indexU8 = 0u; indexU8 < LCD_Char_CUSTOM_CHAR_SET_LEN; indexU8++)
  53              		.loc 1 78 0 discriminator 2
  54 0018 402C     		cmp	r4, #64
  55 001a F9D1     		bne	.L3
  81:.\Generated_Source\PSoC4/LCD_Char_CustChars.c ****     }
  82:.\Generated_Source\PSoC4/LCD_Char_CustChars.c **** 
  83:.\Generated_Source\PSoC4/LCD_Char_CustChars.c ****     LCD_Char_IsReady();
  56              		.loc 1 83 0
  57 001c FFF7FEFF 		bl	LCD_Char_IsReady
  58              	.LVL6:
  84:.\Generated_Source\PSoC4/LCD_Char_CustChars.c ****     LCD_Char_WriteControl(LCD_Char_DDRAM_0);
  59              		.loc 1 84 0
  60 0020 8020     		mov	r0, #128
  61 0022 FFF7FEFF 		bl	LCD_Char_WriteControl
  62              	.LVL7:
  85:.\Generated_Source\PSoC4/LCD_Char_CustChars.c **** }
  63              		.loc 1 85 0
  64              		@ sp needed
  65              	.LVL8:
  66 0026 38BD     		pop	{r3, r4, r5, pc}
  67              		.cfi_endproc
  68              	.LFE0:
  69              		.size	LCD_Char_LoadCustomFonts, .-LCD_Char_LoadCustomFonts
  70              		.global	LCD_Char_customFonts
  71              		.section	.rodata
  72              		.type	LCD_Char_customFonts, %object
  73              		.size	LCD_Char_customFonts, 64
  74              	LCD_Char_customFonts:
  75 0000 00       		.byte	0
  76 0001 0E       		.byte	14
  77 0002 08       		.byte	8
  78 0003 08       		.byte	8
  79 0004 08       		.byte	8
  80 0005 0E       		.byte	14
  81 0006 00       		.byte	0
  82 0007 00       		.byte	0
  83 0008 00       		.byte	0
  84 0009 0A       		.byte	10
  85 000a 0A       		.byte	10
ARM GAS  C:\Users\Admin\AppData\Local\Temp\cc8UDPYe.s 			page 4


  86 000b 04       		.byte	4
  87 000c 04       		.byte	4
  88 000d 04       		.byte	4
  89 000e 00       		.byte	0
  90 000f 00       		.byte	0
  91 0010 00       		.byte	0
  92 0011 0E       		.byte	14
  93 0012 0A       		.byte	10
  94 0013 0E       		.byte	14
  95 0014 08       		.byte	8
  96 0015 08       		.byte	8
  97 0016 00       		.byte	0
  98 0017 00       		.byte	0
  99 0018 00       		.byte	0
 100 0019 0E       		.byte	14
 101 001a 0A       		.byte	10
 102 001b 0C       		.byte	12
 103 001c 0A       		.byte	10
 104 001d 0A       		.byte	10
 105 001e 00       		.byte	0
 106 001f 00       		.byte	0
 107 0020 00       		.byte	0
 108 0021 0E       		.byte	14
 109 0022 08       		.byte	8
 110 0023 0C       		.byte	12
 111 0024 08       		.byte	8
 112 0025 0E       		.byte	14
 113 0026 00       		.byte	0
 114 0027 00       		.byte	0
 115 0028 00       		.byte	0
 116 0029 0E       		.byte	14
 117 002a 08       		.byte	8
 118 002b 0E       		.byte	14
 119 002c 02       		.byte	2
 120 002d 0E       		.byte	14
 121 002e 00       		.byte	0
 122 002f 00       		.byte	0
 123 0030 00       		.byte	0
 124 0031 0E       		.byte	14
 125 0032 08       		.byte	8
 126 0033 0E       		.byte	14
 127 0034 02       		.byte	2
 128 0035 0E       		.byte	14
 129 0036 00       		.byte	0
 130 0037 00       		.byte	0
 131 0038 00       		.byte	0
 132 0039 04       		.byte	4
 133 003a 04       		.byte	4
 134 003b 04       		.byte	4
 135 003c 00       		.byte	0
 136 003d 04       		.byte	4
 137 003e 00       		.byte	0
 138 003f 00       		.byte	0
 139              		.text
 140              	.Letext0:
 141              		.file 2 ".\\Generated_Source\\PSoC4\\cytypes.h"
 142              		.file 3 ".\\Generated_Source\\PSoC4\\LCD_Char.h"
ARM GAS  C:\Users\Admin\AppData\Local\Temp\cc8UDPYe.s 			page 5

