ARM GAS  C:\Users\Admin\AppData\Local\Temp\ccpOO5oe.s 			page 1


   1              		.cpu cortex-m0
   2              		.fpu softvfp
   3              		.eabi_attribute 20, 1
   4              		.eabi_attribute 21, 1
   5              		.eabi_attribute 23, 3
   6              		.eabi_attribute 24, 1
   7              		.eabi_attribute 25, 1
   8              		.eabi_attribute 26, 1
   9              		.eabi_attribute 30, 4
  10              		.eabi_attribute 34, 0
  11              		.eabi_attribute 18, 4
  12              		.code	16
  13              		.file	"LCD_Char.c"
  14              		.text
  15              	.Ltext0:
  16              		.cfi_sections	.debug_frame
  17              		.section	.text.LCD_Char_WrCntrlNib,"ax",%progbits
  18              		.align	1
  19              		.code	16
  20              		.thumb_func
  21              		.type	LCD_Char_WrCntrlNib, %function
  22              	LCD_Char_WrCntrlNib:
  23              	.LFB11:
  24              		.file 1 ".\\Generated_Source\\PSoC4\\LCD_Char.c"
   1:.\Generated_Source\PSoC4/LCD_Char.c **** /*******************************************************************************
   2:.\Generated_Source\PSoC4/LCD_Char.c **** * File Name: LCD_Char.c
   3:.\Generated_Source\PSoC4/LCD_Char.c **** * Version 2.0
   4:.\Generated_Source\PSoC4/LCD_Char.c **** *
   5:.\Generated_Source\PSoC4/LCD_Char.c **** * Description:
   6:.\Generated_Source\PSoC4/LCD_Char.c **** *  This file provides source code for the Character LCD component's API.
   7:.\Generated_Source\PSoC4/LCD_Char.c **** *
   8:.\Generated_Source\PSoC4/LCD_Char.c **** * Note:
   9:.\Generated_Source\PSoC4/LCD_Char.c **** *
  10:.\Generated_Source\PSoC4/LCD_Char.c **** ********************************************************************************
  11:.\Generated_Source\PSoC4/LCD_Char.c **** * Copyright 2008-2014, Cypress Semiconductor Corporation.  All rights reserved.
  12:.\Generated_Source\PSoC4/LCD_Char.c **** * You may use this file only in accordance with the license, terms, conditions,
  13:.\Generated_Source\PSoC4/LCD_Char.c **** * disclaimers, and limitations in the end user license agreement accompanying
  14:.\Generated_Source\PSoC4/LCD_Char.c **** * the software package with which this file was provided.
  15:.\Generated_Source\PSoC4/LCD_Char.c **** *******************************************************************************/
  16:.\Generated_Source\PSoC4/LCD_Char.c **** 
  17:.\Generated_Source\PSoC4/LCD_Char.c **** #include "CyLib.h"
  18:.\Generated_Source\PSoC4/LCD_Char.c **** #include "LCD_Char.h"
  19:.\Generated_Source\PSoC4/LCD_Char.c **** 
  20:.\Generated_Source\PSoC4/LCD_Char.c **** 
  21:.\Generated_Source\PSoC4/LCD_Char.c **** static void LCD_Char_WrDatNib(uint8 nibble) ;
  22:.\Generated_Source\PSoC4/LCD_Char.c **** static void LCD_Char_WrCntrlNib(uint8 nibble) ;
  23:.\Generated_Source\PSoC4/LCD_Char.c **** 
  24:.\Generated_Source\PSoC4/LCD_Char.c **** /* Stores state of component. Indicates whether component is or not
  25:.\Generated_Source\PSoC4/LCD_Char.c **** * in the enable state.
  26:.\Generated_Source\PSoC4/LCD_Char.c **** */
  27:.\Generated_Source\PSoC4/LCD_Char.c **** uint8 LCD_Char_enableState = 0u;
  28:.\Generated_Source\PSoC4/LCD_Char.c **** 
  29:.\Generated_Source\PSoC4/LCD_Char.c **** uint8 LCD_Char_initVar = 0u;
  30:.\Generated_Source\PSoC4/LCD_Char.c **** 
  31:.\Generated_Source\PSoC4/LCD_Char.c **** 
  32:.\Generated_Source\PSoC4/LCD_Char.c **** /*******************************************************************************
  33:.\Generated_Source\PSoC4/LCD_Char.c **** * Function Name: LCD_Char_Init
ARM GAS  C:\Users\Admin\AppData\Local\Temp\ccpOO5oe.s 			page 2


  34:.\Generated_Source\PSoC4/LCD_Char.c **** ********************************************************************************
  35:.\Generated_Source\PSoC4/LCD_Char.c **** *
  36:.\Generated_Source\PSoC4/LCD_Char.c **** * Summary:
  37:.\Generated_Source\PSoC4/LCD_Char.c **** *  Perform initialization required for the components normal work.
  38:.\Generated_Source\PSoC4/LCD_Char.c **** *  This function initializes the LCD hardware module as follows:
  39:.\Generated_Source\PSoC4/LCD_Char.c **** *        Enables a 4-bit interface
  40:.\Generated_Source\PSoC4/LCD_Char.c **** *        Clears the display
  41:.\Generated_Source\PSoC4/LCD_Char.c **** *        Enables the auto cursor increment
  42:.\Generated_Source\PSoC4/LCD_Char.c **** *        Resets the cursor to start position
  43:.\Generated_Source\PSoC4/LCD_Char.c **** *  Also, it loads a custom character set to the LCD if it was defined in the customizer.
  44:.\Generated_Source\PSoC4/LCD_Char.c **** *
  45:.\Generated_Source\PSoC4/LCD_Char.c **** * Parameters:
  46:.\Generated_Source\PSoC4/LCD_Char.c **** *  None.
  47:.\Generated_Source\PSoC4/LCD_Char.c **** *
  48:.\Generated_Source\PSoC4/LCD_Char.c **** * Return:
  49:.\Generated_Source\PSoC4/LCD_Char.c **** *  None.
  50:.\Generated_Source\PSoC4/LCD_Char.c **** *
  51:.\Generated_Source\PSoC4/LCD_Char.c **** * Reentrant:
  52:.\Generated_Source\PSoC4/LCD_Char.c **** *  No.
  53:.\Generated_Source\PSoC4/LCD_Char.c **** *
  54:.\Generated_Source\PSoC4/LCD_Char.c **** *******************************************************************************/
  55:.\Generated_Source\PSoC4/LCD_Char.c **** void LCD_Char_Init(void) 
  56:.\Generated_Source\PSoC4/LCD_Char.c **** {
  57:.\Generated_Source\PSoC4/LCD_Char.c ****     /* INIT CODE */
  58:.\Generated_Source\PSoC4/LCD_Char.c ****     CyDelay(40u);                                                        /* Delay 40 ms */
  59:.\Generated_Source\PSoC4/LCD_Char.c ****     LCD_Char_WrCntrlNib(LCD_Char_DISPLAY_8_BIT_INIT);    /* Selects 8-bit mode */
  60:.\Generated_Source\PSoC4/LCD_Char.c ****     CyDelay(5u);                                                         /* Delay 5 ms */
  61:.\Generated_Source\PSoC4/LCD_Char.c ****     LCD_Char_WrCntrlNib(LCD_Char_DISPLAY_8_BIT_INIT);    /* Selects 8-bit mode */
  62:.\Generated_Source\PSoC4/LCD_Char.c ****     CyDelay(15u);                                                        /* Delay 15 ms */
  63:.\Generated_Source\PSoC4/LCD_Char.c ****     LCD_Char_WrCntrlNib(LCD_Char_DISPLAY_8_BIT_INIT);    /* Selects 8-bit mode */
  64:.\Generated_Source\PSoC4/LCD_Char.c ****     CyDelay(1u);                                                         /* Delay 1 ms */
  65:.\Generated_Source\PSoC4/LCD_Char.c ****     LCD_Char_WrCntrlNib(LCD_Char_DISPLAY_4_BIT_INIT);    /* Selects 4-bit mode */
  66:.\Generated_Source\PSoC4/LCD_Char.c ****     CyDelay(5u);                                                         /* Delay 5 ms */
  67:.\Generated_Source\PSoC4/LCD_Char.c **** 
  68:.\Generated_Source\PSoC4/LCD_Char.c ****     LCD_Char_WriteControl(LCD_Char_CURSOR_AUTO_INCR_ON);    /* Incr Cursor After Writes */
  69:.\Generated_Source\PSoC4/LCD_Char.c ****     LCD_Char_WriteControl(LCD_Char_DISPLAY_CURSOR_ON);      /* Turn Display, Cursor ON */
  70:.\Generated_Source\PSoC4/LCD_Char.c ****     LCD_Char_WriteControl(LCD_Char_DISPLAY_2_LINES_5x10);   /* 2 Lines by 5x10 Characters */
  71:.\Generated_Source\PSoC4/LCD_Char.c ****     LCD_Char_WriteControl(LCD_Char_DISPLAY_CURSOR_OFF);     /* Turn Display, Cursor OFF */
  72:.\Generated_Source\PSoC4/LCD_Char.c ****     LCD_Char_WriteControl(LCD_Char_CLEAR_DISPLAY);          /* Clear LCD Screen */
  73:.\Generated_Source\PSoC4/LCD_Char.c ****     LCD_Char_WriteControl(LCD_Char_DISPLAY_ON_CURSOR_OFF);  /* Turn Display ON, Cursor OFF */
  74:.\Generated_Source\PSoC4/LCD_Char.c ****     LCD_Char_WriteControl(LCD_Char_RESET_CURSOR_POSITION);  /* Set Cursor to 0,0 */
  75:.\Generated_Source\PSoC4/LCD_Char.c ****     CyDelay(5u);
  76:.\Generated_Source\PSoC4/LCD_Char.c **** 
  77:.\Generated_Source\PSoC4/LCD_Char.c ****     #if(LCD_Char_CUSTOM_CHAR_SET != LCD_Char_NONE)
  78:.\Generated_Source\PSoC4/LCD_Char.c ****         LCD_Char_LoadCustomFonts(LCD_Char_customFonts);
  79:.\Generated_Source\PSoC4/LCD_Char.c ****     #endif /* LCD_Char_CUSTOM_CHAR_SET != LCD_Char_NONE */
  80:.\Generated_Source\PSoC4/LCD_Char.c **** }
  81:.\Generated_Source\PSoC4/LCD_Char.c **** 
  82:.\Generated_Source\PSoC4/LCD_Char.c **** 
  83:.\Generated_Source\PSoC4/LCD_Char.c **** /*******************************************************************************
  84:.\Generated_Source\PSoC4/LCD_Char.c **** * Function Name: LCD_Char_Enable
  85:.\Generated_Source\PSoC4/LCD_Char.c **** ********************************************************************************
  86:.\Generated_Source\PSoC4/LCD_Char.c **** *
  87:.\Generated_Source\PSoC4/LCD_Char.c **** * Summary:
  88:.\Generated_Source\PSoC4/LCD_Char.c **** *  Turns on the display.
  89:.\Generated_Source\PSoC4/LCD_Char.c **** *
  90:.\Generated_Source\PSoC4/LCD_Char.c **** * Parameters:
ARM GAS  C:\Users\Admin\AppData\Local\Temp\ccpOO5oe.s 			page 3


  91:.\Generated_Source\PSoC4/LCD_Char.c **** *  None.
  92:.\Generated_Source\PSoC4/LCD_Char.c **** *
  93:.\Generated_Source\PSoC4/LCD_Char.c **** * Return:
  94:.\Generated_Source\PSoC4/LCD_Char.c **** *  None.
  95:.\Generated_Source\PSoC4/LCD_Char.c **** *
  96:.\Generated_Source\PSoC4/LCD_Char.c **** * Reentrant:
  97:.\Generated_Source\PSoC4/LCD_Char.c **** *  No.
  98:.\Generated_Source\PSoC4/LCD_Char.c **** *
  99:.\Generated_Source\PSoC4/LCD_Char.c **** * Theory:
 100:.\Generated_Source\PSoC4/LCD_Char.c **** *  This function has no effect when it is called the first time as
 101:.\Generated_Source\PSoC4/LCD_Char.c **** *  LCD_Char_Init() turns on the LCD.
 102:.\Generated_Source\PSoC4/LCD_Char.c **** *
 103:.\Generated_Source\PSoC4/LCD_Char.c **** *******************************************************************************/
 104:.\Generated_Source\PSoC4/LCD_Char.c **** void LCD_Char_Enable(void) 
 105:.\Generated_Source\PSoC4/LCD_Char.c **** {
 106:.\Generated_Source\PSoC4/LCD_Char.c ****     LCD_Char_DisplayOn();
 107:.\Generated_Source\PSoC4/LCD_Char.c ****     LCD_Char_enableState = 1u;
 108:.\Generated_Source\PSoC4/LCD_Char.c **** }
 109:.\Generated_Source\PSoC4/LCD_Char.c **** 
 110:.\Generated_Source\PSoC4/LCD_Char.c **** 
 111:.\Generated_Source\PSoC4/LCD_Char.c **** /*******************************************************************************
 112:.\Generated_Source\PSoC4/LCD_Char.c **** * Function Name: LCD_Char_Start
 113:.\Generated_Source\PSoC4/LCD_Char.c **** ********************************************************************************
 114:.\Generated_Source\PSoC4/LCD_Char.c **** *
 115:.\Generated_Source\PSoC4/LCD_Char.c **** * Summary:
 116:.\Generated_Source\PSoC4/LCD_Char.c **** *  Perform initialization required for the components normal work.
 117:.\Generated_Source\PSoC4/LCD_Char.c **** *  This function initializes the LCD hardware module as follows:
 118:.\Generated_Source\PSoC4/LCD_Char.c **** *        Enables 4-bit interface
 119:.\Generated_Source\PSoC4/LCD_Char.c **** *        Clears the display
 120:.\Generated_Source\PSoC4/LCD_Char.c **** *        Enables auto cursor increment
 121:.\Generated_Source\PSoC4/LCD_Char.c **** *        Resets the cursor to start position
 122:.\Generated_Source\PSoC4/LCD_Char.c **** *  Also, it loads a custom character set to the LCD if it was defined in the customizer.
 123:.\Generated_Source\PSoC4/LCD_Char.c **** *  If it was not the first call in this project, then it just turns on the
 124:.\Generated_Source\PSoC4/LCD_Char.c **** *  display
 125:.\Generated_Source\PSoC4/LCD_Char.c **** *
 126:.\Generated_Source\PSoC4/LCD_Char.c **** *
 127:.\Generated_Source\PSoC4/LCD_Char.c **** * Parameters:
 128:.\Generated_Source\PSoC4/LCD_Char.c **** *  LCD_Char_initVar - global variable.
 129:.\Generated_Source\PSoC4/LCD_Char.c **** *
 130:.\Generated_Source\PSoC4/LCD_Char.c **** * Return:
 131:.\Generated_Source\PSoC4/LCD_Char.c **** *  LCD_Char_initVar - global variable.
 132:.\Generated_Source\PSoC4/LCD_Char.c **** *
 133:.\Generated_Source\PSoC4/LCD_Char.c **** * Reentrant:
 134:.\Generated_Source\PSoC4/LCD_Char.c **** *  No.
 135:.\Generated_Source\PSoC4/LCD_Char.c **** *
 136:.\Generated_Source\PSoC4/LCD_Char.c **** *******************************************************************************/
 137:.\Generated_Source\PSoC4/LCD_Char.c **** void LCD_Char_Start(void) 
 138:.\Generated_Source\PSoC4/LCD_Char.c **** {
 139:.\Generated_Source\PSoC4/LCD_Char.c ****     /* If not initialized, perform initialization */
 140:.\Generated_Source\PSoC4/LCD_Char.c ****     if(LCD_Char_initVar == 0u)
 141:.\Generated_Source\PSoC4/LCD_Char.c ****     {
 142:.\Generated_Source\PSoC4/LCD_Char.c ****         LCD_Char_Init();
 143:.\Generated_Source\PSoC4/LCD_Char.c ****         LCD_Char_initVar = 1u;
 144:.\Generated_Source\PSoC4/LCD_Char.c ****     }
 145:.\Generated_Source\PSoC4/LCD_Char.c **** 
 146:.\Generated_Source\PSoC4/LCD_Char.c ****     /* Turn on the LCD */
 147:.\Generated_Source\PSoC4/LCD_Char.c ****     LCD_Char_Enable();
ARM GAS  C:\Users\Admin\AppData\Local\Temp\ccpOO5oe.s 			page 4


 148:.\Generated_Source\PSoC4/LCD_Char.c **** }
 149:.\Generated_Source\PSoC4/LCD_Char.c **** 
 150:.\Generated_Source\PSoC4/LCD_Char.c **** 
 151:.\Generated_Source\PSoC4/LCD_Char.c **** /*******************************************************************************
 152:.\Generated_Source\PSoC4/LCD_Char.c **** * Function Name: LCD_Char_Stop
 153:.\Generated_Source\PSoC4/LCD_Char.c **** ********************************************************************************
 154:.\Generated_Source\PSoC4/LCD_Char.c **** *
 155:.\Generated_Source\PSoC4/LCD_Char.c **** * Summary:
 156:.\Generated_Source\PSoC4/LCD_Char.c **** *  Turns off the display of the LCD screen.
 157:.\Generated_Source\PSoC4/LCD_Char.c **** *
 158:.\Generated_Source\PSoC4/LCD_Char.c **** * Parameters:
 159:.\Generated_Source\PSoC4/LCD_Char.c **** *  None.
 160:.\Generated_Source\PSoC4/LCD_Char.c **** *
 161:.\Generated_Source\PSoC4/LCD_Char.c **** * Return:
 162:.\Generated_Source\PSoC4/LCD_Char.c **** *  None.
 163:.\Generated_Source\PSoC4/LCD_Char.c **** *
 164:.\Generated_Source\PSoC4/LCD_Char.c **** * Reentrant:
 165:.\Generated_Source\PSoC4/LCD_Char.c **** *  No.
 166:.\Generated_Source\PSoC4/LCD_Char.c **** *
 167:.\Generated_Source\PSoC4/LCD_Char.c **** *******************************************************************************/
 168:.\Generated_Source\PSoC4/LCD_Char.c **** void LCD_Char_Stop(void) 
 169:.\Generated_Source\PSoC4/LCD_Char.c **** {
 170:.\Generated_Source\PSoC4/LCD_Char.c ****     /* Calls LCD Off Macro */
 171:.\Generated_Source\PSoC4/LCD_Char.c ****     LCD_Char_DisplayOff();
 172:.\Generated_Source\PSoC4/LCD_Char.c ****     LCD_Char_enableState = 0u;
 173:.\Generated_Source\PSoC4/LCD_Char.c **** }
 174:.\Generated_Source\PSoC4/LCD_Char.c **** 
 175:.\Generated_Source\PSoC4/LCD_Char.c **** 
 176:.\Generated_Source\PSoC4/LCD_Char.c **** /*******************************************************************************
 177:.\Generated_Source\PSoC4/LCD_Char.c **** *  Function Name: LCD_Char_Position
 178:.\Generated_Source\PSoC4/LCD_Char.c **** ********************************************************************************
 179:.\Generated_Source\PSoC4/LCD_Char.c **** *
 180:.\Generated_Source\PSoC4/LCD_Char.c **** * Summary:
 181:.\Generated_Source\PSoC4/LCD_Char.c **** *  Moves the active cursor location to a point specified by the input arguments
 182:.\Generated_Source\PSoC4/LCD_Char.c **** *
 183:.\Generated_Source\PSoC4/LCD_Char.c **** * Parameters:
 184:.\Generated_Source\PSoC4/LCD_Char.c **** *  row:    Specific row of LCD module to be written
 185:.\Generated_Source\PSoC4/LCD_Char.c **** *  column: Column of LCD module to be written
 186:.\Generated_Source\PSoC4/LCD_Char.c **** *
 187:.\Generated_Source\PSoC4/LCD_Char.c **** * Return:
 188:.\Generated_Source\PSoC4/LCD_Char.c **** *  None.
 189:.\Generated_Source\PSoC4/LCD_Char.c **** *
 190:.\Generated_Source\PSoC4/LCD_Char.c **** * Note:
 191:.\Generated_Source\PSoC4/LCD_Char.c **** *  This only applies for LCD displays that use the 2X40 address mode.
 192:.\Generated_Source\PSoC4/LCD_Char.c **** *  In this case Row 2 starts with 0x28 offset from Row 1.
 193:.\Generated_Source\PSoC4/LCD_Char.c **** *  When there are more than 2 rows, each row must be fewer than 20 characters.
 194:.\Generated_Source\PSoC4/LCD_Char.c **** *
 195:.\Generated_Source\PSoC4/LCD_Char.c **** *******************************************************************************/
 196:.\Generated_Source\PSoC4/LCD_Char.c **** void LCD_Char_Position(uint8 row, uint8 column) 
 197:.\Generated_Source\PSoC4/LCD_Char.c **** {
 198:.\Generated_Source\PSoC4/LCD_Char.c ****     switch (row)
 199:.\Generated_Source\PSoC4/LCD_Char.c ****     {
 200:.\Generated_Source\PSoC4/LCD_Char.c ****         case (uint8)0:
 201:.\Generated_Source\PSoC4/LCD_Char.c ****             LCD_Char_WriteControl(LCD_Char_ROW_0_START + column);
 202:.\Generated_Source\PSoC4/LCD_Char.c ****             break;
 203:.\Generated_Source\PSoC4/LCD_Char.c ****         case (uint8) 1:
 204:.\Generated_Source\PSoC4/LCD_Char.c ****             LCD_Char_WriteControl(LCD_Char_ROW_1_START + column);
ARM GAS  C:\Users\Admin\AppData\Local\Temp\ccpOO5oe.s 			page 5


 205:.\Generated_Source\PSoC4/LCD_Char.c ****             break;
 206:.\Generated_Source\PSoC4/LCD_Char.c ****         case (uint8) 2:
 207:.\Generated_Source\PSoC4/LCD_Char.c ****             LCD_Char_WriteControl(LCD_Char_ROW_2_START + column);
 208:.\Generated_Source\PSoC4/LCD_Char.c ****             break;
 209:.\Generated_Source\PSoC4/LCD_Char.c ****         case (uint8) 3:
 210:.\Generated_Source\PSoC4/LCD_Char.c ****             LCD_Char_WriteControl(LCD_Char_ROW_3_START + column);
 211:.\Generated_Source\PSoC4/LCD_Char.c ****             break;
 212:.\Generated_Source\PSoC4/LCD_Char.c ****         default:
 213:.\Generated_Source\PSoC4/LCD_Char.c ****             /* if default case is hit, invalid row argument was passed.*/
 214:.\Generated_Source\PSoC4/LCD_Char.c ****             break;
 215:.\Generated_Source\PSoC4/LCD_Char.c ****     }
 216:.\Generated_Source\PSoC4/LCD_Char.c **** }
 217:.\Generated_Source\PSoC4/LCD_Char.c **** 
 218:.\Generated_Source\PSoC4/LCD_Char.c **** 
 219:.\Generated_Source\PSoC4/LCD_Char.c **** /*******************************************************************************
 220:.\Generated_Source\PSoC4/LCD_Char.c **** * Function Name: LCD_Char_PrintString
 221:.\Generated_Source\PSoC4/LCD_Char.c **** ********************************************************************************
 222:.\Generated_Source\PSoC4/LCD_Char.c **** *
 223:.\Generated_Source\PSoC4/LCD_Char.c **** * Summary:
 224:.\Generated_Source\PSoC4/LCD_Char.c **** *  Writes a zero terminated string to the LCD.
 225:.\Generated_Source\PSoC4/LCD_Char.c **** *
 226:.\Generated_Source\PSoC4/LCD_Char.c **** * Parameters:
 227:.\Generated_Source\PSoC4/LCD_Char.c **** *  string: Pointer to head of char8 array to be written to the LCD module
 228:.\Generated_Source\PSoC4/LCD_Char.c **** *
 229:.\Generated_Source\PSoC4/LCD_Char.c **** * Return:
 230:.\Generated_Source\PSoC4/LCD_Char.c **** *  None.
 231:.\Generated_Source\PSoC4/LCD_Char.c **** *
 232:.\Generated_Source\PSoC4/LCD_Char.c **** *******************************************************************************/
 233:.\Generated_Source\PSoC4/LCD_Char.c **** void LCD_Char_PrintString(char8 const string[]) 
 234:.\Generated_Source\PSoC4/LCD_Char.c **** {
 235:.\Generated_Source\PSoC4/LCD_Char.c ****     uint8 indexU8 = 1u;
 236:.\Generated_Source\PSoC4/LCD_Char.c ****     char8 current = *string;
 237:.\Generated_Source\PSoC4/LCD_Char.c **** 
 238:.\Generated_Source\PSoC4/LCD_Char.c ****     /* Until null is reached, print next character */
 239:.\Generated_Source\PSoC4/LCD_Char.c ****     while((char8) '\0' != current)
 240:.\Generated_Source\PSoC4/LCD_Char.c ****     {
 241:.\Generated_Source\PSoC4/LCD_Char.c ****         LCD_Char_WriteData((uint8)current);
 242:.\Generated_Source\PSoC4/LCD_Char.c ****         current = string[indexU8];
 243:.\Generated_Source\PSoC4/LCD_Char.c ****         indexU8++;
 244:.\Generated_Source\PSoC4/LCD_Char.c ****     }
 245:.\Generated_Source\PSoC4/LCD_Char.c **** }
 246:.\Generated_Source\PSoC4/LCD_Char.c **** 
 247:.\Generated_Source\PSoC4/LCD_Char.c **** 
 248:.\Generated_Source\PSoC4/LCD_Char.c **** /*******************************************************************************
 249:.\Generated_Source\PSoC4/LCD_Char.c **** *  Function Name: LCD_Char_PutChar
 250:.\Generated_Source\PSoC4/LCD_Char.c **** ********************************************************************************
 251:.\Generated_Source\PSoC4/LCD_Char.c **** *
 252:.\Generated_Source\PSoC4/LCD_Char.c **** * Summary:
 253:.\Generated_Source\PSoC4/LCD_Char.c **** *  Writes a single character to the current cursor position of the LCD module.
 254:.\Generated_Source\PSoC4/LCD_Char.c **** *  Custom character names (_CUSTOM_0 through
 255:.\Generated_Source\PSoC4/LCD_Char.c **** *  _CUSTOM_7) are acceptable as inputs.
 256:.\Generated_Source\PSoC4/LCD_Char.c **** *
 257:.\Generated_Source\PSoC4/LCD_Char.c **** * Parameters:
 258:.\Generated_Source\PSoC4/LCD_Char.c **** *  character: Character to be written to LCD
 259:.\Generated_Source\PSoC4/LCD_Char.c **** *
 260:.\Generated_Source\PSoC4/LCD_Char.c **** * Return:
 261:.\Generated_Source\PSoC4/LCD_Char.c **** *  None.
ARM GAS  C:\Users\Admin\AppData\Local\Temp\ccpOO5oe.s 			page 6


 262:.\Generated_Source\PSoC4/LCD_Char.c **** *
 263:.\Generated_Source\PSoC4/LCD_Char.c **** *******************************************************************************/
 264:.\Generated_Source\PSoC4/LCD_Char.c **** void LCD_Char_PutChar(char8 character) 
 265:.\Generated_Source\PSoC4/LCD_Char.c **** {
 266:.\Generated_Source\PSoC4/LCD_Char.c ****     LCD_Char_WriteData((uint8)character);
 267:.\Generated_Source\PSoC4/LCD_Char.c **** }
 268:.\Generated_Source\PSoC4/LCD_Char.c **** 
 269:.\Generated_Source\PSoC4/LCD_Char.c **** 
 270:.\Generated_Source\PSoC4/LCD_Char.c **** /*******************************************************************************
 271:.\Generated_Source\PSoC4/LCD_Char.c **** *  Function Name: LCD_Char_WriteData
 272:.\Generated_Source\PSoC4/LCD_Char.c **** ********************************************************************************
 273:.\Generated_Source\PSoC4/LCD_Char.c **** *
 274:.\Generated_Source\PSoC4/LCD_Char.c **** * Summary:
 275:.\Generated_Source\PSoC4/LCD_Char.c **** *  Writes a data byte to the LCD module's Data Display RAM.
 276:.\Generated_Source\PSoC4/LCD_Char.c **** *
 277:.\Generated_Source\PSoC4/LCD_Char.c **** * Parameters:
 278:.\Generated_Source\PSoC4/LCD_Char.c **** *  dByte: Byte to be written to the LCD module
 279:.\Generated_Source\PSoC4/LCD_Char.c **** *
 280:.\Generated_Source\PSoC4/LCD_Char.c **** * Return:
 281:.\Generated_Source\PSoC4/LCD_Char.c **** *  None.
 282:.\Generated_Source\PSoC4/LCD_Char.c **** *
 283:.\Generated_Source\PSoC4/LCD_Char.c **** *******************************************************************************/
 284:.\Generated_Source\PSoC4/LCD_Char.c **** void LCD_Char_WriteData(uint8 dByte) 
 285:.\Generated_Source\PSoC4/LCD_Char.c **** {
 286:.\Generated_Source\PSoC4/LCD_Char.c ****     uint8 nibble;
 287:.\Generated_Source\PSoC4/LCD_Char.c **** 
 288:.\Generated_Source\PSoC4/LCD_Char.c ****     LCD_Char_IsReady();
 289:.\Generated_Source\PSoC4/LCD_Char.c ****     nibble = dByte >> LCD_Char_NIBBLE_SHIFT;
 290:.\Generated_Source\PSoC4/LCD_Char.c **** 
 291:.\Generated_Source\PSoC4/LCD_Char.c ****     /* Write high nibble */
 292:.\Generated_Source\PSoC4/LCD_Char.c ****     LCD_Char_WrDatNib(nibble);
 293:.\Generated_Source\PSoC4/LCD_Char.c **** 
 294:.\Generated_Source\PSoC4/LCD_Char.c ****     nibble = dByte & LCD_Char_NIBBLE_MASK;
 295:.\Generated_Source\PSoC4/LCD_Char.c ****     /* Write low nibble */
 296:.\Generated_Source\PSoC4/LCD_Char.c ****     LCD_Char_WrDatNib(nibble);
 297:.\Generated_Source\PSoC4/LCD_Char.c **** }
 298:.\Generated_Source\PSoC4/LCD_Char.c **** 
 299:.\Generated_Source\PSoC4/LCD_Char.c **** 
 300:.\Generated_Source\PSoC4/LCD_Char.c **** /*******************************************************************************
 301:.\Generated_Source\PSoC4/LCD_Char.c **** *  Function Name: LCD_Char_WriteControl
 302:.\Generated_Source\PSoC4/LCD_Char.c **** ********************************************************************************
 303:.\Generated_Source\PSoC4/LCD_Char.c **** *
 304:.\Generated_Source\PSoC4/LCD_Char.c **** * Summary:
 305:.\Generated_Source\PSoC4/LCD_Char.c **** *  Writes a command byte to the LCD module.
 306:.\Generated_Source\PSoC4/LCD_Char.c **** *
 307:.\Generated_Source\PSoC4/LCD_Char.c **** * Parameters:
 308:.\Generated_Source\PSoC4/LCD_Char.c **** *  cByte:  The byte to be written to theLCD module
 309:.\Generated_Source\PSoC4/LCD_Char.c **** * 
 310:.\Generated_Source\PSoC4/LCD_Char.c **** * Return:
 311:.\Generated_Source\PSoC4/LCD_Char.c **** *  None.
 312:.\Generated_Source\PSoC4/LCD_Char.c **** *
 313:.\Generated_Source\PSoC4/LCD_Char.c **** *******************************************************************************/
 314:.\Generated_Source\PSoC4/LCD_Char.c **** void LCD_Char_WriteControl(uint8 cByte) 
 315:.\Generated_Source\PSoC4/LCD_Char.c **** {
 316:.\Generated_Source\PSoC4/LCD_Char.c ****     uint8 nibble;
 317:.\Generated_Source\PSoC4/LCD_Char.c **** 
 318:.\Generated_Source\PSoC4/LCD_Char.c ****     LCD_Char_IsReady();
ARM GAS  C:\Users\Admin\AppData\Local\Temp\ccpOO5oe.s 			page 7


 319:.\Generated_Source\PSoC4/LCD_Char.c **** 
 320:.\Generated_Source\PSoC4/LCD_Char.c ****     nibble = cByte >> LCD_Char_NIBBLE_SHIFT;
 321:.\Generated_Source\PSoC4/LCD_Char.c ****     
 322:.\Generated_Source\PSoC4/LCD_Char.c ****     /* WrCntrlNib(High Nibble) */
 323:.\Generated_Source\PSoC4/LCD_Char.c ****     LCD_Char_WrCntrlNib(nibble);
 324:.\Generated_Source\PSoC4/LCD_Char.c ****     nibble = cByte & LCD_Char_NIBBLE_MASK;
 325:.\Generated_Source\PSoC4/LCD_Char.c **** 
 326:.\Generated_Source\PSoC4/LCD_Char.c ****     /* WrCntrlNib(Low Nibble) */
 327:.\Generated_Source\PSoC4/LCD_Char.c ****     LCD_Char_WrCntrlNib(nibble);
 328:.\Generated_Source\PSoC4/LCD_Char.c **** }
 329:.\Generated_Source\PSoC4/LCD_Char.c **** 
 330:.\Generated_Source\PSoC4/LCD_Char.c **** 
 331:.\Generated_Source\PSoC4/LCD_Char.c **** /*******************************************************************************
 332:.\Generated_Source\PSoC4/LCD_Char.c **** * Function Name: LCD_Char_IsReady
 333:.\Generated_Source\PSoC4/LCD_Char.c **** ********************************************************************************
 334:.\Generated_Source\PSoC4/LCD_Char.c **** *
 335:.\Generated_Source\PSoC4/LCD_Char.c **** * Summary:
 336:.\Generated_Source\PSoC4/LCD_Char.c **** *  Polls the LCD until the ready bit is set.
 337:.\Generated_Source\PSoC4/LCD_Char.c **** *
 338:.\Generated_Source\PSoC4/LCD_Char.c **** * Parameters:
 339:.\Generated_Source\PSoC4/LCD_Char.c **** *  None.
 340:.\Generated_Source\PSoC4/LCD_Char.c **** *
 341:.\Generated_Source\PSoC4/LCD_Char.c **** * Return:
 342:.\Generated_Source\PSoC4/LCD_Char.c **** *  None.
 343:.\Generated_Source\PSoC4/LCD_Char.c **** *
 344:.\Generated_Source\PSoC4/LCD_Char.c **** * Note:
 345:.\Generated_Source\PSoC4/LCD_Char.c **** *  Changes the pins to High-Z.
 346:.\Generated_Source\PSoC4/LCD_Char.c **** *
 347:.\Generated_Source\PSoC4/LCD_Char.c **** *******************************************************************************/
 348:.\Generated_Source\PSoC4/LCD_Char.c **** void LCD_Char_IsReady(void) 
 349:.\Generated_Source\PSoC4/LCD_Char.c **** {
 350:.\Generated_Source\PSoC4/LCD_Char.c ****     uint32 value;
 351:.\Generated_Source\PSoC4/LCD_Char.c **** 
 352:.\Generated_Source\PSoC4/LCD_Char.c ****     /* Clear LCD port*/
 353:.\Generated_Source\PSoC4/LCD_Char.c ****     LCD_Char_PORT_DR_REG &= ((uint32)(~LCD_Char_PORT_MASK));
 354:.\Generated_Source\PSoC4/LCD_Char.c **** 
 355:.\Generated_Source\PSoC4/LCD_Char.c ****     /* PSoC4 has a little different from PSoC3/5 port/pin organization for setting Drive Modes.
 356:.\Generated_Source\PSoC4/LCD_Char.c ****   
 357:.\Generated_Source\PSoC4/LCD_Char.c ****     */
 358:.\Generated_Source\PSoC4/LCD_Char.c ****     #if (CY_PSOC4)
 359:.\Generated_Source\PSoC4/LCD_Char.c ****         
 360:.\Generated_Source\PSoC4/LCD_Char.c ****         /* Mask off data pins to clear old values out */
 361:.\Generated_Source\PSoC4/LCD_Char.c ****         value = LCD_Char_PORT_PC_REG & ((uint32) (~ LCD_Char_DM_DATA_MASK));
 362:.\Generated_Source\PSoC4/LCD_Char.c ****         /* Load in high Z values for data pins, others unchanged */
 363:.\Generated_Source\PSoC4/LCD_Char.c ****         LCD_Char_PORT_PC_REG = value | LCD_Char_HIGH_Z_DATA_DM;
 364:.\Generated_Source\PSoC4/LCD_Char.c **** 
 365:.\Generated_Source\PSoC4/LCD_Char.c ****     #else
 366:.\Generated_Source\PSoC4/LCD_Char.c ****     
 367:.\Generated_Source\PSoC4/LCD_Char.c ****         /* Change Port to High-Z Status on data pins */
 368:.\Generated_Source\PSoC4/LCD_Char.c **** 
 369:.\Generated_Source\PSoC4/LCD_Char.c ****         /* Mask off data pins to clear old values out */
 370:.\Generated_Source\PSoC4/LCD_Char.c ****         value = LCD_Char_PORT_DM0_REG & ((uint8)(~LCD_Char_DATA_MASK));
 371:.\Generated_Source\PSoC4/LCD_Char.c ****         /* Load in high Z values for data pins, others unchanged */
 372:.\Generated_Source\PSoC4/LCD_Char.c ****         LCD_Char_PORT_DM0_REG = value | (LCD_Char_HIGH_Z_DM0 & LCD_Char_DATA_MASK);
 373:.\Generated_Source\PSoC4/LCD_Char.c **** 
 374:.\Generated_Source\PSoC4/LCD_Char.c ****         /* Mask off data pins to clear old values out */
 375:.\Generated_Source\PSoC4/LCD_Char.c ****         value = LCD_Char_PORT_DM1_REG & ((uint8)(~LCD_Char_DATA_MASK));
ARM GAS  C:\Users\Admin\AppData\Local\Temp\ccpOO5oe.s 			page 8


 376:.\Generated_Source\PSoC4/LCD_Char.c ****         /* Load in high Z values for data pins, others unchanged */
 377:.\Generated_Source\PSoC4/LCD_Char.c ****         LCD_Char_PORT_DM1_REG = value;
 378:.\Generated_Source\PSoC4/LCD_Char.c **** 
 379:.\Generated_Source\PSoC4/LCD_Char.c ****         /* Mask off data pins to clear old values out */
 380:.\Generated_Source\PSoC4/LCD_Char.c ****         value = LCD_Char_PORT_DM2_REG & ((uint8)(~LCD_Char_DATA_MASK));
 381:.\Generated_Source\PSoC4/LCD_Char.c ****         /* Load in high Z values for data pins, others unchanged */
 382:.\Generated_Source\PSoC4/LCD_Char.c ****         LCD_Char_PORT_DM2_REG = value;
 383:.\Generated_Source\PSoC4/LCD_Char.c ****     
 384:.\Generated_Source\PSoC4/LCD_Char.c ****     #endif /* CY_PSOC4 */
 385:.\Generated_Source\PSoC4/LCD_Char.c ****     
 386:.\Generated_Source\PSoC4/LCD_Char.c ****     /* Make sure RS is low */
 387:.\Generated_Source\PSoC4/LCD_Char.c ****     LCD_Char_PORT_DR_REG &= ((uint32)(~LCD_Char_RS));
 388:.\Generated_Source\PSoC4/LCD_Char.c **** 
 389:.\Generated_Source\PSoC4/LCD_Char.c ****     /* Set R/W high to read */
 390:.\Generated_Source\PSoC4/LCD_Char.c ****     LCD_Char_PORT_DR_REG |= LCD_Char_RW;
 391:.\Generated_Source\PSoC4/LCD_Char.c **** 
 392:.\Generated_Source\PSoC4/LCD_Char.c ****     do
 393:.\Generated_Source\PSoC4/LCD_Char.c ****     {
 394:.\Generated_Source\PSoC4/LCD_Char.c ****         /* 40 ns delay required before rising Enable and 500ns between neighbour Enables */
 395:.\Generated_Source\PSoC4/LCD_Char.c ****         CyDelayUs(0u);
 396:.\Generated_Source\PSoC4/LCD_Char.c **** 
 397:.\Generated_Source\PSoC4/LCD_Char.c ****         /* Set E high */
 398:.\Generated_Source\PSoC4/LCD_Char.c ****         LCD_Char_PORT_DR_REG |= LCD_Char_E;
 399:.\Generated_Source\PSoC4/LCD_Char.c **** 
 400:.\Generated_Source\PSoC4/LCD_Char.c ****         /* 360 ns delay setup time for data pins */
 401:.\Generated_Source\PSoC4/LCD_Char.c ****         CyDelayUs(1u);
 402:.\Generated_Source\PSoC4/LCD_Char.c **** 
 403:.\Generated_Source\PSoC4/LCD_Char.c ****         /* Get port state */
 404:.\Generated_Source\PSoC4/LCD_Char.c ****         value = LCD_Char_PORT_PS_REG;
 405:.\Generated_Source\PSoC4/LCD_Char.c **** 
 406:.\Generated_Source\PSoC4/LCD_Char.c ****         /* Set enable low */
 407:.\Generated_Source\PSoC4/LCD_Char.c ****         LCD_Char_PORT_DR_REG &= ((uint32)(~LCD_Char_E));
 408:.\Generated_Source\PSoC4/LCD_Char.c **** 
 409:.\Generated_Source\PSoC4/LCD_Char.c ****         /* This gives true delay between disabling Enable bit and polling Ready bit */
 410:.\Generated_Source\PSoC4/LCD_Char.c ****         CyDelayUs(0u);
 411:.\Generated_Source\PSoC4/LCD_Char.c **** 
 412:.\Generated_Source\PSoC4/LCD_Char.c ****         /* Extract ready bit */
 413:.\Generated_Source\PSoC4/LCD_Char.c ****         value &= LCD_Char_READY_BIT;
 414:.\Generated_Source\PSoC4/LCD_Char.c **** 
 415:.\Generated_Source\PSoC4/LCD_Char.c ****         /* Set E high as we in 4-bit interface we need extra operation */
 416:.\Generated_Source\PSoC4/LCD_Char.c ****         LCD_Char_PORT_DR_REG |= LCD_Char_E;
 417:.\Generated_Source\PSoC4/LCD_Char.c **** 
 418:.\Generated_Source\PSoC4/LCD_Char.c ****         /* 360 ns delay the setup time for data pins */
 419:.\Generated_Source\PSoC4/LCD_Char.c ****         CyDelayUs(1u);
 420:.\Generated_Source\PSoC4/LCD_Char.c **** 
 421:.\Generated_Source\PSoC4/LCD_Char.c ****         /* Set enable low */
 422:.\Generated_Source\PSoC4/LCD_Char.c ****         LCD_Char_PORT_DR_REG &= ((uint32)(~LCD_Char_E));
 423:.\Generated_Source\PSoC4/LCD_Char.c **** 
 424:.\Generated_Source\PSoC4/LCD_Char.c ****         /* Repeat until bit 4 is not zero. */
 425:.\Generated_Source\PSoC4/LCD_Char.c **** 
 426:.\Generated_Source\PSoC4/LCD_Char.c ****     } while (value != 0u);
 427:.\Generated_Source\PSoC4/LCD_Char.c **** 
 428:.\Generated_Source\PSoC4/LCD_Char.c ****     /* Set R/W low to write */
 429:.\Generated_Source\PSoC4/LCD_Char.c ****     LCD_Char_PORT_DR_REG &= ((uint32)(~LCD_Char_RW));
 430:.\Generated_Source\PSoC4/LCD_Char.c **** 
 431:.\Generated_Source\PSoC4/LCD_Char.c ****     /* Clear LCD port*/
 432:.\Generated_Source\PSoC4/LCD_Char.c ****     LCD_Char_PORT_DR_REG &= ((uint32)(~LCD_Char_PORT_MASK));
ARM GAS  C:\Users\Admin\AppData\Local\Temp\ccpOO5oe.s 			page 9


 433:.\Generated_Source\PSoC4/LCD_Char.c **** 
 434:.\Generated_Source\PSoC4/LCD_Char.c ****     #if (CY_PSOC4)
 435:.\Generated_Source\PSoC4/LCD_Char.c ****         
 436:.\Generated_Source\PSoC4/LCD_Char.c ****         /* Mask off data pins to clear old values out */
 437:.\Generated_Source\PSoC4/LCD_Char.c ****         value = LCD_Char_PORT_PC_REG & ((uint32)(~ LCD_Char_DM_DATA_MASK));
 438:.\Generated_Source\PSoC4/LCD_Char.c ****         /* Load in high Z values for data pins, others unchanged */
 439:.\Generated_Source\PSoC4/LCD_Char.c ****         LCD_Char_PORT_PC_REG = value | LCD_Char_STRONG_DATA_DM;
 440:.\Generated_Source\PSoC4/LCD_Char.c **** 
 441:.\Generated_Source\PSoC4/LCD_Char.c ****     #else
 442:.\Generated_Source\PSoC4/LCD_Char.c **** 
 443:.\Generated_Source\PSoC4/LCD_Char.c ****         /* Change Port to Output (Strong) on data pins */
 444:.\Generated_Source\PSoC4/LCD_Char.c ****         /* Mask off data pins to clear high z values out. Configure data pins 
 445:.\Generated_Source\PSoC4/LCD_Char.c ****         * to Strong Drive, others unchanged.
 446:.\Generated_Source\PSoC4/LCD_Char.c ****         */
 447:.\Generated_Source\PSoC4/LCD_Char.c ****         LCD_Char_PORT_DM0_REG &= ((uint8)(~LCD_Char_DATA_MASK));
 448:.\Generated_Source\PSoC4/LCD_Char.c ****         /* Mask off data pins to clear high z values out */
 449:.\Generated_Source\PSoC4/LCD_Char.c ****         value = LCD_Char_PORT_DM1_REG & ((uint8)(~LCD_Char_DATA_MASK));
 450:.\Generated_Source\PSoC4/LCD_Char.c ****         /* Configure data pins to Strong Drive, others unchanged */
 451:.\Generated_Source\PSoC4/LCD_Char.c ****         LCD_Char_PORT_DM1_REG = value | (LCD_Char_STRONG_DM1 & LCD_Char_DATA_MASK);
 452:.\Generated_Source\PSoC4/LCD_Char.c **** 
 453:.\Generated_Source\PSoC4/LCD_Char.c ****         /* Mask off data pins to clear high z values out */
 454:.\Generated_Source\PSoC4/LCD_Char.c ****         value = LCD_Char_PORT_DM2_REG & ((uint8)(~LCD_Char_DATA_MASK));
 455:.\Generated_Source\PSoC4/LCD_Char.c ****         /* Configure data pins to Strong Drive, others unchanged */
 456:.\Generated_Source\PSoC4/LCD_Char.c ****         LCD_Char_PORT_DM2_REG = value | (LCD_Char_STRONG_DM2 & LCD_Char_DATA_MASK);
 457:.\Generated_Source\PSoC4/LCD_Char.c ****     
 458:.\Generated_Source\PSoC4/LCD_Char.c ****     #endif /* CY_PSOC4 */
 459:.\Generated_Source\PSoC4/LCD_Char.c **** }
 460:.\Generated_Source\PSoC4/LCD_Char.c **** 
 461:.\Generated_Source\PSoC4/LCD_Char.c **** 
 462:.\Generated_Source\PSoC4/LCD_Char.c **** /*******************************************************************************
 463:.\Generated_Source\PSoC4/LCD_Char.c **** *  Function Name: LCD_Char_WrDatNib
 464:.\Generated_Source\PSoC4/LCD_Char.c **** ********************************************************************************
 465:.\Generated_Source\PSoC4/LCD_Char.c **** *
 466:.\Generated_Source\PSoC4/LCD_Char.c **** * Summary:
 467:.\Generated_Source\PSoC4/LCD_Char.c **** *  Writes a data nibble to the LCD module.
 468:.\Generated_Source\PSoC4/LCD_Char.c **** *
 469:.\Generated_Source\PSoC4/LCD_Char.c **** * Parameters:
 470:.\Generated_Source\PSoC4/LCD_Char.c **** *  nibble:  Byte containing nibble in least significant nibble to be written
 471:.\Generated_Source\PSoC4/LCD_Char.c **** *           to LCD module.
 472:.\Generated_Source\PSoC4/LCD_Char.c **** *
 473:.\Generated_Source\PSoC4/LCD_Char.c **** * Return:
 474:.\Generated_Source\PSoC4/LCD_Char.c **** *  None.
 475:.\Generated_Source\PSoC4/LCD_Char.c **** *
 476:.\Generated_Source\PSoC4/LCD_Char.c **** *******************************************************************************/
 477:.\Generated_Source\PSoC4/LCD_Char.c **** static void LCD_Char_WrDatNib(uint8 nibble) 
 478:.\Generated_Source\PSoC4/LCD_Char.c **** {
 479:.\Generated_Source\PSoC4/LCD_Char.c ****     /* RS should be low to select data register */
 480:.\Generated_Source\PSoC4/LCD_Char.c ****     LCD_Char_PORT_DR_REG |= LCD_Char_RS;
 481:.\Generated_Source\PSoC4/LCD_Char.c ****     /* Reset RW for write operation */
 482:.\Generated_Source\PSoC4/LCD_Char.c ****     LCD_Char_PORT_DR_REG &= ((uint32)(~LCD_Char_RW));
 483:.\Generated_Source\PSoC4/LCD_Char.c **** 
 484:.\Generated_Source\PSoC4/LCD_Char.c ****     /* Guaranteed delay between Setting RS and RW and setting E bits */
 485:.\Generated_Source\PSoC4/LCD_Char.c ****     CyDelayUs(0u);
 486:.\Generated_Source\PSoC4/LCD_Char.c ****     
 487:.\Generated_Source\PSoC4/LCD_Char.c ****     /* Clear data pins */
 488:.\Generated_Source\PSoC4/LCD_Char.c ****     LCD_Char_PORT_DR_REG &= ((uint32)(~LCD_Char_DATA_MASK));
 489:.\Generated_Source\PSoC4/LCD_Char.c **** 
ARM GAS  C:\Users\Admin\AppData\Local\Temp\ccpOO5oe.s 			page 10


 490:.\Generated_Source\PSoC4/LCD_Char.c ****     /* Write data, bring E high */
 491:.\Generated_Source\PSoC4/LCD_Char.c ****     #if(0u != LCD_Char_PORT_SHIFT) /* MISRA forbids shift by 0 so need to handle that */
 492:.\Generated_Source\PSoC4/LCD_Char.c ****         LCD_Char_PORT_DR_REG |= 
 493:.\Generated_Source\PSoC4/LCD_Char.c ****             (LCD_Char_E | ((uint8)(((uint8) nibble) << LCD_Char_PORT_SHIFT)));
 494:.\Generated_Source\PSoC4/LCD_Char.c ****     #else
 495:.\Generated_Source\PSoC4/LCD_Char.c ****         LCD_Char_PORT_DR_REG |= (LCD_Char_E | nibble);
 496:.\Generated_Source\PSoC4/LCD_Char.c ****     #endif /* (0u != LCD_Char_PORT_SHIFT) */
 497:.\Generated_Source\PSoC4/LCD_Char.c **** 
 498:.\Generated_Source\PSoC4/LCD_Char.c ****     /* Minimum of 230 ns delay */
 499:.\Generated_Source\PSoC4/LCD_Char.c ****     CyDelayUs(1u);
 500:.\Generated_Source\PSoC4/LCD_Char.c **** 
 501:.\Generated_Source\PSoC4/LCD_Char.c ****     LCD_Char_PORT_DR_REG &= ((uint32)(~LCD_Char_E));
 502:.\Generated_Source\PSoC4/LCD_Char.c **** }
 503:.\Generated_Source\PSoC4/LCD_Char.c **** 
 504:.\Generated_Source\PSoC4/LCD_Char.c **** 
 505:.\Generated_Source\PSoC4/LCD_Char.c **** /*******************************************************************************
 506:.\Generated_Source\PSoC4/LCD_Char.c **** *  Function Name: LCD_Char_WrCntrlNib
 507:.\Generated_Source\PSoC4/LCD_Char.c **** ********************************************************************************
 508:.\Generated_Source\PSoC4/LCD_Char.c **** *
 509:.\Generated_Source\PSoC4/LCD_Char.c **** * Summary:
 510:.\Generated_Source\PSoC4/LCD_Char.c **** *  Writes a control nibble to the LCD module.
 511:.\Generated_Source\PSoC4/LCD_Char.c **** *
 512:.\Generated_Source\PSoC4/LCD_Char.c **** * Parameters:
 513:.\Generated_Source\PSoC4/LCD_Char.c **** *  nibble: The byte containing a nibble in the four least significant bits.????
 514:.\Generated_Source\PSoC4/LCD_Char.c **** *
 515:.\Generated_Source\PSoC4/LCD_Char.c **** * Return:
 516:.\Generated_Source\PSoC4/LCD_Char.c **** *  None.
 517:.\Generated_Source\PSoC4/LCD_Char.c **** *
 518:.\Generated_Source\PSoC4/LCD_Char.c **** *******************************************************************************/
 519:.\Generated_Source\PSoC4/LCD_Char.c **** static void LCD_Char_WrCntrlNib(uint8 nibble) 
 520:.\Generated_Source\PSoC4/LCD_Char.c **** {
  25              		.loc 1 520 0
  26              		.cfi_startproc
  27              	.LVL0:
  28 0000 38B5     		push	{r3, r4, r5, lr}
  29              		.cfi_def_cfa_offset 16
  30              		.cfi_offset 3, -16
  31              		.cfi_offset 4, -12
  32              		.cfi_offset 5, -8
  33              		.cfi_offset 14, -4
 521:.\Generated_Source\PSoC4/LCD_Char.c ****     /* RS and RW should be low to select instruction register and  write operation respectively */
 522:.\Generated_Source\PSoC4/LCD_Char.c ****     LCD_Char_PORT_DR_REG &= ((uint32)(~(LCD_Char_RS | LCD_Char_RW)));
  34              		.loc 1 522 0
  35 0002 0B4C     		ldr	r4, .L2
  36 0004 C022     		mov	r2, #192
  37 0006 2368     		ldr	r3, [r4]
 523:.\Generated_Source\PSoC4/LCD_Char.c **** 
 524:.\Generated_Source\PSoC4/LCD_Char.c ****     /* Two following lines of code will give 40ns delay */
 525:.\Generated_Source\PSoC4/LCD_Char.c ****     /* Clear data pins */
 526:.\Generated_Source\PSoC4/LCD_Char.c ****     LCD_Char_PORT_DR_REG &= ((uint32)(~LCD_Char_DATA_MASK));
 527:.\Generated_Source\PSoC4/LCD_Char.c **** 
 528:.\Generated_Source\PSoC4/LCD_Char.c ****     /* Write control data and set enable signal */
 529:.\Generated_Source\PSoC4/LCD_Char.c ****     #if(0u != LCD_Char_PORT_SHIFT) /* MISRA forbids shift by 0 so need to handle that */
 530:.\Generated_Source\PSoC4/LCD_Char.c ****         LCD_Char_PORT_DR_REG |= 
 531:.\Generated_Source\PSoC4/LCD_Char.c ****             (LCD_Char_E | ((uint8)(((uint8) nibble) << LCD_Char_PORT_SHIFT)));
  38              		.loc 1 531 0
  39 0008 2025     		mov	r5, #32
ARM GAS  C:\Users\Admin\AppData\Local\Temp\ccpOO5oe.s 			page 11


 522:.\Generated_Source\PSoC4/LCD_Char.c ****     LCD_Char_PORT_DR_REG &= ((uint32)(~(LCD_Char_RS | LCD_Char_RW)));
  40              		.loc 1 522 0
  41 000a 9343     		bic	r3, r2
  42 000c 2360     		str	r3, [r4]
 526:.\Generated_Source\PSoC4/LCD_Char.c ****     LCD_Char_PORT_DR_REG &= ((uint32)(~LCD_Char_DATA_MASK));
  43              		.loc 1 526 0
  44 000e 2368     		ldr	r3, [r4]
  45 0010 1E22     		mov	r2, #30
  46 0012 9343     		bic	r3, r2
  47 0014 2360     		str	r3, [r4]
  48              		.loc 1 531 0
  49 0016 4000     		lsl	r0, r0, #1
  50              	.LVL1:
 530:.\Generated_Source\PSoC4/LCD_Char.c ****         LCD_Char_PORT_DR_REG |= 
  51              		.loc 1 530 0
  52 0018 2368     		ldr	r3, [r4]
  53              		.loc 1 531 0
  54 001a 2843     		orr	r0, r5
  55 001c C0B2     		uxtb	r0, r0
 530:.\Generated_Source\PSoC4/LCD_Char.c ****         LCD_Char_PORT_DR_REG |= 
  56              		.loc 1 530 0
  57 001e 1843     		orr	r0, r3
  58 0020 2060     		str	r0, [r4]
 532:.\Generated_Source\PSoC4/LCD_Char.c ****     #else
 533:.\Generated_Source\PSoC4/LCD_Char.c ****         LCD_Char_PORT_DR_REG |= (LCD_Char_E | nibble);
 534:.\Generated_Source\PSoC4/LCD_Char.c ****     #endif /* (0u != LCD_Char_PORT_SHIFT) */
 535:.\Generated_Source\PSoC4/LCD_Char.c **** 
 536:.\Generated_Source\PSoC4/LCD_Char.c ****     /* Minimum of 230 ns delay */
 537:.\Generated_Source\PSoC4/LCD_Char.c ****     CyDelayUs(1u);
  59              		.loc 1 537 0
  60 0022 0120     		mov	r0, #1
  61 0024 FFF7FEFF 		bl	CyDelayUs
  62              	.LVL2:
 538:.\Generated_Source\PSoC4/LCD_Char.c **** 
 539:.\Generated_Source\PSoC4/LCD_Char.c ****     LCD_Char_PORT_DR_REG &= ((uint32)(~LCD_Char_E));
  63              		.loc 1 539 0
  64 0028 2368     		ldr	r3, [r4]
 540:.\Generated_Source\PSoC4/LCD_Char.c **** }
  65              		.loc 1 540 0
  66              		@ sp needed
 539:.\Generated_Source\PSoC4/LCD_Char.c ****     LCD_Char_PORT_DR_REG &= ((uint32)(~LCD_Char_E));
  67              		.loc 1 539 0
  68 002a AB43     		bic	r3, r5
  69 002c 2360     		str	r3, [r4]
  70              		.loc 1 540 0
  71 002e 38BD     		pop	{r3, r4, r5, pc}
  72              	.L3:
  73              		.align	2
  74              	.L2:
  75 0030 00020440 		.word	1074004480
  76              		.cfi_endproc
  77              	.LFE11:
  78              		.size	LCD_Char_WrCntrlNib, .-LCD_Char_WrCntrlNib
  79              		.section	.text.LCD_Char_WrDatNib,"ax",%progbits
  80              		.align	1
  81              		.code	16
  82              		.thumb_func
ARM GAS  C:\Users\Admin\AppData\Local\Temp\ccpOO5oe.s 			page 12


  83              		.type	LCD_Char_WrDatNib, %function
  84              	LCD_Char_WrDatNib:
  85              	.LFB10:
 478:.\Generated_Source\PSoC4/LCD_Char.c **** {
  86              		.loc 1 478 0
  87              		.cfi_startproc
  88              	.LVL3:
  89 0000 38B5     		push	{r3, r4, r5, lr}
  90              		.cfi_def_cfa_offset 16
  91              		.cfi_offset 3, -16
  92              		.cfi_offset 4, -12
  93              		.cfi_offset 5, -8
  94              		.cfi_offset 14, -4
 480:.\Generated_Source\PSoC4/LCD_Char.c ****     LCD_Char_PORT_DR_REG |= LCD_Char_RS;
  95              		.loc 1 480 0
  96 0002 0F4C     		ldr	r4, .L5
  97 0004 4022     		mov	r2, #64
  98 0006 2368     		ldr	r3, [r4]
 478:.\Generated_Source\PSoC4/LCD_Char.c **** {
  99              		.loc 1 478 0
 100 0008 051C     		mov	r5, r0
 480:.\Generated_Source\PSoC4/LCD_Char.c ****     LCD_Char_PORT_DR_REG |= LCD_Char_RS;
 101              		.loc 1 480 0
 102 000a 1343     		orr	r3, r2
 103 000c 2360     		str	r3, [r4]
 482:.\Generated_Source\PSoC4/LCD_Char.c ****     LCD_Char_PORT_DR_REG &= ((uint32)(~LCD_Char_RW));
 104              		.loc 1 482 0
 105 000e 2368     		ldr	r3, [r4]
 106 0010 8022     		mov	r2, #128
 107 0012 9343     		bic	r3, r2
 108 0014 2360     		str	r3, [r4]
 485:.\Generated_Source\PSoC4/LCD_Char.c ****     CyDelayUs(0u);
 109              		.loc 1 485 0
 110 0016 0020     		mov	r0, #0
 111              	.LVL4:
 112 0018 FFF7FEFF 		bl	CyDelayUs
 113              	.LVL5:
 488:.\Generated_Source\PSoC4/LCD_Char.c ****     LCD_Char_PORT_DR_REG &= ((uint32)(~LCD_Char_DATA_MASK));
 114              		.loc 1 488 0
 115 001c 2368     		ldr	r3, [r4]
 116 001e 1E22     		mov	r2, #30
 117 0020 9343     		bic	r3, r2
 118 0022 2360     		str	r3, [r4]
 493:.\Generated_Source\PSoC4/LCD_Char.c ****             (LCD_Char_E | ((uint8)(((uint8) nibble) << LCD_Char_PORT_SHIFT)));
 119              		.loc 1 493 0
 120 0024 6B00     		lsl	r3, r5, #1
 121 0026 2025     		mov	r5, #32
 492:.\Generated_Source\PSoC4/LCD_Char.c ****         LCD_Char_PORT_DR_REG |= 
 122              		.loc 1 492 0
 123 0028 2268     		ldr	r2, [r4]
 493:.\Generated_Source\PSoC4/LCD_Char.c ****             (LCD_Char_E | ((uint8)(((uint8) nibble) << LCD_Char_PORT_SHIFT)));
 124              		.loc 1 493 0
 125 002a 2B43     		orr	r3, r5
 126 002c DBB2     		uxtb	r3, r3
 492:.\Generated_Source\PSoC4/LCD_Char.c ****         LCD_Char_PORT_DR_REG |= 
 127              		.loc 1 492 0
 128 002e 1343     		orr	r3, r2
ARM GAS  C:\Users\Admin\AppData\Local\Temp\ccpOO5oe.s 			page 13


 129 0030 2360     		str	r3, [r4]
 499:.\Generated_Source\PSoC4/LCD_Char.c ****     CyDelayUs(1u);
 130              		.loc 1 499 0
 131 0032 0120     		mov	r0, #1
 132 0034 FFF7FEFF 		bl	CyDelayUs
 133              	.LVL6:
 501:.\Generated_Source\PSoC4/LCD_Char.c ****     LCD_Char_PORT_DR_REG &= ((uint32)(~LCD_Char_E));
 134              		.loc 1 501 0
 135 0038 2368     		ldr	r3, [r4]
 502:.\Generated_Source\PSoC4/LCD_Char.c **** }
 136              		.loc 1 502 0
 137              		@ sp needed
 501:.\Generated_Source\PSoC4/LCD_Char.c ****     LCD_Char_PORT_DR_REG &= ((uint32)(~LCD_Char_E));
 138              		.loc 1 501 0
 139 003a AB43     		bic	r3, r5
 140 003c 2360     		str	r3, [r4]
 502:.\Generated_Source\PSoC4/LCD_Char.c **** }
 141              		.loc 1 502 0
 142 003e 38BD     		pop	{r3, r4, r5, pc}
 143              	.L6:
 144              		.align	2
 145              	.L5:
 146 0040 00020440 		.word	1074004480
 147              		.cfi_endproc
 148              	.LFE10:
 149              		.size	LCD_Char_WrDatNib, .-LCD_Char_WrDatNib
 150              		.section	.text.LCD_Char_IsReady,"ax",%progbits
 151              		.align	1
 152              		.global	LCD_Char_IsReady
 153              		.code	16
 154              		.thumb_func
 155              		.type	LCD_Char_IsReady, %function
 156              	LCD_Char_IsReady:
 157              	.LFB9:
 349:.\Generated_Source\PSoC4/LCD_Char.c **** {
 158              		.loc 1 349 0
 159              		.cfi_startproc
 160 0000 F7B5     		push	{r0, r1, r2, r4, r5, r6, r7, lr}
 161              		.cfi_def_cfa_offset 32
 162              		.cfi_offset 0, -32
 163              		.cfi_offset 1, -28
 164              		.cfi_offset 2, -24
 165              		.cfi_offset 4, -20
 166              		.cfi_offset 5, -16
 167              		.cfi_offset 6, -12
 168              		.cfi_offset 7, -8
 169              		.cfi_offset 14, -4
 353:.\Generated_Source\PSoC4/LCD_Char.c ****     LCD_Char_PORT_DR_REG &= ((uint32)(~LCD_Char_PORT_MASK));
 170              		.loc 1 353 0
 171 0002 214C     		ldr	r4, .L11
 172 0004 FE22     		mov	r2, #254
 173 0006 2368     		ldr	r3, [r4]
 361:.\Generated_Source\PSoC4/LCD_Char.c ****         value = LCD_Char_PORT_PC_REG & ((uint32) (~ LCD_Char_DM_DATA_MASK));
 174              		.loc 1 361 0
 175 0008 204F     		ldr	r7, .L11+4
 353:.\Generated_Source\PSoC4/LCD_Char.c ****     LCD_Char_PORT_DR_REG &= ((uint32)(~LCD_Char_PORT_MASK));
 176              		.loc 1 353 0
ARM GAS  C:\Users\Admin\AppData\Local\Temp\ccpOO5oe.s 			page 14


 177 000a 9343     		bic	r3, r2
 178 000c 2360     		str	r3, [r4]
 361:.\Generated_Source\PSoC4/LCD_Char.c ****         value = LCD_Char_PORT_PC_REG & ((uint32) (~ LCD_Char_DM_DATA_MASK));
 179              		.loc 1 361 0
 180 000e 3A68     		ldr	r2, [r7]
 181              	.LVL7:
 182 0010 1F4B     		ldr	r3, .L11+8
 363:.\Generated_Source\PSoC4/LCD_Char.c ****         LCD_Char_PORT_PC_REG = value | LCD_Char_HIGH_Z_DATA_DM;
 183              		.loc 1 363 0
 184 0012 2049     		ldr	r1, .L11+12
 361:.\Generated_Source\PSoC4/LCD_Char.c ****         value = LCD_Char_PORT_PC_REG & ((uint32) (~ LCD_Char_DM_DATA_MASK));
 185              		.loc 1 361 0
 186 0014 1A40     		and	r2, r3
 187              	.LVL8:
 363:.\Generated_Source\PSoC4/LCD_Char.c ****         LCD_Char_PORT_PC_REG = value | LCD_Char_HIGH_Z_DATA_DM;
 188              		.loc 1 363 0
 189 0016 0A43     		orr	r2, r1
 190              	.LVL9:
 191 0018 3A60     		str	r2, [r7]
 387:.\Generated_Source\PSoC4/LCD_Char.c ****     LCD_Char_PORT_DR_REG &= ((uint32)(~LCD_Char_RS));
 192              		.loc 1 387 0
 193 001a 2268     		ldr	r2, [r4]
 194 001c 4021     		mov	r1, #64
 195 001e 8A43     		bic	r2, r1
 196 0020 2260     		str	r2, [r4]
 390:.\Generated_Source\PSoC4/LCD_Char.c ****     LCD_Char_PORT_DR_REG |= LCD_Char_RW;
 197              		.loc 1 390 0
 198 0022 2268     		ldr	r2, [r4]
 199 0024 8021     		mov	r1, #128
 200 0026 0A43     		orr	r2, r1
 201 0028 2260     		str	r2, [r4]
 202              	.L9:
 395:.\Generated_Source\PSoC4/LCD_Char.c ****         CyDelayUs(0u);
 203              		.loc 1 395 0 discriminator 1
 204 002a 0020     		mov	r0, #0
 205 002c FFF7FEFF 		bl	CyDelayUs
 206              	.LVL10:
 398:.\Generated_Source\PSoC4/LCD_Char.c ****         LCD_Char_PORT_DR_REG |= LCD_Char_E;
 207              		.loc 1 398 0 discriminator 1
 208 0030 2368     		ldr	r3, [r4]
 209 0032 2026     		mov	r6, #32
 210 0034 3343     		orr	r3, r6
 211 0036 2360     		str	r3, [r4]
 401:.\Generated_Source\PSoC4/LCD_Char.c ****         CyDelayUs(1u);
 212              		.loc 1 401 0 discriminator 1
 213 0038 0120     		mov	r0, #1
 214 003a FFF7FEFF 		bl	CyDelayUs
 215              	.LVL11:
 404:.\Generated_Source\PSoC4/LCD_Char.c ****         value = LCD_Char_PORT_PS_REG;
 216              		.loc 1 404 0 discriminator 1
 217 003e 164B     		ldr	r3, .L11+16
 410:.\Generated_Source\PSoC4/LCD_Char.c ****         CyDelayUs(0u);
 218              		.loc 1 410 0 discriminator 1
 219 0040 0020     		mov	r0, #0
 404:.\Generated_Source\PSoC4/LCD_Char.c ****         value = LCD_Char_PORT_PS_REG;
 220              		.loc 1 404 0 discriminator 1
 221 0042 1B68     		ldr	r3, [r3]
ARM GAS  C:\Users\Admin\AppData\Local\Temp\ccpOO5oe.s 			page 15


 398:.\Generated_Source\PSoC4/LCD_Char.c ****         LCD_Char_PORT_DR_REG |= LCD_Char_E;
 222              		.loc 1 398 0 discriminator 1
 223 0044 104D     		ldr	r5, .L11
 404:.\Generated_Source\PSoC4/LCD_Char.c ****         value = LCD_Char_PORT_PS_REG;
 224              		.loc 1 404 0 discriminator 1
 225 0046 0193     		str	r3, [sp, #4]
 226              	.LVL12:
 407:.\Generated_Source\PSoC4/LCD_Char.c ****         LCD_Char_PORT_DR_REG &= ((uint32)(~LCD_Char_E));
 227              		.loc 1 407 0 discriminator 1
 228 0048 2368     		ldr	r3, [r4]
 229              	.LVL13:
 230 004a B343     		bic	r3, r6
 231 004c 2360     		str	r3, [r4]
 410:.\Generated_Source\PSoC4/LCD_Char.c ****         CyDelayUs(0u);
 232              		.loc 1 410 0 discriminator 1
 233 004e FFF7FEFF 		bl	CyDelayUs
 234              	.LVL14:
 416:.\Generated_Source\PSoC4/LCD_Char.c ****         LCD_Char_PORT_DR_REG |= LCD_Char_E;
 235              		.loc 1 416 0 discriminator 1
 236 0052 2368     		ldr	r3, [r4]
 419:.\Generated_Source\PSoC4/LCD_Char.c ****         CyDelayUs(1u);
 237              		.loc 1 419 0 discriminator 1
 238 0054 0120     		mov	r0, #1
 416:.\Generated_Source\PSoC4/LCD_Char.c ****         LCD_Char_PORT_DR_REG |= LCD_Char_E;
 239              		.loc 1 416 0 discriminator 1
 240 0056 3343     		orr	r3, r6
 241 0058 2360     		str	r3, [r4]
 419:.\Generated_Source\PSoC4/LCD_Char.c ****         CyDelayUs(1u);
 242              		.loc 1 419 0 discriminator 1
 243 005a FFF7FEFF 		bl	CyDelayUs
 244              	.LVL15:
 422:.\Generated_Source\PSoC4/LCD_Char.c ****         LCD_Char_PORT_DR_REG &= ((uint32)(~LCD_Char_E));
 245              		.loc 1 422 0 discriminator 1
 246 005e 2368     		ldr	r3, [r4]
 426:.\Generated_Source\PSoC4/LCD_Char.c ****     } while (value != 0u);
 247              		.loc 1 426 0 discriminator 1
 248 0060 019A     		ldr	r2, [sp, #4]
 422:.\Generated_Source\PSoC4/LCD_Char.c ****         LCD_Char_PORT_DR_REG &= ((uint32)(~LCD_Char_E));
 249              		.loc 1 422 0 discriminator 1
 250 0062 B343     		bic	r3, r6
 251 0064 2360     		str	r3, [r4]
 426:.\Generated_Source\PSoC4/LCD_Char.c ****     } while (value != 0u);
 252              		.loc 1 426 0 discriminator 1
 253 0066 D206     		lsl	r2, r2, #27
 254 0068 DFD4     		bmi	.L9
 429:.\Generated_Source\PSoC4/LCD_Char.c ****     LCD_Char_PORT_DR_REG &= ((uint32)(~LCD_Char_RW));
 255              		.loc 1 429 0
 256 006a 2B68     		ldr	r3, [r5]
 257 006c 8022     		mov	r2, #128
 258 006e 9343     		bic	r3, r2
 259 0070 2B60     		str	r3, [r5]
 432:.\Generated_Source\PSoC4/LCD_Char.c ****     LCD_Char_PORT_DR_REG &= ((uint32)(~LCD_Char_PORT_MASK));
 260              		.loc 1 432 0
 261 0072 2B68     		ldr	r3, [r5]
 262 0074 FE22     		mov	r2, #254
 263 0076 9343     		bic	r3, r2
 264 0078 2B60     		str	r3, [r5]
ARM GAS  C:\Users\Admin\AppData\Local\Temp\ccpOO5oe.s 			page 16


 437:.\Generated_Source\PSoC4/LCD_Char.c ****         value = LCD_Char_PORT_PC_REG & ((uint32)(~ LCD_Char_DM_DATA_MASK));
 265              		.loc 1 437 0
 266 007a 3B68     		ldr	r3, [r7]
 267              	.LVL16:
 268 007c 044A     		ldr	r2, .L11+8
 459:.\Generated_Source\PSoC4/LCD_Char.c **** }
 269              		.loc 1 459 0
 270              		@ sp needed
 437:.\Generated_Source\PSoC4/LCD_Char.c ****         value = LCD_Char_PORT_PC_REG & ((uint32)(~ LCD_Char_DM_DATA_MASK));
 271              		.loc 1 437 0
 272 007e 1340     		and	r3, r2
 273              	.LVL17:
 439:.\Generated_Source\PSoC4/LCD_Char.c ****         LCD_Char_PORT_PC_REG = value | LCD_Char_STRONG_DATA_DM;
 274              		.loc 1 439 0
 275 0080 064A     		ldr	r2, .L11+20
 276 0082 1343     		orr	r3, r2
 277              	.LVL18:
 278 0084 3B60     		str	r3, [r7]
 459:.\Generated_Source\PSoC4/LCD_Char.c **** }
 279              		.loc 1 459 0
 280 0086 F7BD     		pop	{r0, r1, r2, r4, r5, r6, r7, pc}
 281              	.L12:
 282              		.align	2
 283              	.L11:
 284 0088 00020440 		.word	1074004480
 285 008c 08020440 		.word	1074004488
 286 0090 0780FFFF 		.word	-32761
 287 0094 48120000 		.word	4680
 288 0098 04020440 		.word	1074004484
 289 009c B06D0000 		.word	28080
 290              		.cfi_endproc
 291              	.LFE9:
 292              		.size	LCD_Char_IsReady, .-LCD_Char_IsReady
 293              		.section	.text.LCD_Char_WriteData,"ax",%progbits
 294              		.align	1
 295              		.global	LCD_Char_WriteData
 296              		.code	16
 297              		.thumb_func
 298              		.type	LCD_Char_WriteData, %function
 299              	LCD_Char_WriteData:
 300              	.LFB7:
 285:.\Generated_Source\PSoC4/LCD_Char.c **** {
 301              		.loc 1 285 0
 302              		.cfi_startproc
 303              	.LVL19:
 304 0000 10B5     		push	{r4, lr}
 305              		.cfi_def_cfa_offset 8
 306              		.cfi_offset 4, -8
 307              		.cfi_offset 14, -4
 285:.\Generated_Source\PSoC4/LCD_Char.c **** {
 308              		.loc 1 285 0
 309 0002 041C     		mov	r4, r0
 288:.\Generated_Source\PSoC4/LCD_Char.c ****     LCD_Char_IsReady();
 310              		.loc 1 288 0
 311 0004 FFF7FEFF 		bl	LCD_Char_IsReady
 312              	.LVL20:
 292:.\Generated_Source\PSoC4/LCD_Char.c ****     LCD_Char_WrDatNib(nibble);
ARM GAS  C:\Users\Admin\AppData\Local\Temp\ccpOO5oe.s 			page 17


 313              		.loc 1 292 0
 314 0008 2009     		lsr	r0, r4, #4
 315 000a FFF7FEFF 		bl	LCD_Char_WrDatNib
 316              	.LVL21:
 296:.\Generated_Source\PSoC4/LCD_Char.c ****     LCD_Char_WrDatNib(nibble);
 317              		.loc 1 296 0
 318 000e 0F20     		mov	r0, #15
 319 0010 2040     		and	r0, r4
 320 0012 FFF7FEFF 		bl	LCD_Char_WrDatNib
 321              	.LVL22:
 297:.\Generated_Source\PSoC4/LCD_Char.c **** }
 322              		.loc 1 297 0
 323              		@ sp needed
 324              	.LVL23:
 325 0016 10BD     		pop	{r4, pc}
 326              		.cfi_endproc
 327              	.LFE7:
 328              		.size	LCD_Char_WriteData, .-LCD_Char_WriteData
 329              		.section	.text.LCD_Char_PrintString,"ax",%progbits
 330              		.align	1
 331              		.global	LCD_Char_PrintString
 332              		.code	16
 333              		.thumb_func
 334              		.type	LCD_Char_PrintString, %function
 335              	LCD_Char_PrintString:
 336              	.LFB5:
 234:.\Generated_Source\PSoC4/LCD_Char.c **** {
 337              		.loc 1 234 0
 338              		.cfi_startproc
 339              	.LVL24:
 340 0000 38B5     		push	{r3, r4, r5, lr}
 341              		.cfi_def_cfa_offset 16
 342              		.cfi_offset 3, -16
 343              		.cfi_offset 4, -12
 344              		.cfi_offset 5, -8
 345              		.cfi_offset 14, -4
 234:.\Generated_Source\PSoC4/LCD_Char.c **** {
 346              		.loc 1 234 0
 347 0002 051C     		mov	r5, r0
 236:.\Generated_Source\PSoC4/LCD_Char.c ****     char8 current = *string;
 348              		.loc 1 236 0
 349 0004 0078     		ldrb	r0, [r0]
 350              	.LVL25:
 235:.\Generated_Source\PSoC4/LCD_Char.c ****     uint8 indexU8 = 1u;
 351              		.loc 1 235 0
 352 0006 0124     		mov	r4, #1
 353              	.LVL26:
 354              	.L15:
 239:.\Generated_Source\PSoC4/LCD_Char.c ****     while((char8) '\0' != current)
 355              		.loc 1 239 0 discriminator 1
 356 0008 0028     		cmp	r0, #0
 357 000a 05D0     		beq	.L17
 241:.\Generated_Source\PSoC4/LCD_Char.c ****         LCD_Char_WriteData((uint8)current);
 358              		.loc 1 241 0
 359 000c FFF7FEFF 		bl	LCD_Char_WriteData
 360              	.LVL27:
 242:.\Generated_Source\PSoC4/LCD_Char.c ****         current = string[indexU8];
ARM GAS  C:\Users\Admin\AppData\Local\Temp\ccpOO5oe.s 			page 18


 361              		.loc 1 242 0
 362 0010 285D     		ldrb	r0, [r5, r4]
 363              	.LVL28:
 243:.\Generated_Source\PSoC4/LCD_Char.c ****         indexU8++;
 364              		.loc 1 243 0
 365 0012 0134     		add	r4, r4, #1
 366              	.LVL29:
 367 0014 E4B2     		uxtb	r4, r4
 368              	.LVL30:
 369 0016 F7E7     		b	.L15
 370              	.L17:
 245:.\Generated_Source\PSoC4/LCD_Char.c **** }
 371              		.loc 1 245 0
 372              		@ sp needed
 373              	.LVL31:
 374              	.LVL32:
 375 0018 38BD     		pop	{r3, r4, r5, pc}
 376              		.cfi_endproc
 377              	.LFE5:
 378              		.size	LCD_Char_PrintString, .-LCD_Char_PrintString
 379              		.section	.text.LCD_Char_PutChar,"ax",%progbits
 380              		.align	1
 381              		.global	LCD_Char_PutChar
 382              		.code	16
 383              		.thumb_func
 384              		.type	LCD_Char_PutChar, %function
 385              	LCD_Char_PutChar:
 386              	.LFB6:
 265:.\Generated_Source\PSoC4/LCD_Char.c **** {
 387              		.loc 1 265 0
 388              		.cfi_startproc
 389              	.LVL33:
 390 0000 08B5     		push	{r3, lr}
 391              		.cfi_def_cfa_offset 8
 392              		.cfi_offset 3, -8
 393              		.cfi_offset 14, -4
 266:.\Generated_Source\PSoC4/LCD_Char.c ****     LCD_Char_WriteData((uint8)character);
 394              		.loc 1 266 0
 395 0002 FFF7FEFF 		bl	LCD_Char_WriteData
 396              	.LVL34:
 267:.\Generated_Source\PSoC4/LCD_Char.c **** }
 397              		.loc 1 267 0
 398              		@ sp needed
 399 0006 08BD     		pop	{r3, pc}
 400              		.cfi_endproc
 401              	.LFE6:
 402              		.size	LCD_Char_PutChar, .-LCD_Char_PutChar
 403              		.section	.text.LCD_Char_WriteControl,"ax",%progbits
 404              		.align	1
 405              		.global	LCD_Char_WriteControl
 406              		.code	16
 407              		.thumb_func
 408              		.type	LCD_Char_WriteControl, %function
 409              	LCD_Char_WriteControl:
 410              	.LFB8:
 315:.\Generated_Source\PSoC4/LCD_Char.c **** {
 411              		.loc 1 315 0
ARM GAS  C:\Users\Admin\AppData\Local\Temp\ccpOO5oe.s 			page 19


 412              		.cfi_startproc
 413              	.LVL35:
 414 0000 10B5     		push	{r4, lr}
 415              		.cfi_def_cfa_offset 8
 416              		.cfi_offset 4, -8
 417              		.cfi_offset 14, -4
 315:.\Generated_Source\PSoC4/LCD_Char.c **** {
 418              		.loc 1 315 0
 419 0002 041C     		mov	r4, r0
 318:.\Generated_Source\PSoC4/LCD_Char.c ****     LCD_Char_IsReady();
 420              		.loc 1 318 0
 421 0004 FFF7FEFF 		bl	LCD_Char_IsReady
 422              	.LVL36:
 323:.\Generated_Source\PSoC4/LCD_Char.c ****     LCD_Char_WrCntrlNib(nibble);
 423              		.loc 1 323 0
 424 0008 2009     		lsr	r0, r4, #4
 425 000a FFF7FEFF 		bl	LCD_Char_WrCntrlNib
 426              	.LVL37:
 327:.\Generated_Source\PSoC4/LCD_Char.c ****     LCD_Char_WrCntrlNib(nibble);
 427              		.loc 1 327 0
 428 000e 0F20     		mov	r0, #15
 429 0010 2040     		and	r0, r4
 430 0012 FFF7FEFF 		bl	LCD_Char_WrCntrlNib
 431              	.LVL38:
 328:.\Generated_Source\PSoC4/LCD_Char.c **** }
 432              		.loc 1 328 0
 433              		@ sp needed
 434              	.LVL39:
 435 0016 10BD     		pop	{r4, pc}
 436              		.cfi_endproc
 437              	.LFE8:
 438              		.size	LCD_Char_WriteControl, .-LCD_Char_WriteControl
 439              		.section	.text.LCD_Char_Init,"ax",%progbits
 440              		.align	1
 441              		.global	LCD_Char_Init
 442              		.code	16
 443              		.thumb_func
 444              		.type	LCD_Char_Init, %function
 445              	LCD_Char_Init:
 446              	.LFB0:
  56:.\Generated_Source\PSoC4/LCD_Char.c **** {
 447              		.loc 1 56 0
 448              		.cfi_startproc
 449 0000 08B5     		push	{r3, lr}
 450              		.cfi_def_cfa_offset 8
 451              		.cfi_offset 3, -8
 452              		.cfi_offset 14, -4
  58:.\Generated_Source\PSoC4/LCD_Char.c ****     CyDelay(40u);                                                        /* Delay 40 ms */
 453              		.loc 1 58 0
 454 0002 2820     		mov	r0, #40
 455 0004 FFF7FEFF 		bl	CyDelay
 456              	.LVL40:
  59:.\Generated_Source\PSoC4/LCD_Char.c ****     LCD_Char_WrCntrlNib(LCD_Char_DISPLAY_8_BIT_INIT);    /* Selects 8-bit mode */
 457              		.loc 1 59 0
 458 0008 0320     		mov	r0, #3
 459 000a FFF7FEFF 		bl	LCD_Char_WrCntrlNib
 460              	.LVL41:
ARM GAS  C:\Users\Admin\AppData\Local\Temp\ccpOO5oe.s 			page 20


  60:.\Generated_Source\PSoC4/LCD_Char.c ****     CyDelay(5u);                                                         /* Delay 5 ms */
 461              		.loc 1 60 0
 462 000e 0520     		mov	r0, #5
 463 0010 FFF7FEFF 		bl	CyDelay
 464              	.LVL42:
  61:.\Generated_Source\PSoC4/LCD_Char.c ****     LCD_Char_WrCntrlNib(LCD_Char_DISPLAY_8_BIT_INIT);    /* Selects 8-bit mode */
 465              		.loc 1 61 0
 466 0014 0320     		mov	r0, #3
 467 0016 FFF7FEFF 		bl	LCD_Char_WrCntrlNib
 468              	.LVL43:
  62:.\Generated_Source\PSoC4/LCD_Char.c ****     CyDelay(15u);                                                        /* Delay 15 ms */
 469              		.loc 1 62 0
 470 001a 0F20     		mov	r0, #15
 471 001c FFF7FEFF 		bl	CyDelay
 472              	.LVL44:
  63:.\Generated_Source\PSoC4/LCD_Char.c ****     LCD_Char_WrCntrlNib(LCD_Char_DISPLAY_8_BIT_INIT);    /* Selects 8-bit mode */
 473              		.loc 1 63 0
 474 0020 0320     		mov	r0, #3
 475 0022 FFF7FEFF 		bl	LCD_Char_WrCntrlNib
 476              	.LVL45:
  64:.\Generated_Source\PSoC4/LCD_Char.c ****     CyDelay(1u);                                                         /* Delay 1 ms */
 477              		.loc 1 64 0
 478 0026 0120     		mov	r0, #1
 479 0028 FFF7FEFF 		bl	CyDelay
 480              	.LVL46:
  65:.\Generated_Source\PSoC4/LCD_Char.c ****     LCD_Char_WrCntrlNib(LCD_Char_DISPLAY_4_BIT_INIT);    /* Selects 4-bit mode */
 481              		.loc 1 65 0
 482 002c 0220     		mov	r0, #2
 483 002e FFF7FEFF 		bl	LCD_Char_WrCntrlNib
 484              	.LVL47:
  66:.\Generated_Source\PSoC4/LCD_Char.c ****     CyDelay(5u);                                                         /* Delay 5 ms */
 485              		.loc 1 66 0
 486 0032 0520     		mov	r0, #5
 487 0034 FFF7FEFF 		bl	CyDelay
 488              	.LVL48:
  68:.\Generated_Source\PSoC4/LCD_Char.c ****     LCD_Char_WriteControl(LCD_Char_CURSOR_AUTO_INCR_ON);    /* Incr Cursor After Writes */
 489              		.loc 1 68 0
 490 0038 0620     		mov	r0, #6
 491 003a FFF7FEFF 		bl	LCD_Char_WriteControl
 492              	.LVL49:
  69:.\Generated_Source\PSoC4/LCD_Char.c ****     LCD_Char_WriteControl(LCD_Char_DISPLAY_CURSOR_ON);      /* Turn Display, Cursor ON */
 493              		.loc 1 69 0
 494 003e 0E20     		mov	r0, #14
 495 0040 FFF7FEFF 		bl	LCD_Char_WriteControl
 496              	.LVL50:
  70:.\Generated_Source\PSoC4/LCD_Char.c ****     LCD_Char_WriteControl(LCD_Char_DISPLAY_2_LINES_5x10);   /* 2 Lines by 5x10 Characters */
 497              		.loc 1 70 0
 498 0044 2C20     		mov	r0, #44
 499 0046 FFF7FEFF 		bl	LCD_Char_WriteControl
 500              	.LVL51:
  71:.\Generated_Source\PSoC4/LCD_Char.c ****     LCD_Char_WriteControl(LCD_Char_DISPLAY_CURSOR_OFF);     /* Turn Display, Cursor OFF */
 501              		.loc 1 71 0
 502 004a 0820     		mov	r0, #8
 503 004c FFF7FEFF 		bl	LCD_Char_WriteControl
 504              	.LVL52:
  72:.\Generated_Source\PSoC4/LCD_Char.c ****     LCD_Char_WriteControl(LCD_Char_CLEAR_DISPLAY);          /* Clear LCD Screen */
 505              		.loc 1 72 0
ARM GAS  C:\Users\Admin\AppData\Local\Temp\ccpOO5oe.s 			page 21


 506 0050 0120     		mov	r0, #1
 507 0052 FFF7FEFF 		bl	LCD_Char_WriteControl
 508              	.LVL53:
  73:.\Generated_Source\PSoC4/LCD_Char.c ****     LCD_Char_WriteControl(LCD_Char_DISPLAY_ON_CURSOR_OFF);  /* Turn Display ON, Cursor OFF */
 509              		.loc 1 73 0
 510 0056 0C20     		mov	r0, #12
 511 0058 FFF7FEFF 		bl	LCD_Char_WriteControl
 512              	.LVL54:
  74:.\Generated_Source\PSoC4/LCD_Char.c ****     LCD_Char_WriteControl(LCD_Char_RESET_CURSOR_POSITION);  /* Set Cursor to 0,0 */
 513              		.loc 1 74 0
 514 005c 0320     		mov	r0, #3
 515 005e FFF7FEFF 		bl	LCD_Char_WriteControl
 516              	.LVL55:
  75:.\Generated_Source\PSoC4/LCD_Char.c ****     CyDelay(5u);
 517              		.loc 1 75 0
 518 0062 0520     		mov	r0, #5
 519 0064 FFF7FEFF 		bl	CyDelay
 520              	.LVL56:
  80:.\Generated_Source\PSoC4/LCD_Char.c **** }
 521              		.loc 1 80 0
 522              		@ sp needed
 523 0068 08BD     		pop	{r3, pc}
 524              		.cfi_endproc
 525              	.LFE0:
 526              		.size	LCD_Char_Init, .-LCD_Char_Init
 527              		.section	.text.LCD_Char_Enable,"ax",%progbits
 528              		.align	1
 529              		.global	LCD_Char_Enable
 530              		.code	16
 531              		.thumb_func
 532              		.type	LCD_Char_Enable, %function
 533              	LCD_Char_Enable:
 534              	.LFB1:
 105:.\Generated_Source\PSoC4/LCD_Char.c **** {
 535              		.loc 1 105 0
 536              		.cfi_startproc
 537 0000 08B5     		push	{r3, lr}
 538              		.cfi_def_cfa_offset 8
 539              		.cfi_offset 3, -8
 540              		.cfi_offset 14, -4
 106:.\Generated_Source\PSoC4/LCD_Char.c ****     LCD_Char_DisplayOn();
 541              		.loc 1 106 0
 542 0002 0C20     		mov	r0, #12
 543 0004 FFF7FEFF 		bl	LCD_Char_WriteControl
 544              	.LVL57:
 107:.\Generated_Source\PSoC4/LCD_Char.c ****     LCD_Char_enableState = 1u;
 545              		.loc 1 107 0
 546 0008 014B     		ldr	r3, .L22
 547 000a 0122     		mov	r2, #1
 548 000c 1A70     		strb	r2, [r3]
 108:.\Generated_Source\PSoC4/LCD_Char.c **** }
 549              		.loc 1 108 0
 550              		@ sp needed
 551 000e 08BD     		pop	{r3, pc}
 552              	.L23:
 553              		.align	2
 554              	.L22:
ARM GAS  C:\Users\Admin\AppData\Local\Temp\ccpOO5oe.s 			page 22


 555 0010 00000000 		.word	.LANCHOR0
 556              		.cfi_endproc
 557              	.LFE1:
 558              		.size	LCD_Char_Enable, .-LCD_Char_Enable
 559              		.section	.text.LCD_Char_Start,"ax",%progbits
 560              		.align	1
 561              		.global	LCD_Char_Start
 562              		.code	16
 563              		.thumb_func
 564              		.type	LCD_Char_Start, %function
 565              	LCD_Char_Start:
 566              	.LFB2:
 138:.\Generated_Source\PSoC4/LCD_Char.c **** {
 567              		.loc 1 138 0
 568              		.cfi_startproc
 569 0000 10B5     		push	{r4, lr}
 570              		.cfi_def_cfa_offset 8
 571              		.cfi_offset 4, -8
 572              		.cfi_offset 14, -4
 140:.\Generated_Source\PSoC4/LCD_Char.c ****     if(LCD_Char_initVar == 0u)
 573              		.loc 1 140 0
 574 0002 054C     		ldr	r4, .L26
 575 0004 6378     		ldrb	r3, [r4, #1]
 576 0006 002B     		cmp	r3, #0
 577 0008 03D1     		bne	.L25
 142:.\Generated_Source\PSoC4/LCD_Char.c ****         LCD_Char_Init();
 578              		.loc 1 142 0
 579 000a FFF7FEFF 		bl	LCD_Char_Init
 580              	.LVL58:
 143:.\Generated_Source\PSoC4/LCD_Char.c ****         LCD_Char_initVar = 1u;
 581              		.loc 1 143 0
 582 000e 0123     		mov	r3, #1
 583 0010 6370     		strb	r3, [r4, #1]
 584              	.L25:
 147:.\Generated_Source\PSoC4/LCD_Char.c ****     LCD_Char_Enable();
 585              		.loc 1 147 0
 586 0012 FFF7FEFF 		bl	LCD_Char_Enable
 587              	.LVL59:
 148:.\Generated_Source\PSoC4/LCD_Char.c **** }
 588              		.loc 1 148 0
 589              		@ sp needed
 590 0016 10BD     		pop	{r4, pc}
 591              	.L27:
 592              		.align	2
 593              	.L26:
 594 0018 00000000 		.word	.LANCHOR0
 595              		.cfi_endproc
 596              	.LFE2:
 597              		.size	LCD_Char_Start, .-LCD_Char_Start
 598              		.section	.text.LCD_Char_Stop,"ax",%progbits
 599              		.align	1
 600              		.global	LCD_Char_Stop
 601              		.code	16
 602              		.thumb_func
 603              		.type	LCD_Char_Stop, %function
 604              	LCD_Char_Stop:
 605              	.LFB3:
ARM GAS  C:\Users\Admin\AppData\Local\Temp\ccpOO5oe.s 			page 23


 169:.\Generated_Source\PSoC4/LCD_Char.c **** {
 606              		.loc 1 169 0
 607              		.cfi_startproc
 608 0000 08B5     		push	{r3, lr}
 609              		.cfi_def_cfa_offset 8
 610              		.cfi_offset 3, -8
 611              		.cfi_offset 14, -4
 171:.\Generated_Source\PSoC4/LCD_Char.c ****     LCD_Char_DisplayOff();
 612              		.loc 1 171 0
 613 0002 0820     		mov	r0, #8
 614 0004 FFF7FEFF 		bl	LCD_Char_WriteControl
 615              	.LVL60:
 172:.\Generated_Source\PSoC4/LCD_Char.c ****     LCD_Char_enableState = 0u;
 616              		.loc 1 172 0
 617 0008 014B     		ldr	r3, .L29
 618 000a 0022     		mov	r2, #0
 619 000c 1A70     		strb	r2, [r3]
 173:.\Generated_Source\PSoC4/LCD_Char.c **** }
 620              		.loc 1 173 0
 621              		@ sp needed
 622 000e 08BD     		pop	{r3, pc}
 623              	.L30:
 624              		.align	2
 625              	.L29:
 626 0010 00000000 		.word	.LANCHOR0
 627              		.cfi_endproc
 628              	.LFE3:
 629              		.size	LCD_Char_Stop, .-LCD_Char_Stop
 630              		.section	.text.LCD_Char_Position,"ax",%progbits
 631              		.align	1
 632              		.global	LCD_Char_Position
 633              		.code	16
 634              		.thumb_func
 635              		.type	LCD_Char_Position, %function
 636              	LCD_Char_Position:
 637              	.LFB4:
 197:.\Generated_Source\PSoC4/LCD_Char.c **** {
 638              		.loc 1 197 0
 639              		.cfi_startproc
 640              	.LVL61:
 641 0000 08B5     		push	{r3, lr}
 642              		.cfi_def_cfa_offset 8
 643              		.cfi_offset 3, -8
 644              		.cfi_offset 14, -4
 198:.\Generated_Source\PSoC4/LCD_Char.c ****     switch (row)
 645              		.loc 1 198 0
 646 0002 0328     		cmp	r0, #3
 647 0004 0DD8     		bhi	.L31
 648 0006 FFF7FEFF 		bl	__gnu_thumb1_case_uqi
 649              	.L34:
 650 000a 02       		.byte	(.L33-.L34)/2
 651 000b 04       		.byte	(.L35-.L34)/2
 652 000c 06       		.byte	(.L36-.L34)/2
 653 000d 08       		.byte	(.L37-.L34)/2
 654              		.p2align 1
 655              	.L33:
 201:.\Generated_Source\PSoC4/LCD_Char.c ****             LCD_Char_WriteControl(LCD_Char_ROW_0_START + column);
ARM GAS  C:\Users\Admin\AppData\Local\Temp\ccpOO5oe.s 			page 24


 656              		.loc 1 201 0
 657 000e 8039     		sub	r1, r1, #128
 658              	.LVL62:
 659 0010 04E0     		b	.L38
 660              	.LVL63:
 661              	.L35:
 204:.\Generated_Source\PSoC4/LCD_Char.c ****             LCD_Char_WriteControl(LCD_Char_ROW_1_START + column);
 662              		.loc 1 204 0
 663 0012 4039     		sub	r1, r1, #64
 664              	.LVL64:
 665 0014 02E0     		b	.L38
 666              	.LVL65:
 667              	.L36:
 207:.\Generated_Source\PSoC4/LCD_Char.c ****             LCD_Char_WriteControl(LCD_Char_ROW_2_START + column);
 668              		.loc 1 207 0
 669 0016 6C39     		sub	r1, r1, #108
 670              	.LVL66:
 671 0018 00E0     		b	.L38
 672              	.LVL67:
 673              	.L37:
 210:.\Generated_Source\PSoC4/LCD_Char.c ****             LCD_Char_WriteControl(LCD_Char_ROW_3_START + column);
 674              		.loc 1 210 0
 675 001a 2C39     		sub	r1, r1, #44
 676              	.LVL68:
 677              	.L38:
 678 001c C8B2     		uxtb	r0, r1
 679              	.LVL69:
 680 001e FFF7FEFF 		bl	LCD_Char_WriteControl
 681              	.LVL70:
 682              	.L31:
 216:.\Generated_Source\PSoC4/LCD_Char.c **** }
 683              		.loc 1 216 0
 684              		@ sp needed
 685 0022 08BD     		pop	{r3, pc}
 686              		.cfi_endproc
 687              	.LFE4:
 688              		.size	LCD_Char_Position, .-LCD_Char_Position
 689              		.section	.text.LCD_Char_PrintInt8,"ax",%progbits
 690              		.align	1
 691              		.global	LCD_Char_PrintInt8
 692              		.code	16
 693              		.thumb_func
 694              		.type	LCD_Char_PrintInt8, %function
 695              	LCD_Char_PrintInt8:
 696              	.LFB12:
 541:.\Generated_Source\PSoC4/LCD_Char.c **** 
 542:.\Generated_Source\PSoC4/LCD_Char.c **** 
 543:.\Generated_Source\PSoC4/LCD_Char.c **** #if(LCD_Char_CONVERSION_ROUTINES == 1u)
 544:.\Generated_Source\PSoC4/LCD_Char.c **** 
 545:.\Generated_Source\PSoC4/LCD_Char.c ****     /*******************************************************************************
 546:.\Generated_Source\PSoC4/LCD_Char.c ****     *  Function Name: LCD_Char_PrintInt8
 547:.\Generated_Source\PSoC4/LCD_Char.c ****     ********************************************************************************
 548:.\Generated_Source\PSoC4/LCD_Char.c ****     *
 549:.\Generated_Source\PSoC4/LCD_Char.c ****     * Summary:
 550:.\Generated_Source\PSoC4/LCD_Char.c ****     *  Print a byte as two ASCII characters.
 551:.\Generated_Source\PSoC4/LCD_Char.c ****     *
 552:.\Generated_Source\PSoC4/LCD_Char.c ****     * Parameters:
ARM GAS  C:\Users\Admin\AppData\Local\Temp\ccpOO5oe.s 			page 25


 553:.\Generated_Source\PSoC4/LCD_Char.c ****     *  value: The byte to be printed out as ASCII characters.
 554:.\Generated_Source\PSoC4/LCD_Char.c ****     *
 555:.\Generated_Source\PSoC4/LCD_Char.c ****     * Return:
 556:.\Generated_Source\PSoC4/LCD_Char.c ****     *  None.
 557:.\Generated_Source\PSoC4/LCD_Char.c ****     *
 558:.\Generated_Source\PSoC4/LCD_Char.c ****     *******************************************************************************/
 559:.\Generated_Source\PSoC4/LCD_Char.c ****     void LCD_Char_PrintInt8(uint8 value) 
 560:.\Generated_Source\PSoC4/LCD_Char.c ****     {
 697              		.loc 1 560 0
 698              		.cfi_startproc
 699              	.LVL71:
 700 0000 38B5     		push	{r3, r4, r5, lr}
 701              		.cfi_def_cfa_offset 16
 702              		.cfi_offset 3, -16
 703              		.cfi_offset 4, -12
 704              		.cfi_offset 5, -8
 705              		.cfi_offset 14, -4
 561:.\Generated_Source\PSoC4/LCD_Char.c ****         static char8 const CYCODE LCD_Char_hex[16u] = "0123456789ABCDEF";
 562:.\Generated_Source\PSoC4/LCD_Char.c ****         
 563:.\Generated_Source\PSoC4/LCD_Char.c ****         LCD_Char_PutChar((char8) LCD_Char_hex[value >> LCD_Char_BYTE_UPPER_NIBBLE_SHIFT]);
 706              		.loc 1 563 0
 707 0002 064C     		ldr	r4, .L40
 708 0004 0309     		lsr	r3, r0, #4
 560:.\Generated_Source\PSoC4/LCD_Char.c ****     {
 709              		.loc 1 560 0
 710 0006 051C     		mov	r5, r0
 711              	.LBB6:
 712              	.LBB7:
 266:.\Generated_Source\PSoC4/LCD_Char.c ****     LCD_Char_WriteData((uint8)character);
 713              		.loc 1 266 0
 714 0008 E05C     		ldrb	r0, [r4, r3]
 715              	.LVL72:
 716 000a FFF7FEFF 		bl	LCD_Char_WriteData
 717              	.LVL73:
 718              	.LBE7:
 719              	.LBE6:
 564:.\Generated_Source\PSoC4/LCD_Char.c ****         LCD_Char_PutChar((char8) LCD_Char_hex[value & LCD_Char_BYTE_LOWER_NIBBLE_MASK]);
 720              		.loc 1 564 0
 721 000e 0F23     		mov	r3, #15
 722 0010 1D40     		and	r5, r3
 723              	.LVL74:
 724              	.LBB8:
 725              	.LBB9:
 266:.\Generated_Source\PSoC4/LCD_Char.c ****     LCD_Char_WriteData((uint8)character);
 726              		.loc 1 266 0
 727 0012 605D     		ldrb	r0, [r4, r5]
 728 0014 FFF7FEFF 		bl	LCD_Char_WriteData
 729              	.LVL75:
 730              	.LBE9:
 731              	.LBE8:
 565:.\Generated_Source\PSoC4/LCD_Char.c ****     }
 732              		.loc 1 565 0
 733              		@ sp needed
 734 0018 38BD     		pop	{r3, r4, r5, pc}
 735              	.L41:
 736 001a C046     		.align	2
 737              	.L40:
ARM GAS  C:\Users\Admin\AppData\Local\Temp\ccpOO5oe.s 			page 26


 738 001c 00000000 		.word	.LANCHOR1
 739              		.cfi_endproc
 740              	.LFE12:
 741              		.size	LCD_Char_PrintInt8, .-LCD_Char_PrintInt8
 742              		.section	.text.LCD_Char_PrintInt16,"ax",%progbits
 743              		.align	1
 744              		.global	LCD_Char_PrintInt16
 745              		.code	16
 746              		.thumb_func
 747              		.type	LCD_Char_PrintInt16, %function
 748              	LCD_Char_PrintInt16:
 749              	.LFB13:
 566:.\Generated_Source\PSoC4/LCD_Char.c **** 
 567:.\Generated_Source\PSoC4/LCD_Char.c **** 
 568:.\Generated_Source\PSoC4/LCD_Char.c ****     /*******************************************************************************
 569:.\Generated_Source\PSoC4/LCD_Char.c ****     *  Function Name: LCD_Char_PrintInt16
 570:.\Generated_Source\PSoC4/LCD_Char.c ****     ********************************************************************************
 571:.\Generated_Source\PSoC4/LCD_Char.c ****     *
 572:.\Generated_Source\PSoC4/LCD_Char.c ****     * Summary:
 573:.\Generated_Source\PSoC4/LCD_Char.c ****     *  Print a uint16 as four ASCII characters.
 574:.\Generated_Source\PSoC4/LCD_Char.c ****     *
 575:.\Generated_Source\PSoC4/LCD_Char.c ****     * Parameters:
 576:.\Generated_Source\PSoC4/LCD_Char.c ****     *  value: The uint16 to be printed out as ASCII characters.
 577:.\Generated_Source\PSoC4/LCD_Char.c ****     *
 578:.\Generated_Source\PSoC4/LCD_Char.c ****     * Return:
 579:.\Generated_Source\PSoC4/LCD_Char.c ****     *  None.
 580:.\Generated_Source\PSoC4/LCD_Char.c ****     *
 581:.\Generated_Source\PSoC4/LCD_Char.c ****     *******************************************************************************/
 582:.\Generated_Source\PSoC4/LCD_Char.c ****     void LCD_Char_PrintInt16(uint16 value) 
 583:.\Generated_Source\PSoC4/LCD_Char.c ****     {
 750              		.loc 1 583 0
 751              		.cfi_startproc
 752              	.LVL76:
 753 0000 10B5     		push	{r4, lr}
 754              		.cfi_def_cfa_offset 8
 755              		.cfi_offset 4, -8
 756              		.cfi_offset 14, -4
 757              		.loc 1 583 0
 758 0002 041C     		mov	r4, r0
 584:.\Generated_Source\PSoC4/LCD_Char.c ****         LCD_Char_PrintInt8((uint8)(value >> LCD_Char_U16_UPPER_BYTE_SHIFT));
 759              		.loc 1 584 0
 760 0004 000A     		lsr	r0, r0, #8
 761              	.LVL77:
 762 0006 FFF7FEFF 		bl	LCD_Char_PrintInt8
 763              	.LVL78:
 585:.\Generated_Source\PSoC4/LCD_Char.c ****         LCD_Char_PrintInt8((uint8)(value & LCD_Char_U16_LOWER_BYTE_MASK));
 764              		.loc 1 585 0
 765 000a E0B2     		uxtb	r0, r4
 766 000c FFF7FEFF 		bl	LCD_Char_PrintInt8
 767              	.LVL79:
 586:.\Generated_Source\PSoC4/LCD_Char.c ****     }
 768              		.loc 1 586 0
 769              		@ sp needed
 770 0010 10BD     		pop	{r4, pc}
 771              		.cfi_endproc
 772              	.LFE13:
 773              		.size	LCD_Char_PrintInt16, .-LCD_Char_PrintInt16
ARM GAS  C:\Users\Admin\AppData\Local\Temp\ccpOO5oe.s 			page 27


 774              		.section	.text.LCD_Char_PrintInt32,"ax",%progbits
 775              		.align	1
 776              		.global	LCD_Char_PrintInt32
 777              		.code	16
 778              		.thumb_func
 779              		.type	LCD_Char_PrintInt32, %function
 780              	LCD_Char_PrintInt32:
 781              	.LFB14:
 587:.\Generated_Source\PSoC4/LCD_Char.c **** 
 588:.\Generated_Source\PSoC4/LCD_Char.c ****     
 589:.\Generated_Source\PSoC4/LCD_Char.c ****     /*******************************************************************************
 590:.\Generated_Source\PSoC4/LCD_Char.c ****     *  Function Name: LCD_Char_PrintInt32
 591:.\Generated_Source\PSoC4/LCD_Char.c ****     ********************************************************************************
 592:.\Generated_Source\PSoC4/LCD_Char.c ****     *
 593:.\Generated_Source\PSoC4/LCD_Char.c ****     * Summary:
 594:.\Generated_Source\PSoC4/LCD_Char.c ****     *  Print a uint32 hexadecimal number as eight ASCII characters.
 595:.\Generated_Source\PSoC4/LCD_Char.c ****     *
 596:.\Generated_Source\PSoC4/LCD_Char.c ****     * Parameters:
 597:.\Generated_Source\PSoC4/LCD_Char.c ****     *  value: The uint32 to be printed out as ASCII characters.
 598:.\Generated_Source\PSoC4/LCD_Char.c ****     *
 599:.\Generated_Source\PSoC4/LCD_Char.c ****     * Return:
 600:.\Generated_Source\PSoC4/LCD_Char.c ****     *  None.
 601:.\Generated_Source\PSoC4/LCD_Char.c ****     *
 602:.\Generated_Source\PSoC4/LCD_Char.c ****     *******************************************************************************/
 603:.\Generated_Source\PSoC4/LCD_Char.c ****     void LCD_Char_PrintInt32(uint32 value) 
 604:.\Generated_Source\PSoC4/LCD_Char.c ****     {
 782              		.loc 1 604 0
 783              		.cfi_startproc
 784              	.LVL80:
 785 0000 38B5     		push	{r3, r4, r5, lr}
 786              		.cfi_def_cfa_offset 16
 787              		.cfi_offset 3, -16
 788              		.cfi_offset 4, -12
 789              		.cfi_offset 5, -8
 790              		.cfi_offset 14, -4
 791              		.loc 1 604 0
 792 0002 051C     		mov	r5, r0
 605:.\Generated_Source\PSoC4/LCD_Char.c ****         uint8 shift = LCD_Char_32_BIT_SHIFT;
 793              		.loc 1 605 0
 794 0004 2024     		mov	r4, #32
 795              	.LVL81:
 796              	.L45:
 606:.\Generated_Source\PSoC4/LCD_Char.c ****         
 607:.\Generated_Source\PSoC4/LCD_Char.c ****         while (shift != 0u)
 608:.\Generated_Source\PSoC4/LCD_Char.c ****         {
 609:.\Generated_Source\PSoC4/LCD_Char.c ****             /* "shift" var should be subtracted by 8 prior shifting. This implements 
 610:.\Generated_Source\PSoC4/LCD_Char.c ****             * shifting by 24, 16, 8 and 0u. 
 611:.\Generated_Source\PSoC4/LCD_Char.c ****             */
 612:.\Generated_Source\PSoC4/LCD_Char.c ****             shift -= LCD_Char_8_BIT_SHIFT;
 797              		.loc 1 612 0
 798 0006 083C     		sub	r4, r4, #8
 799              	.LVL82:
 800 0008 E4B2     		uxtb	r4, r4
 801              	.LVL83:
 613:.\Generated_Source\PSoC4/LCD_Char.c ****             
 614:.\Generated_Source\PSoC4/LCD_Char.c ****             /* Print 8 bits of uint32 hex number */
 615:.\Generated_Source\PSoC4/LCD_Char.c ****             LCD_Char_PrintInt8((uint8) ((uint32) (value >> shift)));
ARM GAS  C:\Users\Admin\AppData\Local\Temp\ccpOO5oe.s 			page 28


 802              		.loc 1 615 0
 803 000a 281C     		mov	r0, r5
 804 000c E040     		lsr	r0, r0, r4
 805 000e C0B2     		uxtb	r0, r0
 806 0010 FFF7FEFF 		bl	LCD_Char_PrintInt8
 807              	.LVL84:
 607:.\Generated_Source\PSoC4/LCD_Char.c ****         while (shift != 0u)
 808              		.loc 1 607 0
 809 0014 002C     		cmp	r4, #0
 810 0016 F6D1     		bne	.L45
 616:.\Generated_Source\PSoC4/LCD_Char.c ****         }
 617:.\Generated_Source\PSoC4/LCD_Char.c ****     }
 811              		.loc 1 617 0
 812              		@ sp needed
 813              	.LVL85:
 814              	.LVL86:
 815 0018 38BD     		pop	{r3, r4, r5, pc}
 816              		.cfi_endproc
 817              	.LFE14:
 818              		.size	LCD_Char_PrintInt32, .-LCD_Char_PrintInt32
 819              		.global	__aeabi_uidivmod
 820              		.global	__aeabi_uidiv
 821              		.section	.text.LCD_Char_PrintU32Number,"ax",%progbits
 822              		.align	1
 823              		.global	LCD_Char_PrintU32Number
 824              		.code	16
 825              		.thumb_func
 826              		.type	LCD_Char_PrintU32Number, %function
 827              	LCD_Char_PrintU32Number:
 828              	.LFB15:
 618:.\Generated_Source\PSoC4/LCD_Char.c ****     
 619:.\Generated_Source\PSoC4/LCD_Char.c ****     
 620:.\Generated_Source\PSoC4/LCD_Char.c ****     /*******************************************************************************
 621:.\Generated_Source\PSoC4/LCD_Char.c ****     *  Function Name: LCD_Char_PrintNumber
 622:.\Generated_Source\PSoC4/LCD_Char.c ****     ********************************************************************************
 623:.\Generated_Source\PSoC4/LCD_Char.c ****     *
 624:.\Generated_Source\PSoC4/LCD_Char.c ****     * Summary:
 625:.\Generated_Source\PSoC4/LCD_Char.c ****     *  Print an uint16 value as a left-justified decimal value.
 626:.\Generated_Source\PSoC4/LCD_Char.c ****     *
 627:.\Generated_Source\PSoC4/LCD_Char.c ****     * Parameters:
 628:.\Generated_Source\PSoC4/LCD_Char.c ****     *  value: A 16-bit value to be printed in ASCII characters as a decimal number
 629:.\Generated_Source\PSoC4/LCD_Char.c ****     *
 630:.\Generated_Source\PSoC4/LCD_Char.c ****     * Return:
 631:.\Generated_Source\PSoC4/LCD_Char.c ****     *  None.
 632:.\Generated_Source\PSoC4/LCD_Char.c ****     *
 633:.\Generated_Source\PSoC4/LCD_Char.c ****     * Note:
 634:.\Generated_Source\PSoC4/LCD_Char.c ****     *  This function is implemented as a macro.
 635:.\Generated_Source\PSoC4/LCD_Char.c ****     *
 636:.\Generated_Source\PSoC4/LCD_Char.c ****     *******************************************************************************/
 637:.\Generated_Source\PSoC4/LCD_Char.c **** 
 638:.\Generated_Source\PSoC4/LCD_Char.c ****     
 639:.\Generated_Source\PSoC4/LCD_Char.c ****     /*******************************************************************************
 640:.\Generated_Source\PSoC4/LCD_Char.c ****     *  Function Name: LCD_Char_PrintU32Number
 641:.\Generated_Source\PSoC4/LCD_Char.c ****     ********************************************************************************
 642:.\Generated_Source\PSoC4/LCD_Char.c ****     *
 643:.\Generated_Source\PSoC4/LCD_Char.c ****     * Summary:
 644:.\Generated_Source\PSoC4/LCD_Char.c ****     *  Print an uint32 value as a left-justified decimal value.
ARM GAS  C:\Users\Admin\AppData\Local\Temp\ccpOO5oe.s 			page 29


 645:.\Generated_Source\PSoC4/LCD_Char.c ****     *
 646:.\Generated_Source\PSoC4/LCD_Char.c ****     * Parameters:
 647:.\Generated_Source\PSoC4/LCD_Char.c ****     *  value: A 32-bit value to be printed in ASCII characters as a decimal number
 648:.\Generated_Source\PSoC4/LCD_Char.c ****     *
 649:.\Generated_Source\PSoC4/LCD_Char.c ****     * Return:
 650:.\Generated_Source\PSoC4/LCD_Char.c ****     *  None.
 651:.\Generated_Source\PSoC4/LCD_Char.c ****     *
 652:.\Generated_Source\PSoC4/LCD_Char.c ****     *******************************************************************************/
 653:.\Generated_Source\PSoC4/LCD_Char.c ****     void LCD_Char_PrintU32Number(uint32 value) 
 654:.\Generated_Source\PSoC4/LCD_Char.c ****     {
 829              		.loc 1 654 0
 830              		.cfi_startproc
 831              	.LVL87:
 832 0000 7FB5     		push	{r0, r1, r2, r3, r4, r5, r6, lr}
 833              		.cfi_def_cfa_offset 32
 834              		.cfi_offset 0, -32
 835              		.cfi_offset 1, -28
 836              		.cfi_offset 2, -24
 837              		.cfi_offset 3, -20
 838              		.cfi_offset 4, -16
 839              		.cfi_offset 5, -12
 840              		.cfi_offset 6, -8
 841              		.cfi_offset 14, -4
 655:.\Generated_Source\PSoC4/LCD_Char.c ****         uint8 tmpDigit;
 656:.\Generated_Source\PSoC4/LCD_Char.c ****         char8 number[LCD_Char_NUMBER_OF_REMAINDERS_U32 + 1u];
 657:.\Generated_Source\PSoC4/LCD_Char.c ****         uint8 digIndex = LCD_Char_NUMBER_OF_REMAINDERS_U32;
 658:.\Generated_Source\PSoC4/LCD_Char.c ****         
 659:.\Generated_Source\PSoC4/LCD_Char.c ****         /* This API will output a decimal number as a string and that string will be 
 660:.\Generated_Source\PSoC4/LCD_Char.c ****         * filled from end to start. Set Null termination character first.
 661:.\Generated_Source\PSoC4/LCD_Char.c ****         */
 662:.\Generated_Source\PSoC4/LCD_Char.c ****         number[digIndex] = (char8) '\0';
 842              		.loc 1 662 0
 843 0002 0023     		mov	r3, #0
 844 0004 01AE     		add	r6, sp, #4
 654:.\Generated_Source\PSoC4/LCD_Char.c ****     {
 845              		.loc 1 654 0
 846 0006 051C     		mov	r5, r0
 847              		.loc 1 662 0
 848 0008 B372     		strb	r3, [r6, #10]
 849              	.LVL88:
 663:.\Generated_Source\PSoC4/LCD_Char.c ****         digIndex--;
 850              		.loc 1 663 0
 851 000a 0924     		mov	r4, #9
 852              	.LVL89:
 853              	.L47:
 664:.\Generated_Source\PSoC4/LCD_Char.c ****         
 665:.\Generated_Source\PSoC4/LCD_Char.c ****         /* Load these in reverse order */
 666:.\Generated_Source\PSoC4/LCD_Char.c ****         while(value >= LCD_Char_TEN)
 667:.\Generated_Source\PSoC4/LCD_Char.c ****         {
 668:.\Generated_Source\PSoC4/LCD_Char.c ****             /* Extract decimal digit, indexed by 'digIndex', from 'value' and
 669:.\Generated_Source\PSoC4/LCD_Char.c ****             * convert it to ASCII character.
 670:.\Generated_Source\PSoC4/LCD_Char.c ****             */
 671:.\Generated_Source\PSoC4/LCD_Char.c ****             tmpDigit = (uint8) (((uint8) (value % LCD_Char_TEN)) + (uint8) LCD_Char_ZERO_CHAR_ASCII
 854              		.loc 1 671 0 discriminator 1
 855 000c 281C     		mov	r0, r5
 856 000e 0A21     		mov	r1, #10
 666:.\Generated_Source\PSoC4/LCD_Char.c ****         while(value >= LCD_Char_TEN)
ARM GAS  C:\Users\Admin\AppData\Local\Temp\ccpOO5oe.s 			page 30


 857              		.loc 1 666 0 discriminator 1
 858 0010 092D     		cmp	r5, #9
 859 0012 0BD9     		bls	.L49
 860              	.LVL90:
 861              		.loc 1 671 0
 862 0014 FFF7FEFF 		bl	__aeabi_uidivmod
 863              	.LVL91:
 864 0018 3031     		add	r1, r1, #48
 672:.\Generated_Source\PSoC4/LCD_Char.c ****             
 673:.\Generated_Source\PSoC4/LCD_Char.c ****             /* Temporary variable 'tmpDigit' is used to avoid Violation of MISRA rule 
 674:.\Generated_Source\PSoC4/LCD_Char.c ****             * #10.3.
 675:.\Generated_Source\PSoC4/LCD_Char.c ****             */
 676:.\Generated_Source\PSoC4/LCD_Char.c ****             number[digIndex] = (char8) tmpDigit;
 865              		.loc 1 676 0
 866 001a 3155     		strb	r1, [r6, r4]
 677:.\Generated_Source\PSoC4/LCD_Char.c ****             value /= LCD_Char_TEN;
 867              		.loc 1 677 0
 868 001c 281C     		mov	r0, r5
 869 001e 0A21     		mov	r1, #10
 870 0020 FFF7FEFF 		bl	__aeabi_uidiv
 871              	.LVL92:
 678:.\Generated_Source\PSoC4/LCD_Char.c ****             digIndex--;
 872              		.loc 1 678 0
 873 0024 013C     		sub	r4, r4, #1
 874              	.LVL93:
 677:.\Generated_Source\PSoC4/LCD_Char.c ****             value /= LCD_Char_TEN;
 875              		.loc 1 677 0
 876 0026 051C     		mov	r5, r0
 877              	.LVL94:
 878              		.loc 1 678 0
 879 0028 E4B2     		uxtb	r4, r4
 880              	.LVL95:
 881 002a EFE7     		b	.L47
 882              	.L49:
 679:.\Generated_Source\PSoC4/LCD_Char.c ****         }
 680:.\Generated_Source\PSoC4/LCD_Char.c ****         
 681:.\Generated_Source\PSoC4/LCD_Char.c ****         /* Extract last decimal digit 'digIndex', from the 'value' and convert it
 682:.\Generated_Source\PSoC4/LCD_Char.c ****         * to ASCII character.
 683:.\Generated_Source\PSoC4/LCD_Char.c ****         */
 684:.\Generated_Source\PSoC4/LCD_Char.c ****         tmpDigit = (uint8) (((uint8)(value % LCD_Char_TEN)) + (uint8) LCD_Char_ZERO_CHAR_ASCII);
 883              		.loc 1 684 0
 884 002c FFF7FEFF 		bl	__aeabi_uidivmod
 885              	.LVL96:
 685:.\Generated_Source\PSoC4/LCD_Char.c ****         number[digIndex] = (char8) tmpDigit;
 686:.\Generated_Source\PSoC4/LCD_Char.c **** 
 687:.\Generated_Source\PSoC4/LCD_Char.c ****         /* Print out number */
 688:.\Generated_Source\PSoC4/LCD_Char.c ****         LCD_Char_PrintString(&number[digIndex]);
 886              		.loc 1 688 0
 887 0030 3019     		add	r0, r6, r4
 684:.\Generated_Source\PSoC4/LCD_Char.c ****         tmpDigit = (uint8) (((uint8)(value % LCD_Char_TEN)) + (uint8) LCD_Char_ZERO_CHAR_ASCII);
 888              		.loc 1 684 0
 889 0032 3031     		add	r1, r1, #48
 685:.\Generated_Source\PSoC4/LCD_Char.c ****         number[digIndex] = (char8) tmpDigit;
 890              		.loc 1 685 0
 891 0034 3155     		strb	r1, [r6, r4]
 689:.\Generated_Source\PSoC4/LCD_Char.c ****     }
 892              		.loc 1 689 0
ARM GAS  C:\Users\Admin\AppData\Local\Temp\ccpOO5oe.s 			page 31


 893              		@ sp needed
 688:.\Generated_Source\PSoC4/LCD_Char.c ****         LCD_Char_PrintString(&number[digIndex]);
 894              		.loc 1 688 0
 895 0036 FFF7FEFF 		bl	LCD_Char_PrintString
 896              	.LVL97:
 897              	.LVL98:
 898              	.LVL99:
 899              		.loc 1 689 0
 900 003a 7FBD     		pop	{r0, r1, r2, r3, r4, r5, r6, pc}
 901              		.cfi_endproc
 902              	.LFE15:
 903              		.size	LCD_Char_PrintU32Number, .-LCD_Char_PrintU32Number
 904              		.global	LCD_Char_initVar
 905              		.global	LCD_Char_enableState
 906              		.section	.rodata
 907              		.set	.LANCHOR1,. + 0
 908              		.type	LCD_Char_hex.4754, %object
 909              		.size	LCD_Char_hex.4754, 16
 910              	LCD_Char_hex.4754:
 911 0000 30313233 		.ascii	"0123456789ABCDEF"
 911      34353637 
 911      38394142 
 911      43444546 
 912              		.bss
 913              		.set	.LANCHOR0,. + 0
 914              		.type	LCD_Char_enableState, %object
 915              		.size	LCD_Char_enableState, 1
 916              	LCD_Char_enableState:
 917 0000 00       		.space	1
 918              		.type	LCD_Char_initVar, %object
 919              		.size	LCD_Char_initVar, 1
 920              	LCD_Char_initVar:
 921 0001 00       		.space	1
 922              		.text
 923              	.Letext0:
 924              		.file 2 ".\\Generated_Source\\PSoC4\\cytypes.h"
 925              		.file 3 ".\\Generated_Source\\PSoC4\\CyLib.h"