ARM GAS  C:\Users\Admin\AppData\Local\Temp\ccLGjnmN.s 			page 1


   1              		.cpu cortex-m0
   2              		.fpu softvfp
   3              		.eabi_attribute 20, 1
   4              		.eabi_attribute 21, 1
   5              		.eabi_attribute 23, 3
   6              		.eabi_attribute 24, 1
   7              		.eabi_attribute 25, 1
   8              		.eabi_attribute 26, 1
   9              		.eabi_attribute 30, 4
  10              		.eabi_attribute 34, 0
  11              		.eabi_attribute 18, 4
  12              		.code	16
  13              		.file	"LCD_Char_BarGraph.c"
  14              		.text
  15              	.Ltext0:
  16              		.cfi_sections	.debug_frame
  17              		.section	.text.LCD_Char_LoadCustomFonts,"ax",%progbits
  18              		.align	1
  19              		.global	LCD_Char_LoadCustomFonts
  20              		.code	16
  21              		.thumb_func
  22              		.type	LCD_Char_LoadCustomFonts, %function
  23              	LCD_Char_LoadCustomFonts:
  24              	.LFB0:
  25              		.file 1 ".\\Generated_Source\\PSoC4\\LCD_Char_BarGraph.c"
   1:.\Generated_Source\PSoC4/LCD_Char_BarGraph.c **** /*******************************************************************************
   2:.\Generated_Source\PSoC4/LCD_Char_BarGraph.c **** * File Name: LCD_Char_BarGraph.c
   3:.\Generated_Source\PSoC4/LCD_Char_BarGraph.c **** * Version 2.0
   4:.\Generated_Source\PSoC4/LCD_Char_BarGraph.c **** *
   5:.\Generated_Source\PSoC4/LCD_Char_BarGraph.c **** * Description:
   6:.\Generated_Source\PSoC4/LCD_Char_BarGraph.c **** *  This file provides the custom character data and API for creating and using
   7:.\Generated_Source\PSoC4/LCD_Char_BarGraph.c **** *  bar graphs with the Character LCD component.
   8:.\Generated_Source\PSoC4/LCD_Char_BarGraph.c **** *
   9:.\Generated_Source\PSoC4/LCD_Char_BarGraph.c **** * Note:
  10:.\Generated_Source\PSoC4/LCD_Char_BarGraph.c **** *
  11:.\Generated_Source\PSoC4/LCD_Char_BarGraph.c **** ********************************************************************************
  12:.\Generated_Source\PSoC4/LCD_Char_BarGraph.c **** * Copyright 2008-2014, Cypress Semiconductor Corporation.  All rights reserved.
  13:.\Generated_Source\PSoC4/LCD_Char_BarGraph.c **** * You may use this file only in accordance with the license, terms, conditions,
  14:.\Generated_Source\PSoC4/LCD_Char_BarGraph.c **** * disclaimers, and limitations in the end user license agreement accompanying
  15:.\Generated_Source\PSoC4/LCD_Char_BarGraph.c **** * the software package with which this file was provided.
  16:.\Generated_Source\PSoC4/LCD_Char_BarGraph.c **** *******************************************************************************/
  17:.\Generated_Source\PSoC4/LCD_Char_BarGraph.c **** 
  18:.\Generated_Source\PSoC4/LCD_Char_BarGraph.c **** #include "LCD_Char.h"
  19:.\Generated_Source\PSoC4/LCD_Char_BarGraph.c **** 
  20:.\Generated_Source\PSoC4/LCD_Char_BarGraph.c **** 
  21:.\Generated_Source\PSoC4/LCD_Char_BarGraph.c **** uint8 const CYCODE LCD_Char_customFonts[] = \
  22:.\Generated_Source\PSoC4/LCD_Char_BarGraph.c **** {
  23:.\Generated_Source\PSoC4/LCD_Char_BarGraph.c ****     /* Character LCD_Char_CUSTOM_0   */
  24:.\Generated_Source\PSoC4/LCD_Char_BarGraph.c ****     0x00u,    0x00u,    0x00u,    0x00u,    0x00u,    0x00u,    0x00u,    0x00u, \
  25:.\Generated_Source\PSoC4/LCD_Char_BarGraph.c ****     /* Character LCD_Char_CUSTOM_1   */
  26:.\Generated_Source\PSoC4/LCD_Char_BarGraph.c ****     0x10u,    0x10u,    0x10u,    0x10u,    0x10u,    0x10u,    0x10u,    0x10u, \
  27:.\Generated_Source\PSoC4/LCD_Char_BarGraph.c ****     /* Character LCD_Char_CUSTOM_2   */
  28:.\Generated_Source\PSoC4/LCD_Char_BarGraph.c ****     0x18u,    0x18u,    0x18u,    0x18u,    0x18u,    0x18u,    0x18u,    0x18u, \
  29:.\Generated_Source\PSoC4/LCD_Char_BarGraph.c ****     /* Character LCD_Char_CUSTOM_3   */
  30:.\Generated_Source\PSoC4/LCD_Char_BarGraph.c ****     0x1Cu,    0x1Cu,    0x1Cu,    0x1Cu,    0x1Cu,    0x1Cu,    0x1Cu,    0x1Cu, \
  31:.\Generated_Source\PSoC4/LCD_Char_BarGraph.c ****     /* Character LCD_Char_CUSTOM_4   */
  32:.\Generated_Source\PSoC4/LCD_Char_BarGraph.c ****     0x1Eu,    0x1Eu,    0x1Eu,    0x1Eu,    0x1Eu,    0x1Eu,    0x1Eu,    0x1Eu, \
ARM GAS  C:\Users\Admin\AppData\Local\Temp\ccLGjnmN.s 			page 2


  33:.\Generated_Source\PSoC4/LCD_Char_BarGraph.c ****     /* Character LCD_Char_CUSTOM_5   */
  34:.\Generated_Source\PSoC4/LCD_Char_BarGraph.c ****     0x1Fu,    0x1Fu,    0x1Fu,    0x1Fu,    0x1Fu,    0x1Fu,    0x1Fu,    0x1Fu, \
  35:.\Generated_Source\PSoC4/LCD_Char_BarGraph.c ****     /* Character LCD_Char_CUSTOM_6   */
  36:.\Generated_Source\PSoC4/LCD_Char_BarGraph.c ****     0x00u,    0x00u,    0x00u,    0x00u,    0x00u,    0x00u,    0x00u,    0x00u, \
  37:.\Generated_Source\PSoC4/LCD_Char_BarGraph.c ****     /* Character LCD_Char_CUSTOM_7   */
  38:.\Generated_Source\PSoC4/LCD_Char_BarGraph.c ****     0x00u,    0x00u,    0x00u,    0x00u,    0x00u,    0x00u,    0x00u,    0x00u \
  39:.\Generated_Source\PSoC4/LCD_Char_BarGraph.c **** };
  40:.\Generated_Source\PSoC4/LCD_Char_BarGraph.c **** 
  41:.\Generated_Source\PSoC4/LCD_Char_BarGraph.c **** 
  42:.\Generated_Source\PSoC4/LCD_Char_BarGraph.c **** /*******************************************************************************
  43:.\Generated_Source\PSoC4/LCD_Char_BarGraph.c **** * Function Name: LCD_Char_LoadCustomFonts
  44:.\Generated_Source\PSoC4/LCD_Char_BarGraph.c **** ********************************************************************************
  45:.\Generated_Source\PSoC4/LCD_Char_BarGraph.c **** *
  46:.\Generated_Source\PSoC4/LCD_Char_BarGraph.c **** * Summary:
  47:.\Generated_Source\PSoC4/LCD_Char_BarGraph.c **** *  Loads 8 custom font characters into the LCD Module for use.  Cannot use
  48:.\Generated_Source\PSoC4/LCD_Char_BarGraph.c **** *  characters from two different font sets at once, but font sets can be
  49:.\Generated_Source\PSoC4/LCD_Char_BarGraph.c **** *  switched out during runtime.
  50:.\Generated_Source\PSoC4/LCD_Char_BarGraph.c **** *
  51:.\Generated_Source\PSoC4/LCD_Char_BarGraph.c **** * Parameters:
  52:.\Generated_Source\PSoC4/LCD_Char_BarGraph.c **** *  customData:  pointer to a constant array of 64 bytes representing 8 custom
  53:.\Generated_Source\PSoC4/LCD_Char_BarGraph.c **** *               font characters.
  54:.\Generated_Source\PSoC4/LCD_Char_BarGraph.c **** * Return:
  55:.\Generated_Source\PSoC4/LCD_Char_BarGraph.c **** *  None.
  56:.\Generated_Source\PSoC4/LCD_Char_BarGraph.c **** *
  57:.\Generated_Source\PSoC4/LCD_Char_BarGraph.c **** * Theory:
  58:.\Generated_Source\PSoC4/LCD_Char_BarGraph.c **** *  Prior to using this function user need to import the pointer to custom
  59:.\Generated_Source\PSoC4/LCD_Char_BarGraph.c **** *  font array to your project by writting the following in the source code file
  60:.\Generated_Source\PSoC4/LCD_Char_BarGraph.c **** *  where custom font will be used:
  61:.\Generated_Source\PSoC4/LCD_Char_BarGraph.c **** *       extern uint8 const CYCODE LCD_Char_customFonts[];
  62:.\Generated_Source\PSoC4/LCD_Char_BarGraph.c **** *  This function is not automatically called by the Start() routine and must be
  63:.\Generated_Source\PSoC4/LCD_Char_BarGraph.c **** *  called manually by the user.
  64:.\Generated_Source\PSoC4/LCD_Char_BarGraph.c **** *******************************************************************************/
  65:.\Generated_Source\PSoC4/LCD_Char_BarGraph.c **** void LCD_Char_LoadCustomFonts(uint8 const customData[]) 
  66:.\Generated_Source\PSoC4/LCD_Char_BarGraph.c **** {
  26              		.loc 1 66 0
  27              		.cfi_startproc
  28              	.LVL0:
  29 0000 38B5     		push	{r3, r4, r5, lr}
  30              		.cfi_def_cfa_offset 16
  31              		.cfi_offset 3, -16
  32              		.cfi_offset 4, -12
  33              		.cfi_offset 5, -8
  34              		.cfi_offset 14, -4
  35              		.loc 1 66 0
  36 0002 051C     		mov	r5, r0
  67:.\Generated_Source\PSoC4/LCD_Char_BarGraph.c ****     uint8 indexU8;
  68:.\Generated_Source\PSoC4/LCD_Char_BarGraph.c **** 
  69:.\Generated_Source\PSoC4/LCD_Char_BarGraph.c ****     LCD_Char_IsReady();
  37              		.loc 1 69 0
  38 0004 FFF7FEFF 		bl	LCD_Char_IsReady
  39              	.LVL1:
  70:.\Generated_Source\PSoC4/LCD_Char_BarGraph.c ****     /* Set starting address in the LCD Module */
  71:.\Generated_Source\PSoC4/LCD_Char_BarGraph.c ****     /* Optionally: Read the current address to restore at a later time */
  72:.\Generated_Source\PSoC4/LCD_Char_BarGraph.c ****     LCD_Char_WriteControl(LCD_Char_CGRAM_0);
  40              		.loc 1 72 0
  41 0008 4020     		mov	r0, #64
  42 000a FFF7FEFF 		bl	LCD_Char_WriteControl
ARM GAS  C:\Users\Admin\AppData\Local\Temp\ccLGjnmN.s 			page 3


  43              	.LVL2:
  44 000e 0024     		mov	r4, #0
  45              	.LVL3:
  46              	.L3:
  73:.\Generated_Source\PSoC4/LCD_Char_BarGraph.c **** 
  74:.\Generated_Source\PSoC4/LCD_Char_BarGraph.c ****     /* Load in the 64 bytes of CustomChar Data */
  75:.\Generated_Source\PSoC4/LCD_Char_BarGraph.c ****     for(indexU8 = 0u; indexU8 < LCD_Char_CUSTOM_CHAR_SET_LEN; indexU8++)
  76:.\Generated_Source\PSoC4/LCD_Char_BarGraph.c ****     {
  77:.\Generated_Source\PSoC4/LCD_Char_BarGraph.c ****         /* Delay between each write */
  78:.\Generated_Source\PSoC4/LCD_Char_BarGraph.c ****         LCD_Char_WriteData(customData[indexU8]);
  47              		.loc 1 78 0 discriminator 2
  48 0010 285D     		ldrb	r0, [r5, r4]
  49 0012 0134     		add	r4, r4, #1
  50              	.LVL4:
  51 0014 FFF7FEFF 		bl	LCD_Char_WriteData
  52              	.LVL5:
  75:.\Generated_Source\PSoC4/LCD_Char_BarGraph.c ****     for(indexU8 = 0u; indexU8 < LCD_Char_CUSTOM_CHAR_SET_LEN; indexU8++)
  53              		.loc 1 75 0 discriminator 2
  54 0018 402C     		cmp	r4, #64
  55 001a F9D1     		bne	.L3
  79:.\Generated_Source\PSoC4/LCD_Char_BarGraph.c ****     }
  80:.\Generated_Source\PSoC4/LCD_Char_BarGraph.c **** 
  81:.\Generated_Source\PSoC4/LCD_Char_BarGraph.c ****     LCD_Char_IsReady();
  56              		.loc 1 81 0
  57 001c FFF7FEFF 		bl	LCD_Char_IsReady
  58              	.LVL6:
  82:.\Generated_Source\PSoC4/LCD_Char_BarGraph.c ****     LCD_Char_WriteControl(LCD_Char_DDRAM_0);
  59              		.loc 1 82 0
  60 0020 8020     		mov	r0, #128
  61 0022 FFF7FEFF 		bl	LCD_Char_WriteControl
  62              	.LVL7:
  83:.\Generated_Source\PSoC4/LCD_Char_BarGraph.c **** }
  63              		.loc 1 83 0
  64              		@ sp needed
  65              	.LVL8:
  66 0026 38BD     		pop	{r3, r4, r5, pc}
  67              		.cfi_endproc
  68              	.LFE0:
  69              		.size	LCD_Char_LoadCustomFonts, .-LCD_Char_LoadCustomFonts
  70              		.global	__aeabi_uidiv
  71              		.global	__aeabi_uidivmod
  72              		.section	.text.LCD_Char_DrawHorizontalBG,"ax",%progbits
  73              		.align	1
  74              		.global	LCD_Char_DrawHorizontalBG
  75              		.code	16
  76              		.thumb_func
  77              		.type	LCD_Char_DrawHorizontalBG, %function
  78              	LCD_Char_DrawHorizontalBG:
  79              	.LFB1:
  84:.\Generated_Source\PSoC4/LCD_Char_BarGraph.c **** 
  85:.\Generated_Source\PSoC4/LCD_Char_BarGraph.c **** 
  86:.\Generated_Source\PSoC4/LCD_Char_BarGraph.c **** #if (LCD_Char_CUSTOM_CHAR_SET == LCD_Char_HORIZONTAL_BG)
  87:.\Generated_Source\PSoC4/LCD_Char_BarGraph.c **** 
  88:.\Generated_Source\PSoC4/LCD_Char_BarGraph.c ****     /*******************************************************************************
  89:.\Generated_Source\PSoC4/LCD_Char_BarGraph.c ****     * Function Name: LCD_Char_DrawHorizontalBG
  90:.\Generated_Source\PSoC4/LCD_Char_BarGraph.c ****     ********************************************************************************
  91:.\Generated_Source\PSoC4/LCD_Char_BarGraph.c ****     *
ARM GAS  C:\Users\Admin\AppData\Local\Temp\ccLGjnmN.s 			page 4


  92:.\Generated_Source\PSoC4/LCD_Char_BarGraph.c ****     * Summary:
  93:.\Generated_Source\PSoC4/LCD_Char_BarGraph.c ****     *  Draws the horizontal bargraph.
  94:.\Generated_Source\PSoC4/LCD_Char_BarGraph.c ****     *
  95:.\Generated_Source\PSoC4/LCD_Char_BarGraph.c ****     * Parameters:
  96:.\Generated_Source\PSoC4/LCD_Char_BarGraph.c ****     *  row:            The row in which the bar graph starts.
  97:.\Generated_Source\PSoC4/LCD_Char_BarGraph.c ****     *  column:         The column in which the bar graph starts.
  98:.\Generated_Source\PSoC4/LCD_Char_BarGraph.c ****     *  maxCharacters:  The max length of the graph in whole characters.
  99:.\Generated_Source\PSoC4/LCD_Char_BarGraph.c ****     *  value:          The current length or height of the graph in pixels.
 100:.\Generated_Source\PSoC4/LCD_Char_BarGraph.c ****     *
 101:.\Generated_Source\PSoC4/LCD_Char_BarGraph.c ****     * Return:
 102:.\Generated_Source\PSoC4/LCD_Char_BarGraph.c ****     *  void.
 103:.\Generated_Source\PSoC4/LCD_Char_BarGraph.c ****     *
 104:.\Generated_Source\PSoC4/LCD_Char_BarGraph.c ****     *******************************************************************************/
 105:.\Generated_Source\PSoC4/LCD_Char_BarGraph.c ****     void LCD_Char_DrawHorizontalBG(uint8 row, uint8 column, uint8 maxCharacters, uint8 value) \
 106:.\Generated_Source\PSoC4/LCD_Char_BarGraph.c ****                                                             
 107:.\Generated_Source\PSoC4/LCD_Char_BarGraph.c ****     {
  80              		.loc 1 107 0
  81              		.cfi_startproc
  82              	.LVL9:
  83 0000 F7B5     		push	{r0, r1, r2, r4, r5, r6, r7, lr}
  84              		.cfi_def_cfa_offset 32
  85              		.cfi_offset 0, -32
  86              		.cfi_offset 1, -28
  87              		.cfi_offset 2, -24
  88              		.cfi_offset 4, -20
  89              		.cfi_offset 5, -16
  90              		.cfi_offset 6, -12
  91              		.cfi_offset 7, -8
  92              		.cfi_offset 14, -4
  93              		.loc 1 107 0
  94 0002 071C     		mov	r7, r0
  95 0004 0191     		str	r1, [sp, #4]
 108:.\Generated_Source\PSoC4/LCD_Char_BarGraph.c ****         /* 8-bit Counter */
 109:.\Generated_Source\PSoC4/LCD_Char_BarGraph.c ****         uint8 count8;
 110:.\Generated_Source\PSoC4/LCD_Char_BarGraph.c ****         uint8 fullChars;
 111:.\Generated_Source\PSoC4/LCD_Char_BarGraph.c ****         uint8 remainingPixels;
 112:.\Generated_Source\PSoC4/LCD_Char_BarGraph.c **** 
 113:.\Generated_Source\PSoC4/LCD_Char_BarGraph.c ****         /* Number of full characters to draw */
 114:.\Generated_Source\PSoC4/LCD_Char_BarGraph.c ****         fullChars = value / LCD_Char_CHARACTER_WIDTH;
  96              		.loc 1 114 0
  97 0006 181C     		mov	r0, r3
  98              	.LVL10:
  99 0008 0521     		mov	r1, #5
 100              	.LVL11:
 107:.\Generated_Source\PSoC4/LCD_Char_BarGraph.c ****     {
 101              		.loc 1 107 0
 102 000a 141C     		mov	r4, r2
 103 000c 1E1C     		mov	r6, r3
 104              		.loc 1 114 0
 105 000e FFF7FEFF 		bl	__aeabi_uidiv
 106              	.LVL12:
 107 0012 C0B2     		uxtb	r0, r0
 108              	.LVL13:
 109 0014 051C     		add	r5, r0, #0
 110 0016 A042     		cmp	r0, r4
 111 0018 00D9     		bls	.L6
 112 001a 251C     		add	r5, r4, #0
ARM GAS  C:\Users\Admin\AppData\Local\Temp\ccLGjnmN.s 			page 5


 113              	.L6:
 115:.\Generated_Source\PSoC4/LCD_Char_BarGraph.c **** 
 116:.\Generated_Source\PSoC4/LCD_Char_BarGraph.c ****         /* Number of remaining pixels to draw */
 117:.\Generated_Source\PSoC4/LCD_Char_BarGraph.c ****         remainingPixels = value % LCD_Char_CHARACTER_WIDTH;
 118:.\Generated_Source\PSoC4/LCD_Char_BarGraph.c **** 
 119:.\Generated_Source\PSoC4/LCD_Char_BarGraph.c ****         /* Ensure that the maximum character limit is followed. */
 120:.\Generated_Source\PSoC4/LCD_Char_BarGraph.c ****         if(fullChars >= maxCharacters)
 121:.\Generated_Source\PSoC4/LCD_Char_BarGraph.c ****         {
 122:.\Generated_Source\PSoC4/LCD_Char_BarGraph.c ****             fullChars = maxCharacters;
 123:.\Generated_Source\PSoC4/LCD_Char_BarGraph.c ****         }
 124:.\Generated_Source\PSoC4/LCD_Char_BarGraph.c **** 
 125:.\Generated_Source\PSoC4/LCD_Char_BarGraph.c ****         /* Put Cursor at start position */
 126:.\Generated_Source\PSoC4/LCD_Char_BarGraph.c ****         LCD_Char_Position(row, column);
 114              		.loc 1 126 0
 115 001c 381C     		mov	r0, r7
 116              	.LVL14:
 117 001e 0199     		ldr	r1, [sp, #4]
 118 0020 FFF7FEFF 		bl	LCD_Char_Position
 119              	.LVL15:
 120 0024 EDB2     		uxtb	r5, r5
 121              	.LVL16:
 127:.\Generated_Source\PSoC4/LCD_Char_BarGraph.c **** 
 128:.\Generated_Source\PSoC4/LCD_Char_BarGraph.c ****         /* Write full characters */
 129:.\Generated_Source\PSoC4/LCD_Char_BarGraph.c ****         for(count8 = 0u; count8 < fullChars; count8++)
 122              		.loc 1 129 0
 123 0026 0027     		mov	r7, #0
 124              	.LVL17:
 125              	.L7:
 126              		.loc 1 129 0 is_stmt 0 discriminator 1
 127 0028 AF42     		cmp	r7, r5
 128 002a 05D0     		beq	.L13
 130:.\Generated_Source\PSoC4/LCD_Char_BarGraph.c ****         {
 131:.\Generated_Source\PSoC4/LCD_Char_BarGraph.c ****             LCD_Char_WriteData(LCD_Char_CUSTOM_5);
 129              		.loc 1 131 0 is_stmt 1 discriminator 2
 130 002c 0520     		mov	r0, #5
 129:.\Generated_Source\PSoC4/LCD_Char_BarGraph.c ****         for(count8 = 0u; count8 < fullChars; count8++)
 131              		.loc 1 129 0 discriminator 2
 132 002e 0137     		add	r7, r7, #1
 133              	.LVL18:
 134              		.loc 1 131 0 discriminator 2
 135 0030 FFF7FEFF 		bl	LCD_Char_WriteData
 136              	.LVL19:
 129:.\Generated_Source\PSoC4/LCD_Char_BarGraph.c ****         for(count8 = 0u; count8 < fullChars; count8++)
 137              		.loc 1 129 0 discriminator 2
 138 0034 FFB2     		uxtb	r7, r7
 139              	.LVL20:
 140 0036 F7E7     		b	.L7
 141              	.L13:
 132:.\Generated_Source\PSoC4/LCD_Char_BarGraph.c ****         }
 133:.\Generated_Source\PSoC4/LCD_Char_BarGraph.c **** 
 134:.\Generated_Source\PSoC4/LCD_Char_BarGraph.c ****         if(fullChars < maxCharacters)
 142              		.loc 1 134 0
 143 0038 A542     		cmp	r5, r4
 144 003a 14D2     		bcs	.L5
 117:.\Generated_Source\PSoC4/LCD_Char_BarGraph.c ****         remainingPixels = value % LCD_Char_CHARACTER_WIDTH;
 145              		.loc 1 117 0
 146 003c 301C     		mov	r0, r6
ARM GAS  C:\Users\Admin\AppData\Local\Temp\ccLGjnmN.s 			page 6


 147 003e 0521     		mov	r1, #5
 148 0040 FFF7FEFF 		bl	__aeabi_uidivmod
 149              	.LVL21:
 135:.\Generated_Source\PSoC4/LCD_Char_BarGraph.c ****         {
 136:.\Generated_Source\PSoC4/LCD_Char_BarGraph.c ****             /* Write remaining pixels */
 137:.\Generated_Source\PSoC4/LCD_Char_BarGraph.c ****             LCD_Char_WriteData(remainingPixels);
 150              		.loc 1 137 0
 151 0044 C8B2     		uxtb	r0, r1
 152 0046 FFF7FEFF 		bl	LCD_Char_WriteData
 153              	.LVL22:
 138:.\Generated_Source\PSoC4/LCD_Char_BarGraph.c **** 
 139:.\Generated_Source\PSoC4/LCD_Char_BarGraph.c ****             if(fullChars < (maxCharacters - 1u))
 154              		.loc 1 139 0
 155 004a 631E     		sub	r3, r4, #1
 156 004c 0026     		mov	r6, #0
 157              	.LVL23:
 158 004e 9D42     		cmp	r5, r3
 159 0050 09D2     		bcs	.L5
 160              	.LVL24:
 161              	.L11:
 140:.\Generated_Source\PSoC4/LCD_Char_BarGraph.c ****             {
 141:.\Generated_Source\PSoC4/LCD_Char_BarGraph.c ****                 /* Fill with whitespace to end of bar graph */
 142:.\Generated_Source\PSoC4/LCD_Char_BarGraph.c ****                 for(count8 = 0u; count8 < (maxCharacters - fullChars - 1u); count8++)
 162              		.loc 1 142 0 discriminator 1
 163 0052 631B     		sub	r3, r4, r5
 164 0054 013B     		sub	r3, r3, #1
 165 0056 9E42     		cmp	r6, r3
 166 0058 05D2     		bcs	.L5
 143:.\Generated_Source\PSoC4/LCD_Char_BarGraph.c ****                 {
 144:.\Generated_Source\PSoC4/LCD_Char_BarGraph.c ****                     LCD_Char_WriteData(LCD_Char_CUSTOM_0);
 167              		.loc 1 144 0 discriminator 2
 168 005a 0020     		mov	r0, #0
 142:.\Generated_Source\PSoC4/LCD_Char_BarGraph.c ****                 for(count8 = 0u; count8 < (maxCharacters - fullChars - 1u); count8++)
 169              		.loc 1 142 0 discriminator 2
 170 005c 0136     		add	r6, r6, #1
 171              	.LVL25:
 172              		.loc 1 144 0 discriminator 2
 173 005e FFF7FEFF 		bl	LCD_Char_WriteData
 174              	.LVL26:
 142:.\Generated_Source\PSoC4/LCD_Char_BarGraph.c ****                 for(count8 = 0u; count8 < (maxCharacters - fullChars - 1u); count8++)
 175              		.loc 1 142 0 discriminator 2
 176 0062 F6B2     		uxtb	r6, r6
 177              	.LVL27:
 178 0064 F5E7     		b	.L11
 179              	.LVL28:
 180              	.L5:
 145:.\Generated_Source\PSoC4/LCD_Char_BarGraph.c ****                 }
 146:.\Generated_Source\PSoC4/LCD_Char_BarGraph.c ****             }
 147:.\Generated_Source\PSoC4/LCD_Char_BarGraph.c ****         }
 148:.\Generated_Source\PSoC4/LCD_Char_BarGraph.c ****     }
 181              		.loc 1 148 0
 182              		@ sp needed
 183 0066 F7BD     		pop	{r0, r1, r2, r4, r5, r6, r7, pc}
 184              		.cfi_endproc
 185              	.LFE1:
 186              		.size	LCD_Char_DrawHorizontalBG, .-LCD_Char_DrawHorizontalBG
 187              		.global	LCD_Char_customFonts
ARM GAS  C:\Users\Admin\AppData\Local\Temp\ccLGjnmN.s 			page 7


 188              		.section	.rodata
 189              		.type	LCD_Char_customFonts, %object
 190              		.size	LCD_Char_customFonts, 64
 191              	LCD_Char_customFonts:
 192 0000 00       		.byte	0
 193 0001 00       		.byte	0
 194 0002 00       		.byte	0
 195 0003 00       		.byte	0
 196 0004 00       		.byte	0
 197 0005 00       		.byte	0
 198 0006 00       		.byte	0
 199 0007 00       		.byte	0
 200 0008 10       		.byte	16
 201 0009 10       		.byte	16
 202 000a 10       		.byte	16
 203 000b 10       		.byte	16
 204 000c 10       		.byte	16
 205 000d 10       		.byte	16
 206 000e 10       		.byte	16
 207 000f 10       		.byte	16
 208 0010 18       		.byte	24
 209 0011 18       		.byte	24
 210 0012 18       		.byte	24
 211 0013 18       		.byte	24
 212 0014 18       		.byte	24
 213 0015 18       		.byte	24
 214 0016 18       		.byte	24
 215 0017 18       		.byte	24
 216 0018 1C       		.byte	28
 217 0019 1C       		.byte	28
 218 001a 1C       		.byte	28
 219 001b 1C       		.byte	28
 220 001c 1C       		.byte	28
 221 001d 1C       		.byte	28
 222 001e 1C       		.byte	28
 223 001f 1C       		.byte	28
 224 0020 1E       		.byte	30
 225 0021 1E       		.byte	30
 226 0022 1E       		.byte	30
 227 0023 1E       		.byte	30
 228 0024 1E       		.byte	30
 229 0025 1E       		.byte	30
 230 0026 1E       		.byte	30
 231 0027 1E       		.byte	30
 232 0028 1F       		.byte	31
 233 0029 1F       		.byte	31
 234 002a 1F       		.byte	31
 235 002b 1F       		.byte	31
 236 002c 1F       		.byte	31
 237 002d 1F       		.byte	31
 238 002e 1F       		.byte	31
 239 002f 1F       		.byte	31
 240 0030 00       		.byte	0
 241 0031 00       		.byte	0
 242 0032 00       		.byte	0
 243 0033 00       		.byte	0
 244 0034 00       		.byte	0
ARM GAS  C:\Users\Admin\AppData\Local\Temp\ccLGjnmN.s 			page 8


 245 0035 00       		.byte	0
 246 0036 00       		.byte	0
 247 0037 00       		.byte	0
 248 0038 00       		.byte	0
 249 0039 00       		.byte	0
 250 003a 00       		.byte	0
 251 003b 00       		.byte	0
 252 003c 00       		.byte	0
 253 003d 00       		.byte	0
 254 003e 00       		.byte	0
 255 003f 00       		.byte	0
 256              		.text
 257              	.Letext0:
 258              		.file 2 ".\\Generated_Source\\PSoC4\\LCD_Char.h"
 259              		.file 3 ".\\Generated_Source\\PSoC4\\cytypes.h"