ARM GAS  C:\Users\Admin\AppData\Local\Temp\cc3U9vtI.s 			page 1


   1              		.cpu cortex-m0
   2              		.fpu softvfp
   3              		.eabi_attribute 20, 1
   4              		.eabi_attribute 21, 1
   5              		.eabi_attribute 23, 3
   6              		.eabi_attribute 24, 1
   7              		.eabi_attribute 25, 1
   8              		.eabi_attribute 26, 1
   9              		.eabi_attribute 30, 4
  10              		.eabi_attribute 34, 0
  11              		.eabi_attribute 18, 4
  12              		.code	16
  13              		.file	"main.c"
  14              		.text
  15              	.Ltext0:
  16              		.cfi_sections	.debug_frame
  17              		.section	.text.IR_Handler,"ax",%progbits
  18              		.align	1
  19              		.global	IR_Handler
  20              		.code	16
  21              		.thumb_func
  22              		.type	IR_Handler, %function
  23              	IR_Handler:
  24              	.LFB33:
  25              		.file 1 ".\\main.c"
   1:.\main.c      **** /* ========================================
   2:.\main.c      ****  *
   3:.\main.c      ****  * Copyright Nullify, 2016
   4:.\main.c      ****  * All Rights Reserved
   5:.\main.c      ****  * UNPUBLISHED, LICENSED SOFTWARE.
   6:.\main.c      ****  *
   7:.\main.c      ****  * CONFIDENTIAL AND PROPRIETARY INFORMATION
   8:.\main.c      ****  * WHICH IS THE PROPERTY OF NULLIY.
   9:.\main.c      ****  *
  10:.\main.c      ****  * ========================================
  11:.\main.c      **** */
  12:.\main.c      **** #include <project.h>
  13:.\main.c      **** #include <stdio.h>
  14:.\main.c      **** #include <time.h>
  15:.\main.c      **** #include <stdlib.h>
  16:.\main.c      **** volatile uint8 show_flag = 0;
  17:.\main.c      **** static uint32 last_quote_num;
  18:.\main.c      **** 
  19:.\main.c      **** /* Signal handler for left toggle press */
  20:.\main.c      **** CY_ISR( IR_Handler ) {
  26              		.loc 1 20 0
  27              		.cfi_startproc
  28 0000 08B5     		push	{r3, lr}
  29              		.cfi_def_cfa_offset 8
  30              		.cfi_offset 3, -8
  31              		.cfi_offset 14, -4
  21:.\main.c      ****     LED_Write(1); 
  32              		.loc 1 21 0
  33 0002 0120     		mov	r0, #1
  34 0004 FFF7FEFF 		bl	LED_Write
  35              	.LVL0:
  22:.\main.c      ****     show_flag = 1;
ARM GAS  C:\Users\Admin\AppData\Local\Temp\cc3U9vtI.s 			page 2


  36              		.loc 1 22 0
  37 0008 024B     		ldr	r3, .L2
  38 000a 0122     		mov	r2, #1
  39 000c 1A70     		strb	r2, [r3]
  23:.\main.c      ****     IR_REC_ClearInterrupt();
  24:.\main.c      **** }
  40              		.loc 1 24 0
  41              		@ sp needed
  23:.\main.c      ****     IR_REC_ClearInterrupt();
  42              		.loc 1 23 0
  43 000e FFF7FEFF 		bl	IR_REC_ClearInterrupt
  44              	.LVL1:
  45              		.loc 1 24 0
  46 0012 08BD     		pop	{r3, pc}
  47              	.L3:
  48              		.align	2
  49              	.L2:
  50 0014 00000000 		.word	.LANCHOR0
  51              		.cfi_endproc
  52              	.LFE33:
  53              		.size	IR_Handler, .-IR_Handler
  54              		.section	.text.PWM_Handler,"ax",%progbits
  55              		.align	1
  56              		.global	PWM_Handler
  57              		.code	16
  58              		.thumb_func
  59              		.type	PWM_Handler, %function
  60              	PWM_Handler:
  61              	.LFB34:
  25:.\main.c      **** 
  26:.\main.c      **** 
  27:.\main.c      **** /* Signal handler for organizer lights */
  28:.\main.c      **** CY_ISR( PWM_Handler ) {
  62              		.loc 1 28 0
  63              		.cfi_startproc
  64 0000 08B5     		push	{r3, lr}
  65              		.cfi_def_cfa_offset 8
  66              		.cfi_offset 3, -8
  67              		.cfi_offset 14, -4
  29:.\main.c      ****     PWM_Int_ClearPending();
  68              		.loc 1 29 0
  69 0002 FFF7FEFF 		bl	PWM_Int_ClearPending
  70              	.LVL2:
  30:.\main.c      ****     PWM_Timer_ReadStatusRegister();
  31:.\main.c      **** }
  71              		.loc 1 31 0
  72              		@ sp needed
  30:.\main.c      ****     PWM_Timer_ReadStatusRegister();
  73              		.loc 1 30 0
  74 0006 FFF7FEFF 		bl	PWM_Timer_ReadStatusRegister
  75              	.LVL3:
  76              		.loc 1 31 0
  77 000a 08BD     		pop	{r3, pc}
  78              		.cfi_endproc
  79              	.LFE34:
  80              		.size	PWM_Handler, .-PWM_Handler
  81              		.global	__aeabi_idivmod
ARM GAS  C:\Users\Admin\AppData\Local\Temp\cc3U9vtI.s 			page 3


  82              		.section	.text.get_mario_quote,"ax",%progbits
  83              		.align	1
  84              		.global	get_mario_quote
  85              		.code	16
  86              		.thumb_func
  87              		.type	get_mario_quote, %function
  88              	get_mario_quote:
  89              	.LFB35:
  32:.\main.c      **** 
  33:.\main.c      **** char* get_mario_quote(){
  90              		.loc 1 33 0
  91              		.cfi_startproc
  92 0000 08B5     		push	{r3, lr}
  93              		.cfi_def_cfa_offset 8
  94              		.cfi_offset 3, -8
  95              		.cfi_offset 14, -4
  96              	.L7:
  34:.\main.c      ****     uint32 quote_num = (rand() % 11) + 1;
  35:.\main.c      ****     
  36:.\main.c      ****     while (quote_num == last_quote_num){
  37:.\main.c      ****         quote_num = (rand() % 11) + 1;
  97              		.loc 1 37 0
  98 0002 FFF7FEFF 		bl	rand
  99              	.LVL4:
 100 0006 0B21     		mov	r1, #11
 101 0008 FFF7FEFF 		bl	__aeabi_idivmod
 102              	.LVL5:
 103 000c 0131     		add	r1, r1, #1
 104              	.LVL6:
  36:.\main.c      ****     while (quote_num == last_quote_num){
 105              		.loc 1 36 0
 106 000e 0029     		cmp	r1, #0
 107 0010 F7D0     		beq	.L7
 108 0012 0139     		sub	r1, r1, #1
 109              	.LVL7:
 110 0014 0929     		cmp	r1, #9
 111 0016 03D8     		bhi	.L9
 112 0018 024B     		ldr	r3, .L11
 113 001a 8900     		lsl	r1, r1, #2
 114              	.LVL8:
 115 001c C858     		ldr	r0, [r1, r3]
 116 001e 00E0     		b	.L8
 117              	.LVL9:
 118              	.L9:
 119 0020 0148     		ldr	r0, .L11+4
 120              	.LVL10:
 121              	.L8:
  38:.\main.c      ****     }
  39:.\main.c      ****     
  40:.\main.c      ****     switch(quote_num){
  41:.\main.c      ****         case 1:
  42:.\main.c      ****             return "Let's-a go!";
  43:.\main.c      ****         break;
  44:.\main.c      ****         case 2:
  45:.\main.c      ****             return "Okey dokey!";
  46:.\main.c      ****         break;
  47:.\main.c      ****         case 3:
ARM GAS  C:\Users\Admin\AppData\Local\Temp\cc3U9vtI.s 			page 4


  48:.\main.c      ****             return "Here we go!";
  49:.\main.c      ****         break;
  50:.\main.c      ****         case 4:
  51:.\main.c      ****             return "It's-a me, Mario!";
  52:.\main.c      ****         break;
  53:.\main.c      ****         case 5:
  54:.\main.c      ****             return "So long-a Bowser!";
  55:.\main.c      ****         break;
  56:.\main.c      ****         case 6:
  57:.\main.c      ****             return "Nighty-nighty...";
  58:.\main.c      ****         break;
  59:.\main.c      ****         case 7:
  60:.\main.c      ****             return "Ah spaghetti...";
  61:.\main.c      ****         break;
  62:.\main.c      ****         case 8:
  63:.\main.c      ****             return "Ah ravioli...";
  64:.\main.c      ****         break;
  65:.\main.c      ****         case 9:
  66:.\main.c      ****             return "Press start to play!";
  67:.\main.c      ****         break;
  68:.\main.c      ****         case 10:
  69:.\main.c      ****             return "Mama mia!";
  70:.\main.c      ****         break;
  71:.\main.c      ****     }
  72:.\main.c      ****     return "Oh Nooooo!";
  73:.\main.c      **** }
 122              		.loc 1 73 0
 123              		@ sp needed
 124 0022 08BD     		pop	{r3, pc}
 125              	.L12:
 126              		.align	2
 127              	.L11:
 128 0024 00000000 		.word	.LANCHOR1
 129 0028 00000000 		.word	.LC1
 130              		.cfi_endproc
 131              	.LFE35:
 132              		.size	get_mario_quote, .-get_mario_quote
 133              		.section	.text.startup.main,"ax",%progbits
 134              		.align	1
 135              		.global	main
 136              		.code	16
 137              		.thumb_func
 138              		.type	main, %function
 139              	main:
 140              	.LFB36:
  74:.\main.c      **** 
  75:.\main.c      **** int main()
  76:.\main.c      **** {
 141              		.loc 1 76 0
 142              		.cfi_startproc
 143 0000 70B5     		push	{r4, r5, r6, lr}
 144              		.cfi_def_cfa_offset 16
 145              		.cfi_offset 4, -16
 146              		.cfi_offset 5, -12
 147              		.cfi_offset 6, -8
 148              		.cfi_offset 14, -4
  77:.\main.c      ****     /* Place your initialization/startup code here (e.g. MyInst_Start()) */
ARM GAS  C:\Users\Admin\AppData\Local\Temp\cc3U9vtI.s 			page 5


  78:.\main.c      ****     CyGlobalIntEnable;
 149              		.loc 1 78 0
 150              	@ 78 ".\main.c" 1
 151 0002 62B6     		CPSIE   i
 152              	@ 0 "" 2
  79:.\main.c      **** 
  80:.\main.c      ****     /* Setup IR Interupt Handlers */
  81:.\main.c      ****     IR_Int_StartEx( IR_Handler );
 153              		.loc 1 81 0
 154              		.code	16
 155 0004 3948     		ldr	r0, .L17
 156 0006 FFF7FEFF 		bl	IR_Int_StartEx
 157              	.LVL11:
  82:.\main.c      ****     PWM_Int_StartEx( PWM_Handler );
 158              		.loc 1 82 0
 159 000a 3948     		ldr	r0, .L17+4
 160 000c FFF7FEFF 		bl	PWM_Int_StartEx
 161              	.LVL12:
  83:.\main.c      **** 
  84:.\main.c      ****     /* Supply 5 Vdd to LCD display from MCU and power up Back Light*/
  85:.\main.c      ****     Power_Up_LCD_Pin_1_Write(1);
 162              		.loc 1 85 0
 163 0010 0120     		mov	r0, #1
 164 0012 FFF7FEFF 		bl	Power_Up_LCD_Pin_1_Write
 165              	.LVL13:
  86:.\main.c      ****     Back_Light_On_N_Write(0);
 166              		.loc 1 86 0
 167 0016 0020     		mov	r0, #0
 168 0018 FFF7FEFF 		bl	Back_Light_On_N_Write
 169              	.LVL14:
  87:.\main.c      ****     Back_Light_On_P_Write(1);
 170              		.loc 1 87 0
 171 001c 0120     		mov	r0, #1
 172 001e FFF7FEFF 		bl	Back_Light_On_P_Write
 173              	.LVL15:
  88:.\main.c      **** 
  89:.\main.c      ****     /* Start LCD display */    
  90:.\main.c      ****     LCD_Char_Start();
 174              		.loc 1 90 0
 175 0022 FFF7FEFF 		bl	LCD_Char_Start
 176              	.LVL16:
  91:.\main.c      ****     LCD_Char_DisplayOn();
 177              		.loc 1 91 0
 178 0026 0C20     		mov	r0, #12
 179 0028 FFF7FEFF 		bl	LCD_Char_WriteControl
 180              	.LVL17:
  92:.\main.c      ****     
  93:.\main.c      ****     /* Seed random */
  94:.\main.c      ****     srand(time(NULL));
 181              		.loc 1 94 0
 182 002c 0020     		mov	r0, #0
 183 002e FFF7FEFF 		bl	time
 184              	.LVL18:
 185 0032 FFF7FEFF 		bl	srand
 186              	.LVL19:
  95:.\main.c      ****     
  96:.\main.c      ****     /* Star the timer to change the quotes */
ARM GAS  C:\Users\Admin\AppData\Local\Temp\cc3U9vtI.s 			page 6


  97:.\main.c      ****     PWM_Timer_Start();
 187              		.loc 1 97 0
 188 0036 FFF7FEFF 		bl	PWM_Timer_Start
 189              	.LVL20:
 190              	.L14:
  98:.\main.c      ****     
  99:.\main.c      ****     /* CyGlobalIntEnable; */ /* Uncomment this line to enable global interrupts. */
 100:.\main.c      ****     for(;;)
 101:.\main.c      ****     {
 102:.\main.c      ****         if (!show_flag) {
 191              		.loc 1 102 0
 192 003a 2E4D     		ldr	r5, .L17+8
 193 003c 2E4E     		ldr	r6, .L17+12
 194 003e 2C78     		ldrb	r4, [r5]
 195 0040 E4B2     		uxtb	r4, r4
 196 0042 002C     		cmp	r4, #0
 197 0044 29D1     		bne	.L15
 103:.\main.c      ****           // Make sure on board led is off
 104:.\main.c      ****           LED_Write(0); 
 198              		.loc 1 104 0
 199 0046 201C     		mov	r0, r4
 200 0048 FFF7FEFF 		bl	LED_Write
 201              	.LVL21:
 105:.\main.c      ****           LCD_Char_Position(0,0);
 202              		.loc 1 105 0
 203 004c 211C     		mov	r1, r4
 204 004e 201C     		mov	r0, r4
 205 0050 FFF7FEFF 		bl	LCD_Char_Position
 206              	.LVL22:
 106:.\main.c      ****           LCD_Char_PrintString("Bowser Says:");
 207              		.loc 1 106 0
 208 0054 301C     		mov	r0, r6
 209 0056 FFF7FEFF 		bl	LCD_Char_PrintString
 210              	.LVL23:
 107:.\main.c      ****           LCD_Char_Position(1,0);
 211              		.loc 1 107 0
 212 005a 211C     		mov	r1, r4
 213 005c 0120     		mov	r0, #1
 214 005e FFF7FEFF 		bl	LCD_Char_Position
 215              	.LVL24:
 108:.\main.c      ****           LCD_Char_PrintString("IR Required For Flag"); 
 216              		.loc 1 108 0
 217 0062 2648     		ldr	r0, .L17+16
 218 0064 FFF7FEFF 		bl	LCD_Char_PrintString
 219              	.LVL25:
 109:.\main.c      ****           LCD_Char_Position(2,0);
 220              		.loc 1 109 0
 221 0068 211C     		mov	r1, r4
 222 006a 0220     		mov	r0, #2
 223 006c FFF7FEFF 		bl	LCD_Char_Position
 224              	.LVL26:
 110:.\main.c      ****           LCD_Char_PrintString("Mario Says:");  
 225              		.loc 1 110 0
 226 0070 2348     		ldr	r0, .L17+20
 227 0072 FFF7FEFF 		bl	LCD_Char_PrintString
 228              	.LVL27:
 111:.\main.c      ****           LCD_Char_Position(3,0);
ARM GAS  C:\Users\Admin\AppData\Local\Temp\cc3U9vtI.s 			page 7


 229              		.loc 1 111 0
 230 0076 211C     		mov	r1, r4
 231 0078 0320     		mov	r0, #3
 232 007a FFF7FEFF 		bl	LCD_Char_Position
 233              	.LVL28:
 112:.\main.c      ****           LCD_Char_PrintString("                    ");
 234              		.loc 1 112 0
 235 007e 2148     		ldr	r0, .L17+24
 236 0080 FFF7FEFF 		bl	LCD_Char_PrintString
 237              	.LVL29:
 113:.\main.c      ****           LCD_Char_Position(3,0);
 238              		.loc 1 113 0
 239 0084 211C     		mov	r1, r4
 240 0086 0320     		mov	r0, #3
 241 0088 FFF7FEFF 		bl	LCD_Char_Position
 242              	.LVL30:
 114:.\main.c      ****           LCD_Char_PrintString(get_mario_quote());  
 243              		.loc 1 114 0
 244 008c FFF7FEFF 		bl	get_mario_quote
 245              	.LVL31:
 246 0090 FFF7FEFF 		bl	LCD_Char_PrintString
 247              	.LVL32:
 115:.\main.c      ****           CySysPmSleep();
 248              		.loc 1 115 0
 249 0094 FFF7FEFF 		bl	CySysPmSleep
 250              	.LVL33:
 251 0098 CFE7     		b	.L14
 252              	.L15:
 116:.\main.c      ****         } else {
 117:.\main.c      ****           LCD_Char_ClearDisplay();
 253              		.loc 1 117 0
 254 009a 0120     		mov	r0, #1
 255 009c FFF7FEFF 		bl	LCD_Char_WriteControl
 256              	.LVL34:
 118:.\main.c      ****           LCD_Char_Position(0,0);
 257              		.loc 1 118 0
 258 00a0 0020     		mov	r0, #0
 259 00a2 011C     		mov	r1, r0
 260 00a4 FFF7FEFF 		bl	LCD_Char_Position
 261              	.LVL35:
 119:.\main.c      ****           LCD_Char_PrintString("Bowser Says:");
 262              		.loc 1 119 0
 263 00a8 301C     		mov	r0, r6
 264 00aa FFF7FEFF 		bl	LCD_Char_PrintString
 265              	.LVL36:
 120:.\main.c      ****           LCD_Char_Position(1,0);
 266              		.loc 1 120 0
 267 00ae 0021     		mov	r1, #0
 268 00b0 0120     		mov	r0, #1
 269 00b2 FFF7FEFF 		bl	LCD_Char_Position
 270              	.LVL37:
 121:.\main.c      ****           LCD_Char_PrintString("N...n...NO!!!");
 271              		.loc 1 121 0
 272 00b6 1448     		ldr	r0, .L17+28
 273 00b8 FFF7FEFF 		bl	LCD_Char_PrintString
 274              	.LVL38:
 122:.\main.c      ****           LCD_Char_Position(2,0);
ARM GAS  C:\Users\Admin\AppData\Local\Temp\cc3U9vtI.s 			page 8


 275              		.loc 1 122 0
 276 00bc 0021     		mov	r1, #0
 277 00be 0220     		mov	r0, #2
 278 00c0 FFF7FEFF 		bl	LCD_Char_Position
 279              	.LVL39:
 123:.\main.c      ****           LCD_Char_PrintString("null{c81e96410ec768c");
 280              		.loc 1 123 0
 281 00c4 1148     		ldr	r0, .L17+32
 282 00c6 FFF7FEFF 		bl	LCD_Char_PrintString
 283              	.LVL40:
 124:.\main.c      ****           LCD_Char_Position(3,0);
 284              		.loc 1 124 0
 285 00ca 0021     		mov	r1, #0
 286 00cc 0320     		mov	r0, #3
 287 00ce FFF7FEFF 		bl	LCD_Char_Position
 288              	.LVL41:
 125:.\main.c      ****           LCD_Char_PrintString("33eeb43b49c738b17}");
 289              		.loc 1 125 0
 290 00d2 0F48     		ldr	r0, .L17+36
 291 00d4 FFF7FEFF 		bl	LCD_Char_PrintString
 292              	.LVL42:
 126:.\main.c      ****           show_flag = 0;
 293              		.loc 1 126 0
 294 00d8 0023     		mov	r3, #0
 127:.\main.c      ****           /* Display flag for 5 seconds */
 128:.\main.c      ****           CyDelay(5000);
 295              		.loc 1 128 0
 296 00da 0E48     		ldr	r0, .L17+40
 126:.\main.c      ****           show_flag = 0;
 297              		.loc 1 126 0
 298 00dc 2B70     		strb	r3, [r5]
 299              		.loc 1 128 0
 300 00de FFF7FEFF 		bl	CyDelay
 301              	.LVL43:
 129:.\main.c      ****           LCD_Char_ClearDisplay();
 302              		.loc 1 129 0
 303 00e2 0120     		mov	r0, #1
 304 00e4 FFF7FEFF 		bl	LCD_Char_WriteControl
 305              	.LVL44:
 306 00e8 A7E7     		b	.L14
 307              	.L18:
 308 00ea C046     		.align	2
 309              	.L17:
 310 00ec 00000000 		.word	IR_Handler
 311 00f0 00000000 		.word	PWM_Handler
 312 00f4 00000000 		.word	.LANCHOR0
 313 00f8 0B000000 		.word	.LC7
 314 00fc 18000000 		.word	.LC9
 315 0100 2D000000 		.word	.LC11
 316 0104 39000000 		.word	.LC13
 317 0108 4E000000 		.word	.LC15
 318 010c 5C000000 		.word	.LC17
 319 0110 71000000 		.word	.LC19
 320 0114 88130000 		.word	5000
 321              		.cfi_endproc
 322              	.LFE36:
 323              		.size	main, .-main
ARM GAS  C:\Users\Admin\AppData\Local\Temp\cc3U9vtI.s 			page 9


 324              		.global	show_flag
 325              		.section	.rodata
 326              		.align	2
 327              		.set	.LANCHOR1,. + 0
 328              		.type	CSWTCH.5, %object
 329              		.size	CSWTCH.5, 40
 330              	CSWTCH.5:
 331 0000 84000000 		.word	.LC21
 332 0004 90000000 		.word	.LC22
 333 0008 9C000000 		.word	.LC23
 334 000c A8000000 		.word	.LC24
 335 0010 BA000000 		.word	.LC25
 336 0014 CC000000 		.word	.LC26
 337 0018 DD000000 		.word	.LC27
 338 001c ED000000 		.word	.LC28
 339 0020 FB000000 		.word	.LC29
 340 0024 10010000 		.word	.LC30
 341              		.section	.rodata.str1.1,"aMS",%progbits,1
 342              	.LC1:
 343 0000 4F68204E 		.ascii	"Oh Nooooo!\000"
 343      6F6F6F6F 
 343      6F2100
 344              	.LC7:
 345 000b 426F7773 		.ascii	"Bowser Says:\000"
 345      65722053 
 345      6179733A 
 345      00
 346              	.LC9:
 347 0018 49522052 		.ascii	"IR Required For Flag\000"
 347      65717569 
 347      72656420 
 347      466F7220 
 347      466C6167 
 348              	.LC11:
 349 002d 4D617269 		.ascii	"Mario Says:\000"
 349      6F205361 
 349      79733A00 
 350              	.LC13:
 351 0039 20202020 		.ascii	"                    \000"
 351      20202020 
 351      20202020 
 351      20202020 
 351      20202020 
 352              	.LC15:
 353 004e 4E2E2E2E 		.ascii	"N...n...NO!!!\000"
 353      6E2E2E2E 
 353      4E4F2121 
 353      2100
 354              	.LC17:
 355 005c 6E756C6C 		.ascii	"null{c81e96410ec768c\000"
 355      7B633831 
 355      65393634 
 355      31306563 
 355      37363863 
 356              	.LC19:
 357 0071 33336565 		.ascii	"33eeb43b49c738b17}\000"
 357      62343362 
ARM GAS  C:\Users\Admin\AppData\Local\Temp\cc3U9vtI.s 			page 10


 357      34396337 
 357      33386231 
 357      377D00
 358              	.LC21:
 359 0084 4C657427 		.ascii	"Let's-a go!\000"
 359      732D6120 
 359      676F2100 
 360              	.LC22:
 361 0090 4F6B6579 		.ascii	"Okey dokey!\000"
 361      20646F6B 
 361      65792100 
 362              	.LC23:
 363 009c 48657265 		.ascii	"Here we go!\000"
 363      20776520 
 363      676F2100 
 364              	.LC24:
 365 00a8 49742773 		.ascii	"It's-a me, Mario!\000"
 365      2D61206D 
 365      652C204D 
 365      6172696F 
 365      2100
 366              	.LC25:
 367 00ba 536F206C 		.ascii	"So long-a Bowser!\000"
 367      6F6E672D 
 367      6120426F 
 367      77736572 
 367      2100
 368              	.LC26:
 369 00cc 4E696768 		.ascii	"Nighty-nighty...\000"
 369      74792D6E 
 369      69676874 
 369      792E2E2E 
 369      00
 370              	.LC27:
 371 00dd 41682073 		.ascii	"Ah spaghetti...\000"
 371      70616768 
 371      65747469 
 371      2E2E2E00 
 372              	.LC28:
 373 00ed 41682072 		.ascii	"Ah ravioli...\000"
 373      6176696F 
 373      6C692E2E 
 373      2E00
 374              	.LC29:
 375 00fb 50726573 		.ascii	"Press start to play!\000"
 375      73207374 
 375      61727420 
 375      746F2070 
 375      6C617921 
 376              	.LC30:
 377 0110 4D616D61 		.ascii	"Mama mia!\000"
 377      206D6961 
 377      2100
 378              		.bss
 379              		.set	.LANCHOR0,. + 0
 380              		.type	show_flag, %object
 381              		.size	show_flag, 1
ARM GAS  C:\Users\Admin\AppData\Local\Temp\cc3U9vtI.s 			page 11


 382              	show_flag:
 383 0000 00       		.space	1
 384              		.text
 385              	.Letext0:
 386              		.file 2 ".\\Generated_Source\\PSoC4/cytypes.h"
 387              		.file 3 "c:\\program files\\cypress\\psoc creator\\3.1\\psoc creator\\import\\gnu_cs\\arm\\4.8.4\\
 388              		.file 4 ".\\Generated_Source\\PSoC4/IR_REC.h"
 389              		.file 5 ".\\Generated_Source\\PSoC4/PWM_Timer.h"
 390              		.file 6 "c:\\program files\\cypress\\psoc creator\\3.1\\psoc creator\\import\\gnu_cs\\arm\\4.8.4\\
 391              		.file 7 ".\\Generated_Source\\PSoC4/LED.h"
 392              		.file 8 ".\\Generated_Source\\PSoC4/IR_Int.h"
 393              		.file 9 ".\\Generated_Source\\PSoC4/PWM_Int.h"
 394              		.file 10 ".\\Generated_Source\\PSoC4/Power_Up_LCD_Pin_1.h"
 395              		.file 11 ".\\Generated_Source\\PSoC4/Back_Light_On_N.h"
 396              		.file 12 ".\\Generated_Source\\PSoC4/Back_Light_On_P.h"
 397              		.file 13 ".\\Generated_Source\\PSoC4/LCD_Char.h"
 398              		.file 14 ".\\Generated_Source\\PSoC4/cyPm.h"
 399              		.file 15 "c:\\program files\\cypress\\psoc creator\\3.1\\psoc creator\\import\\gnu_cs\\arm\\4.8.4\
 400              		.file 16 ".\\Generated_Source\\PSoC4/CyLib.h"