ARM GAS  C:\Users\Admin\AppData\Local\Temp\ccvACxp2.s 			page 1


   1              		.cpu cortex-m0
   2              		.fpu softvfp
   3              		.eabi_attribute 20, 1
   4              		.eabi_attribute 21, 1
   5              		.eabi_attribute 23, 3
   6              		.eabi_attribute 24, 1
   7              		.eabi_attribute 25, 1
   8              		.eabi_attribute 26, 1
   9              		.eabi_attribute 30, 4
  10              		.eabi_attribute 34, 0
  11              		.eabi_attribute 18, 4
  12              		.code	16
  13              		.file	"PWM_Timer.c"
  14              		.text
  15              	.Ltext0:
  16              		.cfi_sections	.debug_frame
  17              		.section	.text.PWM_Timer_Enable,"ax",%progbits
  18              		.align	1
  19              		.global	PWM_Timer_Enable
  20              		.code	16
  21              		.thumb_func
  22              		.type	PWM_Timer_Enable, %function
  23              	PWM_Timer_Enable:
  24              	.LFB2:
  25              		.file 1 ".\\Generated_Source\\PSoC4\\PWM_Timer.c"
   1:.\Generated_Source\PSoC4/PWM_Timer.c **** /*******************************************************************************
   2:.\Generated_Source\PSoC4/PWM_Timer.c **** * File Name: PWM_Timer.c
   3:.\Generated_Source\PSoC4/PWM_Timer.c **** * Version 3.10
   4:.\Generated_Source\PSoC4/PWM_Timer.c **** *
   5:.\Generated_Source\PSoC4/PWM_Timer.c **** * Description:
   6:.\Generated_Source\PSoC4/PWM_Timer.c **** *  The PWM User Module consist of an 8 or 16-bit counter with two 8 or 16-bit
   7:.\Generated_Source\PSoC4/PWM_Timer.c **** *  comparitors. Each instance of this user module is capable of generating
   8:.\Generated_Source\PSoC4/PWM_Timer.c **** *  two PWM outputs with the same period. The pulse width is selectable between
   9:.\Generated_Source\PSoC4/PWM_Timer.c **** *  1 and 255/65535. The period is selectable between 2 and 255/65536 clocks.
  10:.\Generated_Source\PSoC4/PWM_Timer.c **** *  The compare value output may be configured to be active when the present
  11:.\Generated_Source\PSoC4/PWM_Timer.c **** *  counter is less than or less than/equal to the compare value.
  12:.\Generated_Source\PSoC4/PWM_Timer.c **** *  A terminal count output is also provided. It generates a pulse one clock
  13:.\Generated_Source\PSoC4/PWM_Timer.c **** *  width wide when the counter is equal to zero.
  14:.\Generated_Source\PSoC4/PWM_Timer.c **** *
  15:.\Generated_Source\PSoC4/PWM_Timer.c **** * Note:
  16:.\Generated_Source\PSoC4/PWM_Timer.c **** *
  17:.\Generated_Source\PSoC4/PWM_Timer.c **** *******************************************************************************
  18:.\Generated_Source\PSoC4/PWM_Timer.c **** * Copyright 2008-2014, Cypress Semiconductor Corporation.  All rights reserved.
  19:.\Generated_Source\PSoC4/PWM_Timer.c **** * You may use this file only in accordance with the license, terms, conditions,
  20:.\Generated_Source\PSoC4/PWM_Timer.c **** * disclaimers, and limitations in the end user license agreement accompanying
  21:.\Generated_Source\PSoC4/PWM_Timer.c **** * the software package with which this file was provided.
  22:.\Generated_Source\PSoC4/PWM_Timer.c **** ********************************************************************************/
  23:.\Generated_Source\PSoC4/PWM_Timer.c **** 
  24:.\Generated_Source\PSoC4/PWM_Timer.c **** #include "PWM_Timer.h"
  25:.\Generated_Source\PSoC4/PWM_Timer.c **** 
  26:.\Generated_Source\PSoC4/PWM_Timer.c **** /* Error message for removed <resource> through optimization */
  27:.\Generated_Source\PSoC4/PWM_Timer.c **** #ifdef PWM_Timer_PWMUDB_genblk1_ctrlreg__REMOVED
  28:.\Generated_Source\PSoC4/PWM_Timer.c ****     #error PWM_v3_10 detected with a constant 0 for the enable or \
  29:.\Generated_Source\PSoC4/PWM_Timer.c ****          constant 1 for reset. This will prevent the component from operating.
  30:.\Generated_Source\PSoC4/PWM_Timer.c **** #endif /* PWM_Timer_PWMUDB_genblk1_ctrlreg__REMOVED */
  31:.\Generated_Source\PSoC4/PWM_Timer.c **** 
  32:.\Generated_Source\PSoC4/PWM_Timer.c **** uint8 PWM_Timer_initVar = 0u;
ARM GAS  C:\Users\Admin\AppData\Local\Temp\ccvACxp2.s 			page 2


  33:.\Generated_Source\PSoC4/PWM_Timer.c **** 
  34:.\Generated_Source\PSoC4/PWM_Timer.c **** 
  35:.\Generated_Source\PSoC4/PWM_Timer.c **** /*******************************************************************************
  36:.\Generated_Source\PSoC4/PWM_Timer.c **** * Function Name: PWM_Timer_Start
  37:.\Generated_Source\PSoC4/PWM_Timer.c **** ********************************************************************************
  38:.\Generated_Source\PSoC4/PWM_Timer.c **** *
  39:.\Generated_Source\PSoC4/PWM_Timer.c **** * Summary:
  40:.\Generated_Source\PSoC4/PWM_Timer.c **** *  The start function initializes the pwm with the default values, the
  41:.\Generated_Source\PSoC4/PWM_Timer.c **** *  enables the counter to begin counting.  It does not enable interrupts,
  42:.\Generated_Source\PSoC4/PWM_Timer.c **** *  the EnableInt command should be called if interrupt generation is required.
  43:.\Generated_Source\PSoC4/PWM_Timer.c **** *
  44:.\Generated_Source\PSoC4/PWM_Timer.c **** * Parameters:
  45:.\Generated_Source\PSoC4/PWM_Timer.c **** *  None
  46:.\Generated_Source\PSoC4/PWM_Timer.c **** *
  47:.\Generated_Source\PSoC4/PWM_Timer.c **** * Return:
  48:.\Generated_Source\PSoC4/PWM_Timer.c **** *  None
  49:.\Generated_Source\PSoC4/PWM_Timer.c **** *
  50:.\Generated_Source\PSoC4/PWM_Timer.c **** * Global variables:
  51:.\Generated_Source\PSoC4/PWM_Timer.c **** *  PWM_Timer_initVar: Is modified when this function is called for the
  52:.\Generated_Source\PSoC4/PWM_Timer.c **** *   first time. Is used to ensure that initialization happens only once.
  53:.\Generated_Source\PSoC4/PWM_Timer.c **** *
  54:.\Generated_Source\PSoC4/PWM_Timer.c **** *******************************************************************************/
  55:.\Generated_Source\PSoC4/PWM_Timer.c **** void PWM_Timer_Start(void) 
  56:.\Generated_Source\PSoC4/PWM_Timer.c **** {
  57:.\Generated_Source\PSoC4/PWM_Timer.c ****     /* If not Initialized then initialize all required hardware and software */
  58:.\Generated_Source\PSoC4/PWM_Timer.c ****     if(PWM_Timer_initVar == 0u)
  59:.\Generated_Source\PSoC4/PWM_Timer.c ****     {
  60:.\Generated_Source\PSoC4/PWM_Timer.c ****         PWM_Timer_Init();
  61:.\Generated_Source\PSoC4/PWM_Timer.c ****         PWM_Timer_initVar = 1u;
  62:.\Generated_Source\PSoC4/PWM_Timer.c ****     }
  63:.\Generated_Source\PSoC4/PWM_Timer.c ****     PWM_Timer_Enable();
  64:.\Generated_Source\PSoC4/PWM_Timer.c **** 
  65:.\Generated_Source\PSoC4/PWM_Timer.c **** }
  66:.\Generated_Source\PSoC4/PWM_Timer.c **** 
  67:.\Generated_Source\PSoC4/PWM_Timer.c **** 
  68:.\Generated_Source\PSoC4/PWM_Timer.c **** /*******************************************************************************
  69:.\Generated_Source\PSoC4/PWM_Timer.c **** * Function Name: PWM_Timer_Init
  70:.\Generated_Source\PSoC4/PWM_Timer.c **** ********************************************************************************
  71:.\Generated_Source\PSoC4/PWM_Timer.c **** *
  72:.\Generated_Source\PSoC4/PWM_Timer.c **** * Summary:
  73:.\Generated_Source\PSoC4/PWM_Timer.c **** *  Initialize component's parameters to the parameters set by user in the
  74:.\Generated_Source\PSoC4/PWM_Timer.c **** *  customizer of the component placed onto schematic. Usually called in
  75:.\Generated_Source\PSoC4/PWM_Timer.c **** *  PWM_Timer_Start().
  76:.\Generated_Source\PSoC4/PWM_Timer.c **** *
  77:.\Generated_Source\PSoC4/PWM_Timer.c **** * Parameters:
  78:.\Generated_Source\PSoC4/PWM_Timer.c **** *  None
  79:.\Generated_Source\PSoC4/PWM_Timer.c **** *
  80:.\Generated_Source\PSoC4/PWM_Timer.c **** * Return:
  81:.\Generated_Source\PSoC4/PWM_Timer.c **** *  None
  82:.\Generated_Source\PSoC4/PWM_Timer.c **** *
  83:.\Generated_Source\PSoC4/PWM_Timer.c **** *******************************************************************************/
  84:.\Generated_Source\PSoC4/PWM_Timer.c **** void PWM_Timer_Init(void) 
  85:.\Generated_Source\PSoC4/PWM_Timer.c **** {
  86:.\Generated_Source\PSoC4/PWM_Timer.c ****     #if (PWM_Timer_UsingFixedFunction || PWM_Timer_UseControl)
  87:.\Generated_Source\PSoC4/PWM_Timer.c ****         uint8 ctrl;
  88:.\Generated_Source\PSoC4/PWM_Timer.c ****     #endif /* (PWM_Timer_UsingFixedFunction || PWM_Timer_UseControl) */
  89:.\Generated_Source\PSoC4/PWM_Timer.c **** 
ARM GAS  C:\Users\Admin\AppData\Local\Temp\ccvACxp2.s 			page 3


  90:.\Generated_Source\PSoC4/PWM_Timer.c ****     #if(!PWM_Timer_UsingFixedFunction)
  91:.\Generated_Source\PSoC4/PWM_Timer.c ****         #if(PWM_Timer_UseStatus)
  92:.\Generated_Source\PSoC4/PWM_Timer.c ****             /* Interrupt State Backup for Critical Region*/
  93:.\Generated_Source\PSoC4/PWM_Timer.c ****             uint8 PWM_Timer_interruptState;
  94:.\Generated_Source\PSoC4/PWM_Timer.c ****         #endif /* (PWM_Timer_UseStatus) */
  95:.\Generated_Source\PSoC4/PWM_Timer.c ****     #endif /* (!PWM_Timer_UsingFixedFunction) */
  96:.\Generated_Source\PSoC4/PWM_Timer.c **** 
  97:.\Generated_Source\PSoC4/PWM_Timer.c ****     #if (PWM_Timer_UsingFixedFunction)
  98:.\Generated_Source\PSoC4/PWM_Timer.c ****         /* You are allowed to write the compare value (FF only) */
  99:.\Generated_Source\PSoC4/PWM_Timer.c ****         PWM_Timer_CONTROL |= PWM_Timer_CFG0_MODE;
 100:.\Generated_Source\PSoC4/PWM_Timer.c ****         #if (PWM_Timer_DeadBand2_4)
 101:.\Generated_Source\PSoC4/PWM_Timer.c ****             PWM_Timer_CONTROL |= PWM_Timer_CFG0_DB;
 102:.\Generated_Source\PSoC4/PWM_Timer.c ****         #endif /* (PWM_Timer_DeadBand2_4) */
 103:.\Generated_Source\PSoC4/PWM_Timer.c **** 
 104:.\Generated_Source\PSoC4/PWM_Timer.c ****         ctrl = PWM_Timer_CONTROL3 & ((uint8 )(~PWM_Timer_CTRL_CMPMODE1_MASK));
 105:.\Generated_Source\PSoC4/PWM_Timer.c ****         PWM_Timer_CONTROL3 = ctrl | PWM_Timer_DEFAULT_COMPARE1_MODE;
 106:.\Generated_Source\PSoC4/PWM_Timer.c **** 
 107:.\Generated_Source\PSoC4/PWM_Timer.c ****          /* Clear and Set SYNCTC and SYNCCMP bits of RT1 register */
 108:.\Generated_Source\PSoC4/PWM_Timer.c ****         PWM_Timer_RT1 &= ((uint8)(~PWM_Timer_RT1_MASK));
 109:.\Generated_Source\PSoC4/PWM_Timer.c ****         PWM_Timer_RT1 |= PWM_Timer_SYNC;
 110:.\Generated_Source\PSoC4/PWM_Timer.c **** 
 111:.\Generated_Source\PSoC4/PWM_Timer.c ****         /*Enable DSI Sync all all inputs of the PWM*/
 112:.\Generated_Source\PSoC4/PWM_Timer.c ****         PWM_Timer_RT1 &= ((uint8)(~PWM_Timer_SYNCDSI_MASK));
 113:.\Generated_Source\PSoC4/PWM_Timer.c ****         PWM_Timer_RT1 |= PWM_Timer_SYNCDSI_EN;
 114:.\Generated_Source\PSoC4/PWM_Timer.c **** 
 115:.\Generated_Source\PSoC4/PWM_Timer.c ****     #elif (PWM_Timer_UseControl)
 116:.\Generated_Source\PSoC4/PWM_Timer.c ****         /* Set the default compare mode defined in the parameter */
 117:.\Generated_Source\PSoC4/PWM_Timer.c ****         ctrl = PWM_Timer_CONTROL & ((uint8)(~PWM_Timer_CTRL_CMPMODE2_MASK)) &
 118:.\Generated_Source\PSoC4/PWM_Timer.c ****                 ((uint8)(~PWM_Timer_CTRL_CMPMODE1_MASK));
 119:.\Generated_Source\PSoC4/PWM_Timer.c ****         PWM_Timer_CONTROL = ctrl | PWM_Timer_DEFAULT_COMPARE2_MODE |
 120:.\Generated_Source\PSoC4/PWM_Timer.c ****                                    PWM_Timer_DEFAULT_COMPARE1_MODE;
 121:.\Generated_Source\PSoC4/PWM_Timer.c ****     #endif /* (PWM_Timer_UsingFixedFunction) */
 122:.\Generated_Source\PSoC4/PWM_Timer.c **** 
 123:.\Generated_Source\PSoC4/PWM_Timer.c ****     #if (!PWM_Timer_UsingFixedFunction)
 124:.\Generated_Source\PSoC4/PWM_Timer.c ****         #if (PWM_Timer_Resolution == 8)
 125:.\Generated_Source\PSoC4/PWM_Timer.c ****             /* Set FIFO 0 to 1 byte register for period*/
 126:.\Generated_Source\PSoC4/PWM_Timer.c ****             PWM_Timer_AUX_CONTROLDP0 |= (PWM_Timer_AUX_CTRL_FIFO0_CLR);
 127:.\Generated_Source\PSoC4/PWM_Timer.c ****         #else /* (PWM_Timer_Resolution == 16)*/
 128:.\Generated_Source\PSoC4/PWM_Timer.c ****             /* Set FIFO 0 to 1 byte register for period */
 129:.\Generated_Source\PSoC4/PWM_Timer.c ****             PWM_Timer_AUX_CONTROLDP0 |= (PWM_Timer_AUX_CTRL_FIFO0_CLR);
 130:.\Generated_Source\PSoC4/PWM_Timer.c ****             PWM_Timer_AUX_CONTROLDP1 |= (PWM_Timer_AUX_CTRL_FIFO0_CLR);
 131:.\Generated_Source\PSoC4/PWM_Timer.c ****         #endif /* (PWM_Timer_Resolution == 8) */
 132:.\Generated_Source\PSoC4/PWM_Timer.c **** 
 133:.\Generated_Source\PSoC4/PWM_Timer.c ****         PWM_Timer_WriteCounter(PWM_Timer_INIT_PERIOD_VALUE);
 134:.\Generated_Source\PSoC4/PWM_Timer.c ****     #endif /* (!PWM_Timer_UsingFixedFunction) */
 135:.\Generated_Source\PSoC4/PWM_Timer.c **** 
 136:.\Generated_Source\PSoC4/PWM_Timer.c ****     PWM_Timer_WritePeriod(PWM_Timer_INIT_PERIOD_VALUE);
 137:.\Generated_Source\PSoC4/PWM_Timer.c **** 
 138:.\Generated_Source\PSoC4/PWM_Timer.c ****         #if (PWM_Timer_UseOneCompareMode)
 139:.\Generated_Source\PSoC4/PWM_Timer.c ****             PWM_Timer_WriteCompare(PWM_Timer_INIT_COMPARE_VALUE1);
 140:.\Generated_Source\PSoC4/PWM_Timer.c ****         #else
 141:.\Generated_Source\PSoC4/PWM_Timer.c ****             PWM_Timer_WriteCompare1(PWM_Timer_INIT_COMPARE_VALUE1);
 142:.\Generated_Source\PSoC4/PWM_Timer.c ****             PWM_Timer_WriteCompare2(PWM_Timer_INIT_COMPARE_VALUE2);
 143:.\Generated_Source\PSoC4/PWM_Timer.c ****         #endif /* (PWM_Timer_UseOneCompareMode) */
 144:.\Generated_Source\PSoC4/PWM_Timer.c **** 
 145:.\Generated_Source\PSoC4/PWM_Timer.c ****         #if (PWM_Timer_KillModeMinTime)
 146:.\Generated_Source\PSoC4/PWM_Timer.c ****             PWM_Timer_WriteKillTime(PWM_Timer_MinimumKillTime);
ARM GAS  C:\Users\Admin\AppData\Local\Temp\ccvACxp2.s 			page 4


 147:.\Generated_Source\PSoC4/PWM_Timer.c ****         #endif /* (PWM_Timer_KillModeMinTime) */
 148:.\Generated_Source\PSoC4/PWM_Timer.c **** 
 149:.\Generated_Source\PSoC4/PWM_Timer.c ****         #if (PWM_Timer_DeadBandUsed)
 150:.\Generated_Source\PSoC4/PWM_Timer.c ****             PWM_Timer_WriteDeadTime(PWM_Timer_INIT_DEAD_TIME);
 151:.\Generated_Source\PSoC4/PWM_Timer.c ****         #endif /* (PWM_Timer_DeadBandUsed) */
 152:.\Generated_Source\PSoC4/PWM_Timer.c **** 
 153:.\Generated_Source\PSoC4/PWM_Timer.c ****     #if (PWM_Timer_UseStatus || PWM_Timer_UsingFixedFunction)
 154:.\Generated_Source\PSoC4/PWM_Timer.c ****         PWM_Timer_SetInterruptMode(PWM_Timer_INIT_INTERRUPTS_MODE);
 155:.\Generated_Source\PSoC4/PWM_Timer.c ****     #endif /* (PWM_Timer_UseStatus || PWM_Timer_UsingFixedFunction) */
 156:.\Generated_Source\PSoC4/PWM_Timer.c **** 
 157:.\Generated_Source\PSoC4/PWM_Timer.c ****     #if (PWM_Timer_UsingFixedFunction)
 158:.\Generated_Source\PSoC4/PWM_Timer.c ****         /* Globally Enable the Fixed Function Block chosen */
 159:.\Generated_Source\PSoC4/PWM_Timer.c ****         PWM_Timer_GLOBAL_ENABLE |= PWM_Timer_BLOCK_EN_MASK;
 160:.\Generated_Source\PSoC4/PWM_Timer.c ****         /* Set the Interrupt source to come from the status register */
 161:.\Generated_Source\PSoC4/PWM_Timer.c ****         PWM_Timer_CONTROL2 |= PWM_Timer_CTRL2_IRQ_SEL;
 162:.\Generated_Source\PSoC4/PWM_Timer.c ****     #else
 163:.\Generated_Source\PSoC4/PWM_Timer.c ****         #if(PWM_Timer_UseStatus)
 164:.\Generated_Source\PSoC4/PWM_Timer.c **** 
 165:.\Generated_Source\PSoC4/PWM_Timer.c ****             /* CyEnterCriticalRegion and CyExitCriticalRegion are used to mark following region cri
 166:.\Generated_Source\PSoC4/PWM_Timer.c ****             /* Enter Critical Region*/
 167:.\Generated_Source\PSoC4/PWM_Timer.c ****             PWM_Timer_interruptState = CyEnterCriticalSection();
 168:.\Generated_Source\PSoC4/PWM_Timer.c ****             /* Use the interrupt output of the status register for IRQ output */
 169:.\Generated_Source\PSoC4/PWM_Timer.c ****             PWM_Timer_STATUS_AUX_CTRL |= PWM_Timer_STATUS_ACTL_INT_EN_MASK;
 170:.\Generated_Source\PSoC4/PWM_Timer.c **** 
 171:.\Generated_Source\PSoC4/PWM_Timer.c ****              /* Exit Critical Region*/
 172:.\Generated_Source\PSoC4/PWM_Timer.c ****             CyExitCriticalSection(PWM_Timer_interruptState);
 173:.\Generated_Source\PSoC4/PWM_Timer.c **** 
 174:.\Generated_Source\PSoC4/PWM_Timer.c ****             /* Clear the FIFO to enable the PWM_Timer_STATUS_FIFOFULL
 175:.\Generated_Source\PSoC4/PWM_Timer.c ****                    bit to be set on FIFO full. */
 176:.\Generated_Source\PSoC4/PWM_Timer.c ****             PWM_Timer_ClearFIFO();
 177:.\Generated_Source\PSoC4/PWM_Timer.c ****         #endif /* (PWM_Timer_UseStatus) */
 178:.\Generated_Source\PSoC4/PWM_Timer.c ****     #endif /* (PWM_Timer_UsingFixedFunction) */
 179:.\Generated_Source\PSoC4/PWM_Timer.c **** }
 180:.\Generated_Source\PSoC4/PWM_Timer.c **** 
 181:.\Generated_Source\PSoC4/PWM_Timer.c **** 
 182:.\Generated_Source\PSoC4/PWM_Timer.c **** /*******************************************************************************
 183:.\Generated_Source\PSoC4/PWM_Timer.c **** * Function Name: PWM_Timer_Enable
 184:.\Generated_Source\PSoC4/PWM_Timer.c **** ********************************************************************************
 185:.\Generated_Source\PSoC4/PWM_Timer.c **** *
 186:.\Generated_Source\PSoC4/PWM_Timer.c **** * Summary:
 187:.\Generated_Source\PSoC4/PWM_Timer.c **** *  Enables the PWM block operation
 188:.\Generated_Source\PSoC4/PWM_Timer.c **** *
 189:.\Generated_Source\PSoC4/PWM_Timer.c **** * Parameters:
 190:.\Generated_Source\PSoC4/PWM_Timer.c **** *  None
 191:.\Generated_Source\PSoC4/PWM_Timer.c **** *
 192:.\Generated_Source\PSoC4/PWM_Timer.c **** * Return:
 193:.\Generated_Source\PSoC4/PWM_Timer.c **** *  None
 194:.\Generated_Source\PSoC4/PWM_Timer.c **** *
 195:.\Generated_Source\PSoC4/PWM_Timer.c **** * Side Effects:
 196:.\Generated_Source\PSoC4/PWM_Timer.c **** *  This works only if software enable mode is chosen
 197:.\Generated_Source\PSoC4/PWM_Timer.c **** *
 198:.\Generated_Source\PSoC4/PWM_Timer.c **** *******************************************************************************/
 199:.\Generated_Source\PSoC4/PWM_Timer.c **** void PWM_Timer_Enable(void) 
 200:.\Generated_Source\PSoC4/PWM_Timer.c **** {
  26              		.loc 1 200 0
  27              		.cfi_startproc
 201:.\Generated_Source\PSoC4/PWM_Timer.c ****     /* Globally Enable the Fixed Function Block chosen */
ARM GAS  C:\Users\Admin\AppData\Local\Temp\ccvACxp2.s 			page 5


 202:.\Generated_Source\PSoC4/PWM_Timer.c ****     #if (PWM_Timer_UsingFixedFunction)
 203:.\Generated_Source\PSoC4/PWM_Timer.c ****         PWM_Timer_GLOBAL_ENABLE |= PWM_Timer_BLOCK_EN_MASK;
 204:.\Generated_Source\PSoC4/PWM_Timer.c ****         PWM_Timer_GLOBAL_STBY_ENABLE |= PWM_Timer_BLOCK_STBY_EN_MASK;
 205:.\Generated_Source\PSoC4/PWM_Timer.c ****     #endif /* (PWM_Timer_UsingFixedFunction) */
 206:.\Generated_Source\PSoC4/PWM_Timer.c **** 
 207:.\Generated_Source\PSoC4/PWM_Timer.c ****     /* Enable the PWM from the control register  */
 208:.\Generated_Source\PSoC4/PWM_Timer.c ****     #if (PWM_Timer_UseControl || PWM_Timer_UsingFixedFunction)
 209:.\Generated_Source\PSoC4/PWM_Timer.c ****         PWM_Timer_CONTROL |= PWM_Timer_CTRL_ENABLE;
  28              		.loc 1 209 0
  29 0000 024B     		ldr	r3, .L2
  30 0002 8022     		mov	r2, #128
  31 0004 1978     		ldrb	r1, [r3]
 210:.\Generated_Source\PSoC4/PWM_Timer.c ****     #endif /* (PWM_Timer_UseControl || PWM_Timer_UsingFixedFunction) */
 211:.\Generated_Source\PSoC4/PWM_Timer.c **** }
  32              		.loc 1 211 0
  33              		@ sp needed
 209:.\Generated_Source\PSoC4/PWM_Timer.c ****         PWM_Timer_CONTROL |= PWM_Timer_CTRL_ENABLE;
  34              		.loc 1 209 0
  35 0006 0A43     		orr	r2, r1
  36 0008 1A70     		strb	r2, [r3]
  37              		.loc 1 211 0
  38 000a 7047     		bx	lr
  39              	.L3:
  40              		.align	2
  41              	.L2:
  42 000c 72000F40 		.word	1074724978
  43              		.cfi_endproc
  44              	.LFE2:
  45              		.size	PWM_Timer_Enable, .-PWM_Timer_Enable
  46              		.section	.text.PWM_Timer_Stop,"ax",%progbits
  47              		.align	1
  48              		.global	PWM_Timer_Stop
  49              		.code	16
  50              		.thumb_func
  51              		.type	PWM_Timer_Stop, %function
  52              	PWM_Timer_Stop:
  53              	.LFB3:
 212:.\Generated_Source\PSoC4/PWM_Timer.c **** 
 213:.\Generated_Source\PSoC4/PWM_Timer.c **** 
 214:.\Generated_Source\PSoC4/PWM_Timer.c **** /*******************************************************************************
 215:.\Generated_Source\PSoC4/PWM_Timer.c **** * Function Name: PWM_Timer_Stop
 216:.\Generated_Source\PSoC4/PWM_Timer.c **** ********************************************************************************
 217:.\Generated_Source\PSoC4/PWM_Timer.c **** *
 218:.\Generated_Source\PSoC4/PWM_Timer.c **** * Summary:
 219:.\Generated_Source\PSoC4/PWM_Timer.c **** *  The stop function halts the PWM, but does not change any modes or disable
 220:.\Generated_Source\PSoC4/PWM_Timer.c **** *  interrupts.
 221:.\Generated_Source\PSoC4/PWM_Timer.c **** *
 222:.\Generated_Source\PSoC4/PWM_Timer.c **** * Parameters:
 223:.\Generated_Source\PSoC4/PWM_Timer.c **** *  None
 224:.\Generated_Source\PSoC4/PWM_Timer.c **** *
 225:.\Generated_Source\PSoC4/PWM_Timer.c **** * Return:
 226:.\Generated_Source\PSoC4/PWM_Timer.c **** *  None
 227:.\Generated_Source\PSoC4/PWM_Timer.c **** *
 228:.\Generated_Source\PSoC4/PWM_Timer.c **** * Side Effects:
 229:.\Generated_Source\PSoC4/PWM_Timer.c **** *  If the Enable mode is set to Hardware only then this function
 230:.\Generated_Source\PSoC4/PWM_Timer.c **** *  has no effect on the operation of the PWM
 231:.\Generated_Source\PSoC4/PWM_Timer.c **** *
ARM GAS  C:\Users\Admin\AppData\Local\Temp\ccvACxp2.s 			page 6


 232:.\Generated_Source\PSoC4/PWM_Timer.c **** *******************************************************************************/
 233:.\Generated_Source\PSoC4/PWM_Timer.c **** void PWM_Timer_Stop(void) 
 234:.\Generated_Source\PSoC4/PWM_Timer.c **** {
  54              		.loc 1 234 0
  55              		.cfi_startproc
 235:.\Generated_Source\PSoC4/PWM_Timer.c ****     #if (PWM_Timer_UseControl || PWM_Timer_UsingFixedFunction)
 236:.\Generated_Source\PSoC4/PWM_Timer.c ****         PWM_Timer_CONTROL &= ((uint8)(~PWM_Timer_CTRL_ENABLE));
  56              		.loc 1 236 0
  57 0000 024B     		ldr	r3, .L5
  58 0002 7F22     		mov	r2, #127
  59 0004 1978     		ldrb	r1, [r3]
 237:.\Generated_Source\PSoC4/PWM_Timer.c ****     #endif /* (PWM_Timer_UseControl || PWM_Timer_UsingFixedFunction) */
 238:.\Generated_Source\PSoC4/PWM_Timer.c **** 
 239:.\Generated_Source\PSoC4/PWM_Timer.c ****     /* Globally disable the Fixed Function Block chosen */
 240:.\Generated_Source\PSoC4/PWM_Timer.c ****     #if (PWM_Timer_UsingFixedFunction)
 241:.\Generated_Source\PSoC4/PWM_Timer.c ****         PWM_Timer_GLOBAL_ENABLE &= ((uint8)(~PWM_Timer_BLOCK_EN_MASK));
 242:.\Generated_Source\PSoC4/PWM_Timer.c ****         PWM_Timer_GLOBAL_STBY_ENABLE &= ((uint8)(~PWM_Timer_BLOCK_STBY_EN_MASK));
 243:.\Generated_Source\PSoC4/PWM_Timer.c ****     #endif /* (PWM_Timer_UsingFixedFunction) */
 244:.\Generated_Source\PSoC4/PWM_Timer.c **** }
  60              		.loc 1 244 0
  61              		@ sp needed
 236:.\Generated_Source\PSoC4/PWM_Timer.c ****         PWM_Timer_CONTROL &= ((uint8)(~PWM_Timer_CTRL_ENABLE));
  62              		.loc 1 236 0
  63 0006 0A40     		and	r2, r1
  64 0008 1A70     		strb	r2, [r3]
  65              		.loc 1 244 0
  66 000a 7047     		bx	lr
  67              	.L6:
  68              		.align	2
  69              	.L5:
  70 000c 72000F40 		.word	1074724978
  71              		.cfi_endproc
  72              	.LFE3:
  73              		.size	PWM_Timer_Stop, .-PWM_Timer_Stop
  74              		.section	.text.PWM_Timer_WriteCounter,"ax",%progbits
  75              		.align	1
  76              		.global	PWM_Timer_WriteCounter
  77              		.code	16
  78              		.thumb_func
  79              		.type	PWM_Timer_WriteCounter, %function
  80              	PWM_Timer_WriteCounter:
  81              	.LFB4:
 245:.\Generated_Source\PSoC4/PWM_Timer.c **** 
 246:.\Generated_Source\PSoC4/PWM_Timer.c **** #if (PWM_Timer_UseOneCompareMode)
 247:.\Generated_Source\PSoC4/PWM_Timer.c ****     #if (PWM_Timer_CompareMode1SW)
 248:.\Generated_Source\PSoC4/PWM_Timer.c **** 
 249:.\Generated_Source\PSoC4/PWM_Timer.c **** 
 250:.\Generated_Source\PSoC4/PWM_Timer.c ****         /*******************************************************************************
 251:.\Generated_Source\PSoC4/PWM_Timer.c ****         * Function Name: PWM_Timer_SetCompareMode
 252:.\Generated_Source\PSoC4/PWM_Timer.c ****         ********************************************************************************
 253:.\Generated_Source\PSoC4/PWM_Timer.c ****         *
 254:.\Generated_Source\PSoC4/PWM_Timer.c ****         * Summary:
 255:.\Generated_Source\PSoC4/PWM_Timer.c ****         *  This function writes the Compare Mode for the pwm output when in Dither mode,
 256:.\Generated_Source\PSoC4/PWM_Timer.c ****         *  Center Align Mode or One Output Mode.
 257:.\Generated_Source\PSoC4/PWM_Timer.c ****         *
 258:.\Generated_Source\PSoC4/PWM_Timer.c ****         * Parameters:
 259:.\Generated_Source\PSoC4/PWM_Timer.c ****         *  comparemode:  The new compare mode for the PWM output. Use the compare types
ARM GAS  C:\Users\Admin\AppData\Local\Temp\ccvACxp2.s 			page 7


 260:.\Generated_Source\PSoC4/PWM_Timer.c ****         *                defined in the H file as input arguments.
 261:.\Generated_Source\PSoC4/PWM_Timer.c ****         *
 262:.\Generated_Source\PSoC4/PWM_Timer.c ****         * Return:
 263:.\Generated_Source\PSoC4/PWM_Timer.c ****         *  None
 264:.\Generated_Source\PSoC4/PWM_Timer.c ****         *
 265:.\Generated_Source\PSoC4/PWM_Timer.c ****         *******************************************************************************/
 266:.\Generated_Source\PSoC4/PWM_Timer.c ****         void PWM_Timer_SetCompareMode(uint8 comparemode) 
 267:.\Generated_Source\PSoC4/PWM_Timer.c ****         {
 268:.\Generated_Source\PSoC4/PWM_Timer.c ****             #if(PWM_Timer_UsingFixedFunction)
 269:.\Generated_Source\PSoC4/PWM_Timer.c **** 
 270:.\Generated_Source\PSoC4/PWM_Timer.c ****                 #if(0 != PWM_Timer_CTRL_CMPMODE1_SHIFT)
 271:.\Generated_Source\PSoC4/PWM_Timer.c ****                     uint8 comparemodemasked = ((uint8)((uint8)comparemode << PWM_Timer_CTRL_CMPMODE
 272:.\Generated_Source\PSoC4/PWM_Timer.c ****                 #else
 273:.\Generated_Source\PSoC4/PWM_Timer.c ****                     uint8 comparemodemasked = comparemode;
 274:.\Generated_Source\PSoC4/PWM_Timer.c ****                 #endif /* (0 != PWM_Timer_CTRL_CMPMODE1_SHIFT) */
 275:.\Generated_Source\PSoC4/PWM_Timer.c **** 
 276:.\Generated_Source\PSoC4/PWM_Timer.c ****                 PWM_Timer_CONTROL3 &= ((uint8)(~PWM_Timer_CTRL_CMPMODE1_MASK)); /*Clear Existing Da
 277:.\Generated_Source\PSoC4/PWM_Timer.c ****                 PWM_Timer_CONTROL3 |= comparemodemasked;
 278:.\Generated_Source\PSoC4/PWM_Timer.c **** 
 279:.\Generated_Source\PSoC4/PWM_Timer.c ****             #elif (PWM_Timer_UseControl)
 280:.\Generated_Source\PSoC4/PWM_Timer.c **** 
 281:.\Generated_Source\PSoC4/PWM_Timer.c ****                 #if(0 != PWM_Timer_CTRL_CMPMODE1_SHIFT)
 282:.\Generated_Source\PSoC4/PWM_Timer.c ****                     uint8 comparemode1masked = ((uint8)((uint8)comparemode << PWM_Timer_CTRL_CMPMOD
 283:.\Generated_Source\PSoC4/PWM_Timer.c ****                                                 PWM_Timer_CTRL_CMPMODE1_MASK;
 284:.\Generated_Source\PSoC4/PWM_Timer.c ****                 #else
 285:.\Generated_Source\PSoC4/PWM_Timer.c ****                     uint8 comparemode1masked = comparemode & PWM_Timer_CTRL_CMPMODE1_MASK;
 286:.\Generated_Source\PSoC4/PWM_Timer.c ****                 #endif /* (0 != PWM_Timer_CTRL_CMPMODE1_SHIFT) */
 287:.\Generated_Source\PSoC4/PWM_Timer.c **** 
 288:.\Generated_Source\PSoC4/PWM_Timer.c ****                 #if(0 != PWM_Timer_CTRL_CMPMODE2_SHIFT)
 289:.\Generated_Source\PSoC4/PWM_Timer.c ****                     uint8 comparemode2masked = ((uint8)((uint8)comparemode << PWM_Timer_CTRL_CMPMOD
 290:.\Generated_Source\PSoC4/PWM_Timer.c ****                                                PWM_Timer_CTRL_CMPMODE2_MASK;
 291:.\Generated_Source\PSoC4/PWM_Timer.c ****                 #else
 292:.\Generated_Source\PSoC4/PWM_Timer.c ****                     uint8 comparemode2masked = comparemode & PWM_Timer_CTRL_CMPMODE2_MASK;
 293:.\Generated_Source\PSoC4/PWM_Timer.c ****                 #endif /* (0 != PWM_Timer_CTRL_CMPMODE2_SHIFT) */
 294:.\Generated_Source\PSoC4/PWM_Timer.c **** 
 295:.\Generated_Source\PSoC4/PWM_Timer.c ****                 /*Clear existing mode */
 296:.\Generated_Source\PSoC4/PWM_Timer.c ****                 PWM_Timer_CONTROL &= ((uint8)(~(PWM_Timer_CTRL_CMPMODE1_MASK |
 297:.\Generated_Source\PSoC4/PWM_Timer.c ****                                             PWM_Timer_CTRL_CMPMODE2_MASK)));
 298:.\Generated_Source\PSoC4/PWM_Timer.c ****                 PWM_Timer_CONTROL |= (comparemode1masked | comparemode2masked);
 299:.\Generated_Source\PSoC4/PWM_Timer.c **** 
 300:.\Generated_Source\PSoC4/PWM_Timer.c ****             #else
 301:.\Generated_Source\PSoC4/PWM_Timer.c ****                 uint8 temp = comparemode;
 302:.\Generated_Source\PSoC4/PWM_Timer.c ****             #endif /* (PWM_Timer_UsingFixedFunction) */
 303:.\Generated_Source\PSoC4/PWM_Timer.c ****         }
 304:.\Generated_Source\PSoC4/PWM_Timer.c ****     #endif /* PWM_Timer_CompareMode1SW */
 305:.\Generated_Source\PSoC4/PWM_Timer.c **** 
 306:.\Generated_Source\PSoC4/PWM_Timer.c **** #else /* UseOneCompareMode */
 307:.\Generated_Source\PSoC4/PWM_Timer.c **** 
 308:.\Generated_Source\PSoC4/PWM_Timer.c ****     #if (PWM_Timer_CompareMode1SW)
 309:.\Generated_Source\PSoC4/PWM_Timer.c **** 
 310:.\Generated_Source\PSoC4/PWM_Timer.c **** 
 311:.\Generated_Source\PSoC4/PWM_Timer.c ****         /*******************************************************************************
 312:.\Generated_Source\PSoC4/PWM_Timer.c ****         * Function Name: PWM_Timer_SetCompareMode1
 313:.\Generated_Source\PSoC4/PWM_Timer.c ****         ********************************************************************************
 314:.\Generated_Source\PSoC4/PWM_Timer.c ****         *
 315:.\Generated_Source\PSoC4/PWM_Timer.c ****         * Summary:
 316:.\Generated_Source\PSoC4/PWM_Timer.c ****         *  This function writes the Compare Mode for the pwm or pwm1 output
ARM GAS  C:\Users\Admin\AppData\Local\Temp\ccvACxp2.s 			page 8


 317:.\Generated_Source\PSoC4/PWM_Timer.c ****         *
 318:.\Generated_Source\PSoC4/PWM_Timer.c ****         * Parameters:
 319:.\Generated_Source\PSoC4/PWM_Timer.c ****         *  comparemode:  The new compare mode for the PWM output. Use the compare types
 320:.\Generated_Source\PSoC4/PWM_Timer.c ****         *                defined in the H file as input arguments.
 321:.\Generated_Source\PSoC4/PWM_Timer.c ****         *
 322:.\Generated_Source\PSoC4/PWM_Timer.c ****         * Return:
 323:.\Generated_Source\PSoC4/PWM_Timer.c ****         *  None
 324:.\Generated_Source\PSoC4/PWM_Timer.c ****         *
 325:.\Generated_Source\PSoC4/PWM_Timer.c ****         *******************************************************************************/
 326:.\Generated_Source\PSoC4/PWM_Timer.c ****         void PWM_Timer_SetCompareMode1(uint8 comparemode) 
 327:.\Generated_Source\PSoC4/PWM_Timer.c ****         {
 328:.\Generated_Source\PSoC4/PWM_Timer.c ****             #if(0 != PWM_Timer_CTRL_CMPMODE1_SHIFT)
 329:.\Generated_Source\PSoC4/PWM_Timer.c ****                 uint8 comparemodemasked = ((uint8)((uint8)comparemode << PWM_Timer_CTRL_CMPMODE1_SH
 330:.\Generated_Source\PSoC4/PWM_Timer.c ****                                            PWM_Timer_CTRL_CMPMODE1_MASK;
 331:.\Generated_Source\PSoC4/PWM_Timer.c ****             #else
 332:.\Generated_Source\PSoC4/PWM_Timer.c ****                 uint8 comparemodemasked = comparemode & PWM_Timer_CTRL_CMPMODE1_MASK;
 333:.\Generated_Source\PSoC4/PWM_Timer.c ****             #endif /* (0 != PWM_Timer_CTRL_CMPMODE1_SHIFT) */
 334:.\Generated_Source\PSoC4/PWM_Timer.c **** 
 335:.\Generated_Source\PSoC4/PWM_Timer.c ****             #if (PWM_Timer_UseControl)
 336:.\Generated_Source\PSoC4/PWM_Timer.c ****                 PWM_Timer_CONTROL &= ((uint8)(~PWM_Timer_CTRL_CMPMODE1_MASK)); /*Clear existing mod
 337:.\Generated_Source\PSoC4/PWM_Timer.c ****                 PWM_Timer_CONTROL |= comparemodemasked;
 338:.\Generated_Source\PSoC4/PWM_Timer.c ****             #endif /* (PWM_Timer_UseControl) */
 339:.\Generated_Source\PSoC4/PWM_Timer.c ****         }
 340:.\Generated_Source\PSoC4/PWM_Timer.c ****     #endif /* PWM_Timer_CompareMode1SW */
 341:.\Generated_Source\PSoC4/PWM_Timer.c **** 
 342:.\Generated_Source\PSoC4/PWM_Timer.c **** #if (PWM_Timer_CompareMode2SW)
 343:.\Generated_Source\PSoC4/PWM_Timer.c **** 
 344:.\Generated_Source\PSoC4/PWM_Timer.c **** 
 345:.\Generated_Source\PSoC4/PWM_Timer.c ****     /*******************************************************************************
 346:.\Generated_Source\PSoC4/PWM_Timer.c ****     * Function Name: PWM_Timer_SetCompareMode2
 347:.\Generated_Source\PSoC4/PWM_Timer.c ****     ********************************************************************************
 348:.\Generated_Source\PSoC4/PWM_Timer.c ****     *
 349:.\Generated_Source\PSoC4/PWM_Timer.c ****     * Summary:
 350:.\Generated_Source\PSoC4/PWM_Timer.c ****     *  This function writes the Compare Mode for the pwm or pwm2 output
 351:.\Generated_Source\PSoC4/PWM_Timer.c ****     *
 352:.\Generated_Source\PSoC4/PWM_Timer.c ****     * Parameters:
 353:.\Generated_Source\PSoC4/PWM_Timer.c ****     *  comparemode:  The new compare mode for the PWM output. Use the compare types
 354:.\Generated_Source\PSoC4/PWM_Timer.c ****     *                defined in the H file as input arguments.
 355:.\Generated_Source\PSoC4/PWM_Timer.c ****     *
 356:.\Generated_Source\PSoC4/PWM_Timer.c ****     * Return:
 357:.\Generated_Source\PSoC4/PWM_Timer.c ****     *  None
 358:.\Generated_Source\PSoC4/PWM_Timer.c ****     *
 359:.\Generated_Source\PSoC4/PWM_Timer.c ****     *******************************************************************************/
 360:.\Generated_Source\PSoC4/PWM_Timer.c ****     void PWM_Timer_SetCompareMode2(uint8 comparemode) 
 361:.\Generated_Source\PSoC4/PWM_Timer.c ****     {
 362:.\Generated_Source\PSoC4/PWM_Timer.c **** 
 363:.\Generated_Source\PSoC4/PWM_Timer.c ****         #if(0 != PWM_Timer_CTRL_CMPMODE2_SHIFT)
 364:.\Generated_Source\PSoC4/PWM_Timer.c ****             uint8 comparemodemasked = ((uint8)((uint8)comparemode << PWM_Timer_CTRL_CMPMODE2_SHIFT)
 365:.\Generated_Source\PSoC4/PWM_Timer.c ****                                                  PWM_Timer_CTRL_CMPMODE2_MASK;
 366:.\Generated_Source\PSoC4/PWM_Timer.c ****         #else
 367:.\Generated_Source\PSoC4/PWM_Timer.c ****             uint8 comparemodemasked = comparemode & PWM_Timer_CTRL_CMPMODE2_MASK;
 368:.\Generated_Source\PSoC4/PWM_Timer.c ****         #endif /* (0 != PWM_Timer_CTRL_CMPMODE2_SHIFT) */
 369:.\Generated_Source\PSoC4/PWM_Timer.c **** 
 370:.\Generated_Source\PSoC4/PWM_Timer.c ****         #if (PWM_Timer_UseControl)
 371:.\Generated_Source\PSoC4/PWM_Timer.c ****             PWM_Timer_CONTROL &= ((uint8)(~PWM_Timer_CTRL_CMPMODE2_MASK)); /*Clear existing mode */
 372:.\Generated_Source\PSoC4/PWM_Timer.c ****             PWM_Timer_CONTROL |= comparemodemasked;
 373:.\Generated_Source\PSoC4/PWM_Timer.c ****         #endif /* (PWM_Timer_UseControl) */
ARM GAS  C:\Users\Admin\AppData\Local\Temp\ccvACxp2.s 			page 9


 374:.\Generated_Source\PSoC4/PWM_Timer.c ****     }
 375:.\Generated_Source\PSoC4/PWM_Timer.c ****     #endif /*PWM_Timer_CompareMode2SW */
 376:.\Generated_Source\PSoC4/PWM_Timer.c **** 
 377:.\Generated_Source\PSoC4/PWM_Timer.c **** #endif /* UseOneCompareMode */
 378:.\Generated_Source\PSoC4/PWM_Timer.c **** 
 379:.\Generated_Source\PSoC4/PWM_Timer.c **** 
 380:.\Generated_Source\PSoC4/PWM_Timer.c **** #if (!PWM_Timer_UsingFixedFunction)
 381:.\Generated_Source\PSoC4/PWM_Timer.c **** 
 382:.\Generated_Source\PSoC4/PWM_Timer.c **** 
 383:.\Generated_Source\PSoC4/PWM_Timer.c ****     /*******************************************************************************
 384:.\Generated_Source\PSoC4/PWM_Timer.c ****     * Function Name: PWM_Timer_WriteCounter
 385:.\Generated_Source\PSoC4/PWM_Timer.c ****     ********************************************************************************
 386:.\Generated_Source\PSoC4/PWM_Timer.c ****     *
 387:.\Generated_Source\PSoC4/PWM_Timer.c ****     * Summary:
 388:.\Generated_Source\PSoC4/PWM_Timer.c ****     *  Writes a new counter value directly to the counter register. This will be
 389:.\Generated_Source\PSoC4/PWM_Timer.c ****     *  implemented for that currently running period and only that period. This API
 390:.\Generated_Source\PSoC4/PWM_Timer.c ****     *  is valid only for UDB implementation and not available for fixed function
 391:.\Generated_Source\PSoC4/PWM_Timer.c ****     *  PWM implementation.
 392:.\Generated_Source\PSoC4/PWM_Timer.c ****     *
 393:.\Generated_Source\PSoC4/PWM_Timer.c ****     * Parameters:
 394:.\Generated_Source\PSoC4/PWM_Timer.c ****     *  counter:  The period new period counter value.
 395:.\Generated_Source\PSoC4/PWM_Timer.c ****     *
 396:.\Generated_Source\PSoC4/PWM_Timer.c ****     * Return:
 397:.\Generated_Source\PSoC4/PWM_Timer.c ****     *  None
 398:.\Generated_Source\PSoC4/PWM_Timer.c ****     *
 399:.\Generated_Source\PSoC4/PWM_Timer.c ****     * Side Effects:
 400:.\Generated_Source\PSoC4/PWM_Timer.c ****     *  The PWM Period will be reloaded when a counter value will be a zero
 401:.\Generated_Source\PSoC4/PWM_Timer.c ****     *
 402:.\Generated_Source\PSoC4/PWM_Timer.c ****     *******************************************************************************/
 403:.\Generated_Source\PSoC4/PWM_Timer.c ****     void PWM_Timer_WriteCounter(uint16 counter) \
 404:.\Generated_Source\PSoC4/PWM_Timer.c ****                                        
 405:.\Generated_Source\PSoC4/PWM_Timer.c ****     {
  82              		.loc 1 405 0
  83              		.cfi_startproc
  84              	.LVL0:
 406:.\Generated_Source\PSoC4/PWM_Timer.c ****         CY_SET_REG16(PWM_Timer_COUNTER_LSB_PTR, counter);
  85              		.loc 1 406 0
  86 0000 014B     		ldr	r3, .L8
 407:.\Generated_Source\PSoC4/PWM_Timer.c ****     }
  87              		.loc 1 407 0
  88              		@ sp needed
 406:.\Generated_Source\PSoC4/PWM_Timer.c ****         CY_SET_REG16(PWM_Timer_COUNTER_LSB_PTR, counter);
  89              		.loc 1 406 0
  90 0002 1880     		strh	r0, [r3]
  91              		.loc 1 407 0
  92 0004 7047     		bx	lr
  93              	.L9:
  94 0006 C046     		.align	2
  95              	.L8:
  96 0008 04100F40 		.word	1074728964
  97              		.cfi_endproc
  98              	.LFE4:
  99              		.size	PWM_Timer_WriteCounter, .-PWM_Timer_WriteCounter
 100              		.section	.text.PWM_Timer_ReadCounter,"ax",%progbits
 101              		.align	1
 102              		.global	PWM_Timer_ReadCounter
 103              		.code	16
ARM GAS  C:\Users\Admin\AppData\Local\Temp\ccvACxp2.s 			page 10


 104              		.thumb_func
 105              		.type	PWM_Timer_ReadCounter, %function
 106              	PWM_Timer_ReadCounter:
 107              	.LFB5:
 408:.\Generated_Source\PSoC4/PWM_Timer.c **** 
 409:.\Generated_Source\PSoC4/PWM_Timer.c **** 
 410:.\Generated_Source\PSoC4/PWM_Timer.c ****     /*******************************************************************************
 411:.\Generated_Source\PSoC4/PWM_Timer.c ****     * Function Name: PWM_Timer_ReadCounter
 412:.\Generated_Source\PSoC4/PWM_Timer.c ****     ********************************************************************************
 413:.\Generated_Source\PSoC4/PWM_Timer.c ****     *
 414:.\Generated_Source\PSoC4/PWM_Timer.c ****     * Summary:
 415:.\Generated_Source\PSoC4/PWM_Timer.c ****     *  This function returns the current value of the counter.  It doesn't matter
 416:.\Generated_Source\PSoC4/PWM_Timer.c ****     *  if the counter is enabled or running.
 417:.\Generated_Source\PSoC4/PWM_Timer.c ****     *
 418:.\Generated_Source\PSoC4/PWM_Timer.c ****     * Parameters:
 419:.\Generated_Source\PSoC4/PWM_Timer.c ****     *  None
 420:.\Generated_Source\PSoC4/PWM_Timer.c ****     *
 421:.\Generated_Source\PSoC4/PWM_Timer.c ****     * Return:
 422:.\Generated_Source\PSoC4/PWM_Timer.c ****     *  The current value of the counter.
 423:.\Generated_Source\PSoC4/PWM_Timer.c ****     *
 424:.\Generated_Source\PSoC4/PWM_Timer.c ****     *******************************************************************************/
 425:.\Generated_Source\PSoC4/PWM_Timer.c ****     uint16 PWM_Timer_ReadCounter(void) 
 426:.\Generated_Source\PSoC4/PWM_Timer.c ****     {
 108              		.loc 1 426 0
 109              		.cfi_startproc
 427:.\Generated_Source\PSoC4/PWM_Timer.c ****         /* Force capture by reading Accumulator */
 428:.\Generated_Source\PSoC4/PWM_Timer.c ****         /* Must first do a software capture to be able to read the counter */
 429:.\Generated_Source\PSoC4/PWM_Timer.c ****         /* It is up to the user code to make sure there isn't already captured data in the FIFO */
 430:.\Generated_Source\PSoC4/PWM_Timer.c ****           (void)CY_GET_REG8(PWM_Timer_COUNTERCAP_LSB_PTR_8BIT);
 110              		.loc 1 430 0
 111 0000 024B     		ldr	r3, .L11
 431:.\Generated_Source\PSoC4/PWM_Timer.c **** 
 432:.\Generated_Source\PSoC4/PWM_Timer.c ****         /* Read the data from the FIFO */
 433:.\Generated_Source\PSoC4/PWM_Timer.c ****         return (CY_GET_REG16(PWM_Timer_CAPTURE_LSB_PTR));
 434:.\Generated_Source\PSoC4/PWM_Timer.c ****     }
 112              		.loc 1 434 0
 113              		@ sp needed
 430:.\Generated_Source\PSoC4/PWM_Timer.c ****           (void)CY_GET_REG8(PWM_Timer_COUNTERCAP_LSB_PTR_8BIT);
 114              		.loc 1 430 0
 115 0002 1B78     		ldrb	r3, [r3]
 433:.\Generated_Source\PSoC4/PWM_Timer.c ****         return (CY_GET_REG16(PWM_Timer_CAPTURE_LSB_PTR));
 116              		.loc 1 433 0
 117 0004 024B     		ldr	r3, .L11+4
 118 0006 1888     		ldrh	r0, [r3]
 119 0008 80B2     		uxth	r0, r0
 120              		.loc 1 434 0
 121 000a 7047     		bx	lr
 122              	.L12:
 123              		.align	2
 124              	.L11:
 125 000c 12000F40 		.word	1074724882
 126 0010 A4100F40 		.word	1074729124
 127              		.cfi_endproc
 128              	.LFE5:
 129              		.size	PWM_Timer_ReadCounter, .-PWM_Timer_ReadCounter
 130              		.section	.text.PWM_Timer_ClearFIFO,"ax",%progbits
 131              		.align	1
ARM GAS  C:\Users\Admin\AppData\Local\Temp\ccvACxp2.s 			page 11


 132              		.global	PWM_Timer_ClearFIFO
 133              		.code	16
 134              		.thumb_func
 135              		.type	PWM_Timer_ClearFIFO, %function
 136              	PWM_Timer_ClearFIFO:
 137              	.LFB6:
 435:.\Generated_Source\PSoC4/PWM_Timer.c **** 
 436:.\Generated_Source\PSoC4/PWM_Timer.c ****     #if (PWM_Timer_UseStatus)
 437:.\Generated_Source\PSoC4/PWM_Timer.c **** 
 438:.\Generated_Source\PSoC4/PWM_Timer.c **** 
 439:.\Generated_Source\PSoC4/PWM_Timer.c ****         /*******************************************************************************
 440:.\Generated_Source\PSoC4/PWM_Timer.c ****         * Function Name: PWM_Timer_ClearFIFO
 441:.\Generated_Source\PSoC4/PWM_Timer.c ****         ********************************************************************************
 442:.\Generated_Source\PSoC4/PWM_Timer.c ****         *
 443:.\Generated_Source\PSoC4/PWM_Timer.c ****         * Summary:
 444:.\Generated_Source\PSoC4/PWM_Timer.c ****         *  This function clears all capture data from the capture FIFO
 445:.\Generated_Source\PSoC4/PWM_Timer.c ****         *
 446:.\Generated_Source\PSoC4/PWM_Timer.c ****         * Parameters:
 447:.\Generated_Source\PSoC4/PWM_Timer.c ****         *  None
 448:.\Generated_Source\PSoC4/PWM_Timer.c ****         *
 449:.\Generated_Source\PSoC4/PWM_Timer.c ****         * Return:
 450:.\Generated_Source\PSoC4/PWM_Timer.c ****         *  None
 451:.\Generated_Source\PSoC4/PWM_Timer.c ****         *
 452:.\Generated_Source\PSoC4/PWM_Timer.c ****         *******************************************************************************/
 453:.\Generated_Source\PSoC4/PWM_Timer.c ****         void PWM_Timer_ClearFIFO(void) 
 454:.\Generated_Source\PSoC4/PWM_Timer.c ****         {
 138              		.loc 1 454 0
 139              		.cfi_startproc
 140              	.L14:
 141              	.LBB14:
 142              	.LBB15:
 455:.\Generated_Source\PSoC4/PWM_Timer.c ****             while(0u != (PWM_Timer_ReadStatusRegister() & PWM_Timer_STATUS_FIFONEMPTY))
 456:.\Generated_Source\PSoC4/PWM_Timer.c ****             {
 457:.\Generated_Source\PSoC4/PWM_Timer.c ****                 (void)PWM_Timer_ReadCapture();
 458:.\Generated_Source\PSoC4/PWM_Timer.c ****             }
 459:.\Generated_Source\PSoC4/PWM_Timer.c ****         }
 460:.\Generated_Source\PSoC4/PWM_Timer.c **** 
 461:.\Generated_Source\PSoC4/PWM_Timer.c ****     #endif /* PWM_Timer_UseStatus */
 462:.\Generated_Source\PSoC4/PWM_Timer.c **** 
 463:.\Generated_Source\PSoC4/PWM_Timer.c **** #endif /* !PWM_Timer_UsingFixedFunction */
 464:.\Generated_Source\PSoC4/PWM_Timer.c **** 
 465:.\Generated_Source\PSoC4/PWM_Timer.c **** 
 466:.\Generated_Source\PSoC4/PWM_Timer.c **** /*******************************************************************************
 467:.\Generated_Source\PSoC4/PWM_Timer.c **** * Function Name: PWM_Timer_WritePeriod
 468:.\Generated_Source\PSoC4/PWM_Timer.c **** ********************************************************************************
 469:.\Generated_Source\PSoC4/PWM_Timer.c **** *
 470:.\Generated_Source\PSoC4/PWM_Timer.c **** * Summary:
 471:.\Generated_Source\PSoC4/PWM_Timer.c **** *  This function is used to change the period of the counter.  The new period
 472:.\Generated_Source\PSoC4/PWM_Timer.c **** *  will be loaded the next time terminal count is detected.
 473:.\Generated_Source\PSoC4/PWM_Timer.c **** *
 474:.\Generated_Source\PSoC4/PWM_Timer.c **** * Parameters:
 475:.\Generated_Source\PSoC4/PWM_Timer.c **** *  period:  Period value. May be between 1 and (2^Resolution)-1.  A value of 0
 476:.\Generated_Source\PSoC4/PWM_Timer.c **** *           will result in the counter remaining at zero.
 477:.\Generated_Source\PSoC4/PWM_Timer.c **** *
 478:.\Generated_Source\PSoC4/PWM_Timer.c **** * Return:
 479:.\Generated_Source\PSoC4/PWM_Timer.c **** *  None
 480:.\Generated_Source\PSoC4/PWM_Timer.c **** *
ARM GAS  C:\Users\Admin\AppData\Local\Temp\ccvACxp2.s 			page 12


 481:.\Generated_Source\PSoC4/PWM_Timer.c **** *******************************************************************************/
 482:.\Generated_Source\PSoC4/PWM_Timer.c **** void PWM_Timer_WritePeriod(uint16 period) 
 483:.\Generated_Source\PSoC4/PWM_Timer.c **** {
 484:.\Generated_Source\PSoC4/PWM_Timer.c ****     #if(PWM_Timer_UsingFixedFunction)
 485:.\Generated_Source\PSoC4/PWM_Timer.c ****         CY_SET_REG16(PWM_Timer_PERIOD_LSB_PTR, (uint16)period);
 486:.\Generated_Source\PSoC4/PWM_Timer.c ****     #else
 487:.\Generated_Source\PSoC4/PWM_Timer.c ****         CY_SET_REG16(PWM_Timer_PERIOD_LSB_PTR, period);
 488:.\Generated_Source\PSoC4/PWM_Timer.c ****     #endif /* (PWM_Timer_UsingFixedFunction) */
 489:.\Generated_Source\PSoC4/PWM_Timer.c **** }
 490:.\Generated_Source\PSoC4/PWM_Timer.c **** 
 491:.\Generated_Source\PSoC4/PWM_Timer.c **** #if (PWM_Timer_UseOneCompareMode)
 492:.\Generated_Source\PSoC4/PWM_Timer.c **** 
 493:.\Generated_Source\PSoC4/PWM_Timer.c **** 
 494:.\Generated_Source\PSoC4/PWM_Timer.c ****     /*******************************************************************************
 495:.\Generated_Source\PSoC4/PWM_Timer.c ****     * Function Name: PWM_Timer_WriteCompare
 496:.\Generated_Source\PSoC4/PWM_Timer.c ****     ********************************************************************************
 497:.\Generated_Source\PSoC4/PWM_Timer.c ****     *
 498:.\Generated_Source\PSoC4/PWM_Timer.c ****     * Summary:
 499:.\Generated_Source\PSoC4/PWM_Timer.c ****     *  This funtion is used to change the compare1 value when the PWM is in Dither
 500:.\Generated_Source\PSoC4/PWM_Timer.c ****     *  mode. The compare output will reflect the new value on the next UDB clock.
 501:.\Generated_Source\PSoC4/PWM_Timer.c ****     *  The compare output will be driven high when the present counter value is
 502:.\Generated_Source\PSoC4/PWM_Timer.c ****     *  compared to the compare value based on the compare mode defined in
 503:.\Generated_Source\PSoC4/PWM_Timer.c ****     *  Dither Mode.
 504:.\Generated_Source\PSoC4/PWM_Timer.c ****     *
 505:.\Generated_Source\PSoC4/PWM_Timer.c ****     * Parameters:
 506:.\Generated_Source\PSoC4/PWM_Timer.c ****     *  compare:  New compare value.
 507:.\Generated_Source\PSoC4/PWM_Timer.c ****     *
 508:.\Generated_Source\PSoC4/PWM_Timer.c ****     * Return:
 509:.\Generated_Source\PSoC4/PWM_Timer.c ****     *  None
 510:.\Generated_Source\PSoC4/PWM_Timer.c ****     *
 511:.\Generated_Source\PSoC4/PWM_Timer.c ****     * Side Effects:
 512:.\Generated_Source\PSoC4/PWM_Timer.c ****     *  This function is only available if the PWM mode parameter is set to
 513:.\Generated_Source\PSoC4/PWM_Timer.c ****     *  Dither Mode, Center Aligned Mode or One Output Mode
 514:.\Generated_Source\PSoC4/PWM_Timer.c ****     *
 515:.\Generated_Source\PSoC4/PWM_Timer.c ****     *******************************************************************************/
 516:.\Generated_Source\PSoC4/PWM_Timer.c ****     void PWM_Timer_WriteCompare(uint16 compare) \
 517:.\Generated_Source\PSoC4/PWM_Timer.c ****                                        
 518:.\Generated_Source\PSoC4/PWM_Timer.c ****     {
 519:.\Generated_Source\PSoC4/PWM_Timer.c ****         #if(PWM_Timer_UsingFixedFunction)
 520:.\Generated_Source\PSoC4/PWM_Timer.c ****             CY_SET_REG16(PWM_Timer_COMPARE1_LSB_PTR, (uint16)compare);
 521:.\Generated_Source\PSoC4/PWM_Timer.c ****         #else
 522:.\Generated_Source\PSoC4/PWM_Timer.c ****             CY_SET_REG16(PWM_Timer_COMPARE1_LSB_PTR, compare);
 523:.\Generated_Source\PSoC4/PWM_Timer.c ****         #endif /* (PWM_Timer_UsingFixedFunction) */
 524:.\Generated_Source\PSoC4/PWM_Timer.c **** 
 525:.\Generated_Source\PSoC4/PWM_Timer.c ****         #if (PWM_Timer_PWMMode == PWM_Timer__B_PWM__DITHER)
 526:.\Generated_Source\PSoC4/PWM_Timer.c ****             #if(PWM_Timer_UsingFixedFunction)
 527:.\Generated_Source\PSoC4/PWM_Timer.c ****                 CY_SET_REG16(PWM_Timer_COMPARE2_LSB_PTR, (uint16)(compare + 1u));
 528:.\Generated_Source\PSoC4/PWM_Timer.c ****             #else
 529:.\Generated_Source\PSoC4/PWM_Timer.c ****                 CY_SET_REG16(PWM_Timer_COMPARE2_LSB_PTR, (compare + 1u));
 530:.\Generated_Source\PSoC4/PWM_Timer.c ****             #endif /* (PWM_Timer_UsingFixedFunction) */
 531:.\Generated_Source\PSoC4/PWM_Timer.c ****         #endif /* (PWM_Timer_PWMMode == PWM_Timer__B_PWM__DITHER) */
 532:.\Generated_Source\PSoC4/PWM_Timer.c ****     }
 533:.\Generated_Source\PSoC4/PWM_Timer.c **** 
 534:.\Generated_Source\PSoC4/PWM_Timer.c **** 
 535:.\Generated_Source\PSoC4/PWM_Timer.c **** #else
 536:.\Generated_Source\PSoC4/PWM_Timer.c **** 
 537:.\Generated_Source\PSoC4/PWM_Timer.c **** 
ARM GAS  C:\Users\Admin\AppData\Local\Temp\ccvACxp2.s 			page 13


 538:.\Generated_Source\PSoC4/PWM_Timer.c ****     /*******************************************************************************
 539:.\Generated_Source\PSoC4/PWM_Timer.c ****     * Function Name: PWM_Timer_WriteCompare1
 540:.\Generated_Source\PSoC4/PWM_Timer.c ****     ********************************************************************************
 541:.\Generated_Source\PSoC4/PWM_Timer.c ****     *
 542:.\Generated_Source\PSoC4/PWM_Timer.c ****     * Summary:
 543:.\Generated_Source\PSoC4/PWM_Timer.c ****     *  This funtion is used to change the compare1 value.  The compare output will
 544:.\Generated_Source\PSoC4/PWM_Timer.c ****     *  reflect the new value on the next UDB clock.  The compare output will be
 545:.\Generated_Source\PSoC4/PWM_Timer.c ****     *  driven high when the present counter value is less than or less than or
 546:.\Generated_Source\PSoC4/PWM_Timer.c ****     *  equal to the compare register, depending on the mode.
 547:.\Generated_Source\PSoC4/PWM_Timer.c ****     *
 548:.\Generated_Source\PSoC4/PWM_Timer.c ****     * Parameters:
 549:.\Generated_Source\PSoC4/PWM_Timer.c ****     *  compare:  New compare value.
 550:.\Generated_Source\PSoC4/PWM_Timer.c ****     *
 551:.\Generated_Source\PSoC4/PWM_Timer.c ****     * Return:
 552:.\Generated_Source\PSoC4/PWM_Timer.c ****     *  None
 553:.\Generated_Source\PSoC4/PWM_Timer.c ****     *
 554:.\Generated_Source\PSoC4/PWM_Timer.c ****     *******************************************************************************/
 555:.\Generated_Source\PSoC4/PWM_Timer.c ****     void PWM_Timer_WriteCompare1(uint16 compare) \
 556:.\Generated_Source\PSoC4/PWM_Timer.c ****                                         
 557:.\Generated_Source\PSoC4/PWM_Timer.c ****     {
 558:.\Generated_Source\PSoC4/PWM_Timer.c ****         #if(PWM_Timer_UsingFixedFunction)
 559:.\Generated_Source\PSoC4/PWM_Timer.c ****             CY_SET_REG16(PWM_Timer_COMPARE1_LSB_PTR, (uint16)compare);
 560:.\Generated_Source\PSoC4/PWM_Timer.c ****         #else
 561:.\Generated_Source\PSoC4/PWM_Timer.c ****             CY_SET_REG16(PWM_Timer_COMPARE1_LSB_PTR, compare);
 562:.\Generated_Source\PSoC4/PWM_Timer.c ****         #endif /* (PWM_Timer_UsingFixedFunction) */
 563:.\Generated_Source\PSoC4/PWM_Timer.c ****     }
 564:.\Generated_Source\PSoC4/PWM_Timer.c **** 
 565:.\Generated_Source\PSoC4/PWM_Timer.c **** 
 566:.\Generated_Source\PSoC4/PWM_Timer.c ****     /*******************************************************************************
 567:.\Generated_Source\PSoC4/PWM_Timer.c ****     * Function Name: PWM_Timer_WriteCompare2
 568:.\Generated_Source\PSoC4/PWM_Timer.c ****     ********************************************************************************
 569:.\Generated_Source\PSoC4/PWM_Timer.c ****     *
 570:.\Generated_Source\PSoC4/PWM_Timer.c ****     * Summary:
 571:.\Generated_Source\PSoC4/PWM_Timer.c ****     *  This funtion is used to change the compare value, for compare1 output.
 572:.\Generated_Source\PSoC4/PWM_Timer.c ****     *  The compare output will reflect the new value on the next UDB clock.
 573:.\Generated_Source\PSoC4/PWM_Timer.c ****     *  The compare output will be driven high when the present counter value is
 574:.\Generated_Source\PSoC4/PWM_Timer.c ****     *  less than or less than or equal to the compare register, depending on the
 575:.\Generated_Source\PSoC4/PWM_Timer.c ****     *  mode.
 576:.\Generated_Source\PSoC4/PWM_Timer.c ****     *
 577:.\Generated_Source\PSoC4/PWM_Timer.c ****     * Parameters:
 578:.\Generated_Source\PSoC4/PWM_Timer.c ****     *  compare:  New compare value.
 579:.\Generated_Source\PSoC4/PWM_Timer.c ****     *
 580:.\Generated_Source\PSoC4/PWM_Timer.c ****     * Return:
 581:.\Generated_Source\PSoC4/PWM_Timer.c ****     *  None
 582:.\Generated_Source\PSoC4/PWM_Timer.c ****     *
 583:.\Generated_Source\PSoC4/PWM_Timer.c ****     *******************************************************************************/
 584:.\Generated_Source\PSoC4/PWM_Timer.c ****     void PWM_Timer_WriteCompare2(uint16 compare) \
 585:.\Generated_Source\PSoC4/PWM_Timer.c ****                                         
 586:.\Generated_Source\PSoC4/PWM_Timer.c ****     {
 587:.\Generated_Source\PSoC4/PWM_Timer.c ****         #if(PWM_Timer_UsingFixedFunction)
 588:.\Generated_Source\PSoC4/PWM_Timer.c ****             CY_SET_REG16(PWM_Timer_COMPARE2_LSB_PTR, compare);
 589:.\Generated_Source\PSoC4/PWM_Timer.c ****         #else
 590:.\Generated_Source\PSoC4/PWM_Timer.c ****             CY_SET_REG16(PWM_Timer_COMPARE2_LSB_PTR, compare);
 591:.\Generated_Source\PSoC4/PWM_Timer.c ****         #endif /* (PWM_Timer_UsingFixedFunction) */
 592:.\Generated_Source\PSoC4/PWM_Timer.c ****     }
 593:.\Generated_Source\PSoC4/PWM_Timer.c **** #endif /* UseOneCompareMode */
 594:.\Generated_Source\PSoC4/PWM_Timer.c **** 
ARM GAS  C:\Users\Admin\AppData\Local\Temp\ccvACxp2.s 			page 14


 595:.\Generated_Source\PSoC4/PWM_Timer.c **** #if (PWM_Timer_DeadBandUsed)
 596:.\Generated_Source\PSoC4/PWM_Timer.c **** 
 597:.\Generated_Source\PSoC4/PWM_Timer.c **** 
 598:.\Generated_Source\PSoC4/PWM_Timer.c ****     /*******************************************************************************
 599:.\Generated_Source\PSoC4/PWM_Timer.c ****     * Function Name: PWM_Timer_WriteDeadTime
 600:.\Generated_Source\PSoC4/PWM_Timer.c ****     ********************************************************************************
 601:.\Generated_Source\PSoC4/PWM_Timer.c ****     *
 602:.\Generated_Source\PSoC4/PWM_Timer.c ****     * Summary:
 603:.\Generated_Source\PSoC4/PWM_Timer.c ****     *  This function writes the dead-band counts to the corresponding register
 604:.\Generated_Source\PSoC4/PWM_Timer.c ****     *
 605:.\Generated_Source\PSoC4/PWM_Timer.c ****     * Parameters:
 606:.\Generated_Source\PSoC4/PWM_Timer.c ****     *  deadtime:  Number of counts for dead time
 607:.\Generated_Source\PSoC4/PWM_Timer.c ****     *
 608:.\Generated_Source\PSoC4/PWM_Timer.c ****     * Return:
 609:.\Generated_Source\PSoC4/PWM_Timer.c ****     *  None
 610:.\Generated_Source\PSoC4/PWM_Timer.c ****     *
 611:.\Generated_Source\PSoC4/PWM_Timer.c ****     *******************************************************************************/
 612:.\Generated_Source\PSoC4/PWM_Timer.c ****     void PWM_Timer_WriteDeadTime(uint8 deadtime) 
 613:.\Generated_Source\PSoC4/PWM_Timer.c ****     {
 614:.\Generated_Source\PSoC4/PWM_Timer.c ****         /* If using the Dead Band 1-255 mode then just write the register */
 615:.\Generated_Source\PSoC4/PWM_Timer.c ****         #if(!PWM_Timer_DeadBand2_4)
 616:.\Generated_Source\PSoC4/PWM_Timer.c ****             CY_SET_REG8(PWM_Timer_DEADBAND_COUNT_PTR, deadtime);
 617:.\Generated_Source\PSoC4/PWM_Timer.c ****         #else
 618:.\Generated_Source\PSoC4/PWM_Timer.c ****             /* Otherwise the data has to be masked and offset */
 619:.\Generated_Source\PSoC4/PWM_Timer.c ****             /* Clear existing data */
 620:.\Generated_Source\PSoC4/PWM_Timer.c ****             PWM_Timer_DEADBAND_COUNT &= ((uint8)(~PWM_Timer_DEADBAND_COUNT_MASK));
 621:.\Generated_Source\PSoC4/PWM_Timer.c **** 
 622:.\Generated_Source\PSoC4/PWM_Timer.c ****             /* Set new dead time */
 623:.\Generated_Source\PSoC4/PWM_Timer.c ****             #if(PWM_Timer_DEADBAND_COUNT_SHIFT)
 624:.\Generated_Source\PSoC4/PWM_Timer.c ****                 PWM_Timer_DEADBAND_COUNT |= ((uint8)((uint8)deadtime << PWM_Timer_DEADBAND_COUNT_SH
 625:.\Generated_Source\PSoC4/PWM_Timer.c ****                                                     PWM_Timer_DEADBAND_COUNT_MASK;
 626:.\Generated_Source\PSoC4/PWM_Timer.c ****             #else
 627:.\Generated_Source\PSoC4/PWM_Timer.c ****                 PWM_Timer_DEADBAND_COUNT |= deadtime & PWM_Timer_DEADBAND_COUNT_MASK;
 628:.\Generated_Source\PSoC4/PWM_Timer.c ****             #endif /* (PWM_Timer_DEADBAND_COUNT_SHIFT) */
 629:.\Generated_Source\PSoC4/PWM_Timer.c **** 
 630:.\Generated_Source\PSoC4/PWM_Timer.c ****         #endif /* (!PWM_Timer_DeadBand2_4) */
 631:.\Generated_Source\PSoC4/PWM_Timer.c ****     }
 632:.\Generated_Source\PSoC4/PWM_Timer.c **** 
 633:.\Generated_Source\PSoC4/PWM_Timer.c **** 
 634:.\Generated_Source\PSoC4/PWM_Timer.c ****     /*******************************************************************************
 635:.\Generated_Source\PSoC4/PWM_Timer.c ****     * Function Name: PWM_Timer_ReadDeadTime
 636:.\Generated_Source\PSoC4/PWM_Timer.c ****     ********************************************************************************
 637:.\Generated_Source\PSoC4/PWM_Timer.c ****     *
 638:.\Generated_Source\PSoC4/PWM_Timer.c ****     * Summary:
 639:.\Generated_Source\PSoC4/PWM_Timer.c ****     *  This function reads the dead-band counts from the corresponding register
 640:.\Generated_Source\PSoC4/PWM_Timer.c ****     *
 641:.\Generated_Source\PSoC4/PWM_Timer.c ****     * Parameters:
 642:.\Generated_Source\PSoC4/PWM_Timer.c ****     *  None
 643:.\Generated_Source\PSoC4/PWM_Timer.c ****     *
 644:.\Generated_Source\PSoC4/PWM_Timer.c ****     * Return:
 645:.\Generated_Source\PSoC4/PWM_Timer.c ****     *  Dead Band Counts
 646:.\Generated_Source\PSoC4/PWM_Timer.c ****     *
 647:.\Generated_Source\PSoC4/PWM_Timer.c ****     *******************************************************************************/
 648:.\Generated_Source\PSoC4/PWM_Timer.c ****     uint8 PWM_Timer_ReadDeadTime(void) 
 649:.\Generated_Source\PSoC4/PWM_Timer.c ****     {
 650:.\Generated_Source\PSoC4/PWM_Timer.c ****         /* If using the Dead Band 1-255 mode then just read the register */
 651:.\Generated_Source\PSoC4/PWM_Timer.c ****         #if(!PWM_Timer_DeadBand2_4)
ARM GAS  C:\Users\Admin\AppData\Local\Temp\ccvACxp2.s 			page 15


 652:.\Generated_Source\PSoC4/PWM_Timer.c ****             return (CY_GET_REG8(PWM_Timer_DEADBAND_COUNT_PTR));
 653:.\Generated_Source\PSoC4/PWM_Timer.c ****         #else
 654:.\Generated_Source\PSoC4/PWM_Timer.c **** 
 655:.\Generated_Source\PSoC4/PWM_Timer.c ****             /* Otherwise the data has to be masked and offset */
 656:.\Generated_Source\PSoC4/PWM_Timer.c ****             #if(PWM_Timer_DEADBAND_COUNT_SHIFT)
 657:.\Generated_Source\PSoC4/PWM_Timer.c ****                 return ((uint8)(((uint8)(PWM_Timer_DEADBAND_COUNT & PWM_Timer_DEADBAND_COUNT_MASK))
 658:.\Generated_Source\PSoC4/PWM_Timer.c ****                                                                            PWM_Timer_DEADBAND_COUNT
 659:.\Generated_Source\PSoC4/PWM_Timer.c ****             #else
 660:.\Generated_Source\PSoC4/PWM_Timer.c ****                 return (PWM_Timer_DEADBAND_COUNT & PWM_Timer_DEADBAND_COUNT_MASK);
 661:.\Generated_Source\PSoC4/PWM_Timer.c ****             #endif /* (PWM_Timer_DEADBAND_COUNT_SHIFT) */
 662:.\Generated_Source\PSoC4/PWM_Timer.c ****         #endif /* (!PWM_Timer_DeadBand2_4) */
 663:.\Generated_Source\PSoC4/PWM_Timer.c ****     }
 664:.\Generated_Source\PSoC4/PWM_Timer.c **** #endif /* DeadBandUsed */
 665:.\Generated_Source\PSoC4/PWM_Timer.c **** 
 666:.\Generated_Source\PSoC4/PWM_Timer.c **** #if (PWM_Timer_UseStatus || PWM_Timer_UsingFixedFunction)
 667:.\Generated_Source\PSoC4/PWM_Timer.c **** 
 668:.\Generated_Source\PSoC4/PWM_Timer.c **** 
 669:.\Generated_Source\PSoC4/PWM_Timer.c ****     /*******************************************************************************
 670:.\Generated_Source\PSoC4/PWM_Timer.c ****     * Function Name: PWM_Timer_SetInterruptMode
 671:.\Generated_Source\PSoC4/PWM_Timer.c ****     ********************************************************************************
 672:.\Generated_Source\PSoC4/PWM_Timer.c ****     *
 673:.\Generated_Source\PSoC4/PWM_Timer.c ****     * Summary:
 674:.\Generated_Source\PSoC4/PWM_Timer.c ****     *  This function configures the interrupts mask control of theinterrupt
 675:.\Generated_Source\PSoC4/PWM_Timer.c ****     *  source status register.
 676:.\Generated_Source\PSoC4/PWM_Timer.c ****     *
 677:.\Generated_Source\PSoC4/PWM_Timer.c ****     * Parameters:
 678:.\Generated_Source\PSoC4/PWM_Timer.c ****     *  uint8 interruptMode: Bit field containing the interrupt sources enabled
 679:.\Generated_Source\PSoC4/PWM_Timer.c ****     *
 680:.\Generated_Source\PSoC4/PWM_Timer.c ****     * Return:
 681:.\Generated_Source\PSoC4/PWM_Timer.c ****     *  None
 682:.\Generated_Source\PSoC4/PWM_Timer.c ****     *
 683:.\Generated_Source\PSoC4/PWM_Timer.c ****     *******************************************************************************/
 684:.\Generated_Source\PSoC4/PWM_Timer.c ****     void PWM_Timer_SetInterruptMode(uint8 interruptMode) 
 685:.\Generated_Source\PSoC4/PWM_Timer.c ****     {
 686:.\Generated_Source\PSoC4/PWM_Timer.c ****         CY_SET_REG8(PWM_Timer_STATUS_MASK_PTR, interruptMode);
 687:.\Generated_Source\PSoC4/PWM_Timer.c ****     }
 688:.\Generated_Source\PSoC4/PWM_Timer.c **** 
 689:.\Generated_Source\PSoC4/PWM_Timer.c **** 
 690:.\Generated_Source\PSoC4/PWM_Timer.c ****     /*******************************************************************************
 691:.\Generated_Source\PSoC4/PWM_Timer.c ****     * Function Name: PWM_Timer_ReadStatusRegister
 692:.\Generated_Source\PSoC4/PWM_Timer.c ****     ********************************************************************************
 693:.\Generated_Source\PSoC4/PWM_Timer.c ****     *
 694:.\Generated_Source\PSoC4/PWM_Timer.c ****     * Summary:
 695:.\Generated_Source\PSoC4/PWM_Timer.c ****     *  This function returns the current state of the status register.
 696:.\Generated_Source\PSoC4/PWM_Timer.c ****     *
 697:.\Generated_Source\PSoC4/PWM_Timer.c ****     * Parameters:
 698:.\Generated_Source\PSoC4/PWM_Timer.c ****     *  None
 699:.\Generated_Source\PSoC4/PWM_Timer.c ****     *
 700:.\Generated_Source\PSoC4/PWM_Timer.c ****     * Return:
 701:.\Generated_Source\PSoC4/PWM_Timer.c ****     *  uint8 : Current status register value. The status register bits are:
 702:.\Generated_Source\PSoC4/PWM_Timer.c ****     *  [7:6] : Unused(0)
 703:.\Generated_Source\PSoC4/PWM_Timer.c ****     *  [5]   : Kill event output
 704:.\Generated_Source\PSoC4/PWM_Timer.c ****     *  [4]   : FIFO not empty
 705:.\Generated_Source\PSoC4/PWM_Timer.c ****     *  [3]   : FIFO full
 706:.\Generated_Source\PSoC4/PWM_Timer.c ****     *  [2]   : Terminal count
 707:.\Generated_Source\PSoC4/PWM_Timer.c ****     *  [1]   : Compare output 2
 708:.\Generated_Source\PSoC4/PWM_Timer.c ****     *  [0]   : Compare output 1
ARM GAS  C:\Users\Admin\AppData\Local\Temp\ccvACxp2.s 			page 16


 709:.\Generated_Source\PSoC4/PWM_Timer.c ****     *
 710:.\Generated_Source\PSoC4/PWM_Timer.c ****     *******************************************************************************/
 711:.\Generated_Source\PSoC4/PWM_Timer.c ****     uint8 PWM_Timer_ReadStatusRegister(void) 
 712:.\Generated_Source\PSoC4/PWM_Timer.c ****     {
 713:.\Generated_Source\PSoC4/PWM_Timer.c ****         return (CY_GET_REG8(PWM_Timer_STATUS_PTR));
 143              		.loc 1 713 0 discriminator 1
 144 0000 034B     		ldr	r3, .L18
 145 0002 1B78     		ldrb	r3, [r3]
 146              	.LBE15:
 147              	.LBE14:
 455:.\Generated_Source\PSoC4/PWM_Timer.c ****             while(0u != (PWM_Timer_ReadStatusRegister() & PWM_Timer_STATUS_FIFONEMPTY))
 148              		.loc 1 455 0 discriminator 1
 149 0004 DA06     		lsl	r2, r3, #27
 150 0006 02D5     		bpl	.L17
 151              	.LBB16:
 152              	.LBB17:
 714:.\Generated_Source\PSoC4/PWM_Timer.c ****     }
 715:.\Generated_Source\PSoC4/PWM_Timer.c **** 
 716:.\Generated_Source\PSoC4/PWM_Timer.c **** #endif /* (PWM_Timer_UseStatus || PWM_Timer_UsingFixedFunction) */
 717:.\Generated_Source\PSoC4/PWM_Timer.c **** 
 718:.\Generated_Source\PSoC4/PWM_Timer.c **** 
 719:.\Generated_Source\PSoC4/PWM_Timer.c **** #if (PWM_Timer_UseControl)
 720:.\Generated_Source\PSoC4/PWM_Timer.c **** 
 721:.\Generated_Source\PSoC4/PWM_Timer.c **** 
 722:.\Generated_Source\PSoC4/PWM_Timer.c ****     /*******************************************************************************
 723:.\Generated_Source\PSoC4/PWM_Timer.c ****     * Function Name: PWM_Timer_ReadControlRegister
 724:.\Generated_Source\PSoC4/PWM_Timer.c ****     ********************************************************************************
 725:.\Generated_Source\PSoC4/PWM_Timer.c ****     *
 726:.\Generated_Source\PSoC4/PWM_Timer.c ****     * Summary:
 727:.\Generated_Source\PSoC4/PWM_Timer.c ****     *  Returns the current state of the control register. This API is available
 728:.\Generated_Source\PSoC4/PWM_Timer.c ****     *  only if the control register is not removed.
 729:.\Generated_Source\PSoC4/PWM_Timer.c ****     *
 730:.\Generated_Source\PSoC4/PWM_Timer.c ****     * Parameters:
 731:.\Generated_Source\PSoC4/PWM_Timer.c ****     *  None
 732:.\Generated_Source\PSoC4/PWM_Timer.c ****     *
 733:.\Generated_Source\PSoC4/PWM_Timer.c ****     * Return:
 734:.\Generated_Source\PSoC4/PWM_Timer.c ****     *  uint8 : Current control register value
 735:.\Generated_Source\PSoC4/PWM_Timer.c ****     *
 736:.\Generated_Source\PSoC4/PWM_Timer.c ****     *******************************************************************************/
 737:.\Generated_Source\PSoC4/PWM_Timer.c ****     uint8 PWM_Timer_ReadControlRegister(void) 
 738:.\Generated_Source\PSoC4/PWM_Timer.c ****     {
 739:.\Generated_Source\PSoC4/PWM_Timer.c ****         uint8 result;
 740:.\Generated_Source\PSoC4/PWM_Timer.c **** 
 741:.\Generated_Source\PSoC4/PWM_Timer.c ****         result = CY_GET_REG8(PWM_Timer_CONTROL_PTR);
 742:.\Generated_Source\PSoC4/PWM_Timer.c ****         return (result);
 743:.\Generated_Source\PSoC4/PWM_Timer.c ****     }
 744:.\Generated_Source\PSoC4/PWM_Timer.c **** 
 745:.\Generated_Source\PSoC4/PWM_Timer.c **** 
 746:.\Generated_Source\PSoC4/PWM_Timer.c ****     /*******************************************************************************
 747:.\Generated_Source\PSoC4/PWM_Timer.c ****     * Function Name: PWM_Timer_WriteControlRegister
 748:.\Generated_Source\PSoC4/PWM_Timer.c ****     ********************************************************************************
 749:.\Generated_Source\PSoC4/PWM_Timer.c ****     *
 750:.\Generated_Source\PSoC4/PWM_Timer.c ****     * Summary:
 751:.\Generated_Source\PSoC4/PWM_Timer.c ****     *  Sets the bit field of the control register. This API is available only if
 752:.\Generated_Source\PSoC4/PWM_Timer.c ****     *  the control register is not removed.
 753:.\Generated_Source\PSoC4/PWM_Timer.c ****     *
 754:.\Generated_Source\PSoC4/PWM_Timer.c ****     * Parameters:
ARM GAS  C:\Users\Admin\AppData\Local\Temp\ccvACxp2.s 			page 17


 755:.\Generated_Source\PSoC4/PWM_Timer.c ****     *  uint8 control: Control register bit field, The status register bits are:
 756:.\Generated_Source\PSoC4/PWM_Timer.c ****     *  [7]   : PWM Enable
 757:.\Generated_Source\PSoC4/PWM_Timer.c ****     *  [6]   : Reset
 758:.\Generated_Source\PSoC4/PWM_Timer.c ****     *  [5:3] : Compare Mode2
 759:.\Generated_Source\PSoC4/PWM_Timer.c ****     *  [2:0] : Compare Mode2
 760:.\Generated_Source\PSoC4/PWM_Timer.c ****     *
 761:.\Generated_Source\PSoC4/PWM_Timer.c ****     * Return:
 762:.\Generated_Source\PSoC4/PWM_Timer.c ****     *  None
 763:.\Generated_Source\PSoC4/PWM_Timer.c ****     *
 764:.\Generated_Source\PSoC4/PWM_Timer.c ****     *******************************************************************************/
 765:.\Generated_Source\PSoC4/PWM_Timer.c ****     void PWM_Timer_WriteControlRegister(uint8 control) 
 766:.\Generated_Source\PSoC4/PWM_Timer.c ****     {
 767:.\Generated_Source\PSoC4/PWM_Timer.c ****         CY_SET_REG8(PWM_Timer_CONTROL_PTR, control);
 768:.\Generated_Source\PSoC4/PWM_Timer.c ****     }
 769:.\Generated_Source\PSoC4/PWM_Timer.c **** 
 770:.\Generated_Source\PSoC4/PWM_Timer.c **** #endif /* (PWM_Timer_UseControl) */
 771:.\Generated_Source\PSoC4/PWM_Timer.c **** 
 772:.\Generated_Source\PSoC4/PWM_Timer.c **** 
 773:.\Generated_Source\PSoC4/PWM_Timer.c **** #if (!PWM_Timer_UsingFixedFunction)
 774:.\Generated_Source\PSoC4/PWM_Timer.c **** 
 775:.\Generated_Source\PSoC4/PWM_Timer.c **** 
 776:.\Generated_Source\PSoC4/PWM_Timer.c ****     /*******************************************************************************
 777:.\Generated_Source\PSoC4/PWM_Timer.c ****     * Function Name: PWM_Timer_ReadCapture
 778:.\Generated_Source\PSoC4/PWM_Timer.c ****     ********************************************************************************
 779:.\Generated_Source\PSoC4/PWM_Timer.c ****     *
 780:.\Generated_Source\PSoC4/PWM_Timer.c ****     * Summary:
 781:.\Generated_Source\PSoC4/PWM_Timer.c ****     *  Reads the capture value from the capture FIFO.
 782:.\Generated_Source\PSoC4/PWM_Timer.c ****     *
 783:.\Generated_Source\PSoC4/PWM_Timer.c ****     * Parameters:
 784:.\Generated_Source\PSoC4/PWM_Timer.c ****     *  None
 785:.\Generated_Source\PSoC4/PWM_Timer.c ****     *
 786:.\Generated_Source\PSoC4/PWM_Timer.c ****     * Return:
 787:.\Generated_Source\PSoC4/PWM_Timer.c ****     *  uint8/uint16: The current capture value
 788:.\Generated_Source\PSoC4/PWM_Timer.c ****     *
 789:.\Generated_Source\PSoC4/PWM_Timer.c ****     *******************************************************************************/
 790:.\Generated_Source\PSoC4/PWM_Timer.c ****     uint16 PWM_Timer_ReadCapture(void) 
 791:.\Generated_Source\PSoC4/PWM_Timer.c ****     {
 792:.\Generated_Source\PSoC4/PWM_Timer.c ****         return (CY_GET_REG16(PWM_Timer_CAPTURE_LSB_PTR));
 153              		.loc 1 792 0
 154 0008 024B     		ldr	r3, .L18+4
 155 000a 1B88     		ldrh	r3, [r3]
 156 000c F8E7     		b	.L14
 157              	.L17:
 158              	.LBE17:
 159              	.LBE16:
 459:.\Generated_Source\PSoC4/PWM_Timer.c ****         }
 160              		.loc 1 459 0
 161              		@ sp needed
 162 000e 7047     		bx	lr
 163              	.L19:
 164              		.align	2
 165              	.L18:
 166 0010 63000F40 		.word	1074724963
 167 0014 A4100F40 		.word	1074729124
 168              		.cfi_endproc
 169              	.LFE6:
 170              		.size	PWM_Timer_ClearFIFO, .-PWM_Timer_ClearFIFO
ARM GAS  C:\Users\Admin\AppData\Local\Temp\ccvACxp2.s 			page 18


 171              		.section	.text.PWM_Timer_Init,"ax",%progbits
 172              		.align	1
 173              		.global	PWM_Timer_Init
 174              		.code	16
 175              		.thumb_func
 176              		.type	PWM_Timer_Init, %function
 177              	PWM_Timer_Init:
 178              	.LFB1:
  85:.\Generated_Source\PSoC4/PWM_Timer.c **** {
 179              		.loc 1 85 0
 180              		.cfi_startproc
 181 0000 10B5     		push	{r4, lr}
 182              		.cfi_def_cfa_offset 8
 183              		.cfi_offset 4, -8
 184              		.cfi_offset 14, -4
 117:.\Generated_Source\PSoC4/PWM_Timer.c ****         ctrl = PWM_Timer_CONTROL & ((uint8)(~PWM_Timer_CTRL_CMPMODE2_MASK)) &
 185              		.loc 1 117 0
 186 0002 124B     		ldr	r3, .L21
 187 0004 3F21     		mov	r1, #63
 188 0006 1A78     		ldrb	r2, [r3]
 189              	.LVL1:
 130:.\Generated_Source\PSoC4/PWM_Timer.c ****             PWM_Timer_AUX_CONTROLDP1 |= (PWM_Timer_AUX_CTRL_FIFO0_CLR);
 190              		.loc 1 130 0
 191 0008 114C     		ldr	r4, .L21+4
 117:.\Generated_Source\PSoC4/PWM_Timer.c ****         ctrl = PWM_Timer_CONTROL & ((uint8)(~PWM_Timer_CTRL_CMPMODE2_MASK)) &
 192              		.loc 1 117 0
 193 000a 8A43     		bic	r2, r1
 194              	.LVL2:
 119:.\Generated_Source\PSoC4/PWM_Timer.c ****         PWM_Timer_CONTROL = ctrl | PWM_Timer_DEFAULT_COMPARE2_MODE |
 195              		.loc 1 119 0
 196 000c 0921     		mov	r1, #9
 197 000e 0A43     		orr	r2, r1
 198 0010 1A70     		strb	r2, [r3]
 129:.\Generated_Source\PSoC4/PWM_Timer.c ****             PWM_Timer_AUX_CONTROLDP0 |= (PWM_Timer_AUX_CTRL_FIFO0_CLR);
 199              		.loc 1 129 0
 200 0012 104A     		ldr	r2, .L21+8
 201 0014 0123     		mov	r3, #1
 202 0016 1178     		ldrb	r1, [r2]
 179:.\Generated_Source\PSoC4/PWM_Timer.c **** }
 203              		.loc 1 179 0
 204              		@ sp needed
 129:.\Generated_Source\PSoC4/PWM_Timer.c ****             PWM_Timer_AUX_CONTROLDP0 |= (PWM_Timer_AUX_CTRL_FIFO0_CLR);
 205              		.loc 1 129 0
 206 0018 1943     		orr	r1, r3
 207 001a 1170     		strb	r1, [r2]
 130:.\Generated_Source\PSoC4/PWM_Timer.c ****             PWM_Timer_AUX_CONTROLDP1 |= (PWM_Timer_AUX_CTRL_FIFO0_CLR);
 208              		.loc 1 130 0
 209 001c 2278     		ldrb	r2, [r4]
 210 001e 1343     		orr	r3, r2
 211 0020 2370     		strb	r3, [r4]
 212              	.LVL3:
 213              	.LBB18:
 214              	.LBB19:
 406:.\Generated_Source\PSoC4/PWM_Timer.c ****         CY_SET_REG16(PWM_Timer_COUNTER_LSB_PTR, counter);
 215              		.loc 1 406 0
 216 0022 0D4A     		ldr	r2, .L21+12
 217 0024 0D4B     		ldr	r3, .L21+16
ARM GAS  C:\Users\Admin\AppData\Local\Temp\ccvACxp2.s 			page 19


 218 0026 1380     		strh	r3, [r2]
 219              	.LVL4:
 220              	.LBE19:
 221              	.LBE18:
 222              	.LBB20:
 223              	.LBB21:
 487:.\Generated_Source\PSoC4/PWM_Timer.c ****         CY_SET_REG16(PWM_Timer_PERIOD_LSB_PTR, period);
 224              		.loc 1 487 0
 225 0028 0D4A     		ldr	r2, .L21+20
 226 002a 1380     		strh	r3, [r2]
 227              	.LVL5:
 228              	.LBE21:
 229              	.LBE20:
 230              	.LBB22:
 231              	.LBB23:
 522:.\Generated_Source\PSoC4/PWM_Timer.c ****             CY_SET_REG16(PWM_Timer_COMPARE1_LSB_PTR, compare);
 232              		.loc 1 522 0
 233 002c 0D4A     		ldr	r2, .L21+24
 234 002e 1380     		strh	r3, [r2]
 235              	.LVL6:
 236              	.LBE23:
 237              	.LBE22:
 238              	.LBB24:
 239              	.LBB25:
 686:.\Generated_Source\PSoC4/PWM_Timer.c ****         CY_SET_REG8(PWM_Timer_STATUS_MASK_PTR, interruptMode);
 240              		.loc 1 686 0
 241 0030 0D4B     		ldr	r3, .L21+28
 242 0032 0422     		mov	r2, #4
 243 0034 1A70     		strb	r2, [r3]
 244              	.LBE25:
 245              	.LBE24:
 167:.\Generated_Source\PSoC4/PWM_Timer.c ****             PWM_Timer_interruptState = CyEnterCriticalSection();
 246              		.loc 1 167 0
 247 0036 FFF7FEFF 		bl	CyEnterCriticalSection
 248              	.LVL7:
 169:.\Generated_Source\PSoC4/PWM_Timer.c ****             PWM_Timer_STATUS_AUX_CTRL |= PWM_Timer_STATUS_ACTL_INT_EN_MASK;
 249              		.loc 1 169 0
 250 003a 2378     		ldrb	r3, [r4]
 251 003c 1022     		mov	r2, #16
 252 003e 1343     		orr	r3, r2
 253 0040 2370     		strb	r3, [r4]
 172:.\Generated_Source\PSoC4/PWM_Timer.c ****             CyExitCriticalSection(PWM_Timer_interruptState);
 254              		.loc 1 172 0
 255 0042 FFF7FEFF 		bl	CyExitCriticalSection
 256              	.LVL8:
 176:.\Generated_Source\PSoC4/PWM_Timer.c ****             PWM_Timer_ClearFIFO();
 257              		.loc 1 176 0
 258 0046 FFF7FEFF 		bl	PWM_Timer_ClearFIFO
 259              	.LVL9:
 179:.\Generated_Source\PSoC4/PWM_Timer.c **** }
 260              		.loc 1 179 0
 261 004a 10BD     		pop	{r4, pc}
 262              	.L22:
 263              		.align	2
 264              	.L21:
 265 004c 72000F40 		.word	1074724978
 266 0050 93000F40 		.word	1074725011
ARM GAS  C:\Users\Admin\AppData\Local\Temp\ccvACxp2.s 			page 20


 267 0054 92000F40 		.word	1074725010
 268 0058 04100F40 		.word	1074728964
 269 005c 204E0000 		.word	20000
 270 0060 84100F40 		.word	1074729092
 271 0064 44100F40 		.word	1074729028
 272 0068 83000F40 		.word	1074724995
 273              		.cfi_endproc
 274              	.LFE1:
 275              		.size	PWM_Timer_Init, .-PWM_Timer_Init
 276              		.section	.text.PWM_Timer_Start,"ax",%progbits
 277              		.align	1
 278              		.global	PWM_Timer_Start
 279              		.code	16
 280              		.thumb_func
 281              		.type	PWM_Timer_Start, %function
 282              	PWM_Timer_Start:
 283              	.LFB0:
  56:.\Generated_Source\PSoC4/PWM_Timer.c **** {
 284              		.loc 1 56 0
 285              		.cfi_startproc
 286 0000 10B5     		push	{r4, lr}
 287              		.cfi_def_cfa_offset 8
 288              		.cfi_offset 4, -8
 289              		.cfi_offset 14, -4
  58:.\Generated_Source\PSoC4/PWM_Timer.c ****     if(PWM_Timer_initVar == 0u)
 290              		.loc 1 58 0
 291 0002 054C     		ldr	r4, .L25
 292 0004 2378     		ldrb	r3, [r4]
 293 0006 002B     		cmp	r3, #0
 294 0008 03D1     		bne	.L24
  60:.\Generated_Source\PSoC4/PWM_Timer.c ****         PWM_Timer_Init();
 295              		.loc 1 60 0
 296 000a FFF7FEFF 		bl	PWM_Timer_Init
 297              	.LVL10:
  61:.\Generated_Source\PSoC4/PWM_Timer.c ****         PWM_Timer_initVar = 1u;
 298              		.loc 1 61 0
 299 000e 0123     		mov	r3, #1
 300 0010 2370     		strb	r3, [r4]
 301              	.L24:
  63:.\Generated_Source\PSoC4/PWM_Timer.c ****     PWM_Timer_Enable();
 302              		.loc 1 63 0
 303 0012 FFF7FEFF 		bl	PWM_Timer_Enable
 304              	.LVL11:
  65:.\Generated_Source\PSoC4/PWM_Timer.c **** }
 305              		.loc 1 65 0
 306              		@ sp needed
 307 0016 10BD     		pop	{r4, pc}
 308              	.L26:
 309              		.align	2
 310              	.L25:
 311 0018 00000000 		.word	.LANCHOR0
 312              		.cfi_endproc
 313              	.LFE0:
 314              		.size	PWM_Timer_Start, .-PWM_Timer_Start
 315              		.section	.text.PWM_Timer_WritePeriod,"ax",%progbits
 316              		.align	1
 317              		.global	PWM_Timer_WritePeriod
ARM GAS  C:\Users\Admin\AppData\Local\Temp\ccvACxp2.s 			page 21


 318              		.code	16
 319              		.thumb_func
 320              		.type	PWM_Timer_WritePeriod, %function
 321              	PWM_Timer_WritePeriod:
 322              	.LFB7:
 483:.\Generated_Source\PSoC4/PWM_Timer.c **** {
 323              		.loc 1 483 0
 324              		.cfi_startproc
 325              	.LVL12:
 487:.\Generated_Source\PSoC4/PWM_Timer.c ****         CY_SET_REG16(PWM_Timer_PERIOD_LSB_PTR, period);
 326              		.loc 1 487 0
 327 0000 014B     		ldr	r3, .L28
 489:.\Generated_Source\PSoC4/PWM_Timer.c **** }
 328              		.loc 1 489 0
 329              		@ sp needed
 487:.\Generated_Source\PSoC4/PWM_Timer.c ****         CY_SET_REG16(PWM_Timer_PERIOD_LSB_PTR, period);
 330              		.loc 1 487 0
 331 0002 1880     		strh	r0, [r3]
 489:.\Generated_Source\PSoC4/PWM_Timer.c **** }
 332              		.loc 1 489 0
 333 0004 7047     		bx	lr
 334              	.L29:
 335 0006 C046     		.align	2
 336              	.L28:
 337 0008 84100F40 		.word	1074729092
 338              		.cfi_endproc
 339              	.LFE7:
 340              		.size	PWM_Timer_WritePeriod, .-PWM_Timer_WritePeriod
 341              		.section	.text.PWM_Timer_WriteCompare,"ax",%progbits
 342              		.align	1
 343              		.global	PWM_Timer_WriteCompare
 344              		.code	16
 345              		.thumb_func
 346              		.type	PWM_Timer_WriteCompare, %function
 347              	PWM_Timer_WriteCompare:
 348              	.LFB8:
 518:.\Generated_Source\PSoC4/PWM_Timer.c ****     {
 349              		.loc 1 518 0
 350              		.cfi_startproc
 351              	.LVL13:
 522:.\Generated_Source\PSoC4/PWM_Timer.c ****             CY_SET_REG16(PWM_Timer_COMPARE1_LSB_PTR, compare);
 352              		.loc 1 522 0
 353 0000 014B     		ldr	r3, .L31
 532:.\Generated_Source\PSoC4/PWM_Timer.c ****     }
 354              		.loc 1 532 0
 355              		@ sp needed
 522:.\Generated_Source\PSoC4/PWM_Timer.c ****             CY_SET_REG16(PWM_Timer_COMPARE1_LSB_PTR, compare);
 356              		.loc 1 522 0
 357 0002 1880     		strh	r0, [r3]
 532:.\Generated_Source\PSoC4/PWM_Timer.c ****     }
 358              		.loc 1 532 0
 359 0004 7047     		bx	lr
 360              	.L32:
 361 0006 C046     		.align	2
 362              	.L31:
 363 0008 44100F40 		.word	1074729028
 364              		.cfi_endproc
ARM GAS  C:\Users\Admin\AppData\Local\Temp\ccvACxp2.s 			page 22


 365              	.LFE8:
 366              		.size	PWM_Timer_WriteCompare, .-PWM_Timer_WriteCompare
 367              		.section	.text.PWM_Timer_SetInterruptMode,"ax",%progbits
 368              		.align	1
 369              		.global	PWM_Timer_SetInterruptMode
 370              		.code	16
 371              		.thumb_func
 372              		.type	PWM_Timer_SetInterruptMode, %function
 373              	PWM_Timer_SetInterruptMode:
 374              	.LFB9:
 685:.\Generated_Source\PSoC4/PWM_Timer.c ****     {
 375              		.loc 1 685 0
 376              		.cfi_startproc
 377              	.LVL14:
 686:.\Generated_Source\PSoC4/PWM_Timer.c ****         CY_SET_REG8(PWM_Timer_STATUS_MASK_PTR, interruptMode);
 378              		.loc 1 686 0
 379 0000 014B     		ldr	r3, .L34
 687:.\Generated_Source\PSoC4/PWM_Timer.c ****     }
 380              		.loc 1 687 0
 381              		@ sp needed
 686:.\Generated_Source\PSoC4/PWM_Timer.c ****         CY_SET_REG8(PWM_Timer_STATUS_MASK_PTR, interruptMode);
 382              		.loc 1 686 0
 383 0002 1870     		strb	r0, [r3]
 687:.\Generated_Source\PSoC4/PWM_Timer.c ****     }
 384              		.loc 1 687 0
 385 0004 7047     		bx	lr
 386              	.L35:
 387 0006 C046     		.align	2
 388              	.L34:
 389 0008 83000F40 		.word	1074724995
 390              		.cfi_endproc
 391              	.LFE9:
 392              		.size	PWM_Timer_SetInterruptMode, .-PWM_Timer_SetInterruptMode
 393              		.section	.text.PWM_Timer_ReadStatusRegister,"ax",%progbits
 394              		.align	1
 395              		.global	PWM_Timer_ReadStatusRegister
 396              		.code	16
 397              		.thumb_func
 398              		.type	PWM_Timer_ReadStatusRegister, %function
 399              	PWM_Timer_ReadStatusRegister:
 400              	.LFB10:
 712:.\Generated_Source\PSoC4/PWM_Timer.c ****     {
 401              		.loc 1 712 0
 402              		.cfi_startproc
 713:.\Generated_Source\PSoC4/PWM_Timer.c ****         return (CY_GET_REG8(PWM_Timer_STATUS_PTR));
 403              		.loc 1 713 0
 404 0000 014B     		ldr	r3, .L37
 714:.\Generated_Source\PSoC4/PWM_Timer.c ****     }
 405              		.loc 1 714 0
 406              		@ sp needed
 713:.\Generated_Source\PSoC4/PWM_Timer.c ****         return (CY_GET_REG8(PWM_Timer_STATUS_PTR));
 407              		.loc 1 713 0
 408 0002 1878     		ldrb	r0, [r3]
 409 0004 C0B2     		uxtb	r0, r0
 714:.\Generated_Source\PSoC4/PWM_Timer.c ****     }
 410              		.loc 1 714 0
 411 0006 7047     		bx	lr
ARM GAS  C:\Users\Admin\AppData\Local\Temp\ccvACxp2.s 			page 23


 412              	.L38:
 413              		.align	2
 414              	.L37:
 415 0008 63000F40 		.word	1074724963
 416              		.cfi_endproc
 417              	.LFE10:
 418              		.size	PWM_Timer_ReadStatusRegister, .-PWM_Timer_ReadStatusRegister
 419              		.section	.text.PWM_Timer_ReadControlRegister,"ax",%progbits
 420              		.align	1
 421              		.global	PWM_Timer_ReadControlRegister
 422              		.code	16
 423              		.thumb_func
 424              		.type	PWM_Timer_ReadControlRegister, %function
 425              	PWM_Timer_ReadControlRegister:
 426              	.LFB11:
 738:.\Generated_Source\PSoC4/PWM_Timer.c ****     {
 427              		.loc 1 738 0
 428              		.cfi_startproc
 741:.\Generated_Source\PSoC4/PWM_Timer.c ****         result = CY_GET_REG8(PWM_Timer_CONTROL_PTR);
 429              		.loc 1 741 0
 430 0000 014B     		ldr	r3, .L40
 743:.\Generated_Source\PSoC4/PWM_Timer.c ****     }
 431              		.loc 1 743 0
 432              		@ sp needed
 741:.\Generated_Source\PSoC4/PWM_Timer.c ****         result = CY_GET_REG8(PWM_Timer_CONTROL_PTR);
 433              		.loc 1 741 0
 434 0002 1878     		ldrb	r0, [r3]
 435 0004 C0B2     		uxtb	r0, r0
 436              	.LVL15:
 743:.\Generated_Source\PSoC4/PWM_Timer.c ****     }
 437              		.loc 1 743 0
 438 0006 7047     		bx	lr
 439              	.L41:
 440              		.align	2
 441              	.L40:
 442 0008 72000F40 		.word	1074724978
 443              		.cfi_endproc
 444              	.LFE11:
 445              		.size	PWM_Timer_ReadControlRegister, .-PWM_Timer_ReadControlRegister
 446              		.section	.text.PWM_Timer_WriteControlRegister,"ax",%progbits
 447              		.align	1
 448              		.global	PWM_Timer_WriteControlRegister
 449              		.code	16
 450              		.thumb_func
 451              		.type	PWM_Timer_WriteControlRegister, %function
 452              	PWM_Timer_WriteControlRegister:
 453              	.LFB12:
 766:.\Generated_Source\PSoC4/PWM_Timer.c ****     {
 454              		.loc 1 766 0
 455              		.cfi_startproc
 456              	.LVL16:
 767:.\Generated_Source\PSoC4/PWM_Timer.c ****         CY_SET_REG8(PWM_Timer_CONTROL_PTR, control);
 457              		.loc 1 767 0
 458 0000 014B     		ldr	r3, .L43
 768:.\Generated_Source\PSoC4/PWM_Timer.c ****     }
 459              		.loc 1 768 0
 460              		@ sp needed
ARM GAS  C:\Users\Admin\AppData\Local\Temp\ccvACxp2.s 			page 24


 767:.\Generated_Source\PSoC4/PWM_Timer.c ****         CY_SET_REG8(PWM_Timer_CONTROL_PTR, control);
 461              		.loc 1 767 0
 462 0002 1870     		strb	r0, [r3]
 768:.\Generated_Source\PSoC4/PWM_Timer.c ****     }
 463              		.loc 1 768 0
 464 0004 7047     		bx	lr
 465              	.L44:
 466 0006 C046     		.align	2
 467              	.L43:
 468 0008 72000F40 		.word	1074724978
 469              		.cfi_endproc
 470              	.LFE12:
 471              		.size	PWM_Timer_WriteControlRegister, .-PWM_Timer_WriteControlRegister
 472              		.section	.text.PWM_Timer_ReadCapture,"ax",%progbits
 473              		.align	1
 474              		.global	PWM_Timer_ReadCapture
 475              		.code	16
 476              		.thumb_func
 477              		.type	PWM_Timer_ReadCapture, %function
 478              	PWM_Timer_ReadCapture:
 479              	.LFB13:
 791:.\Generated_Source\PSoC4/PWM_Timer.c ****     {
 480              		.loc 1 791 0
 481              		.cfi_startproc
 482              		.loc 1 792 0
 483 0000 014B     		ldr	r3, .L46
 793:.\Generated_Source\PSoC4/PWM_Timer.c ****     }
 484              		.loc 1 793 0
 485              		@ sp needed
 792:.\Generated_Source\PSoC4/PWM_Timer.c ****         return (CY_GET_REG16(PWM_Timer_CAPTURE_LSB_PTR));
 486              		.loc 1 792 0
 487 0002 1888     		ldrh	r0, [r3]
 488 0004 80B2     		uxth	r0, r0
 489              		.loc 1 793 0
 490 0006 7047     		bx	lr
 491              	.L47:
 492              		.align	2
 493              	.L46:
 494 0008 A4100F40 		.word	1074729124
 495              		.cfi_endproc
 496              	.LFE13:
 497              		.size	PWM_Timer_ReadCapture, .-PWM_Timer_ReadCapture
 498              		.section	.text.PWM_Timer_ReadCompare,"ax",%progbits
 499              		.align	1
 500              		.global	PWM_Timer_ReadCompare
 501              		.code	16
 502              		.thumb_func
 503              		.type	PWM_Timer_ReadCompare, %function
 504              	PWM_Timer_ReadCompare:
 505              	.LFB14:
 794:.\Generated_Source\PSoC4/PWM_Timer.c **** 
 795:.\Generated_Source\PSoC4/PWM_Timer.c **** #endif /* (!PWM_Timer_UsingFixedFunction) */
 796:.\Generated_Source\PSoC4/PWM_Timer.c **** 
 797:.\Generated_Source\PSoC4/PWM_Timer.c **** 
 798:.\Generated_Source\PSoC4/PWM_Timer.c **** #if (PWM_Timer_UseOneCompareMode)
 799:.\Generated_Source\PSoC4/PWM_Timer.c **** 
 800:.\Generated_Source\PSoC4/PWM_Timer.c **** 
ARM GAS  C:\Users\Admin\AppData\Local\Temp\ccvACxp2.s 			page 25


 801:.\Generated_Source\PSoC4/PWM_Timer.c ****     /*******************************************************************************
 802:.\Generated_Source\PSoC4/PWM_Timer.c ****     * Function Name: PWM_Timer_ReadCompare
 803:.\Generated_Source\PSoC4/PWM_Timer.c ****     ********************************************************************************
 804:.\Generated_Source\PSoC4/PWM_Timer.c ****     *
 805:.\Generated_Source\PSoC4/PWM_Timer.c ****     * Summary:
 806:.\Generated_Source\PSoC4/PWM_Timer.c ****     *  Reads the compare value for the compare output when the PWM Mode parameter is
 807:.\Generated_Source\PSoC4/PWM_Timer.c ****     *  set to Dither mode, Center Aligned mode, or One Output mode.
 808:.\Generated_Source\PSoC4/PWM_Timer.c ****     *
 809:.\Generated_Source\PSoC4/PWM_Timer.c ****     * Parameters:
 810:.\Generated_Source\PSoC4/PWM_Timer.c ****     *  None
 811:.\Generated_Source\PSoC4/PWM_Timer.c ****     *
 812:.\Generated_Source\PSoC4/PWM_Timer.c ****     * Return:
 813:.\Generated_Source\PSoC4/PWM_Timer.c ****     *  uint8/uint16: Current compare value
 814:.\Generated_Source\PSoC4/PWM_Timer.c ****     *
 815:.\Generated_Source\PSoC4/PWM_Timer.c ****     *******************************************************************************/
 816:.\Generated_Source\PSoC4/PWM_Timer.c ****     uint16 PWM_Timer_ReadCompare(void) 
 817:.\Generated_Source\PSoC4/PWM_Timer.c ****     {
 506              		.loc 1 817 0
 507              		.cfi_startproc
 818:.\Generated_Source\PSoC4/PWM_Timer.c ****         #if(PWM_Timer_UsingFixedFunction)
 819:.\Generated_Source\PSoC4/PWM_Timer.c ****             return ((uint16)CY_GET_REG16(PWM_Timer_COMPARE1_LSB_PTR));
 820:.\Generated_Source\PSoC4/PWM_Timer.c ****         #else
 821:.\Generated_Source\PSoC4/PWM_Timer.c ****             return (CY_GET_REG16(PWM_Timer_COMPARE1_LSB_PTR));
 508              		.loc 1 821 0
 509 0000 014B     		ldr	r3, .L49
 822:.\Generated_Source\PSoC4/PWM_Timer.c ****         #endif /* (PWM_Timer_UsingFixedFunction) */
 823:.\Generated_Source\PSoC4/PWM_Timer.c ****     }
 510              		.loc 1 823 0
 511              		@ sp needed
 821:.\Generated_Source\PSoC4/PWM_Timer.c ****             return (CY_GET_REG16(PWM_Timer_COMPARE1_LSB_PTR));
 512              		.loc 1 821 0
 513 0002 1888     		ldrh	r0, [r3]
 514 0004 80B2     		uxth	r0, r0
 515              		.loc 1 823 0
 516 0006 7047     		bx	lr
 517              	.L50:
 518              		.align	2
 519              	.L49:
 520 0008 44100F40 		.word	1074729028
 521              		.cfi_endproc
 522              	.LFE14:
 523              		.size	PWM_Timer_ReadCompare, .-PWM_Timer_ReadCompare
 524              		.section	.text.PWM_Timer_ReadPeriod,"ax",%progbits
 525              		.align	1
 526              		.global	PWM_Timer_ReadPeriod
 527              		.code	16
 528              		.thumb_func
 529              		.type	PWM_Timer_ReadPeriod, %function
 530              	PWM_Timer_ReadPeriod:
 531              	.LFB15:
 824:.\Generated_Source\PSoC4/PWM_Timer.c **** 
 825:.\Generated_Source\PSoC4/PWM_Timer.c **** #else
 826:.\Generated_Source\PSoC4/PWM_Timer.c **** 
 827:.\Generated_Source\PSoC4/PWM_Timer.c **** 
 828:.\Generated_Source\PSoC4/PWM_Timer.c ****     /*******************************************************************************
 829:.\Generated_Source\PSoC4/PWM_Timer.c ****     * Function Name: PWM_Timer_ReadCompare1
 830:.\Generated_Source\PSoC4/PWM_Timer.c ****     ********************************************************************************
ARM GAS  C:\Users\Admin\AppData\Local\Temp\ccvACxp2.s 			page 26


 831:.\Generated_Source\PSoC4/PWM_Timer.c ****     *
 832:.\Generated_Source\PSoC4/PWM_Timer.c ****     * Summary:
 833:.\Generated_Source\PSoC4/PWM_Timer.c ****     *  Reads the compare value for the compare1 output.
 834:.\Generated_Source\PSoC4/PWM_Timer.c ****     *
 835:.\Generated_Source\PSoC4/PWM_Timer.c ****     * Parameters:
 836:.\Generated_Source\PSoC4/PWM_Timer.c ****     *  None
 837:.\Generated_Source\PSoC4/PWM_Timer.c ****     *
 838:.\Generated_Source\PSoC4/PWM_Timer.c ****     * Return:
 839:.\Generated_Source\PSoC4/PWM_Timer.c ****     *  uint8/uint16: Current compare value.
 840:.\Generated_Source\PSoC4/PWM_Timer.c ****     *
 841:.\Generated_Source\PSoC4/PWM_Timer.c ****     *******************************************************************************/
 842:.\Generated_Source\PSoC4/PWM_Timer.c ****     uint16 PWM_Timer_ReadCompare1(void) 
 843:.\Generated_Source\PSoC4/PWM_Timer.c ****     {
 844:.\Generated_Source\PSoC4/PWM_Timer.c ****         return (CY_GET_REG16(PWM_Timer_COMPARE1_LSB_PTR));
 845:.\Generated_Source\PSoC4/PWM_Timer.c ****     }
 846:.\Generated_Source\PSoC4/PWM_Timer.c **** 
 847:.\Generated_Source\PSoC4/PWM_Timer.c **** 
 848:.\Generated_Source\PSoC4/PWM_Timer.c ****     /*******************************************************************************
 849:.\Generated_Source\PSoC4/PWM_Timer.c ****     * Function Name: PWM_Timer_ReadCompare2
 850:.\Generated_Source\PSoC4/PWM_Timer.c ****     ********************************************************************************
 851:.\Generated_Source\PSoC4/PWM_Timer.c ****     *
 852:.\Generated_Source\PSoC4/PWM_Timer.c ****     * Summary:
 853:.\Generated_Source\PSoC4/PWM_Timer.c ****     *  Reads the compare value for the compare2 output.
 854:.\Generated_Source\PSoC4/PWM_Timer.c ****     *
 855:.\Generated_Source\PSoC4/PWM_Timer.c ****     * Parameters:
 856:.\Generated_Source\PSoC4/PWM_Timer.c ****     *  None
 857:.\Generated_Source\PSoC4/PWM_Timer.c ****     *
 858:.\Generated_Source\PSoC4/PWM_Timer.c ****     * Return:
 859:.\Generated_Source\PSoC4/PWM_Timer.c ****     *  uint8/uint16: Current compare value.
 860:.\Generated_Source\PSoC4/PWM_Timer.c ****     *
 861:.\Generated_Source\PSoC4/PWM_Timer.c ****     *******************************************************************************/
 862:.\Generated_Source\PSoC4/PWM_Timer.c ****     uint16 PWM_Timer_ReadCompare2(void) 
 863:.\Generated_Source\PSoC4/PWM_Timer.c ****     {
 864:.\Generated_Source\PSoC4/PWM_Timer.c ****         return (CY_GET_REG16(PWM_Timer_COMPARE2_LSB_PTR));
 865:.\Generated_Source\PSoC4/PWM_Timer.c ****     }
 866:.\Generated_Source\PSoC4/PWM_Timer.c **** 
 867:.\Generated_Source\PSoC4/PWM_Timer.c **** #endif /* (PWM_Timer_UseOneCompareMode) */
 868:.\Generated_Source\PSoC4/PWM_Timer.c **** 
 869:.\Generated_Source\PSoC4/PWM_Timer.c **** 
 870:.\Generated_Source\PSoC4/PWM_Timer.c **** /*******************************************************************************
 871:.\Generated_Source\PSoC4/PWM_Timer.c **** * Function Name: PWM_Timer_ReadPeriod
 872:.\Generated_Source\PSoC4/PWM_Timer.c **** ********************************************************************************
 873:.\Generated_Source\PSoC4/PWM_Timer.c **** *
 874:.\Generated_Source\PSoC4/PWM_Timer.c **** * Summary:
 875:.\Generated_Source\PSoC4/PWM_Timer.c **** *  Reads the period value used by the PWM hardware.
 876:.\Generated_Source\PSoC4/PWM_Timer.c **** *
 877:.\Generated_Source\PSoC4/PWM_Timer.c **** * Parameters:
 878:.\Generated_Source\PSoC4/PWM_Timer.c **** *  None
 879:.\Generated_Source\PSoC4/PWM_Timer.c **** *
 880:.\Generated_Source\PSoC4/PWM_Timer.c **** * Return:
 881:.\Generated_Source\PSoC4/PWM_Timer.c **** *  uint8/16: Period value
 882:.\Generated_Source\PSoC4/PWM_Timer.c **** *
 883:.\Generated_Source\PSoC4/PWM_Timer.c **** *******************************************************************************/
 884:.\Generated_Source\PSoC4/PWM_Timer.c **** uint16 PWM_Timer_ReadPeriod(void) 
 885:.\Generated_Source\PSoC4/PWM_Timer.c **** {
 532              		.loc 1 885 0
 533              		.cfi_startproc
ARM GAS  C:\Users\Admin\AppData\Local\Temp\ccvACxp2.s 			page 27


 886:.\Generated_Source\PSoC4/PWM_Timer.c ****     #if(PWM_Timer_UsingFixedFunction)
 887:.\Generated_Source\PSoC4/PWM_Timer.c ****         return ((uint16)CY_GET_REG16(PWM_Timer_PERIOD_LSB_PTR));
 888:.\Generated_Source\PSoC4/PWM_Timer.c ****     #else
 889:.\Generated_Source\PSoC4/PWM_Timer.c ****         return (CY_GET_REG16(PWM_Timer_PERIOD_LSB_PTR));
 534              		.loc 1 889 0
 535 0000 014B     		ldr	r3, .L52
 890:.\Generated_Source\PSoC4/PWM_Timer.c ****     #endif /* (PWM_Timer_UsingFixedFunction) */
 891:.\Generated_Source\PSoC4/PWM_Timer.c **** }
 536              		.loc 1 891 0
 537              		@ sp needed
 889:.\Generated_Source\PSoC4/PWM_Timer.c ****         return (CY_GET_REG16(PWM_Timer_PERIOD_LSB_PTR));
 538              		.loc 1 889 0
 539 0002 1888     		ldrh	r0, [r3]
 540 0004 80B2     		uxth	r0, r0
 541              		.loc 1 891 0
 542 0006 7047     		bx	lr
 543              	.L53:
 544              		.align	2
 545              	.L52:
 546 0008 84100F40 		.word	1074729092
 547              		.cfi_endproc
 548              	.LFE15:
 549              		.size	PWM_Timer_ReadPeriod, .-PWM_Timer_ReadPeriod
 550              		.global	PWM_Timer_initVar
 551              		.bss
 552              		.set	.LANCHOR0,. + 0
 553              		.type	PWM_Timer_initVar, %object
 554              		.size	PWM_Timer_initVar, 1
 555              	PWM_Timer_initVar:
 556 0000 00       		.space	1
 557              		.text
 558              	.Letext0:
 559              		.file 2 ".\\Generated_Source\\PSoC4\\cytypes.h"
 560              		.file 3 ".\\Generated_Source\\PSoC4\\CyLib.h"