ARM GAS  C:\Users\Admin\AppData\Local\Temp\ccbkeI6c.s 			page 1


   1              		.cpu cortex-m0
   2              		.fpu softvfp
   3              		.eabi_attribute 20, 1
   4              		.eabi_attribute 21, 1
   5              		.eabi_attribute 23, 3
   6              		.eabi_attribute 24, 1
   7              		.eabi_attribute 25, 1
   8              		.eabi_attribute 26, 1
   9              		.eabi_attribute 30, 6
  10              		.eabi_attribute 34, 0
  11              		.eabi_attribute 18, 4
  12              		.code	16
  13              		.file	"cyfitter_cfg.c"
  14              		.text
  15              	.Ltext0:
  16              		.cfi_sections	.debug_frame
  17              		.section	.text.CYMEMZERO,"ax",%progbits
  18              		.align	2
  19              		.code	16
  20              		.thumb_func
  21              		.type	CYMEMZERO, %function
  22              	CYMEMZERO:
  23              	.LFB0:
  24              		.file 1 ".\\Generated_Source\\PSoC4\\cyfitter_cfg.c"
   1:.\Generated_Source\PSoC4/cyfitter_cfg.c **** /*******************************************************************************
   2:.\Generated_Source\PSoC4/cyfitter_cfg.c **** * FILENAME: cyfitter_cfg.c
   3:.\Generated_Source\PSoC4/cyfitter_cfg.c **** * PSoC Creator  3.1 SP1
   4:.\Generated_Source\PSoC4/cyfitter_cfg.c **** *
   5:.\Generated_Source\PSoC4/cyfitter_cfg.c **** * Description:
   6:.\Generated_Source\PSoC4/cyfitter_cfg.c **** * This file is automatically generated by PSoC Creator with device 
   7:.\Generated_Source\PSoC4/cyfitter_cfg.c **** * initialization code.  Except for the user defined sections in
   8:.\Generated_Source\PSoC4/cyfitter_cfg.c **** * CyClockStartupError(), this file should not be modified.
   9:.\Generated_Source\PSoC4/cyfitter_cfg.c **** *
  10:.\Generated_Source\PSoC4/cyfitter_cfg.c **** ********************************************************************************
  11:.\Generated_Source\PSoC4/cyfitter_cfg.c **** * Copyright 2013, Cypress Semiconductor Corporation.  All rights reserved.
  12:.\Generated_Source\PSoC4/cyfitter_cfg.c **** * You may use this file only in accordance with the license, terms, conditions, 
  13:.\Generated_Source\PSoC4/cyfitter_cfg.c **** * disclaimers, and limitations in the end user license agreement accompanying 
  14:.\Generated_Source\PSoC4/cyfitter_cfg.c **** * the software package with which this file was provided.
  15:.\Generated_Source\PSoC4/cyfitter_cfg.c **** ********************************************************************************/
  16:.\Generated_Source\PSoC4/cyfitter_cfg.c **** 
  17:.\Generated_Source\PSoC4/cyfitter_cfg.c **** #include <string.h>
  18:.\Generated_Source\PSoC4/cyfitter_cfg.c **** #include <cytypes.h>
  19:.\Generated_Source\PSoC4/cyfitter_cfg.c **** #include <cydevice_trm.h>
  20:.\Generated_Source\PSoC4/cyfitter_cfg.c **** #include <cyfitter.h>
  21:.\Generated_Source\PSoC4/cyfitter_cfg.c **** #include <CyLib.h>
  22:.\Generated_Source\PSoC4/cyfitter_cfg.c **** #include <cyfitter_cfg.h>
  23:.\Generated_Source\PSoC4/cyfitter_cfg.c **** 
  24:.\Generated_Source\PSoC4/cyfitter_cfg.c **** 
  25:.\Generated_Source\PSoC4/cyfitter_cfg.c **** #if defined(__GNUC__) || defined(__ARMCC_VERSION)
  26:.\Generated_Source\PSoC4/cyfitter_cfg.c ****     #define CYPACKED 
  27:.\Generated_Source\PSoC4/cyfitter_cfg.c ****     #define CYPACKED_ATTR __attribute__ ((packed))
  28:.\Generated_Source\PSoC4/cyfitter_cfg.c ****     #define CYALIGNED __attribute__ ((aligned))
  29:.\Generated_Source\PSoC4/cyfitter_cfg.c ****     #define CY_CFG_UNUSED __attribute__ ((unused))
  30:.\Generated_Source\PSoC4/cyfitter_cfg.c ****     #define CY_CFG_SECTION __attribute__ ((section(".psocinit")))
  31:.\Generated_Source\PSoC4/cyfitter_cfg.c ****     
  32:.\Generated_Source\PSoC4/cyfitter_cfg.c ****     #if defined(__ARMCC_VERSION)
  33:.\Generated_Source\PSoC4/cyfitter_cfg.c ****         #define CY_CFG_MEMORY_BARRIER() __memory_changed()
ARM GAS  C:\Users\Admin\AppData\Local\Temp\ccbkeI6c.s 			page 2


  34:.\Generated_Source\PSoC4/cyfitter_cfg.c ****     #else
  35:.\Generated_Source\PSoC4/cyfitter_cfg.c ****         #define CY_CFG_MEMORY_BARRIER() __sync_synchronize()
  36:.\Generated_Source\PSoC4/cyfitter_cfg.c ****     #endif
  37:.\Generated_Source\PSoC4/cyfitter_cfg.c ****     
  38:.\Generated_Source\PSoC4/cyfitter_cfg.c **** #elif defined(__ICCARM__)
  39:.\Generated_Source\PSoC4/cyfitter_cfg.c ****     #include <intrinsics.h>
  40:.\Generated_Source\PSoC4/cyfitter_cfg.c **** 
  41:.\Generated_Source\PSoC4/cyfitter_cfg.c ****     #define CYPACKED __packed
  42:.\Generated_Source\PSoC4/cyfitter_cfg.c ****     #define CYPACKED_ATTR 
  43:.\Generated_Source\PSoC4/cyfitter_cfg.c ****     #define CYALIGNED _Pragma("data_alignment=4")
  44:.\Generated_Source\PSoC4/cyfitter_cfg.c ****     #define CY_CFG_UNUSED _Pragma("diag_suppress=Pe177")
  45:.\Generated_Source\PSoC4/cyfitter_cfg.c ****     #define CY_CFG_SECTION _Pragma("location=\".psocinit\"")
  46:.\Generated_Source\PSoC4/cyfitter_cfg.c ****     
  47:.\Generated_Source\PSoC4/cyfitter_cfg.c ****     #define CY_CFG_MEMORY_BARRIER() __DMB()
  48:.\Generated_Source\PSoC4/cyfitter_cfg.c ****     
  49:.\Generated_Source\PSoC4/cyfitter_cfg.c **** #else
  50:.\Generated_Source\PSoC4/cyfitter_cfg.c ****     #error Unsupported toolchain
  51:.\Generated_Source\PSoC4/cyfitter_cfg.c **** #endif
  52:.\Generated_Source\PSoC4/cyfitter_cfg.c **** 
  53:.\Generated_Source\PSoC4/cyfitter_cfg.c **** 
  54:.\Generated_Source\PSoC4/cyfitter_cfg.c **** CY_CFG_UNUSED
  55:.\Generated_Source\PSoC4/cyfitter_cfg.c **** static void CYMEMZERO(void *s, size_t n);
  56:.\Generated_Source\PSoC4/cyfitter_cfg.c **** CY_CFG_UNUSED
  57:.\Generated_Source\PSoC4/cyfitter_cfg.c **** static void CYMEMZERO(void *s, size_t n)
  58:.\Generated_Source\PSoC4/cyfitter_cfg.c **** {
  25              		.loc 1 58 0
  26              		.cfi_startproc
  27 0000 80B5     		push	{r7, lr}
  28              		.cfi_def_cfa_offset 8
  29              		.cfi_offset 7, -8
  30              		.cfi_offset 14, -4
  31 0002 82B0     		sub	sp, sp, #8
  32              		.cfi_def_cfa_offset 16
  33 0004 00AF     		add	r7, sp, #0
  34              		.cfi_def_cfa_register 7
  35 0006 7860     		str	r0, [r7, #4]
  36 0008 3960     		str	r1, [r7]
  59:.\Generated_Source\PSoC4/cyfitter_cfg.c **** 	(void)memset(s, 0, n);
  37              		.loc 1 59 0
  38 000a 7A68     		ldr	r2, [r7, #4]
  39 000c 3B68     		ldr	r3, [r7]
  40 000e 101C     		mov	r0, r2
  41 0010 0021     		mov	r1, #0
  42 0012 1A1C     		mov	r2, r3
  43 0014 FFF7FEFF 		bl	memset
  60:.\Generated_Source\PSoC4/cyfitter_cfg.c **** }
  44              		.loc 1 60 0
  45 0018 BD46     		mov	sp, r7
  46 001a 02B0     		add	sp, sp, #8
  47              		@ sp needed
  48 001c 80BD     		pop	{r7, pc}
  49              		.cfi_endproc
  50              	.LFE0:
  51              		.size	CYMEMZERO, .-CYMEMZERO
  52 001e C046     		.section	.text.CYCONFIGCPY,"ax",%progbits
  53              		.align	2
  54              		.code	16
ARM GAS  C:\Users\Admin\AppData\Local\Temp\ccbkeI6c.s 			page 3


  55              		.thumb_func
  56              		.type	CYCONFIGCPY, %function
  57              	CYCONFIGCPY:
  58              	.LFB1:
  61:.\Generated_Source\PSoC4/cyfitter_cfg.c **** CY_CFG_UNUSED
  62:.\Generated_Source\PSoC4/cyfitter_cfg.c **** static void CYCONFIGCPY(void *dest, const void *src, size_t n);
  63:.\Generated_Source\PSoC4/cyfitter_cfg.c **** CY_CFG_UNUSED
  64:.\Generated_Source\PSoC4/cyfitter_cfg.c **** static void CYCONFIGCPY(void *dest, const void *src, size_t n)
  65:.\Generated_Source\PSoC4/cyfitter_cfg.c **** {
  59              		.loc 1 65 0
  60              		.cfi_startproc
  61 0000 80B5     		push	{r7, lr}
  62              		.cfi_def_cfa_offset 8
  63              		.cfi_offset 7, -8
  64              		.cfi_offset 14, -4
  65 0002 84B0     		sub	sp, sp, #16
  66              		.cfi_def_cfa_offset 24
  67 0004 00AF     		add	r7, sp, #0
  68              		.cfi_def_cfa_register 7
  69 0006 F860     		str	r0, [r7, #12]
  70 0008 B960     		str	r1, [r7, #8]
  71 000a 7A60     		str	r2, [r7, #4]
  66:.\Generated_Source\PSoC4/cyfitter_cfg.c **** 	(void)memcpy(dest, src, n);
  72              		.loc 1 66 0
  73 000c F968     		ldr	r1, [r7, #12]
  74 000e BA68     		ldr	r2, [r7, #8]
  75 0010 7B68     		ldr	r3, [r7, #4]
  76 0012 081C     		mov	r0, r1
  77 0014 111C     		mov	r1, r2
  78 0016 1A1C     		mov	r2, r3
  79 0018 FFF7FEFF 		bl	memcpy
  67:.\Generated_Source\PSoC4/cyfitter_cfg.c **** }
  80              		.loc 1 67 0
  81 001c BD46     		mov	sp, r7
  82 001e 04B0     		add	sp, sp, #16
  83              		@ sp needed
  84 0020 80BD     		pop	{r7, pc}
  85              		.cfi_endproc
  86              	.LFE1:
  87              		.size	CYCONFIGCPY, .-CYCONFIGCPY
  88 0022 C046     		.section	.text.CYCONFIGCPYCODE,"ax",%progbits
  89              		.align	2
  90              		.code	16
  91              		.thumb_func
  92              		.type	CYCONFIGCPYCODE, %function
  93              	CYCONFIGCPYCODE:
  94              	.LFB2:
  68:.\Generated_Source\PSoC4/cyfitter_cfg.c **** CY_CFG_UNUSED
  69:.\Generated_Source\PSoC4/cyfitter_cfg.c **** static void CYCONFIGCPYCODE(void *dest, const void *src, size_t n);
  70:.\Generated_Source\PSoC4/cyfitter_cfg.c **** CY_CFG_UNUSED
  71:.\Generated_Source\PSoC4/cyfitter_cfg.c **** static void CYCONFIGCPYCODE(void *dest, const void *src, size_t n)
  72:.\Generated_Source\PSoC4/cyfitter_cfg.c **** {
  95              		.loc 1 72 0
  96              		.cfi_startproc
  97 0000 80B5     		push	{r7, lr}
  98              		.cfi_def_cfa_offset 8
  99              		.cfi_offset 7, -8
ARM GAS  C:\Users\Admin\AppData\Local\Temp\ccbkeI6c.s 			page 4


 100              		.cfi_offset 14, -4
 101 0002 84B0     		sub	sp, sp, #16
 102              		.cfi_def_cfa_offset 24
 103 0004 00AF     		add	r7, sp, #0
 104              		.cfi_def_cfa_register 7
 105 0006 F860     		str	r0, [r7, #12]
 106 0008 B960     		str	r1, [r7, #8]
 107 000a 7A60     		str	r2, [r7, #4]
  73:.\Generated_Source\PSoC4/cyfitter_cfg.c **** 	(void)memcpy(dest, src, n);
 108              		.loc 1 73 0
 109 000c F968     		ldr	r1, [r7, #12]
 110 000e BA68     		ldr	r2, [r7, #8]
 111 0010 7B68     		ldr	r3, [r7, #4]
 112 0012 081C     		mov	r0, r1
 113 0014 111C     		mov	r1, r2
 114 0016 1A1C     		mov	r2, r3
 115 0018 FFF7FEFF 		bl	memcpy
  74:.\Generated_Source\PSoC4/cyfitter_cfg.c **** }
 116              		.loc 1 74 0
 117 001c BD46     		mov	sp, r7
 118 001e 04B0     		add	sp, sp, #16
 119              		@ sp needed
 120 0020 80BD     		pop	{r7, pc}
 121              		.cfi_endproc
 122              	.LFE2:
 123              		.size	CYCONFIGCPYCODE, .-CYCONFIGCPYCODE
 124 0022 C046     		.section	.text.cfg_write_bytes32,"ax",%progbits
 125              		.align	2
 126              		.code	16
 127              		.thumb_func
 128              		.type	cfg_write_bytes32, %function
 129              	cfg_write_bytes32:
 130              	.LFB3:
  75:.\Generated_Source\PSoC4/cyfitter_cfg.c **** 
  76:.\Generated_Source\PSoC4/cyfitter_cfg.c **** 
  77:.\Generated_Source\PSoC4/cyfitter_cfg.c **** 
  78:.\Generated_Source\PSoC4/cyfitter_cfg.c **** /* Clock startup error codes                                                   */
  79:.\Generated_Source\PSoC4/cyfitter_cfg.c **** #define CYCLOCKSTART_NO_ERROR    0u
  80:.\Generated_Source\PSoC4/cyfitter_cfg.c **** #define CYCLOCKSTART_XTAL_ERROR  1u
  81:.\Generated_Source\PSoC4/cyfitter_cfg.c **** #define CYCLOCKSTART_32KHZ_ERROR 2u
  82:.\Generated_Source\PSoC4/cyfitter_cfg.c **** #define CYCLOCKSTART_PLL_ERROR   3u
  83:.\Generated_Source\PSoC4/cyfitter_cfg.c **** 
  84:.\Generated_Source\PSoC4/cyfitter_cfg.c **** #ifdef CY_NEED_CYCLOCKSTARTUPERROR
  85:.\Generated_Source\PSoC4/cyfitter_cfg.c **** /*******************************************************************************
  86:.\Generated_Source\PSoC4/cyfitter_cfg.c **** * Function Name: CyClockStartupError
  87:.\Generated_Source\PSoC4/cyfitter_cfg.c **** ********************************************************************************
  88:.\Generated_Source\PSoC4/cyfitter_cfg.c **** * Summary:
  89:.\Generated_Source\PSoC4/cyfitter_cfg.c **** *  If an error is encountered during clock configuration (crystal startup error,
  90:.\Generated_Source\PSoC4/cyfitter_cfg.c **** *  PLL lock error, etc.), the system will end up here.  Unless reimplemented by
  91:.\Generated_Source\PSoC4/cyfitter_cfg.c **** *  the customer, this function will stop in an infinite loop.
  92:.\Generated_Source\PSoC4/cyfitter_cfg.c **** *
  93:.\Generated_Source\PSoC4/cyfitter_cfg.c **** * Parameters:
  94:.\Generated_Source\PSoC4/cyfitter_cfg.c **** *   void
  95:.\Generated_Source\PSoC4/cyfitter_cfg.c **** *
  96:.\Generated_Source\PSoC4/cyfitter_cfg.c **** * Return:
  97:.\Generated_Source\PSoC4/cyfitter_cfg.c **** *   void
  98:.\Generated_Source\PSoC4/cyfitter_cfg.c **** *
ARM GAS  C:\Users\Admin\AppData\Local\Temp\ccbkeI6c.s 			page 5


  99:.\Generated_Source\PSoC4/cyfitter_cfg.c **** *******************************************************************************/
 100:.\Generated_Source\PSoC4/cyfitter_cfg.c **** CY_CFG_UNUSED
 101:.\Generated_Source\PSoC4/cyfitter_cfg.c **** static void CyClockStartupError(uint8 errorCode);
 102:.\Generated_Source\PSoC4/cyfitter_cfg.c **** CY_CFG_UNUSED
 103:.\Generated_Source\PSoC4/cyfitter_cfg.c **** static void CyClockStartupError(uint8 errorCode)
 104:.\Generated_Source\PSoC4/cyfitter_cfg.c **** {
 105:.\Generated_Source\PSoC4/cyfitter_cfg.c ****     /* To remove the compiler warning if errorCode not used.                */
 106:.\Generated_Source\PSoC4/cyfitter_cfg.c ****     errorCode = errorCode;
 107:.\Generated_Source\PSoC4/cyfitter_cfg.c **** 
 108:.\Generated_Source\PSoC4/cyfitter_cfg.c ****     /* `#START CyClockStartupError` */
 109:.\Generated_Source\PSoC4/cyfitter_cfg.c **** 
 110:.\Generated_Source\PSoC4/cyfitter_cfg.c ****     /* If we have a clock startup error (bad MHz crystal, PLL lock, etc.),  */
 111:.\Generated_Source\PSoC4/cyfitter_cfg.c ****     /* we will end up here to allow the customer to implement something to  */
 112:.\Generated_Source\PSoC4/cyfitter_cfg.c ****     /* deal with the clock condition.                                       */
 113:.\Generated_Source\PSoC4/cyfitter_cfg.c **** 
 114:.\Generated_Source\PSoC4/cyfitter_cfg.c ****     /* `#END` */
 115:.\Generated_Source\PSoC4/cyfitter_cfg.c **** 
 116:.\Generated_Source\PSoC4/cyfitter_cfg.c ****     /* If nothing else, stop here since the clocks have not started         */
 117:.\Generated_Source\PSoC4/cyfitter_cfg.c ****     /* correctly.                                                           */
 118:.\Generated_Source\PSoC4/cyfitter_cfg.c ****     while(1) {}
 119:.\Generated_Source\PSoC4/cyfitter_cfg.c **** }
 120:.\Generated_Source\PSoC4/cyfitter_cfg.c **** #endif
 121:.\Generated_Source\PSoC4/cyfitter_cfg.c **** 
 122:.\Generated_Source\PSoC4/cyfitter_cfg.c **** #define CY_CFG_BASE_ADDR_COUNT 10u
 123:.\Generated_Source\PSoC4/cyfitter_cfg.c **** CYPACKED typedef struct
 124:.\Generated_Source\PSoC4/cyfitter_cfg.c **** {
 125:.\Generated_Source\PSoC4/cyfitter_cfg.c **** 	uint8 offset;
 126:.\Generated_Source\PSoC4/cyfitter_cfg.c **** 	uint8 value;
 127:.\Generated_Source\PSoC4/cyfitter_cfg.c **** } CYPACKED_ATTR cy_cfg_addrvalue_t;
 128:.\Generated_Source\PSoC4/cyfitter_cfg.c **** 
 129:.\Generated_Source\PSoC4/cyfitter_cfg.c **** 
 130:.\Generated_Source\PSoC4/cyfitter_cfg.c **** 
 131:.\Generated_Source\PSoC4/cyfitter_cfg.c **** /*******************************************************************************
 132:.\Generated_Source\PSoC4/cyfitter_cfg.c **** * Function Name: cfg_write_bytes32
 133:.\Generated_Source\PSoC4/cyfitter_cfg.c **** ********************************************************************************
 134:.\Generated_Source\PSoC4/cyfitter_cfg.c **** * Summary:
 135:.\Generated_Source\PSoC4/cyfitter_cfg.c **** *  This function is used for setting up the chip configuration areas that
 136:.\Generated_Source\PSoC4/cyfitter_cfg.c **** *  contain relatively sparse data.
 137:.\Generated_Source\PSoC4/cyfitter_cfg.c **** *
 138:.\Generated_Source\PSoC4/cyfitter_cfg.c **** * Parameters:
 139:.\Generated_Source\PSoC4/cyfitter_cfg.c **** *   void
 140:.\Generated_Source\PSoC4/cyfitter_cfg.c **** *
 141:.\Generated_Source\PSoC4/cyfitter_cfg.c **** * Return:
 142:.\Generated_Source\PSoC4/cyfitter_cfg.c **** *   void
 143:.\Generated_Source\PSoC4/cyfitter_cfg.c **** *
 144:.\Generated_Source\PSoC4/cyfitter_cfg.c **** *******************************************************************************/
 145:.\Generated_Source\PSoC4/cyfitter_cfg.c **** static void cfg_write_bytes32(const uint32 addr_table[], const cy_cfg_addrvalue_t data_table[]);
 146:.\Generated_Source\PSoC4/cyfitter_cfg.c **** static void cfg_write_bytes32(const uint32 addr_table[], const cy_cfg_addrvalue_t data_table[])
 147:.\Generated_Source\PSoC4/cyfitter_cfg.c **** {
 131              		.loc 1 147 0
 132              		.cfi_startproc
 133 0000 80B5     		push	{r7, lr}
 134              		.cfi_def_cfa_offset 8
 135              		.cfi_offset 7, -8
 136              		.cfi_offset 14, -4
 137 0002 86B0     		sub	sp, sp, #24
 138              		.cfi_def_cfa_offset 32
ARM GAS  C:\Users\Admin\AppData\Local\Temp\ccbkeI6c.s 			page 6


 139 0004 00AF     		add	r7, sp, #0
 140              		.cfi_def_cfa_register 7
 141 0006 7860     		str	r0, [r7, #4]
 142 0008 3960     		str	r1, [r7]
 148:.\Generated_Source\PSoC4/cyfitter_cfg.c **** 	/* For 32-bit little-endian architectures */
 149:.\Generated_Source\PSoC4/cyfitter_cfg.c **** 	uint32 i, j = 0u;
 143              		.loc 1 149 0
 144 000a 0023     		mov	r3, #0
 145 000c 3B61     		str	r3, [r7, #16]
 150:.\Generated_Source\PSoC4/cyfitter_cfg.c **** 	for (i = 0u; i < CY_CFG_BASE_ADDR_COUNT; i++)
 146              		.loc 1 150 0
 147 000e 0023     		mov	r3, #0
 148 0010 7B61     		str	r3, [r7, #20]
 149 0012 2EE0     		b	.L5
 150              	.L8:
 151              	.LBB2:
 151:.\Generated_Source\PSoC4/cyfitter_cfg.c **** 	{
 152:.\Generated_Source\PSoC4/cyfitter_cfg.c **** 		uint32 baseAddr = addr_table[i];
 152              		.loc 1 152 0
 153 0014 7B69     		ldr	r3, [r7, #20]
 154 0016 9B00     		lsl	r3, r3, #2
 155 0018 7A68     		ldr	r2, [r7, #4]
 156 001a D318     		add	r3, r2, r3
 157 001c 1B68     		ldr	r3, [r3]
 158 001e BB60     		str	r3, [r7, #8]
 153:.\Generated_Source\PSoC4/cyfitter_cfg.c **** 		uint8 count = (uint8)baseAddr;
 159              		.loc 1 153 0
 160 0020 3B1C     		mov	r3, r7
 161 0022 0F33     		add	r3, r3, #15
 162 0024 BA68     		ldr	r2, [r7, #8]
 163 0026 1A70     		strb	r2, [r3]
 154:.\Generated_Source\PSoC4/cyfitter_cfg.c **** 		baseAddr &= 0xFFFFFF00u;
 164              		.loc 1 154 0
 165 0028 BB68     		ldr	r3, [r7, #8]
 166 002a FF22     		mov	r2, #255
 167 002c 9343     		bic	r3, r2
 168 002e BB60     		str	r3, [r7, #8]
 155:.\Generated_Source\PSoC4/cyfitter_cfg.c **** 		while (count != 0u)
 169              		.loc 1 155 0
 170 0030 17E0     		b	.L6
 171              	.L7:
 156:.\Generated_Source\PSoC4/cyfitter_cfg.c **** 		{
 157:.\Generated_Source\PSoC4/cyfitter_cfg.c **** 			CY_SET_XTND_REG8((void CYFAR *)(baseAddr + data_table[j].offset), data_table[j].value);
 172              		.loc 1 157 0
 173 0032 3B69     		ldr	r3, [r7, #16]
 174 0034 5B00     		lsl	r3, r3, #1
 175 0036 3A68     		ldr	r2, [r7]
 176 0038 D318     		add	r3, r2, r3
 177 003a 1B78     		ldrb	r3, [r3]
 178 003c 1A1C     		mov	r2, r3
 179 003e BB68     		ldr	r3, [r7, #8]
 180 0040 D318     		add	r3, r2, r3
 181 0042 3A69     		ldr	r2, [r7, #16]
 182 0044 5200     		lsl	r2, r2, #1
 183 0046 3968     		ldr	r1, [r7]
 184 0048 8A18     		add	r2, r1, r2
 185 004a 5278     		ldrb	r2, [r2, #1]
ARM GAS  C:\Users\Admin\AppData\Local\Temp\ccbkeI6c.s 			page 7


 186 004c 1A70     		strb	r2, [r3]
 158:.\Generated_Source\PSoC4/cyfitter_cfg.c **** 			j++;
 187              		.loc 1 158 0
 188 004e 3B69     		ldr	r3, [r7, #16]
 189 0050 0133     		add	r3, r3, #1
 190 0052 3B61     		str	r3, [r7, #16]
 159:.\Generated_Source\PSoC4/cyfitter_cfg.c **** 			count--;
 191              		.loc 1 159 0
 192 0054 3B1C     		mov	r3, r7
 193 0056 0F33     		add	r3, r3, #15
 194 0058 1A78     		ldrb	r2, [r3]
 195 005a 3B1C     		mov	r3, r7
 196 005c 0F33     		add	r3, r3, #15
 197 005e 013A     		sub	r2, r2, #1
 198 0060 1A70     		strb	r2, [r3]
 199              	.L6:
 155:.\Generated_Source\PSoC4/cyfitter_cfg.c **** 		while (count != 0u)
 200              		.loc 1 155 0 discriminator 1
 201 0062 3B1C     		mov	r3, r7
 202 0064 0F33     		add	r3, r3, #15
 203 0066 1B78     		ldrb	r3, [r3]
 204 0068 002B     		cmp	r3, #0
 205 006a E2D1     		bne	.L7
 206              	.LBE2:
 150:.\Generated_Source\PSoC4/cyfitter_cfg.c **** 	for (i = 0u; i < CY_CFG_BASE_ADDR_COUNT; i++)
 207              		.loc 1 150 0
 208 006c 7B69     		ldr	r3, [r7, #20]
 209 006e 0133     		add	r3, r3, #1
 210 0070 7B61     		str	r3, [r7, #20]
 211              	.L5:
 150:.\Generated_Source\PSoC4/cyfitter_cfg.c **** 	for (i = 0u; i < CY_CFG_BASE_ADDR_COUNT; i++)
 212              		.loc 1 150 0 is_stmt 0 discriminator 1
 213 0072 7B69     		ldr	r3, [r7, #20]
 214 0074 092B     		cmp	r3, #9
 215 0076 CDD9     		bls	.L8
 160:.\Generated_Source\PSoC4/cyfitter_cfg.c **** 		}
 161:.\Generated_Source\PSoC4/cyfitter_cfg.c **** 	}
 162:.\Generated_Source\PSoC4/cyfitter_cfg.c **** }
 216              		.loc 1 162 0 is_stmt 1
 217 0078 BD46     		mov	sp, r7
 218 007a 06B0     		add	sp, sp, #24
 219              		@ sp needed
 220 007c 80BD     		pop	{r7, pc}
 221              		.cfi_endproc
 222              	.LFE3:
 223              		.size	cfg_write_bytes32, .-cfg_write_bytes32
 224 007e C046     		.section	.psocinit,"ax",%progbits
 225              		.align	2
 226              		.code	16
 227              		.thumb_func
 228              		.type	SetIMOBGTrims, %function
 229              	SetIMOBGTrims:
 230              	.LFB4:
 163:.\Generated_Source\PSoC4/cyfitter_cfg.c **** 
 164:.\Generated_Source\PSoC4/cyfitter_cfg.c **** /*******************************************************************************
 165:.\Generated_Source\PSoC4/cyfitter_cfg.c **** * Function Name: SetIMOBGTrims
 166:.\Generated_Source\PSoC4/cyfitter_cfg.c **** ********************************************************************************
ARM GAS  C:\Users\Admin\AppData\Local\Temp\ccbkeI6c.s 			page 8


 167:.\Generated_Source\PSoC4/cyfitter_cfg.c **** *
 168:.\Generated_Source\PSoC4/cyfitter_cfg.c **** * Summary:
 169:.\Generated_Source\PSoC4/cyfitter_cfg.c **** *   Performs the configuration of the bandgap trim for the IMO based on the given
 170:.\Generated_Source\PSoC4/cyfitter_cfg.c **** *   expected frequency of the IMO. 
 171:.\Generated_Source\PSoC4/cyfitter_cfg.c **** *
 172:.\Generated_Source\PSoC4/cyfitter_cfg.c **** * Parameters:
 173:.\Generated_Source\PSoC4/cyfitter_cfg.c **** *   imoFreq: Frequency for operation of the IMO.
 174:.\Generated_Source\PSoC4/cyfitter_cfg.c **** *
 175:.\Generated_Source\PSoC4/cyfitter_cfg.c **** * Return:
 176:.\Generated_Source\PSoC4/cyfitter_cfg.c **** *   void
 177:.\Generated_Source\PSoC4/cyfitter_cfg.c **** *
 178:.\Generated_Source\PSoC4/cyfitter_cfg.c **** *******************************************************************************/
 179:.\Generated_Source\PSoC4/cyfitter_cfg.c **** static void SetIMOBGTrims(uint8 imoFreq);
 180:.\Generated_Source\PSoC4/cyfitter_cfg.c **** CY_CFG_SECTION
 181:.\Generated_Source\PSoC4/cyfitter_cfg.c **** static void SetIMOBGTrims(uint8 imoFreq)
 182:.\Generated_Source\PSoC4/cyfitter_cfg.c **** {
 231              		.loc 1 182 0
 232              		.cfi_startproc
 233 0000 80B5     		push	{r7, lr}
 234              		.cfi_def_cfa_offset 8
 235              		.cfi_offset 7, -8
 236              		.cfi_offset 14, -4
 237 0002 84B0     		sub	sp, sp, #16
 238              		.cfi_def_cfa_offset 24
 239 0004 00AF     		add	r7, sp, #0
 240              		.cfi_def_cfa_register 7
 241 0006 021C     		mov	r2, r0
 242 0008 FB1D     		add	r3, r7, #7
 243 000a 1A70     		strb	r2, [r3]
 183:.\Generated_Source\PSoC4/cyfitter_cfg.c **** 	CYPACKED typedef struct {
 184:.\Generated_Source\PSoC4/cyfitter_cfg.c **** 		uint8 freq;
 185:.\Generated_Source\PSoC4/cyfitter_cfg.c **** 		uint8 absolute;
 186:.\Generated_Source\PSoC4/cyfitter_cfg.c **** 		uint8 tmpco;
 187:.\Generated_Source\PSoC4/cyfitter_cfg.c **** 	} CYPACKED_ATTR imo_trim_entry_t;
 188:.\Generated_Source\PSoC4/cyfitter_cfg.c **** 
 189:.\Generated_Source\PSoC4/cyfitter_cfg.c **** 	CYPACKED typedef struct {
 190:.\Generated_Source\PSoC4/cyfitter_cfg.c **** 		imo_trim_entry_t entries[4];
 191:.\Generated_Source\PSoC4/cyfitter_cfg.c **** 	} CYPACKED_ATTR imo_trim_table_t;
 192:.\Generated_Source\PSoC4/cyfitter_cfg.c **** 
 193:.\Generated_Source\PSoC4/cyfitter_cfg.c **** 	static const imo_trim_table_t *imo_trim_table = (const imo_trim_table_t *)CYREG_SFLASH_IMO_MAXF0;
 194:.\Generated_Source\PSoC4/cyfitter_cfg.c **** 	static const uint32 IMO_TRIM_FREQ_TABLE_ENTRIES = sizeof(imo_trim_table->entries)/sizeof(imo_trim_
 195:.\Generated_Source\PSoC4/cyfitter_cfg.c **** 
 196:.\Generated_Source\PSoC4/cyfitter_cfg.c **** 	int32 imoTrimIndex;
 197:.\Generated_Source\PSoC4/cyfitter_cfg.c **** 	uint8 setAbs;
 198:.\Generated_Source\PSoC4/cyfitter_cfg.c **** 	uint8 setTmpCo;
 199:.\Generated_Source\PSoC4/cyfitter_cfg.c **** 
 200:.\Generated_Source\PSoC4/cyfitter_cfg.c **** 	/* Traverse the SFLASH IMO frequency-dependent bandgap trim table to
 201:.\Generated_Source\PSoC4/cyfitter_cfg.c **** 	 * locate the appropriate value to trim the IMO bandgap based on freq. */
 202:.\Generated_Source\PSoC4/cyfitter_cfg.c **** 	setAbs = CY_GET_REG8((const void *)CYREG_SFLASH_IMO_ABS4);
 244              		.loc 1 202 0
 245 000c 204A     		ldr	r2, .L13
 246 000e 3B1C     		mov	r3, r7
 247 0010 0B33     		add	r3, r3, #11
 248 0012 1278     		ldrb	r2, [r2]
 249 0014 1A70     		strb	r2, [r3]
 203:.\Generated_Source\PSoC4/cyfitter_cfg.c **** 	setTmpCo = CY_GET_REG8((const void *)CYREG_SFLASH_IMO_TMPCO4);
 250              		.loc 1 203 0
ARM GAS  C:\Users\Admin\AppData\Local\Temp\ccbkeI6c.s 			page 9


 251 0016 1F4A     		ldr	r2, .L13+4
 252 0018 3B1C     		mov	r3, r7
 253 001a 0A33     		add	r3, r3, #10
 254 001c 1278     		ldrb	r2, [r2]
 255 001e 1A70     		strb	r2, [r3]
 204:.\Generated_Source\PSoC4/cyfitter_cfg.c **** 	for (imoTrimIndex = ((int32)IMO_TRIM_FREQ_TABLE_ENTRIES)-1;
 256              		.loc 1 204 0
 257 0020 0423     		mov	r3, #4
 258 0022 013B     		sub	r3, r3, #1
 259 0024 FB60     		str	r3, [r7, #12]
 260 0026 18E0     		b	.L10
 261              	.L12:
 205:.\Generated_Source\PSoC4/cyfitter_cfg.c **** 	     (imoTrimIndex >= 0) && (imoFreq <= imo_trim_table->entries[imoTrimIndex].freq);
 206:.\Generated_Source\PSoC4/cyfitter_cfg.c **** 	     imoTrimIndex--)
 207:.\Generated_Source\PSoC4/cyfitter_cfg.c **** 	{
 208:.\Generated_Source\PSoC4/cyfitter_cfg.c **** 		setAbs = imo_trim_table->entries[imoTrimIndex].absolute;
 262              		.loc 1 208 0
 263 0028 1B4B     		ldr	r3, .L13+8
 264 002a 1868     		ldr	r0, [r3]
 265 002c 391C     		mov	r1, r7
 266 002e 0B31     		add	r1, r1, #11
 267 0030 FA68     		ldr	r2, [r7, #12]
 268 0032 131C     		mov	r3, r2
 269 0034 5B00     		lsl	r3, r3, #1
 270 0036 9B18     		add	r3, r3, r2
 271 0038 C318     		add	r3, r0, r3
 272 003a 5B78     		ldrb	r3, [r3, #1]
 273 003c 0B70     		strb	r3, [r1]
 209:.\Generated_Source\PSoC4/cyfitter_cfg.c **** 		setTmpCo = imo_trim_table->entries[imoTrimIndex].tmpco;
 274              		.loc 1 209 0
 275 003e 164B     		ldr	r3, .L13+8
 276 0040 1868     		ldr	r0, [r3]
 277 0042 391C     		mov	r1, r7
 278 0044 0A31     		add	r1, r1, #10
 279 0046 FA68     		ldr	r2, [r7, #12]
 280 0048 131C     		mov	r3, r2
 281 004a 5B00     		lsl	r3, r3, #1
 282 004c 9B18     		add	r3, r3, r2
 283 004e C318     		add	r3, r0, r3
 284 0050 9B78     		ldrb	r3, [r3, #2]
 285 0052 0B70     		strb	r3, [r1]
 206:.\Generated_Source\PSoC4/cyfitter_cfg.c **** 	     imoTrimIndex--)
 286              		.loc 1 206 0
 287 0054 FB68     		ldr	r3, [r7, #12]
 288 0056 013B     		sub	r3, r3, #1
 289 0058 FB60     		str	r3, [r7, #12]
 290              	.L10:
 204:.\Generated_Source\PSoC4/cyfitter_cfg.c **** 	for (imoTrimIndex = ((int32)IMO_TRIM_FREQ_TABLE_ENTRIES)-1;
 291              		.loc 1 204 0 discriminator 1
 292 005a FB68     		ldr	r3, [r7, #12]
 293 005c 002B     		cmp	r3, #0
 294 005e 0ADB     		blt	.L11
 205:.\Generated_Source\PSoC4/cyfitter_cfg.c **** 	     (imoTrimIndex >= 0) && (imoFreq <= imo_trim_table->entries[imoTrimIndex].freq);
 295              		.loc 1 205 0
 296 0060 0D4B     		ldr	r3, .L13+8
 297 0062 1968     		ldr	r1, [r3]
 298 0064 FA68     		ldr	r2, [r7, #12]
ARM GAS  C:\Users\Admin\AppData\Local\Temp\ccbkeI6c.s 			page 10


 299 0066 131C     		mov	r3, r2
 300 0068 5B00     		lsl	r3, r3, #1
 301 006a 9B18     		add	r3, r3, r2
 302 006c 5B5C     		ldrb	r3, [r3, r1]
 303 006e FA1D     		add	r2, r7, #7
 304 0070 1278     		ldrb	r2, [r2]
 305 0072 9A42     		cmp	r2, r3
 306 0074 D8D9     		bls	.L12
 307              	.L11:
 210:.\Generated_Source\PSoC4/cyfitter_cfg.c **** 	}
 211:.\Generated_Source\PSoC4/cyfitter_cfg.c **** 
 212:.\Generated_Source\PSoC4/cyfitter_cfg.c **** 	CY_SET_REG32((void *)CYREG_PWR_BG_TRIM4, setAbs);
 308              		.loc 1 212 0
 309 0076 094B     		ldr	r3, .L13+12
 310 0078 3A1C     		mov	r2, r7
 311 007a 0B32     		add	r2, r2, #11
 312 007c 1278     		ldrb	r2, [r2]
 313 007e 1A60     		str	r2, [r3]
 213:.\Generated_Source\PSoC4/cyfitter_cfg.c **** 	CY_SET_REG32((void *)CYREG_PWR_BG_TRIM5, setTmpCo);
 314              		.loc 1 213 0
 315 0080 074B     		ldr	r3, .L13+16
 316 0082 3A1C     		mov	r2, r7
 317 0084 0A32     		add	r2, r2, #10
 318 0086 1278     		ldrb	r2, [r2]
 319 0088 1A60     		str	r2, [r3]
 214:.\Generated_Source\PSoC4/cyfitter_cfg.c **** }
 320              		.loc 1 214 0
 321 008a BD46     		mov	sp, r7
 322 008c 04B0     		add	sp, sp, #16
 323              		@ sp needed
 324 008e 80BD     		pop	{r7, pc}
 325              	.L14:
 326              		.align	2
 327              	.L13:
 328 0090 CCF1FF0F 		.word	268431820
 329 0094 CDF1FF0F 		.word	268431821
 330 0098 00000000 		.word	imo_trim_table.4708
 331 009c 1CFF0B40 		.word	1074528028
 332 00a0 20FF0B40 		.word	1074528032
 333              		.cfi_endproc
 334              	.LFE4:
 335              		.size	SetIMOBGTrims, .-SetIMOBGTrims
 336              		.align	2
 337              		.code	16
 338              		.thumb_func
 339              		.type	ClockSetup, %function
 340              	ClockSetup:
 341              	.LFB5:
 215:.\Generated_Source\PSoC4/cyfitter_cfg.c **** 
 216:.\Generated_Source\PSoC4/cyfitter_cfg.c **** 
 217:.\Generated_Source\PSoC4/cyfitter_cfg.c **** 
 218:.\Generated_Source\PSoC4/cyfitter_cfg.c **** /*******************************************************************************
 219:.\Generated_Source\PSoC4/cyfitter_cfg.c **** * Function Name: ClockSetup
 220:.\Generated_Source\PSoC4/cyfitter_cfg.c **** ********************************************************************************
 221:.\Generated_Source\PSoC4/cyfitter_cfg.c **** *
 222:.\Generated_Source\PSoC4/cyfitter_cfg.c **** * Summary:
 223:.\Generated_Source\PSoC4/cyfitter_cfg.c **** *   Performs the initialization of all of the clocks in the device based on the
ARM GAS  C:\Users\Admin\AppData\Local\Temp\ccbkeI6c.s 			page 11


 224:.\Generated_Source\PSoC4/cyfitter_cfg.c **** *   settings in the Clock tab of the DWR.  This includes enabling the requested
 225:.\Generated_Source\PSoC4/cyfitter_cfg.c **** *   clocks and setting the necessary dividers to produce the desired frequency. 
 226:.\Generated_Source\PSoC4/cyfitter_cfg.c **** *
 227:.\Generated_Source\PSoC4/cyfitter_cfg.c **** * Parameters:
 228:.\Generated_Source\PSoC4/cyfitter_cfg.c **** *   void
 229:.\Generated_Source\PSoC4/cyfitter_cfg.c **** *
 230:.\Generated_Source\PSoC4/cyfitter_cfg.c **** * Return:
 231:.\Generated_Source\PSoC4/cyfitter_cfg.c **** *   void
 232:.\Generated_Source\PSoC4/cyfitter_cfg.c **** *
 233:.\Generated_Source\PSoC4/cyfitter_cfg.c **** *******************************************************************************/
 234:.\Generated_Source\PSoC4/cyfitter_cfg.c **** static void ClockSetup(void);
 235:.\Generated_Source\PSoC4/cyfitter_cfg.c **** CY_CFG_SECTION
 236:.\Generated_Source\PSoC4/cyfitter_cfg.c **** static void ClockSetup(void)
 237:.\Generated_Source\PSoC4/cyfitter_cfg.c **** {
 342              		.loc 1 237 0
 343              		.cfi_startproc
 344 00a4 80B5     		push	{r7, lr}
 345              		.cfi_def_cfa_offset 8
 346              		.cfi_offset 7, -8
 347              		.cfi_offset 14, -4
 348 00a6 00AF     		add	r7, sp, #0
 349              		.cfi_def_cfa_register 7
 238:.\Generated_Source\PSoC4/cyfitter_cfg.c **** 	/* Enable HALF_EN before trimming for the flash accelerator. */
 239:.\Generated_Source\PSoC4/cyfitter_cfg.c **** 	CY_SET_REG32((void CYXDATA *)(CYREG_CLK_SELECT), (CY_GET_REG32((void *)CYREG_CLK_SELECT) | 0x00040
 350              		.loc 1 239 0
 351 00a8 164B     		ldr	r3, .L16
 352 00aa 164A     		ldr	r2, .L16
 353 00ac 1268     		ldr	r2, [r2]
 354 00ae 8021     		mov	r1, #128
 355 00b0 C902     		lsl	r1, r1, #11
 356 00b2 0A43     		orr	r2, r1
 357 00b4 1A60     		str	r2, [r3]
 240:.\Generated_Source\PSoC4/cyfitter_cfg.c **** 
 241:.\Generated_Source\PSoC4/cyfitter_cfg.c **** 	/* Trim IMO BG based on desired frequency. */
 242:.\Generated_Source\PSoC4/cyfitter_cfg.c **** 	SetIMOBGTrims(24u);
 358              		.loc 1 242 0
 359 00b6 1820     		mov	r0, #24
 360 00b8 FFF7A2FF 		bl	SetIMOBGTrims
 243:.\Generated_Source\PSoC4/cyfitter_cfg.c **** 
 244:.\Generated_Source\PSoC4/cyfitter_cfg.c **** 	/* Going less than or equal to 24MHz, so update the clock speed then adjust trim value. */
 245:.\Generated_Source\PSoC4/cyfitter_cfg.c **** 	CY_SET_REG32((void CYXDATA *)(CYREG_CLK_IMO_TRIM2), (25u));
 361              		.loc 1 245 0
 362 00bc 124B     		ldr	r3, .L16+4
 363 00be 1922     		mov	r2, #25
 364 00c0 1A60     		str	r2, [r3]
 246:.\Generated_Source\PSoC4/cyfitter_cfg.c **** 	CyDelayCycles(5u);
 365              		.loc 1 246 0
 366 00c2 0520     		mov	r0, #5
 367 00c4 FFF7FEFF 		bl	CyDelayCycles
 247:.\Generated_Source\PSoC4/cyfitter_cfg.c **** 	CY_SET_REG32((void CYXDATA *)(CYREG_CLK_IMO_TRIM1), (CY_GET_REG8((void *)CYREG_SFLASH_IMO_TRIM21))
 368              		.loc 1 247 0
 369 00c8 104B     		ldr	r3, .L16+8
 370 00ca 114A     		ldr	r2, .L16+12
 371 00cc 1278     		ldrb	r2, [r2]
 372 00ce D2B2     		uxtb	r2, r2
 373 00d0 1A60     		str	r2, [r3]
 248:.\Generated_Source\PSoC4/cyfitter_cfg.c **** 	CyDelayUs(5u);
ARM GAS  C:\Users\Admin\AppData\Local\Temp\ccbkeI6c.s 			page 12


 374              		.loc 1 248 0
 375 00d2 0520     		mov	r0, #5
 376 00d4 FFF7FEFF 		bl	CyDelayUs
 249:.\Generated_Source\PSoC4/cyfitter_cfg.c **** 
 250:.\Generated_Source\PSoC4/cyfitter_cfg.c **** 	/* Disable HALF_EN since it is not required at this IMO frequency. */
 251:.\Generated_Source\PSoC4/cyfitter_cfg.c **** 	CY_SET_REG32((void CYXDATA *)(CYREG_CLK_SELECT), (CY_GET_REG32((void *)CYREG_CLK_SELECT) & 0xFFFBF
 377              		.loc 1 251 0
 378 00d8 0A4B     		ldr	r3, .L16
 379 00da 0A4A     		ldr	r2, .L16
 380 00dc 1168     		ldr	r1, [r2]
 381 00de 0D4A     		ldr	r2, .L16+16
 382 00e0 0A40     		and	r2, r1
 383 00e2 1A60     		str	r2, [r3]
 252:.\Generated_Source\PSoC4/cyfitter_cfg.c **** 	/* CYDEV_CLK_ILO_CONFIG Starting address: CYDEV_CLK_ILO_CONFIG */
 253:.\Generated_Source\PSoC4/cyfitter_cfg.c **** 	CY_SET_XTND_REG32((void CYFAR *)(CYREG_CLK_ILO_CONFIG), 0x80000006u);
 384              		.loc 1 253 0
 385 00e4 0C4B     		ldr	r3, .L16+20
 386 00e6 0D4A     		ldr	r2, .L16+24
 387 00e8 1A60     		str	r2, [r3]
 254:.\Generated_Source\PSoC4/cyfitter_cfg.c **** 
 255:.\Generated_Source\PSoC4/cyfitter_cfg.c **** 
 256:.\Generated_Source\PSoC4/cyfitter_cfg.c **** 	/* CYDEV_CLK_SELECT00 Starting address: CYDEV_CLK_SELECT00 */
 257:.\Generated_Source\PSoC4/cyfitter_cfg.c **** 	CY_SET_XTND_REG32((void CYFAR *)(CYREG_CLK_SELECT12), 0x00000010u);
 388              		.loc 1 257 0
 389 00ea 0D4B     		ldr	r3, .L16+28
 390 00ec 1022     		mov	r2, #16
 391 00ee 1A60     		str	r2, [r3]
 258:.\Generated_Source\PSoC4/cyfitter_cfg.c **** 
 259:.\Generated_Source\PSoC4/cyfitter_cfg.c **** 	/* CYDEV_CLK_IMO_CONFIG Starting address: CYDEV_CLK_IMO_CONFIG */
 260:.\Generated_Source\PSoC4/cyfitter_cfg.c **** 	CY_SET_XTND_REG32((void CYFAR *)(CYREG_CLK_IMO_CONFIG), 0x80000000u);
 392              		.loc 1 260 0
 393 00f0 0C4B     		ldr	r3, .L16+32
 394 00f2 8022     		mov	r2, #128
 395 00f4 1206     		lsl	r2, r2, #24
 396 00f6 1A60     		str	r2, [r3]
 261:.\Generated_Source\PSoC4/cyfitter_cfg.c **** 
 262:.\Generated_Source\PSoC4/cyfitter_cfg.c **** 	/* CYDEV_CLK_DIVIDER_A00 Starting address: CYDEV_CLK_DIVIDER_A00 */
 263:.\Generated_Source\PSoC4/cyfitter_cfg.c **** 	CY_SET_XTND_REG32((void CYFAR *)(CYREG_CLK_DIVIDER_A00), 0x8000176Fu);
 397              		.loc 1 263 0
 398 00f8 0B4B     		ldr	r3, .L16+36
 399 00fa 0C4A     		ldr	r2, .L16+40
 400 00fc 1A60     		str	r2, [r3]
 264:.\Generated_Source\PSoC4/cyfitter_cfg.c **** 
 265:.\Generated_Source\PSoC4/cyfitter_cfg.c **** }
 401              		.loc 1 265 0
 402 00fe BD46     		mov	sp, r7
 403              		@ sp needed
 404 0100 80BD     		pop	{r7, pc}
 405              	.L17:
 406 0102 C046     		.align	2
 407              	.L16:
 408 0104 00010B40 		.word	1074462976
 409 0108 2CFF0B40 		.word	1074528044
 410 010c 28FF0B40 		.word	1074528040
 411 0110 E5F1FF0F 		.word	268431845
 412 0114 FFFFFBFF 		.word	-262145
 413 0118 04010B40 		.word	1074462980
ARM GAS  C:\Users\Admin\AppData\Local\Temp\ccbkeI6c.s 			page 13


 414 011c 06000080 		.word	-2147483642
 415 0120 30020240 		.word	1073873456
 416 0124 08010B40 		.word	1074462984
 417 0128 00000240 		.word	1073872896
 418 012c 6F170080 		.word	-2147477649
 419              		.cfi_endproc
 420              	.LFE5:
 421              		.size	ClockSetup, .-ClockSetup
 422              		.section	.text.AnalogSetDefault,"ax",%progbits
 423              		.align	2
 424              		.code	16
 425              		.thumb_func
 426              		.type	AnalogSetDefault, %function
 427              	AnalogSetDefault:
 428              	.LFB6:
 266:.\Generated_Source\PSoC4/cyfitter_cfg.c **** 
 267:.\Generated_Source\PSoC4/cyfitter_cfg.c **** 
 268:.\Generated_Source\PSoC4/cyfitter_cfg.c **** /* Analog API Functions */
 269:.\Generated_Source\PSoC4/cyfitter_cfg.c **** 
 270:.\Generated_Source\PSoC4/cyfitter_cfg.c **** 
 271:.\Generated_Source\PSoC4/cyfitter_cfg.c **** /*******************************************************************************
 272:.\Generated_Source\PSoC4/cyfitter_cfg.c **** * Function Name: AnalogSetDefault
 273:.\Generated_Source\PSoC4/cyfitter_cfg.c **** ********************************************************************************
 274:.\Generated_Source\PSoC4/cyfitter_cfg.c **** *
 275:.\Generated_Source\PSoC4/cyfitter_cfg.c **** * Summary:
 276:.\Generated_Source\PSoC4/cyfitter_cfg.c **** *  Sets up the analog portions of the chip to default values based on chip
 277:.\Generated_Source\PSoC4/cyfitter_cfg.c **** *  configuration options from the project.
 278:.\Generated_Source\PSoC4/cyfitter_cfg.c **** *
 279:.\Generated_Source\PSoC4/cyfitter_cfg.c **** * Parameters:
 280:.\Generated_Source\PSoC4/cyfitter_cfg.c **** *  void
 281:.\Generated_Source\PSoC4/cyfitter_cfg.c **** *
 282:.\Generated_Source\PSoC4/cyfitter_cfg.c **** * Return:
 283:.\Generated_Source\PSoC4/cyfitter_cfg.c **** *  void
 284:.\Generated_Source\PSoC4/cyfitter_cfg.c **** *
 285:.\Generated_Source\PSoC4/cyfitter_cfg.c **** *******************************************************************************/
 286:.\Generated_Source\PSoC4/cyfitter_cfg.c **** static void AnalogSetDefault(void);
 287:.\Generated_Source\PSoC4/cyfitter_cfg.c **** static void AnalogSetDefault(void)
 288:.\Generated_Source\PSoC4/cyfitter_cfg.c **** {
 429              		.loc 1 288 0
 430              		.cfi_startproc
 431 0000 80B5     		push	{r7, lr}
 432              		.cfi_def_cfa_offset 8
 433              		.cfi_offset 7, -8
 434              		.cfi_offset 14, -4
 435 0002 00AF     		add	r7, sp, #0
 436              		.cfi_def_cfa_register 7
 289:.\Generated_Source\PSoC4/cyfitter_cfg.c **** }
 437              		.loc 1 289 0
 438 0004 BD46     		mov	sp, r7
 439              		@ sp needed
 440 0006 80BD     		pop	{r7, pc}
 441              		.cfi_endproc
 442              	.LFE6:
 443              		.size	AnalogSetDefault, .-AnalogSetDefault
 444              		.section	.psocinit
 445              		.align	2
 446              		.global	cyfitter_cfg
ARM GAS  C:\Users\Admin\AppData\Local\Temp\ccbkeI6c.s 			page 14


 447              		.code	16
 448              		.thumb_func
 449              		.type	cyfitter_cfg, %function
 450              	cyfitter_cfg:
 451              	.LFB7:
 290:.\Generated_Source\PSoC4/cyfitter_cfg.c **** 
 291:.\Generated_Source\PSoC4/cyfitter_cfg.c **** #define CY_AMUX_UNUSED CYREG_CM0_ROM_DWT
 292:.\Generated_Source\PSoC4/cyfitter_cfg.c **** 
 293:.\Generated_Source\PSoC4/cyfitter_cfg.c **** 
 294:.\Generated_Source\PSoC4/cyfitter_cfg.c **** /*******************************************************************************
 295:.\Generated_Source\PSoC4/cyfitter_cfg.c **** * Function Name: cyfitter_cfg
 296:.\Generated_Source\PSoC4/cyfitter_cfg.c **** ********************************************************************************
 297:.\Generated_Source\PSoC4/cyfitter_cfg.c **** * Summary:
 298:.\Generated_Source\PSoC4/cyfitter_cfg.c **** *  This function is called by the start-up code for the selected device. It
 299:.\Generated_Source\PSoC4/cyfitter_cfg.c **** *  performs all of the necessary device configuration based on the design
 300:.\Generated_Source\PSoC4/cyfitter_cfg.c **** *  settings.  This includes settings from the Design Wide Resources (DWR) such
 301:.\Generated_Source\PSoC4/cyfitter_cfg.c **** *  as Clocks and Pins as well as any component configuration that is necessary.
 302:.\Generated_Source\PSoC4/cyfitter_cfg.c **** *
 303:.\Generated_Source\PSoC4/cyfitter_cfg.c **** * Parameters:  
 304:.\Generated_Source\PSoC4/cyfitter_cfg.c **** *   void
 305:.\Generated_Source\PSoC4/cyfitter_cfg.c **** *
 306:.\Generated_Source\PSoC4/cyfitter_cfg.c **** * Return:
 307:.\Generated_Source\PSoC4/cyfitter_cfg.c **** *   void
 308:.\Generated_Source\PSoC4/cyfitter_cfg.c **** *
 309:.\Generated_Source\PSoC4/cyfitter_cfg.c **** *******************************************************************************/
 310:.\Generated_Source\PSoC4/cyfitter_cfg.c **** CY_CFG_SECTION
 311:.\Generated_Source\PSoC4/cyfitter_cfg.c **** void cyfitter_cfg(void)
 312:.\Generated_Source\PSoC4/cyfitter_cfg.c **** {
 452              		.loc 1 312 0
 453              		.cfi_startproc
 454 0130 80B5     		push	{r7, lr}
 455              		.cfi_def_cfa_offset 8
 456              		.cfi_offset 7, -8
 457              		.cfi_offset 14, -4
 458 0132 82B0     		sub	sp, sp, #8
 459              		.cfi_def_cfa_offset 16
 460 0134 00AF     		add	r7, sp, #0
 461              		.cfi_def_cfa_register 7
 313:.\Generated_Source\PSoC4/cyfitter_cfg.c **** 	/* Disable interrupts by default. Let user enable if/when they want. */
 314:.\Generated_Source\PSoC4/cyfitter_cfg.c **** 	CyGlobalIntDisable;
 462              		.loc 1 314 0
 463              	@ 314 ".\Generated_Source\PSoC4\cyfitter_cfg.c" 1
 464 0136 72B6     		CPSID   i
 465              	@ 0 "" 2
 315:.\Generated_Source\PSoC4/cyfitter_cfg.c **** 
 316:.\Generated_Source\PSoC4/cyfitter_cfg.c **** 	/* Enable the clock in the interrupt controller for the routed interrupts */
 317:.\Generated_Source\PSoC4/cyfitter_cfg.c **** 	CY_SET_REG8((void *)CYREG_UDB_UDBIF_INT_CLK_CTL, 0x01u);
 466              		.loc 1 317 0
 467              		.code	16
 468 0138 5B4B     		ldr	r3, .L22
 469 013a 0122     		mov	r2, #1
 470 013c 1A70     		strb	r2, [r3]
 471              	.LBB3:
 318:.\Generated_Source\PSoC4/cyfitter_cfg.c **** 	{
 319:.\Generated_Source\PSoC4/cyfitter_cfg.c **** 		static const uint32 CYCODE cy_cfg_addr_table[] = {
 320:.\Generated_Source\PSoC4/cyfitter_cfg.c **** 			0x400F0003u, /* Base address: 0x400F0000 Count: 3 */
 321:.\Generated_Source\PSoC4/cyfitter_cfg.c **** 			0x400F303Du, /* Base address: 0x400F3000 Count: 61 */
ARM GAS  C:\Users\Admin\AppData\Local\Temp\ccbkeI6c.s 			page 15


 322:.\Generated_Source\PSoC4/cyfitter_cfg.c **** 			0x400F311Cu, /* Base address: 0x400F3100 Count: 28 */
 323:.\Generated_Source\PSoC4/cyfitter_cfg.c **** 			0x400F324Fu, /* Base address: 0x400F3200 Count: 79 */
 324:.\Generated_Source\PSoC4/cyfitter_cfg.c **** 			0x400F332Du, /* Base address: 0x400F3300 Count: 45 */
 325:.\Generated_Source\PSoC4/cyfitter_cfg.c **** 			0x400F4006u, /* Base address: 0x400F4000 Count: 6 */
 326:.\Generated_Source\PSoC4/cyfitter_cfg.c **** 			0x400F4103u, /* Base address: 0x400F4100 Count: 3 */
 327:.\Generated_Source\PSoC4/cyfitter_cfg.c **** 			0x400F4202u, /* Base address: 0x400F4200 Count: 2 */
 328:.\Generated_Source\PSoC4/cyfitter_cfg.c **** 			0x400F4302u, /* Base address: 0x400F4300 Count: 2 */
 329:.\Generated_Source\PSoC4/cyfitter_cfg.c **** 			0x400F6002u, /* Base address: 0x400F6000 Count: 2 */
 330:.\Generated_Source\PSoC4/cyfitter_cfg.c **** 		};
 331:.\Generated_Source\PSoC4/cyfitter_cfg.c **** 
 332:.\Generated_Source\PSoC4/cyfitter_cfg.c **** 		static const cy_cfg_addrvalue_t CYCODE cy_cfg_data_table[] = {
 333:.\Generated_Source\PSoC4/cyfitter_cfg.c **** 			{0x81u, 0x0Du},
 334:.\Generated_Source\PSoC4/cyfitter_cfg.c **** 			{0x82u, 0x0Du},
 335:.\Generated_Source\PSoC4/cyfitter_cfg.c **** 			{0x83u, 0x0Du},
 336:.\Generated_Source\PSoC4/cyfitter_cfg.c **** 			{0x2Eu, 0x01u},
 337:.\Generated_Source\PSoC4/cyfitter_cfg.c **** 			{0x34u, 0x01u},
 338:.\Generated_Source\PSoC4/cyfitter_cfg.c **** 			{0x36u, 0x01u},
 339:.\Generated_Source\PSoC4/cyfitter_cfg.c **** 			{0x40u, 0x10u},
 340:.\Generated_Source\PSoC4/cyfitter_cfg.c **** 			{0x41u, 0x04u},
 341:.\Generated_Source\PSoC4/cyfitter_cfg.c **** 			{0x49u, 0xFFu},
 342:.\Generated_Source\PSoC4/cyfitter_cfg.c **** 			{0x4Au, 0xFFu},
 343:.\Generated_Source\PSoC4/cyfitter_cfg.c **** 			{0x4Bu, 0xFFu},
 344:.\Generated_Source\PSoC4/cyfitter_cfg.c **** 			{0x4Du, 0xA0u},
 345:.\Generated_Source\PSoC4/cyfitter_cfg.c **** 			{0x4Fu, 0x04u},
 346:.\Generated_Source\PSoC4/cyfitter_cfg.c **** 			{0x50u, 0x18u},
 347:.\Generated_Source\PSoC4/cyfitter_cfg.c **** 			{0x52u, 0x80u},
 348:.\Generated_Source\PSoC4/cyfitter_cfg.c **** 			{0x58u, 0x04u},
 349:.\Generated_Source\PSoC4/cyfitter_cfg.c **** 			{0x5Au, 0x04u},
 350:.\Generated_Source\PSoC4/cyfitter_cfg.c **** 			{0x5Bu, 0x04u},
 351:.\Generated_Source\PSoC4/cyfitter_cfg.c **** 			{0x5Fu, 0x01u},
 352:.\Generated_Source\PSoC4/cyfitter_cfg.c **** 			{0x60u, 0x40u},
 353:.\Generated_Source\PSoC4/cyfitter_cfg.c **** 			{0x62u, 0xC0u},
 354:.\Generated_Source\PSoC4/cyfitter_cfg.c **** 			{0x64u, 0x40u},
 355:.\Generated_Source\PSoC4/cyfitter_cfg.c **** 			{0x65u, 0x40u},
 356:.\Generated_Source\PSoC4/cyfitter_cfg.c **** 			{0x66u, 0xC0u},
 357:.\Generated_Source\PSoC4/cyfitter_cfg.c **** 			{0x68u, 0xC0u},
 358:.\Generated_Source\PSoC4/cyfitter_cfg.c **** 			{0x6Au, 0xC0u},
 359:.\Generated_Source\PSoC4/cyfitter_cfg.c **** 			{0x6Cu, 0xC0u},
 360:.\Generated_Source\PSoC4/cyfitter_cfg.c **** 			{0x6Eu, 0xC0u},
 361:.\Generated_Source\PSoC4/cyfitter_cfg.c **** 			{0x8Fu, 0x01u},
 362:.\Generated_Source\PSoC4/cyfitter_cfg.c **** 			{0x94u, 0x02u},
 363:.\Generated_Source\PSoC4/cyfitter_cfg.c **** 			{0x9Au, 0x03u},
 364:.\Generated_Source\PSoC4/cyfitter_cfg.c **** 			{0xAFu, 0x01u},
 365:.\Generated_Source\PSoC4/cyfitter_cfg.c **** 			{0xB0u, 0x02u},
 366:.\Generated_Source\PSoC4/cyfitter_cfg.c **** 			{0xB2u, 0x01u},
 367:.\Generated_Source\PSoC4/cyfitter_cfg.c **** 			{0xB5u, 0x01u},
 368:.\Generated_Source\PSoC4/cyfitter_cfg.c **** 			{0xBFu, 0x10u},
 369:.\Generated_Source\PSoC4/cyfitter_cfg.c **** 			{0xC0u, 0x60u},
 370:.\Generated_Source\PSoC4/cyfitter_cfg.c **** 			{0xC1u, 0x05u},
 371:.\Generated_Source\PSoC4/cyfitter_cfg.c **** 			{0xC5u, 0xD1u},
 372:.\Generated_Source\PSoC4/cyfitter_cfg.c **** 			{0xC6u, 0x02u},
 373:.\Generated_Source\PSoC4/cyfitter_cfg.c **** 			{0xC8u, 0x07u},
 374:.\Generated_Source\PSoC4/cyfitter_cfg.c **** 			{0xC9u, 0xFFu},
 375:.\Generated_Source\PSoC4/cyfitter_cfg.c **** 			{0xCAu, 0xFFu},
 376:.\Generated_Source\PSoC4/cyfitter_cfg.c **** 			{0xCBu, 0xFFu},
 377:.\Generated_Source\PSoC4/cyfitter_cfg.c **** 			{0xCDu, 0xAFu},
 378:.\Generated_Source\PSoC4/cyfitter_cfg.c **** 			{0xCEu, 0x0Fu},
ARM GAS  C:\Users\Admin\AppData\Local\Temp\ccbkeI6c.s 			page 16


 379:.\Generated_Source\PSoC4/cyfitter_cfg.c **** 			{0xCFu, 0x04u},
 380:.\Generated_Source\PSoC4/cyfitter_cfg.c **** 			{0xD0u, 0x18u},
 381:.\Generated_Source\PSoC4/cyfitter_cfg.c **** 			{0xD4u, 0x05u},
 382:.\Generated_Source\PSoC4/cyfitter_cfg.c **** 			{0xD6u, 0x04u},
 383:.\Generated_Source\PSoC4/cyfitter_cfg.c **** 			{0xD8u, 0x04u},
 384:.\Generated_Source\PSoC4/cyfitter_cfg.c **** 			{0xD9u, 0x04u},
 385:.\Generated_Source\PSoC4/cyfitter_cfg.c **** 			{0xDAu, 0x04u},
 386:.\Generated_Source\PSoC4/cyfitter_cfg.c **** 			{0xDBu, 0x04u},
 387:.\Generated_Source\PSoC4/cyfitter_cfg.c **** 			{0xDFu, 0x01u},
 388:.\Generated_Source\PSoC4/cyfitter_cfg.c **** 			{0xE0u, 0x40u},
 389:.\Generated_Source\PSoC4/cyfitter_cfg.c **** 			{0xE2u, 0xC0u},
 390:.\Generated_Source\PSoC4/cyfitter_cfg.c **** 			{0xE4u, 0x40u},
 391:.\Generated_Source\PSoC4/cyfitter_cfg.c **** 			{0xE5u, 0x40u},
 392:.\Generated_Source\PSoC4/cyfitter_cfg.c **** 			{0xE6u, 0xC0u},
 393:.\Generated_Source\PSoC4/cyfitter_cfg.c **** 			{0xE8u, 0xC0u},
 394:.\Generated_Source\PSoC4/cyfitter_cfg.c **** 			{0xEAu, 0xC0u},
 395:.\Generated_Source\PSoC4/cyfitter_cfg.c **** 			{0xECu, 0xC0u},
 396:.\Generated_Source\PSoC4/cyfitter_cfg.c **** 			{0xEEu, 0xC0u},
 397:.\Generated_Source\PSoC4/cyfitter_cfg.c **** 			{0x0Eu, 0x20u},
 398:.\Generated_Source\PSoC4/cyfitter_cfg.c **** 			{0x0Fu, 0x08u},
 399:.\Generated_Source\PSoC4/cyfitter_cfg.c **** 			{0x10u, 0x02u},
 400:.\Generated_Source\PSoC4/cyfitter_cfg.c **** 			{0x18u, 0x01u},
 401:.\Generated_Source\PSoC4/cyfitter_cfg.c **** 			{0x19u, 0x80u},
 402:.\Generated_Source\PSoC4/cyfitter_cfg.c **** 			{0x1Bu, 0x10u},
 403:.\Generated_Source\PSoC4/cyfitter_cfg.c **** 			{0x1Eu, 0x60u},
 404:.\Generated_Source\PSoC4/cyfitter_cfg.c **** 			{0x27u, 0x08u},
 405:.\Generated_Source\PSoC4/cyfitter_cfg.c **** 			{0x2Du, 0x80u},
 406:.\Generated_Source\PSoC4/cyfitter_cfg.c **** 			{0x3Fu, 0x80u},
 407:.\Generated_Source\PSoC4/cyfitter_cfg.c **** 			{0x40u, 0x01u},
 408:.\Generated_Source\PSoC4/cyfitter_cfg.c **** 			{0x42u, 0x80u},
 409:.\Generated_Source\PSoC4/cyfitter_cfg.c **** 			{0x4Fu, 0xA9u},
 410:.\Generated_Source\PSoC4/cyfitter_cfg.c **** 			{0x56u, 0x80u},
 411:.\Generated_Source\PSoC4/cyfitter_cfg.c **** 			{0x57u, 0x40u},
 412:.\Generated_Source\PSoC4/cyfitter_cfg.c **** 			{0x5Eu, 0x40u},
 413:.\Generated_Source\PSoC4/cyfitter_cfg.c **** 			{0x5Fu, 0x09u},
 414:.\Generated_Source\PSoC4/cyfitter_cfg.c **** 			{0x67u, 0x40u},
 415:.\Generated_Source\PSoC4/cyfitter_cfg.c **** 			{0x70u, 0x02u},
 416:.\Generated_Source\PSoC4/cyfitter_cfg.c **** 			{0x87u, 0x40u},
 417:.\Generated_Source\PSoC4/cyfitter_cfg.c **** 			{0xC2u, 0x60u},
 418:.\Generated_Source\PSoC4/cyfitter_cfg.c **** 			{0xC4u, 0x01u},
 419:.\Generated_Source\PSoC4/cyfitter_cfg.c **** 			{0xCAu, 0x10u},
 420:.\Generated_Source\PSoC4/cyfitter_cfg.c **** 			{0xCEu, 0x10u},
 421:.\Generated_Source\PSoC4/cyfitter_cfg.c **** 			{0xD0u, 0x09u},
 422:.\Generated_Source\PSoC4/cyfitter_cfg.c **** 			{0xD2u, 0x30u},
 423:.\Generated_Source\PSoC4/cyfitter_cfg.c **** 			{0xD6u, 0xD0u},
 424:.\Generated_Source\PSoC4/cyfitter_cfg.c **** 			{0xD8u, 0x80u},
 425:.\Generated_Source\PSoC4/cyfitter_cfg.c **** 			{0x03u, 0x01u},
 426:.\Generated_Source\PSoC4/cyfitter_cfg.c **** 			{0x16u, 0x01u},
 427:.\Generated_Source\PSoC4/cyfitter_cfg.c **** 			{0x1Eu, 0x0Cu},
 428:.\Generated_Source\PSoC4/cyfitter_cfg.c **** 			{0x26u, 0x01u},
 429:.\Generated_Source\PSoC4/cyfitter_cfg.c **** 			{0x2Du, 0x01u},
 430:.\Generated_Source\PSoC4/cyfitter_cfg.c **** 			{0x2Eu, 0x06u},
 431:.\Generated_Source\PSoC4/cyfitter_cfg.c **** 			{0x30u, 0x08u},
 432:.\Generated_Source\PSoC4/cyfitter_cfg.c **** 			{0x32u, 0x02u},
 433:.\Generated_Source\PSoC4/cyfitter_cfg.c **** 			{0x34u, 0x01u},
 434:.\Generated_Source\PSoC4/cyfitter_cfg.c **** 			{0x36u, 0x04u},
 435:.\Generated_Source\PSoC4/cyfitter_cfg.c **** 			{0x37u, 0x01u},
ARM GAS  C:\Users\Admin\AppData\Local\Temp\ccbkeI6c.s 			page 17


 436:.\Generated_Source\PSoC4/cyfitter_cfg.c **** 			{0x3Eu, 0x10u},
 437:.\Generated_Source\PSoC4/cyfitter_cfg.c **** 			{0x40u, 0x30u},
 438:.\Generated_Source\PSoC4/cyfitter_cfg.c **** 			{0x41u, 0x06u},
 439:.\Generated_Source\PSoC4/cyfitter_cfg.c **** 			{0x45u, 0xD0u},
 440:.\Generated_Source\PSoC4/cyfitter_cfg.c **** 			{0x46u, 0x20u},
 441:.\Generated_Source\PSoC4/cyfitter_cfg.c **** 			{0x47u, 0x10u},
 442:.\Generated_Source\PSoC4/cyfitter_cfg.c **** 			{0x48u, 0x2Au},
 443:.\Generated_Source\PSoC4/cyfitter_cfg.c **** 			{0x49u, 0xFFu},
 444:.\Generated_Source\PSoC4/cyfitter_cfg.c **** 			{0x4Au, 0xFFu},
 445:.\Generated_Source\PSoC4/cyfitter_cfg.c **** 			{0x4Bu, 0xFFu},
 446:.\Generated_Source\PSoC4/cyfitter_cfg.c **** 			{0x4Du, 0xA0u},
 447:.\Generated_Source\PSoC4/cyfitter_cfg.c **** 			{0x4Fu, 0x04u},
 448:.\Generated_Source\PSoC4/cyfitter_cfg.c **** 			{0x50u, 0x18u},
 449:.\Generated_Source\PSoC4/cyfitter_cfg.c **** 			{0x52u, 0x80u},
 450:.\Generated_Source\PSoC4/cyfitter_cfg.c **** 			{0x54u, 0x05u},
 451:.\Generated_Source\PSoC4/cyfitter_cfg.c **** 			{0x58u, 0x04u},
 452:.\Generated_Source\PSoC4/cyfitter_cfg.c **** 			{0x59u, 0x04u},
 453:.\Generated_Source\PSoC4/cyfitter_cfg.c **** 			{0x5Au, 0x04u},
 454:.\Generated_Source\PSoC4/cyfitter_cfg.c **** 			{0x5Bu, 0x04u},
 455:.\Generated_Source\PSoC4/cyfitter_cfg.c **** 			{0x5Fu, 0x01u},
 456:.\Generated_Source\PSoC4/cyfitter_cfg.c **** 			{0x60u, 0x40u},
 457:.\Generated_Source\PSoC4/cyfitter_cfg.c **** 			{0x62u, 0xC0u},
 458:.\Generated_Source\PSoC4/cyfitter_cfg.c **** 			{0x64u, 0x40u},
 459:.\Generated_Source\PSoC4/cyfitter_cfg.c **** 			{0x65u, 0x40u},
 460:.\Generated_Source\PSoC4/cyfitter_cfg.c **** 			{0x66u, 0xC0u},
 461:.\Generated_Source\PSoC4/cyfitter_cfg.c **** 			{0x68u, 0xC0u},
 462:.\Generated_Source\PSoC4/cyfitter_cfg.c **** 			{0x6Au, 0xC0u},
 463:.\Generated_Source\PSoC4/cyfitter_cfg.c **** 			{0x6Cu, 0xC0u},
 464:.\Generated_Source\PSoC4/cyfitter_cfg.c **** 			{0x6Eu, 0xC0u},
 465:.\Generated_Source\PSoC4/cyfitter_cfg.c **** 			{0x8Au, 0x01u},
 466:.\Generated_Source\PSoC4/cyfitter_cfg.c **** 			{0x92u, 0x06u},
 467:.\Generated_Source\PSoC4/cyfitter_cfg.c **** 			{0x9Bu, 0x01u},
 468:.\Generated_Source\PSoC4/cyfitter_cfg.c **** 			{0xA1u, 0x01u},
 469:.\Generated_Source\PSoC4/cyfitter_cfg.c **** 			{0xA6u, 0x0Cu},
 470:.\Generated_Source\PSoC4/cyfitter_cfg.c **** 			{0xAAu, 0x01u},
 471:.\Generated_Source\PSoC4/cyfitter_cfg.c **** 			{0xB0u, 0x08u},
 472:.\Generated_Source\PSoC4/cyfitter_cfg.c **** 			{0xB2u, 0x02u},
 473:.\Generated_Source\PSoC4/cyfitter_cfg.c **** 			{0xB4u, 0x01u},
 474:.\Generated_Source\PSoC4/cyfitter_cfg.c **** 			{0xB6u, 0x04u},
 475:.\Generated_Source\PSoC4/cyfitter_cfg.c **** 			{0xB7u, 0x01u},
 476:.\Generated_Source\PSoC4/cyfitter_cfg.c **** 			{0xBEu, 0x10u},
 477:.\Generated_Source\PSoC4/cyfitter_cfg.c **** 			{0xC0u, 0x30u},
 478:.\Generated_Source\PSoC4/cyfitter_cfg.c **** 			{0xC1u, 0x06u},
 479:.\Generated_Source\PSoC4/cyfitter_cfg.c **** 			{0xC5u, 0xD1u},
 480:.\Generated_Source\PSoC4/cyfitter_cfg.c **** 			{0xC7u, 0x02u},
 481:.\Generated_Source\PSoC4/cyfitter_cfg.c **** 			{0xC8u, 0x13u},
 482:.\Generated_Source\PSoC4/cyfitter_cfg.c **** 			{0xC9u, 0xFFu},
 483:.\Generated_Source\PSoC4/cyfitter_cfg.c **** 			{0xCAu, 0xFFu},
 484:.\Generated_Source\PSoC4/cyfitter_cfg.c **** 			{0xCBu, 0xFFu},
 485:.\Generated_Source\PSoC4/cyfitter_cfg.c **** 			{0xCDu, 0xA0u},
 486:.\Generated_Source\PSoC4/cyfitter_cfg.c **** 			{0xCFu, 0x04u},
 487:.\Generated_Source\PSoC4/cyfitter_cfg.c **** 			{0xD0u, 0x18u},
 488:.\Generated_Source\PSoC4/cyfitter_cfg.c **** 			{0xD2u, 0x80u},
 489:.\Generated_Source\PSoC4/cyfitter_cfg.c **** 			{0xD4u, 0x05u},
 490:.\Generated_Source\PSoC4/cyfitter_cfg.c **** 			{0xD8u, 0x04u},
 491:.\Generated_Source\PSoC4/cyfitter_cfg.c **** 			{0xD9u, 0x04u},
 492:.\Generated_Source\PSoC4/cyfitter_cfg.c **** 			{0xDAu, 0x04u},
ARM GAS  C:\Users\Admin\AppData\Local\Temp\ccbkeI6c.s 			page 18


 493:.\Generated_Source\PSoC4/cyfitter_cfg.c **** 			{0xDBu, 0x04u},
 494:.\Generated_Source\PSoC4/cyfitter_cfg.c **** 			{0xDFu, 0x01u},
 495:.\Generated_Source\PSoC4/cyfitter_cfg.c **** 			{0xE0u, 0x40u},
 496:.\Generated_Source\PSoC4/cyfitter_cfg.c **** 			{0xE2u, 0xC0u},
 497:.\Generated_Source\PSoC4/cyfitter_cfg.c **** 			{0xE4u, 0x40u},
 498:.\Generated_Source\PSoC4/cyfitter_cfg.c **** 			{0xE5u, 0x40u},
 499:.\Generated_Source\PSoC4/cyfitter_cfg.c **** 			{0xE6u, 0xC0u},
 500:.\Generated_Source\PSoC4/cyfitter_cfg.c **** 			{0xE8u, 0xC0u},
 501:.\Generated_Source\PSoC4/cyfitter_cfg.c **** 			{0xEAu, 0xC0u},
 502:.\Generated_Source\PSoC4/cyfitter_cfg.c **** 			{0xECu, 0xC0u},
 503:.\Generated_Source\PSoC4/cyfitter_cfg.c **** 			{0xEEu, 0xC0u},
 504:.\Generated_Source\PSoC4/cyfitter_cfg.c **** 			{0x00u, 0x10u},
 505:.\Generated_Source\PSoC4/cyfitter_cfg.c **** 			{0x09u, 0x02u},
 506:.\Generated_Source\PSoC4/cyfitter_cfg.c **** 			{0x0Du, 0x08u},
 507:.\Generated_Source\PSoC4/cyfitter_cfg.c **** 			{0x0Fu, 0x02u},
 508:.\Generated_Source\PSoC4/cyfitter_cfg.c **** 			{0x10u, 0x28u},
 509:.\Generated_Source\PSoC4/cyfitter_cfg.c **** 			{0x16u, 0x20u},
 510:.\Generated_Source\PSoC4/cyfitter_cfg.c **** 			{0x17u, 0x40u},
 511:.\Generated_Source\PSoC4/cyfitter_cfg.c **** 			{0x18u, 0x12u},
 512:.\Generated_Source\PSoC4/cyfitter_cfg.c **** 			{0x19u, 0x02u},
 513:.\Generated_Source\PSoC4/cyfitter_cfg.c **** 			{0x1Au, 0x04u},
 514:.\Generated_Source\PSoC4/cyfitter_cfg.c **** 			{0x1Du, 0x48u},
 515:.\Generated_Source\PSoC4/cyfitter_cfg.c **** 			{0x1Eu, 0x08u},
 516:.\Generated_Source\PSoC4/cyfitter_cfg.c **** 			{0x1Fu, 0x02u},
 517:.\Generated_Source\PSoC4/cyfitter_cfg.c **** 			{0x22u, 0x40u},
 518:.\Generated_Source\PSoC4/cyfitter_cfg.c **** 			{0x26u, 0x40u},
 519:.\Generated_Source\PSoC4/cyfitter_cfg.c **** 			{0x29u, 0x02u},
 520:.\Generated_Source\PSoC4/cyfitter_cfg.c **** 			{0x2Fu, 0x02u},
 521:.\Generated_Source\PSoC4/cyfitter_cfg.c **** 			{0x30u, 0x20u},
 522:.\Generated_Source\PSoC4/cyfitter_cfg.c **** 			{0x3Fu, 0x02u},
 523:.\Generated_Source\PSoC4/cyfitter_cfg.c **** 			{0x40u, 0x10u},
 524:.\Generated_Source\PSoC4/cyfitter_cfg.c **** 			{0x45u, 0x08u},
 525:.\Generated_Source\PSoC4/cyfitter_cfg.c **** 			{0x48u, 0x28u},
 526:.\Generated_Source\PSoC4/cyfitter_cfg.c **** 			{0x49u, 0x01u},
 527:.\Generated_Source\PSoC4/cyfitter_cfg.c **** 			{0x4Fu, 0x21u},
 528:.\Generated_Source\PSoC4/cyfitter_cfg.c **** 			{0x50u, 0x08u},
 529:.\Generated_Source\PSoC4/cyfitter_cfg.c **** 			{0x56u, 0x20u},
 530:.\Generated_Source\PSoC4/cyfitter_cfg.c **** 			{0x57u, 0x11u},
 531:.\Generated_Source\PSoC4/cyfitter_cfg.c **** 			{0x59u, 0x01u},
 532:.\Generated_Source\PSoC4/cyfitter_cfg.c **** 			{0x5Au, 0x84u},
 533:.\Generated_Source\PSoC4/cyfitter_cfg.c **** 			{0x5Eu, 0x88u},
 534:.\Generated_Source\PSoC4/cyfitter_cfg.c **** 			{0x5Fu, 0x01u},
 535:.\Generated_Source\PSoC4/cyfitter_cfg.c **** 			{0x71u, 0x02u},
 536:.\Generated_Source\PSoC4/cyfitter_cfg.c **** 			{0x77u, 0x40u},
 537:.\Generated_Source\PSoC4/cyfitter_cfg.c **** 			{0x80u, 0x01u},
 538:.\Generated_Source\PSoC4/cyfitter_cfg.c **** 			{0x85u, 0x40u},
 539:.\Generated_Source\PSoC4/cyfitter_cfg.c **** 			{0xC0u, 0x02u},
 540:.\Generated_Source\PSoC4/cyfitter_cfg.c **** 			{0xC2u, 0xA8u},
 541:.\Generated_Source\PSoC4/cyfitter_cfg.c **** 			{0xC4u, 0xA6u},
 542:.\Generated_Source\PSoC4/cyfitter_cfg.c **** 			{0xCAu, 0x11u},
 543:.\Generated_Source\PSoC4/cyfitter_cfg.c **** 			{0xCCu, 0x04u},
 544:.\Generated_Source\PSoC4/cyfitter_cfg.c **** 			{0xCEu, 0x80u},
 545:.\Generated_Source\PSoC4/cyfitter_cfg.c **** 			{0xD0u, 0x42u},
 546:.\Generated_Source\PSoC4/cyfitter_cfg.c **** 			{0xD2u, 0x24u},
 547:.\Generated_Source\PSoC4/cyfitter_cfg.c **** 			{0xD6u, 0xDBu},
 548:.\Generated_Source\PSoC4/cyfitter_cfg.c **** 			{0xE4u, 0x04u},
 549:.\Generated_Source\PSoC4/cyfitter_cfg.c **** 			{0x57u, 0x20u},
ARM GAS  C:\Users\Admin\AppData\Local\Temp\ccbkeI6c.s 			page 19


 550:.\Generated_Source\PSoC4/cyfitter_cfg.c **** 			{0x73u, 0x02u},
 551:.\Generated_Source\PSoC4/cyfitter_cfg.c **** 			{0x87u, 0x02u},
 552:.\Generated_Source\PSoC4/cyfitter_cfg.c **** 			{0xD4u, 0x40u},
 553:.\Generated_Source\PSoC4/cyfitter_cfg.c **** 			{0xDCu, 0x20u},
 554:.\Generated_Source\PSoC4/cyfitter_cfg.c **** 			{0xE6u, 0x40u},
 555:.\Generated_Source\PSoC4/cyfitter_cfg.c **** 			{0x87u, 0x20u},
 556:.\Generated_Source\PSoC4/cyfitter_cfg.c **** 			{0xA7u, 0x20u},
 557:.\Generated_Source\PSoC4/cyfitter_cfg.c **** 			{0xE6u, 0x10u},
 558:.\Generated_Source\PSoC4/cyfitter_cfg.c **** 			{0x67u, 0x02u},
 559:.\Generated_Source\PSoC4/cyfitter_cfg.c **** 			{0xD6u, 0x01u},
 560:.\Generated_Source\PSoC4/cyfitter_cfg.c **** 			{0x83u, 0x01u},
 561:.\Generated_Source\PSoC4/cyfitter_cfg.c **** 			{0x97u, 0x02u},
 562:.\Generated_Source\PSoC4/cyfitter_cfg.c **** 			{0x10u, 0x01u},
 563:.\Generated_Source\PSoC4/cyfitter_cfg.c **** 			{0x11u, 0x01u},
 564:.\Generated_Source\PSoC4/cyfitter_cfg.c **** 		};
 565:.\Generated_Source\PSoC4/cyfitter_cfg.c **** 
 566:.\Generated_Source\PSoC4/cyfitter_cfg.c **** 
 567:.\Generated_Source\PSoC4/cyfitter_cfg.c **** 
 568:.\Generated_Source\PSoC4/cyfitter_cfg.c **** 		CYPACKED typedef struct {
 569:.\Generated_Source\PSoC4/cyfitter_cfg.c **** 			void CYFAR *address;
 570:.\Generated_Source\PSoC4/cyfitter_cfg.c **** 			uint16 size;
 571:.\Generated_Source\PSoC4/cyfitter_cfg.c **** 		} CYPACKED_ATTR cfg_memset_t;
 572:.\Generated_Source\PSoC4/cyfitter_cfg.c **** 
 573:.\Generated_Source\PSoC4/cyfitter_cfg.c **** 		static const cfg_memset_t CYCODE cfg_memset_list [] = {
 574:.\Generated_Source\PSoC4/cyfitter_cfg.c **** 			/* address, size */
 575:.\Generated_Source\PSoC4/cyfitter_cfg.c **** 			{(void CYFAR *)(CYDEV_UDB_P0_U0_BASE), 1024u},
 576:.\Generated_Source\PSoC4/cyfitter_cfg.c **** 			{(void CYFAR *)(CYDEV_UDB_DSI0_BASE), 1024u},
 577:.\Generated_Source\PSoC4/cyfitter_cfg.c **** 		};
 578:.\Generated_Source\PSoC4/cyfitter_cfg.c **** 
 579:.\Generated_Source\PSoC4/cyfitter_cfg.c **** 		uint8 CYDATA i;
 580:.\Generated_Source\PSoC4/cyfitter_cfg.c **** 
 581:.\Generated_Source\PSoC4/cyfitter_cfg.c **** 		/* Zero out critical memory blocks before beginning configuration */
 582:.\Generated_Source\PSoC4/cyfitter_cfg.c **** 		for (i = 0u; i < (sizeof(cfg_memset_list)/sizeof(cfg_memset_list[0])); i++)
 472              		.loc 1 582 0
 473 013e FB1D     		add	r3, r7, #7
 474 0140 0022     		mov	r2, #0
 475 0142 1A70     		strb	r2, [r3]
 476 0144 23E0     		b	.L20
 477              	.L21:
 478              	.LBB4:
 583:.\Generated_Source\PSoC4/cyfitter_cfg.c **** 		{
 584:.\Generated_Source\PSoC4/cyfitter_cfg.c **** 			const cfg_memset_t CYCODE * CYDATA ms = &cfg_memset_list[i];
 479              		.loc 1 584 0 discriminator 2
 480 0146 FB1D     		add	r3, r7, #7
 481 0148 1A78     		ldrb	r2, [r3]
 482 014a 131C     		mov	r3, r2
 483 014c 5B00     		lsl	r3, r3, #1
 484 014e 9B18     		add	r3, r3, r2
 485 0150 5B00     		lsl	r3, r3, #1
 486 0152 564A     		ldr	r2, .L22+4
 487 0154 9B18     		add	r3, r3, r2
 488 0156 3B60     		str	r3, [r7]
 585:.\Generated_Source\PSoC4/cyfitter_cfg.c **** 			CYMEMZERO(ms->address, (size_t)(uint32)(ms->size));
 489              		.loc 1 585 0 discriminator 2
 490 0158 3B68     		ldr	r3, [r7]
 491 015a 1A78     		ldrb	r2, [r3]
 492 015c 5978     		ldrb	r1, [r3, #1]
ARM GAS  C:\Users\Admin\AppData\Local\Temp\ccbkeI6c.s 			page 20


 493 015e 0902     		lsl	r1, r1, #8
 494 0160 0A43     		orr	r2, r1
 495 0162 9978     		ldrb	r1, [r3, #2]
 496 0164 0904     		lsl	r1, r1, #16
 497 0166 0A43     		orr	r2, r1
 498 0168 DB78     		ldrb	r3, [r3, #3]
 499 016a 1B06     		lsl	r3, r3, #24
 500 016c 1343     		orr	r3, r2
 501 016e 1A1C     		mov	r2, r3
 502 0170 3B68     		ldr	r3, [r7]
 503 0172 1979     		ldrb	r1, [r3, #4]
 504 0174 5B79     		ldrb	r3, [r3, #5]
 505 0176 1B02     		lsl	r3, r3, #8
 506 0178 0B43     		orr	r3, r1
 507 017a 9BB2     		uxth	r3, r3
 508 017c 101C     		mov	r0, r2
 509 017e 191C     		mov	r1, r3
 510 0180 FFF7FEFF 		bl	CYMEMZERO
 511              	.LBE4:
 582:.\Generated_Source\PSoC4/cyfitter_cfg.c **** 		for (i = 0u; i < (sizeof(cfg_memset_list)/sizeof(cfg_memset_list[0])); i++)
 512              		.loc 1 582 0 discriminator 2
 513 0184 FB1D     		add	r3, r7, #7
 514 0186 1A78     		ldrb	r2, [r3]
 515 0188 FB1D     		add	r3, r7, #7
 516 018a 0132     		add	r2, r2, #1
 517 018c 1A70     		strb	r2, [r3]
 518              	.L20:
 582:.\Generated_Source\PSoC4/cyfitter_cfg.c **** 		for (i = 0u; i < (sizeof(cfg_memset_list)/sizeof(cfg_memset_list[0])); i++)
 519              		.loc 1 582 0 is_stmt 0 discriminator 1
 520 018e FB1D     		add	r3, r7, #7
 521 0190 1B78     		ldrb	r3, [r3]
 522 0192 012B     		cmp	r3, #1
 523 0194 D7D9     		bls	.L21
 586:.\Generated_Source\PSoC4/cyfitter_cfg.c **** 		}
 587:.\Generated_Source\PSoC4/cyfitter_cfg.c **** 
 588:.\Generated_Source\PSoC4/cyfitter_cfg.c **** 		cfg_write_bytes32(cy_cfg_addr_table, cy_cfg_data_table);
 524              		.loc 1 588 0 is_stmt 1
 525 0196 464A     		ldr	r2, .L22+8
 526 0198 464B     		ldr	r3, .L22+12
 527 019a 101C     		mov	r0, r2
 528 019c 191C     		mov	r1, r3
 529 019e FFF7FEFF 		bl	cfg_write_bytes32
 589:.\Generated_Source\PSoC4/cyfitter_cfg.c **** 
 590:.\Generated_Source\PSoC4/cyfitter_cfg.c **** 		/* Perform normal device configuration. Order is not critical for these items. */
 591:.\Generated_Source\PSoC4/cyfitter_cfg.c **** 		CY_SET_XTND_REG16((void CYFAR *)(CYREG_UDB_BCTL0_DRV), 0x0100u);
 530              		.loc 1 591 0
 531 01a2 454B     		ldr	r3, .L22+16
 532 01a4 8022     		mov	r2, #128
 533 01a6 5200     		lsl	r2, r2, #1
 534 01a8 1A80     		strh	r2, [r3]
 592:.\Generated_Source\PSoC4/cyfitter_cfg.c **** 		CY_SET_XTND_REG8((void CYFAR *)(CYREG_UDB_BCTL0_DRV + 0x2u), 0x01u);
 535              		.loc 1 592 0
 536 01aa 444B     		ldr	r3, .L22+20
 537 01ac 0122     		mov	r2, #1
 538 01ae 1A70     		strb	r2, [r3]
 593:.\Generated_Source\PSoC4/cyfitter_cfg.c **** 
 594:.\Generated_Source\PSoC4/cyfitter_cfg.c **** 		/* HSIOM Starting address: CYDEV_HSIOM_BASE */
ARM GAS  C:\Users\Admin\AppData\Local\Temp\ccbkeI6c.s 			page 21


 595:.\Generated_Source\PSoC4/cyfitter_cfg.c **** 		CY_SET_XTND_REG32((void CYFAR *)(CYDEV_HSIOM_BASE), 0x00000030u);
 539              		.loc 1 595 0
 540 01b0 434B     		ldr	r3, .L22+24
 541 01b2 3022     		mov	r2, #48
 542 01b4 1A60     		str	r2, [r3]
 596:.\Generated_Source\PSoC4/cyfitter_cfg.c **** 		CY_SET_XTND_REG32((void CYFAR *)(CYREG_HSIOM_PORT_SEL2), 0x03000000u);
 543              		.loc 1 596 0
 544 01b6 434B     		ldr	r3, .L22+28
 545 01b8 C022     		mov	r2, #192
 546 01ba 9204     		lsl	r2, r2, #18
 547 01bc 1A60     		str	r2, [r3]
 597:.\Generated_Source\PSoC4/cyfitter_cfg.c **** 		CY_SET_XTND_REG32((void CYFAR *)(CYREG_HSIOM_PORT_SEL3), 0x0000EE00u);
 548              		.loc 1 597 0
 549 01be 424B     		ldr	r3, .L22+32
 550 01c0 EE22     		mov	r2, #238
 551 01c2 1202     		lsl	r2, r2, #8
 552 01c4 1A60     		str	r2, [r3]
 598:.\Generated_Source\PSoC4/cyfitter_cfg.c **** 
 599:.\Generated_Source\PSoC4/cyfitter_cfg.c **** 		/* IOPINS0_0 Starting address: CYDEV_PRT0_DR */
 600:.\Generated_Source\PSoC4/cyfitter_cfg.c **** 		CY_SET_XTND_REG32((void CYFAR *)(CYREG_PRT0_DR), 0x00000082u);
 553              		.loc 1 600 0
 554 01c6 414B     		ldr	r3, .L22+36
 555 01c8 8222     		mov	r2, #130
 556 01ca 1A60     		str	r2, [r3]
 601:.\Generated_Source\PSoC4/cyfitter_cfg.c **** 		CY_SET_XTND_REG32((void CYFAR *)(CYREG_PRT0_PC), 0x00580DB6u);
 557              		.loc 1 601 0
 558 01cc 404B     		ldr	r3, .L22+40
 559 01ce 414A     		ldr	r2, .L22+44
 560 01d0 1A60     		str	r2, [r3]
 602:.\Generated_Source\PSoC4/cyfitter_cfg.c **** 		CY_SET_XTND_REG32((void CYFAR *)(CYREG_PRT0_INTCFG), 0x0000C000u);
 561              		.loc 1 602 0
 562 01d2 414B     		ldr	r3, .L22+48
 563 01d4 C022     		mov	r2, #192
 564 01d6 1202     		lsl	r2, r2, #8
 565 01d8 1A60     		str	r2, [r3]
 603:.\Generated_Source\PSoC4/cyfitter_cfg.c **** 
 604:.\Generated_Source\PSoC4/cyfitter_cfg.c **** 		/* IOPINS0_1 Starting address: CYDEV_PRT1_DR */
 605:.\Generated_Source\PSoC4/cyfitter_cfg.c **** 		CY_SET_XTND_REG32((void CYFAR *)(CYREG_PRT1_DR), 0x00000004u);
 566              		.loc 1 605 0
 567 01da 404B     		ldr	r3, .L22+52
 568 01dc 0422     		mov	r2, #4
 569 01de 1A60     		str	r2, [r3]
 606:.\Generated_Source\PSoC4/cyfitter_cfg.c **** 		CY_SET_XTND_REG32((void CYFAR *)(CYREG_PRT1_PC), 0x00180080u);
 570              		.loc 1 606 0
 571 01e0 3F4B     		ldr	r3, .L22+56
 572 01e2 404A     		ldr	r2, .L22+60
 573 01e4 1A60     		str	r2, [r3]
 607:.\Generated_Source\PSoC4/cyfitter_cfg.c **** 		CY_SET_XTND_REG32((void CYFAR *)(CYREG_PRT1_INTCFG), 0x00000020u);
 574              		.loc 1 607 0
 575 01e6 404B     		ldr	r3, .L22+64
 576 01e8 2022     		mov	r2, #32
 577 01ea 1A60     		str	r2, [r3]
 608:.\Generated_Source\PSoC4/cyfitter_cfg.c **** 
 609:.\Generated_Source\PSoC4/cyfitter_cfg.c **** 		/* IOPINS0_2 Starting address: CYDEV_PRT2_DR */
 610:.\Generated_Source\PSoC4/cyfitter_cfg.c **** 		CY_SET_XTND_REG32((void CYFAR *)(CYREG_PRT2_DR), 0x00000040u);
 578              		.loc 1 610 0
 579 01ec 3F4B     		ldr	r3, .L22+68
ARM GAS  C:\Users\Admin\AppData\Local\Temp\ccbkeI6c.s 			page 22


 580 01ee 4022     		mov	r2, #64
 581 01f0 1A60     		str	r2, [r3]
 611:.\Generated_Source\PSoC4/cyfitter_cfg.c **** 		CY_SET_XTND_REG32((void CYFAR *)(CYREG_PRT2_PC), 0x001B0000u);
 582              		.loc 1 611 0
 583 01f2 3F4B     		ldr	r3, .L22+72
 584 01f4 D822     		mov	r2, #216
 585 01f6 5203     		lsl	r2, r2, #13
 586 01f8 1A60     		str	r2, [r3]
 612:.\Generated_Source\PSoC4/cyfitter_cfg.c **** 
 613:.\Generated_Source\PSoC4/cyfitter_cfg.c **** 		/* IOPINS0_3 Starting address: CYDEV_PRT3_DR */
 614:.\Generated_Source\PSoC4/cyfitter_cfg.c **** 		CY_SET_XTND_REG32((void CYFAR *)(CYREG_PRT3_DR), 0x00000010u);
 587              		.loc 1 614 0
 588 01fa 3E4B     		ldr	r3, .L22+76
 589 01fc 1022     		mov	r2, #16
 590 01fe 1A60     		str	r2, [r3]
 615:.\Generated_Source\PSoC4/cyfitter_cfg.c **** 		CY_SET_XTND_REG32((void CYFAR *)(CYREG_PRT3_PC), 0x00002D80u);
 591              		.loc 1 615 0
 592 0200 3D4B     		ldr	r3, .L22+80
 593 0202 B622     		mov	r2, #182
 594 0204 9201     		lsl	r2, r2, #6
 595 0206 1A60     		str	r2, [r3]
 616:.\Generated_Source\PSoC4/cyfitter_cfg.c **** 		CY_SET_XTND_REG32((void CYFAR *)(CYREG_PRT3_INTCFG), 0x00000200u);
 596              		.loc 1 616 0
 597 0208 3C4B     		ldr	r3, .L22+84
 598 020a 8022     		mov	r2, #128
 599 020c 9200     		lsl	r2, r2, #2
 600 020e 1A60     		str	r2, [r3]
 617:.\Generated_Source\PSoC4/cyfitter_cfg.c **** 
 618:.\Generated_Source\PSoC4/cyfitter_cfg.c **** 		/* UDB_PA_0 Starting address: CYDEV_UDB_PA0_BASE */
 619:.\Generated_Source\PSoC4/cyfitter_cfg.c **** 		CY_SET_XTND_REG32((void CYFAR *)(CYDEV_UDB_PA0_BASE), 0x00990000u);
 601              		.loc 1 619 0
 602 0210 3B4B     		ldr	r3, .L22+88
 603 0212 9922     		mov	r2, #153
 604 0214 1204     		lsl	r2, r2, #16
 605 0216 1A60     		str	r2, [r3]
 620:.\Generated_Source\PSoC4/cyfitter_cfg.c **** 		CY_SET_XTND_REG32((void CYFAR *)(CYREG_UDB_PA0_CFG4), 0x80000000u);
 606              		.loc 1 620 0
 607 0218 3A4B     		ldr	r3, .L22+92
 608 021a 8022     		mov	r2, #128
 609 021c 1206     		lsl	r2, r2, #24
 610 021e 1A60     		str	r2, [r3]
 621:.\Generated_Source\PSoC4/cyfitter_cfg.c **** 		CY_SET_XTND_REG32((void CYFAR *)(CYREG_UDB_PA0_CFG8), 0x00040000u);
 611              		.loc 1 621 0
 612 0220 394B     		ldr	r3, .L22+96
 613 0222 8022     		mov	r2, #128
 614 0224 D202     		lsl	r2, r2, #11
 615 0226 1A60     		str	r2, [r3]
 622:.\Generated_Source\PSoC4/cyfitter_cfg.c **** 
 623:.\Generated_Source\PSoC4/cyfitter_cfg.c **** 		/* UDB_PA_1 Starting address: CYDEV_UDB_PA1_BASE */
 624:.\Generated_Source\PSoC4/cyfitter_cfg.c **** 		CY_SET_XTND_REG32((void CYFAR *)(CYDEV_UDB_PA1_BASE), 0x00990000u);
 616              		.loc 1 624 0
 617 0228 384B     		ldr	r3, .L22+100
 618 022a 9922     		mov	r2, #153
 619 022c 1204     		lsl	r2, r2, #16
 620 022e 1A60     		str	r2, [r3]
 625:.\Generated_Source\PSoC4/cyfitter_cfg.c **** 		CY_SET_XTND_REG32((void CYFAR *)(CYREG_UDB_PA1_CFG4), 0x00200000u);
 621              		.loc 1 625 0
ARM GAS  C:\Users\Admin\AppData\Local\Temp\ccbkeI6c.s 			page 23


 622 0230 374B     		ldr	r3, .L22+104
 623 0232 8022     		mov	r2, #128
 624 0234 9203     		lsl	r2, r2, #14
 625 0236 1A60     		str	r2, [r3]
 626:.\Generated_Source\PSoC4/cyfitter_cfg.c **** 
 627:.\Generated_Source\PSoC4/cyfitter_cfg.c **** 		/* UDB_PA_2 Starting address: CYDEV_UDB_PA2_BASE */
 628:.\Generated_Source\PSoC4/cyfitter_cfg.c **** 		CY_SET_XTND_REG32((void CYFAR *)(CYDEV_UDB_PA2_BASE), 0x00990000u);
 626              		.loc 1 628 0
 627 0238 364B     		ldr	r3, .L22+108
 628 023a 9922     		mov	r2, #153
 629 023c 1204     		lsl	r2, r2, #16
 630 023e 1A60     		str	r2, [r3]
 629:.\Generated_Source\PSoC4/cyfitter_cfg.c **** 		CY_SET_XTND_REG32((void CYFAR *)(CYREG_UDB_PA2_CFG8), 0x10000000u);
 631              		.loc 1 629 0
 632 0240 354B     		ldr	r3, .L22+112
 633 0242 8022     		mov	r2, #128
 634 0244 5205     		lsl	r2, r2, #21
 635 0246 1A60     		str	r2, [r3]
 630:.\Generated_Source\PSoC4/cyfitter_cfg.c **** 
 631:.\Generated_Source\PSoC4/cyfitter_cfg.c **** 		/* UDB_PA_3 Starting address: CYDEV_UDB_PA3_BASE */
 632:.\Generated_Source\PSoC4/cyfitter_cfg.c **** 		CY_SET_XTND_REG32((void CYFAR *)(CYDEV_UDB_PA3_BASE), 0x00990000u);
 636              		.loc 1 632 0
 637 0248 344B     		ldr	r3, .L22+116
 638 024a 9922     		mov	r2, #153
 639 024c 1204     		lsl	r2, r2, #16
 640 024e 1A60     		str	r2, [r3]
 633:.\Generated_Source\PSoC4/cyfitter_cfg.c **** 		CY_SET_XTND_REG32((void CYFAR *)(CYREG_UDB_PA3_CFG4), 0x02000000u);
 641              		.loc 1 633 0
 642 0250 334B     		ldr	r3, .L22+120
 643 0252 8022     		mov	r2, #128
 644 0254 9204     		lsl	r2, r2, #18
 645 0256 1A60     		str	r2, [r3]
 634:.\Generated_Source\PSoC4/cyfitter_cfg.c **** 
 635:.\Generated_Source\PSoC4/cyfitter_cfg.c **** 		/* INT_SELECT Starting address: CYDEV_CPUSS_INTR_SELECT */
 636:.\Generated_Source\PSoC4/cyfitter_cfg.c **** 		CY_SET_XTND_REG32((void CYFAR *)(CYREG_CPUSS_INTR_SELECT), 0x00000004u);
 646              		.loc 1 636 0
 647 0258 324B     		ldr	r3, .L22+124
 648 025a 0422     		mov	r2, #4
 649 025c 1A60     		str	r2, [r3]
 637:.\Generated_Source\PSoC4/cyfitter_cfg.c **** 
 638:.\Generated_Source\PSoC4/cyfitter_cfg.c **** 		/* INT_CONFIG Starting address: CYDEV_UDB_INT_CFG */
 639:.\Generated_Source\PSoC4/cyfitter_cfg.c **** 		CY_SET_XTND_REG32((void CYFAR *)(CYREG_UDB_INT_CFG), 0x00000004u);
 650              		.loc 1 639 0
 651 025e 324B     		ldr	r3, .L22+128
 652 0260 0422     		mov	r2, #4
 653 0262 1A60     		str	r2, [r3]
 640:.\Generated_Source\PSoC4/cyfitter_cfg.c **** 
 641:.\Generated_Source\PSoC4/cyfitter_cfg.c **** 		/* Enable digital routing */
 642:.\Generated_Source\PSoC4/cyfitter_cfg.c **** 		CY_SET_XTND_REG8((void *)CYREG_UDB_UDBIF_BANK_CTL, CY_GET_XTND_REG8((void *)CYREG_UDB_UDBIF_BANK_
 654              		.loc 1 642 0
 655 0264 314B     		ldr	r3, .L22+132
 656 0266 314A     		ldr	r2, .L22+132
 657 0268 1278     		ldrb	r2, [r2]
 658 026a D2B2     		uxtb	r2, r2
 659 026c 0221     		mov	r1, #2
 660 026e 0A43     		orr	r2, r1
 661 0270 D2B2     		uxtb	r2, r2
ARM GAS  C:\Users\Admin\AppData\Local\Temp\ccbkeI6c.s 			page 24


 662 0272 1A70     		strb	r2, [r3]
 643:.\Generated_Source\PSoC4/cyfitter_cfg.c **** 
 644:.\Generated_Source\PSoC4/cyfitter_cfg.c **** 		/* Enable UDB array */
 645:.\Generated_Source\PSoC4/cyfitter_cfg.c **** 		CY_SET_XTND_REG8((void *)CYREG_UDB_UDBIF_WAIT_CFG, (uint8)((CY_GET_XTND_REG8((void *)CYREG_UDB_UD
 663              		.loc 1 645 0
 664 0274 2E4B     		ldr	r3, .L22+136
 665 0276 2E4A     		ldr	r2, .L22+136
 666 0278 1278     		ldrb	r2, [r2]
 667 027a D2B2     		uxtb	r2, r2
 668 027c 3C21     		mov	r1, #60
 669 027e 8A43     		bic	r2, r1
 670 0280 D2B2     		uxtb	r2, r2
 671 0282 1421     		mov	r1, #20
 672 0284 0A43     		orr	r2, r1
 673 0286 D2B2     		uxtb	r2, r2
 674 0288 1A70     		strb	r2, [r3]
 646:.\Generated_Source\PSoC4/cyfitter_cfg.c **** 		CY_SET_XTND_REG8((void *)CYREG_UDB_UDBIF_BANK_CTL, (uint8)(CY_GET_XTND_REG8((void *)CYREG_UDB_UDB
 675              		.loc 1 646 0
 676 028a 284B     		ldr	r3, .L22+132
 677 028c 274A     		ldr	r2, .L22+132
 678 028e 1278     		ldrb	r2, [r2]
 679 0290 D2B2     		uxtb	r2, r2
 680 0292 1621     		mov	r1, #22
 681 0294 0A43     		orr	r2, r1
 682 0296 D2B2     		uxtb	r2, r2
 683 0298 1A70     		strb	r2, [r3]
 684              	.LBE3:
 647:.\Generated_Source\PSoC4/cyfitter_cfg.c **** 	}
 648:.\Generated_Source\PSoC4/cyfitter_cfg.c **** 
 649:.\Generated_Source\PSoC4/cyfitter_cfg.c **** 	/* Setup clocks based on selections from Clock DWR */
 650:.\Generated_Source\PSoC4/cyfitter_cfg.c **** 	ClockSetup();
 685              		.loc 1 650 0
 686 029a FFF703FF 		bl	ClockSetup
 651:.\Generated_Source\PSoC4/cyfitter_cfg.c **** 
 652:.\Generated_Source\PSoC4/cyfitter_cfg.c **** 	/* Perform basic analog initialization to defaults */
 653:.\Generated_Source\PSoC4/cyfitter_cfg.c **** 	AnalogSetDefault();
 687              		.loc 1 653 0
 688 029e FFF7FEFF 		bl	AnalogSetDefault
 654:.\Generated_Source\PSoC4/cyfitter_cfg.c **** 
 655:.\Generated_Source\PSoC4/cyfitter_cfg.c **** }
 689              		.loc 1 655 0
 690 02a2 BD46     		mov	sp, r7
 691 02a4 02B0     		add	sp, sp, #8
 692              		@ sp needed
 693 02a6 80BD     		pop	{r7, pc}
 694              	.L23:
 695              		.align	2
 696              	.L22:
 697 02a8 1C700F40 		.word	1074753564
 698 02ac 04000000 		.word	cfg_memset_list.4735
 699 02b0 10000000 		.word	cy_cfg_addr_table.4729
 700 02b4 38000000 		.word	cy_cfg_data_table.4730
 701 02b8 00600F40 		.word	1074749440
 702 02bc 02600F40 		.word	1074749442
 703 02c0 00000140 		.word	1073807360
 704 02c4 08000140 		.word	1073807368
 705 02c8 0C000140 		.word	1073807372
ARM GAS  C:\Users\Admin\AppData\Local\Temp\ccbkeI6c.s 			page 25


 706 02cc 00000440 		.word	1074003968
 707 02d0 08000440 		.word	1074003976
 708 02d4 B60D5800 		.word	5770678
 709 02d8 0C000440 		.word	1074003980
 710 02dc 00010440 		.word	1074004224
 711 02e0 08010440 		.word	1074004232
 712 02e4 80001800 		.word	1572992
 713 02e8 0C010440 		.word	1074004236
 714 02ec 00020440 		.word	1074004480
 715 02f0 08020440 		.word	1074004488
 716 02f4 00030440 		.word	1074004736
 717 02f8 08030440 		.word	1074004744
 718 02fc 0C030440 		.word	1074004748
 719 0300 00500F40 		.word	1074745344
 720 0304 04500F40 		.word	1074745348
 721 0308 08500F40 		.word	1074745352
 722 030c 10500F40 		.word	1074745360
 723 0310 14500F40 		.word	1074745364
 724 0314 20500F40 		.word	1074745376
 725 0318 28500F40 		.word	1074745384
 726 031c 30500F40 		.word	1074745392
 727 0320 34500F40 		.word	1074745396
 728 0324 20000040 		.word	1073741856
 729 0328 00800F40 		.word	1074757632
 730 032c 00700F40 		.word	1074753536
 731 0330 01700F40 		.word	1074753537
 732              		.cfi_endproc
 733              	.LFE7:
 734              		.size	cyfitter_cfg, .-cyfitter_cfg
 735              		.data
 736              		.align	2
 737              		.type	imo_trim_table.4708, %object
 738              		.size	imo_trim_table.4708, 4
 739              	imo_trim_table.4708:
 740 0000 C0F1FF0F 		.word	268431808
 741              		.section	.rodata
 742              		.align	2
 743              		.type	IMO_TRIM_FREQ_TABLE_ENTRIES.4709, %object
 744              		.size	IMO_TRIM_FREQ_TABLE_ENTRIES.4709, 4
 745              	IMO_TRIM_FREQ_TABLE_ENTRIES.4709:
 746 0000 04000000 		.word	4
 747              		.align	2
 748              		.type	cfg_memset_list.4735, %object
 749              		.size	cfg_memset_list.4735, 12
 750              	cfg_memset_list.4735:
 751 0004 00300F40 		.word	1074737152
 752 0008 0004     		.short	1024
 753 000a 00400F40 		.4byte	1074741248
 754 000e 0004     		.short	1024
 755              		.align	2
 756              		.type	cy_cfg_addr_table.4729, %object
 757              		.size	cy_cfg_addr_table.4729, 40
 758              	cy_cfg_addr_table.4729:
 759 0010 03000F40 		.word	1074724867
 760 0014 3D300F40 		.word	1074737213
 761 0018 1C310F40 		.word	1074737436
 762 001c 4F320F40 		.word	1074737743
ARM GAS  C:\Users\Admin\AppData\Local\Temp\ccbkeI6c.s 			page 26


 763 0020 2D330F40 		.word	1074737965
 764 0024 06400F40 		.word	1074741254
 765 0028 03410F40 		.word	1074741507
 766 002c 02420F40 		.word	1074741762
 767 0030 02430F40 		.word	1074742018
 768 0034 02600F40 		.word	1074749442
 769              		.align	2
 770              		.type	cy_cfg_data_table.4730, %object
 771              		.size	cy_cfg_data_table.4730, 462
 772              	cy_cfg_data_table.4730:
 773 0038 81       		.byte	-127
 774 0039 0D       		.byte	13
 775 003a 82       		.byte	-126
 776 003b 0D       		.byte	13
 777 003c 83       		.byte	-125
 778 003d 0D       		.byte	13
 779 003e 2E       		.byte	46
 780 003f 01       		.byte	1
 781 0040 34       		.byte	52
 782 0041 01       		.byte	1
 783 0042 36       		.byte	54
 784 0043 01       		.byte	1
 785 0044 40       		.byte	64
 786 0045 10       		.byte	16
 787 0046 41       		.byte	65
 788 0047 04       		.byte	4
 789 0048 49       		.byte	73
 790 0049 FF       		.byte	-1
 791 004a 4A       		.byte	74
 792 004b FF       		.byte	-1
 793 004c 4B       		.byte	75
 794 004d FF       		.byte	-1
 795 004e 4D       		.byte	77
 796 004f A0       		.byte	-96
 797 0050 4F       		.byte	79
 798 0051 04       		.byte	4
 799 0052 50       		.byte	80
 800 0053 18       		.byte	24
 801 0054 52       		.byte	82
 802 0055 80       		.byte	-128
 803 0056 58       		.byte	88
 804 0057 04       		.byte	4
 805 0058 5A       		.byte	90
 806 0059 04       		.byte	4
 807 005a 5B       		.byte	91
 808 005b 04       		.byte	4
 809 005c 5F       		.byte	95
 810 005d 01       		.byte	1
 811 005e 60       		.byte	96
 812 005f 40       		.byte	64
 813 0060 62       		.byte	98
 814 0061 C0       		.byte	-64
 815 0062 64       		.byte	100
 816 0063 40       		.byte	64
 817 0064 65       		.byte	101
 818 0065 40       		.byte	64
 819 0066 66       		.byte	102
ARM GAS  C:\Users\Admin\AppData\Local\Temp\ccbkeI6c.s 			page 27


 820 0067 C0       		.byte	-64
 821 0068 68       		.byte	104
 822 0069 C0       		.byte	-64
 823 006a 6A       		.byte	106
 824 006b C0       		.byte	-64
 825 006c 6C       		.byte	108
 826 006d C0       		.byte	-64
 827 006e 6E       		.byte	110
 828 006f C0       		.byte	-64
 829 0070 8F       		.byte	-113
 830 0071 01       		.byte	1
 831 0072 94       		.byte	-108
 832 0073 02       		.byte	2
 833 0074 9A       		.byte	-102
 834 0075 03       		.byte	3
 835 0076 AF       		.byte	-81
 836 0077 01       		.byte	1
 837 0078 B0       		.byte	-80
 838 0079 02       		.byte	2
 839 007a B2       		.byte	-78
 840 007b 01       		.byte	1
 841 007c B5       		.byte	-75
 842 007d 01       		.byte	1
 843 007e BF       		.byte	-65
 844 007f 10       		.byte	16
 845 0080 C0       		.byte	-64
 846 0081 60       		.byte	96
 847 0082 C1       		.byte	-63
 848 0083 05       		.byte	5
 849 0084 C5       		.byte	-59
 850 0085 D1       		.byte	-47
 851 0086 C6       		.byte	-58
 852 0087 02       		.byte	2
 853 0088 C8       		.byte	-56
 854 0089 07       		.byte	7
 855 008a C9       		.byte	-55
 856 008b FF       		.byte	-1
 857 008c CA       		.byte	-54
 858 008d FF       		.byte	-1
 859 008e CB       		.byte	-53
 860 008f FF       		.byte	-1
 861 0090 CD       		.byte	-51
 862 0091 AF       		.byte	-81
 863 0092 CE       		.byte	-50
 864 0093 0F       		.byte	15
 865 0094 CF       		.byte	-49
 866 0095 04       		.byte	4
 867 0096 D0       		.byte	-48
 868 0097 18       		.byte	24
 869 0098 D4       		.byte	-44
 870 0099 05       		.byte	5
 871 009a D6       		.byte	-42
 872 009b 04       		.byte	4
 873 009c D8       		.byte	-40
 874 009d 04       		.byte	4
 875 009e D9       		.byte	-39
 876 009f 04       		.byte	4
ARM GAS  C:\Users\Admin\AppData\Local\Temp\ccbkeI6c.s 			page 28


 877 00a0 DA       		.byte	-38
 878 00a1 04       		.byte	4
 879 00a2 DB       		.byte	-37
 880 00a3 04       		.byte	4
 881 00a4 DF       		.byte	-33
 882 00a5 01       		.byte	1
 883 00a6 E0       		.byte	-32
 884 00a7 40       		.byte	64
 885 00a8 E2       		.byte	-30
 886 00a9 C0       		.byte	-64
 887 00aa E4       		.byte	-28
 888 00ab 40       		.byte	64
 889 00ac E5       		.byte	-27
 890 00ad 40       		.byte	64
 891 00ae E6       		.byte	-26
 892 00af C0       		.byte	-64
 893 00b0 E8       		.byte	-24
 894 00b1 C0       		.byte	-64
 895 00b2 EA       		.byte	-22
 896 00b3 C0       		.byte	-64
 897 00b4 EC       		.byte	-20
 898 00b5 C0       		.byte	-64
 899 00b6 EE       		.byte	-18
 900 00b7 C0       		.byte	-64
 901 00b8 0E       		.byte	14
 902 00b9 20       		.byte	32
 903 00ba 0F       		.byte	15
 904 00bb 08       		.byte	8
 905 00bc 10       		.byte	16
 906 00bd 02       		.byte	2
 907 00be 18       		.byte	24
 908 00bf 01       		.byte	1
 909 00c0 19       		.byte	25
 910 00c1 80       		.byte	-128
 911 00c2 1B       		.byte	27
 912 00c3 10       		.byte	16
 913 00c4 1E       		.byte	30
 914 00c5 60       		.byte	96
 915 00c6 27       		.byte	39
 916 00c7 08       		.byte	8
 917 00c8 2D       		.byte	45
 918 00c9 80       		.byte	-128
 919 00ca 3F       		.byte	63
 920 00cb 80       		.byte	-128
 921 00cc 40       		.byte	64
 922 00cd 01       		.byte	1
 923 00ce 42       		.byte	66
 924 00cf 80       		.byte	-128
 925 00d0 4F       		.byte	79
 926 00d1 A9       		.byte	-87
 927 00d2 56       		.byte	86
 928 00d3 80       		.byte	-128
 929 00d4 57       		.byte	87
 930 00d5 40       		.byte	64
 931 00d6 5E       		.byte	94
 932 00d7 40       		.byte	64
 933 00d8 5F       		.byte	95
ARM GAS  C:\Users\Admin\AppData\Local\Temp\ccbkeI6c.s 			page 29


 934 00d9 09       		.byte	9
 935 00da 67       		.byte	103
 936 00db 40       		.byte	64
 937 00dc 70       		.byte	112
 938 00dd 02       		.byte	2
 939 00de 87       		.byte	-121
 940 00df 40       		.byte	64
 941 00e0 C2       		.byte	-62
 942 00e1 60       		.byte	96
 943 00e2 C4       		.byte	-60
 944 00e3 01       		.byte	1
 945 00e4 CA       		.byte	-54
 946 00e5 10       		.byte	16
 947 00e6 CE       		.byte	-50
 948 00e7 10       		.byte	16
 949 00e8 D0       		.byte	-48
 950 00e9 09       		.byte	9
 951 00ea D2       		.byte	-46
 952 00eb 30       		.byte	48
 953 00ec D6       		.byte	-42
 954 00ed D0       		.byte	-48
 955 00ee D8       		.byte	-40
 956 00ef 80       		.byte	-128
 957 00f0 03       		.byte	3
 958 00f1 01       		.byte	1
 959 00f2 16       		.byte	22
 960 00f3 01       		.byte	1
 961 00f4 1E       		.byte	30
 962 00f5 0C       		.byte	12
 963 00f6 26       		.byte	38
 964 00f7 01       		.byte	1
 965 00f8 2D       		.byte	45
 966 00f9 01       		.byte	1
 967 00fa 2E       		.byte	46
 968 00fb 06       		.byte	6
 969 00fc 30       		.byte	48
 970 00fd 08       		.byte	8
 971 00fe 32       		.byte	50
 972 00ff 02       		.byte	2
 973 0100 34       		.byte	52
 974 0101 01       		.byte	1
 975 0102 36       		.byte	54
 976 0103 04       		.byte	4
 977 0104 37       		.byte	55
 978 0105 01       		.byte	1
 979 0106 3E       		.byte	62
 980 0107 10       		.byte	16
 981 0108 40       		.byte	64
 982 0109 30       		.byte	48
 983 010a 41       		.byte	65
 984 010b 06       		.byte	6
 985 010c 45       		.byte	69
 986 010d D0       		.byte	-48
 987 010e 46       		.byte	70
 988 010f 20       		.byte	32
 989 0110 47       		.byte	71
 990 0111 10       		.byte	16
ARM GAS  C:\Users\Admin\AppData\Local\Temp\ccbkeI6c.s 			page 30


 991 0112 48       		.byte	72
 992 0113 2A       		.byte	42
 993 0114 49       		.byte	73
 994 0115 FF       		.byte	-1
 995 0116 4A       		.byte	74
 996 0117 FF       		.byte	-1
 997 0118 4B       		.byte	75
 998 0119 FF       		.byte	-1
 999 011a 4D       		.byte	77
 1000 011b A0       		.byte	-96
 1001 011c 4F       		.byte	79
 1002 011d 04       		.byte	4
 1003 011e 50       		.byte	80
 1004 011f 18       		.byte	24
 1005 0120 52       		.byte	82
 1006 0121 80       		.byte	-128
 1007 0122 54       		.byte	84
 1008 0123 05       		.byte	5
 1009 0124 58       		.byte	88
 1010 0125 04       		.byte	4
 1011 0126 59       		.byte	89
 1012 0127 04       		.byte	4
 1013 0128 5A       		.byte	90
 1014 0129 04       		.byte	4
 1015 012a 5B       		.byte	91
 1016 012b 04       		.byte	4
 1017 012c 5F       		.byte	95
 1018 012d 01       		.byte	1
 1019 012e 60       		.byte	96
 1020 012f 40       		.byte	64
 1021 0130 62       		.byte	98
 1022 0131 C0       		.byte	-64
 1023 0132 64       		.byte	100
 1024 0133 40       		.byte	64
 1025 0134 65       		.byte	101
 1026 0135 40       		.byte	64
 1027 0136 66       		.byte	102
 1028 0137 C0       		.byte	-64
 1029 0138 68       		.byte	104
 1030 0139 C0       		.byte	-64
 1031 013a 6A       		.byte	106
 1032 013b C0       		.byte	-64
 1033 013c 6C       		.byte	108
 1034 013d C0       		.byte	-64
 1035 013e 6E       		.byte	110
 1036 013f C0       		.byte	-64
 1037 0140 8A       		.byte	-118
 1038 0141 01       		.byte	1
 1039 0142 92       		.byte	-110
 1040 0143 06       		.byte	6
 1041 0144 9B       		.byte	-101
 1042 0145 01       		.byte	1
 1043 0146 A1       		.byte	-95
 1044 0147 01       		.byte	1
 1045 0148 A6       		.byte	-90
 1046 0149 0C       		.byte	12
 1047 014a AA       		.byte	-86
ARM GAS  C:\Users\Admin\AppData\Local\Temp\ccbkeI6c.s 			page 31


 1048 014b 01       		.byte	1
 1049 014c B0       		.byte	-80
 1050 014d 08       		.byte	8
 1051 014e B2       		.byte	-78
 1052 014f 02       		.byte	2
 1053 0150 B4       		.byte	-76
 1054 0151 01       		.byte	1
 1055 0152 B6       		.byte	-74
 1056 0153 04       		.byte	4
 1057 0154 B7       		.byte	-73
 1058 0155 01       		.byte	1
 1059 0156 BE       		.byte	-66
 1060 0157 10       		.byte	16
 1061 0158 C0       		.byte	-64
 1062 0159 30       		.byte	48
 1063 015a C1       		.byte	-63
 1064 015b 06       		.byte	6
 1065 015c C5       		.byte	-59
 1066 015d D1       		.byte	-47
 1067 015e C7       		.byte	-57
 1068 015f 02       		.byte	2
 1069 0160 C8       		.byte	-56
 1070 0161 13       		.byte	19
 1071 0162 C9       		.byte	-55
 1072 0163 FF       		.byte	-1
 1073 0164 CA       		.byte	-54
 1074 0165 FF       		.byte	-1
 1075 0166 CB       		.byte	-53
 1076 0167 FF       		.byte	-1
 1077 0168 CD       		.byte	-51
 1078 0169 A0       		.byte	-96
 1079 016a CF       		.byte	-49
 1080 016b 04       		.byte	4
 1081 016c D0       		.byte	-48
 1082 016d 18       		.byte	24
 1083 016e D2       		.byte	-46
 1084 016f 80       		.byte	-128
 1085 0170 D4       		.byte	-44
 1086 0171 05       		.byte	5
 1087 0172 D8       		.byte	-40
 1088 0173 04       		.byte	4
 1089 0174 D9       		.byte	-39
 1090 0175 04       		.byte	4
 1091 0176 DA       		.byte	-38
 1092 0177 04       		.byte	4
 1093 0178 DB       		.byte	-37
 1094 0179 04       		.byte	4
 1095 017a DF       		.byte	-33
 1096 017b 01       		.byte	1
 1097 017c E0       		.byte	-32
 1098 017d 40       		.byte	64
 1099 017e E2       		.byte	-30
 1100 017f C0       		.byte	-64
 1101 0180 E4       		.byte	-28
 1102 0181 40       		.byte	64
 1103 0182 E5       		.byte	-27
 1104 0183 40       		.byte	64
ARM GAS  C:\Users\Admin\AppData\Local\Temp\ccbkeI6c.s 			page 32


 1105 0184 E6       		.byte	-26
 1106 0185 C0       		.byte	-64
 1107 0186 E8       		.byte	-24
 1108 0187 C0       		.byte	-64
 1109 0188 EA       		.byte	-22
 1110 0189 C0       		.byte	-64
 1111 018a EC       		.byte	-20
 1112 018b C0       		.byte	-64
 1113 018c EE       		.byte	-18
 1114 018d C0       		.byte	-64
 1115 018e 00       		.byte	0
 1116 018f 10       		.byte	16
 1117 0190 09       		.byte	9
 1118 0191 02       		.byte	2
 1119 0192 0D       		.byte	13
 1120 0193 08       		.byte	8
 1121 0194 0F       		.byte	15
 1122 0195 02       		.byte	2
 1123 0196 10       		.byte	16
 1124 0197 28       		.byte	40
 1125 0198 16       		.byte	22
 1126 0199 20       		.byte	32
 1127 019a 17       		.byte	23
 1128 019b 40       		.byte	64
 1129 019c 18       		.byte	24
 1130 019d 12       		.byte	18
 1131 019e 19       		.byte	25
 1132 019f 02       		.byte	2
 1133 01a0 1A       		.byte	26
 1134 01a1 04       		.byte	4
 1135 01a2 1D       		.byte	29
 1136 01a3 48       		.byte	72
 1137 01a4 1E       		.byte	30
 1138 01a5 08       		.byte	8
 1139 01a6 1F       		.byte	31
 1140 01a7 02       		.byte	2
 1141 01a8 22       		.byte	34
 1142 01a9 40       		.byte	64
 1143 01aa 26       		.byte	38
 1144 01ab 40       		.byte	64
 1145 01ac 29       		.byte	41
 1146 01ad 02       		.byte	2
 1147 01ae 2F       		.byte	47
 1148 01af 02       		.byte	2
 1149 01b0 30       		.byte	48
 1150 01b1 20       		.byte	32
 1151 01b2 3F       		.byte	63
 1152 01b3 02       		.byte	2
 1153 01b4 40       		.byte	64
 1154 01b5 10       		.byte	16
 1155 01b6 45       		.byte	69
 1156 01b7 08       		.byte	8
 1157 01b8 48       		.byte	72
 1158 01b9 28       		.byte	40
 1159 01ba 49       		.byte	73
 1160 01bb 01       		.byte	1
 1161 01bc 4F       		.byte	79
ARM GAS  C:\Users\Admin\AppData\Local\Temp\ccbkeI6c.s 			page 33


 1162 01bd 21       		.byte	33
 1163 01be 50       		.byte	80
 1164 01bf 08       		.byte	8
 1165 01c0 56       		.byte	86
 1166 01c1 20       		.byte	32
 1167 01c2 57       		.byte	87
 1168 01c3 11       		.byte	17
 1169 01c4 59       		.byte	89
 1170 01c5 01       		.byte	1
 1171 01c6 5A       		.byte	90
 1172 01c7 84       		.byte	-124
 1173 01c8 5E       		.byte	94
 1174 01c9 88       		.byte	-120
 1175 01ca 5F       		.byte	95
 1176 01cb 01       		.byte	1
 1177 01cc 71       		.byte	113
 1178 01cd 02       		.byte	2
 1179 01ce 77       		.byte	119
 1180 01cf 40       		.byte	64
 1181 01d0 80       		.byte	-128
 1182 01d1 01       		.byte	1
 1183 01d2 85       		.byte	-123
 1184 01d3 40       		.byte	64
 1185 01d4 C0       		.byte	-64
 1186 01d5 02       		.byte	2
 1187 01d6 C2       		.byte	-62
 1188 01d7 A8       		.byte	-88
 1189 01d8 C4       		.byte	-60
 1190 01d9 A6       		.byte	-90
 1191 01da CA       		.byte	-54
 1192 01db 11       		.byte	17
 1193 01dc CC       		.byte	-52
 1194 01dd 04       		.byte	4
 1195 01de CE       		.byte	-50
 1196 01df 80       		.byte	-128
 1197 01e0 D0       		.byte	-48
 1198 01e1 42       		.byte	66
 1199 01e2 D2       		.byte	-46
 1200 01e3 24       		.byte	36
 1201 01e4 D6       		.byte	-42
 1202 01e5 DB       		.byte	-37
 1203 01e6 E4       		.byte	-28
 1204 01e7 04       		.byte	4
 1205 01e8 57       		.byte	87
 1206 01e9 20       		.byte	32
 1207 01ea 73       		.byte	115
 1208 01eb 02       		.byte	2
 1209 01ec 87       		.byte	-121
 1210 01ed 02       		.byte	2
 1211 01ee D4       		.byte	-44
 1212 01ef 40       		.byte	64
 1213 01f0 DC       		.byte	-36
 1214 01f1 20       		.byte	32
 1215 01f2 E6       		.byte	-26
 1216 01f3 40       		.byte	64
 1217 01f4 87       		.byte	-121
 1218 01f5 20       		.byte	32
ARM GAS  C:\Users\Admin\AppData\Local\Temp\ccbkeI6c.s 			page 34


 1219 01f6 A7       		.byte	-89
 1220 01f7 20       		.byte	32
 1221 01f8 E6       		.byte	-26
 1222 01f9 10       		.byte	16
 1223 01fa 67       		.byte	103
 1224 01fb 02       		.byte	2
 1225 01fc D6       		.byte	-42
 1226 01fd 01       		.byte	1
 1227 01fe 83       		.byte	-125
 1228 01ff 01       		.byte	1
 1229 0200 97       		.byte	-105
 1230 0201 02       		.byte	2
 1231 0202 10       		.byte	16
 1232 0203 01       		.byte	1
 1233 0204 11       		.byte	17
 1234 0205 01       		.byte	1
 1235 0206 0000     		.text
 1236              	.Letext0:
 1237              		.file 2 "c:\\program files\\cypress\\psoc creator\\3.1\\psoc creator\\import\\gnu_cs\\arm\\4.8.4\\
 1238              		.file 3 ".\\Generated_Source\\PSoC4/cytypes.h"