ARM GAS  C:\Users\Admin\AppData\Local\Temp\cc1vH8BS.s 			page 1


   1              		.cpu cortex-m0
   2              		.fpu softvfp
   3              		.eabi_attribute 20, 1
   4              		.eabi_attribute 21, 1
   5              		.eabi_attribute 23, 3
   6              		.eabi_attribute 24, 1
   7              		.eabi_attribute 25, 1
   8              		.eabi_attribute 26, 1
   9              		.eabi_attribute 30, 6
  10              		.eabi_attribute 34, 0
  11              		.eabi_attribute 18, 4
  12              		.code	16
  13              		.file	"PWM_Organizer.c"
  14              		.text
  15              	.Ltext0:
  16              		.cfi_sections	.debug_frame
  17              		.global	PWM_Organizer_initVar
  18              		.bss
  19              		.type	PWM_Organizer_initVar, %object
  20              		.size	PWM_Organizer_initVar, 1
  21              	PWM_Organizer_initVar:
  22 0000 00       		.space	1
  23              		.section	.text.PWM_Organizer_Start,"ax",%progbits
  24              		.align	2
  25              		.global	PWM_Organizer_Start
  26              		.code	16
  27              		.thumb_func
  28              		.type	PWM_Organizer_Start, %function
  29              	PWM_Organizer_Start:
  30              	.LFB0:
  31              		.file 1 ".\\Generated_Source\\PSoC4\\PWM_Organizer.c"
   1:.\Generated_Source\PSoC4/PWM_Organizer.c **** /*******************************************************************************
   2:.\Generated_Source\PSoC4/PWM_Organizer.c **** * File Name: PWM_Organizer.c
   3:.\Generated_Source\PSoC4/PWM_Organizer.c **** * Version 3.10
   4:.\Generated_Source\PSoC4/PWM_Organizer.c **** *
   5:.\Generated_Source\PSoC4/PWM_Organizer.c **** * Description:
   6:.\Generated_Source\PSoC4/PWM_Organizer.c **** *  The PWM User Module consist of an 8 or 16-bit counter with two 8 or 16-bit
   7:.\Generated_Source\PSoC4/PWM_Organizer.c **** *  comparitors. Each instance of this user module is capable of generating
   8:.\Generated_Source\PSoC4/PWM_Organizer.c **** *  two PWM outputs with the same period. The pulse width is selectable between
   9:.\Generated_Source\PSoC4/PWM_Organizer.c **** *  1 and 255/65535. The period is selectable between 2 and 255/65536 clocks.
  10:.\Generated_Source\PSoC4/PWM_Organizer.c **** *  The compare value output may be configured to be active when the present
  11:.\Generated_Source\PSoC4/PWM_Organizer.c **** *  counter is less than or less than/equal to the compare value.
  12:.\Generated_Source\PSoC4/PWM_Organizer.c **** *  A terminal count output is also provided. It generates a pulse one clock
  13:.\Generated_Source\PSoC4/PWM_Organizer.c **** *  width wide when the counter is equal to zero.
  14:.\Generated_Source\PSoC4/PWM_Organizer.c **** *
  15:.\Generated_Source\PSoC4/PWM_Organizer.c **** * Note:
  16:.\Generated_Source\PSoC4/PWM_Organizer.c **** *
  17:.\Generated_Source\PSoC4/PWM_Organizer.c **** *******************************************************************************
  18:.\Generated_Source\PSoC4/PWM_Organizer.c **** * Copyright 2008-2014, Cypress Semiconductor Corporation.  All rights reserved.
  19:.\Generated_Source\PSoC4/PWM_Organizer.c **** * You may use this file only in accordance with the license, terms, conditions,
  20:.\Generated_Source\PSoC4/PWM_Organizer.c **** * disclaimers, and limitations in the end user license agreement accompanying
  21:.\Generated_Source\PSoC4/PWM_Organizer.c **** * the software package with which this file was provided.
  22:.\Generated_Source\PSoC4/PWM_Organizer.c **** ********************************************************************************/
  23:.\Generated_Source\PSoC4/PWM_Organizer.c **** 
  24:.\Generated_Source\PSoC4/PWM_Organizer.c **** #include "PWM_Organizer.h"
  25:.\Generated_Source\PSoC4/PWM_Organizer.c **** 
  26:.\Generated_Source\PSoC4/PWM_Organizer.c **** /* Error message for removed <resource> through optimization */
ARM GAS  C:\Users\Admin\AppData\Local\Temp\cc1vH8BS.s 			page 2


  27:.\Generated_Source\PSoC4/PWM_Organizer.c **** #ifdef PWM_Organizer_PWMUDB_genblk1_ctrlreg__REMOVED
  28:.\Generated_Source\PSoC4/PWM_Organizer.c ****     #error PWM_v3_10 detected with a constant 0 for the enable or \
  29:.\Generated_Source\PSoC4/PWM_Organizer.c ****          constant 1 for reset. This will prevent the component from operating.
  30:.\Generated_Source\PSoC4/PWM_Organizer.c **** #endif /* PWM_Organizer_PWMUDB_genblk1_ctrlreg__REMOVED */
  31:.\Generated_Source\PSoC4/PWM_Organizer.c **** 
  32:.\Generated_Source\PSoC4/PWM_Organizer.c **** uint8 PWM_Organizer_initVar = 0u;
  33:.\Generated_Source\PSoC4/PWM_Organizer.c **** 
  34:.\Generated_Source\PSoC4/PWM_Organizer.c **** 
  35:.\Generated_Source\PSoC4/PWM_Organizer.c **** /*******************************************************************************
  36:.\Generated_Source\PSoC4/PWM_Organizer.c **** * Function Name: PWM_Organizer_Start
  37:.\Generated_Source\PSoC4/PWM_Organizer.c **** ********************************************************************************
  38:.\Generated_Source\PSoC4/PWM_Organizer.c **** *
  39:.\Generated_Source\PSoC4/PWM_Organizer.c **** * Summary:
  40:.\Generated_Source\PSoC4/PWM_Organizer.c **** *  The start function initializes the pwm with the default values, the
  41:.\Generated_Source\PSoC4/PWM_Organizer.c **** *  enables the counter to begin counting.  It does not enable interrupts,
  42:.\Generated_Source\PSoC4/PWM_Organizer.c **** *  the EnableInt command should be called if interrupt generation is required.
  43:.\Generated_Source\PSoC4/PWM_Organizer.c **** *
  44:.\Generated_Source\PSoC4/PWM_Organizer.c **** * Parameters:
  45:.\Generated_Source\PSoC4/PWM_Organizer.c **** *  None
  46:.\Generated_Source\PSoC4/PWM_Organizer.c **** *
  47:.\Generated_Source\PSoC4/PWM_Organizer.c **** * Return:
  48:.\Generated_Source\PSoC4/PWM_Organizer.c **** *  None
  49:.\Generated_Source\PSoC4/PWM_Organizer.c **** *
  50:.\Generated_Source\PSoC4/PWM_Organizer.c **** * Global variables:
  51:.\Generated_Source\PSoC4/PWM_Organizer.c **** *  PWM_Organizer_initVar: Is modified when this function is called for the
  52:.\Generated_Source\PSoC4/PWM_Organizer.c **** *   first time. Is used to ensure that initialization happens only once.
  53:.\Generated_Source\PSoC4/PWM_Organizer.c **** *
  54:.\Generated_Source\PSoC4/PWM_Organizer.c **** *******************************************************************************/
  55:.\Generated_Source\PSoC4/PWM_Organizer.c **** void PWM_Organizer_Start(void) 
  56:.\Generated_Source\PSoC4/PWM_Organizer.c **** {
  32              		.loc 1 56 0
  33              		.cfi_startproc
  34 0000 80B5     		push	{r7, lr}
  35              		.cfi_def_cfa_offset 8
  36              		.cfi_offset 7, -8
  37              		.cfi_offset 14, -4
  38 0002 00AF     		add	r7, sp, #0
  39              		.cfi_def_cfa_register 7
  57:.\Generated_Source\PSoC4/PWM_Organizer.c ****     /* If not Initialized then initialize all required hardware and software */
  58:.\Generated_Source\PSoC4/PWM_Organizer.c ****     if(PWM_Organizer_initVar == 0u)
  40              		.loc 1 58 0
  41 0004 064B     		ldr	r3, .L3
  42 0006 1B78     		ldrb	r3, [r3]
  43 0008 002B     		cmp	r3, #0
  44 000a 04D1     		bne	.L2
  59:.\Generated_Source\PSoC4/PWM_Organizer.c ****     {
  60:.\Generated_Source\PSoC4/PWM_Organizer.c ****         PWM_Organizer_Init();
  45              		.loc 1 60 0
  46 000c FFF7FEFF 		bl	PWM_Organizer_Init
  61:.\Generated_Source\PSoC4/PWM_Organizer.c ****         PWM_Organizer_initVar = 1u;
  47              		.loc 1 61 0
  48 0010 034B     		ldr	r3, .L3
  49 0012 0122     		mov	r2, #1
  50 0014 1A70     		strb	r2, [r3]
  51              	.L2:
  62:.\Generated_Source\PSoC4/PWM_Organizer.c ****     }
  63:.\Generated_Source\PSoC4/PWM_Organizer.c ****     PWM_Organizer_Enable();
ARM GAS  C:\Users\Admin\AppData\Local\Temp\cc1vH8BS.s 			page 3


  52              		.loc 1 63 0
  53 0016 FFF7FEFF 		bl	PWM_Organizer_Enable
  64:.\Generated_Source\PSoC4/PWM_Organizer.c **** 
  65:.\Generated_Source\PSoC4/PWM_Organizer.c **** }
  54              		.loc 1 65 0
  55 001a BD46     		mov	sp, r7
  56              		@ sp needed
  57 001c 80BD     		pop	{r7, pc}
  58              	.L4:
  59 001e C046     		.align	2
  60              	.L3:
  61 0020 00000000 		.word	PWM_Organizer_initVar
  62              		.cfi_endproc
  63              	.LFE0:
  64              		.size	PWM_Organizer_Start, .-PWM_Organizer_Start
  65              		.section	.text.PWM_Organizer_Init,"ax",%progbits
  66              		.align	2
  67              		.global	PWM_Organizer_Init
  68              		.code	16
  69              		.thumb_func
  70              		.type	PWM_Organizer_Init, %function
  71              	PWM_Organizer_Init:
  72              	.LFB1:
  66:.\Generated_Source\PSoC4/PWM_Organizer.c **** 
  67:.\Generated_Source\PSoC4/PWM_Organizer.c **** 
  68:.\Generated_Source\PSoC4/PWM_Organizer.c **** /*******************************************************************************
  69:.\Generated_Source\PSoC4/PWM_Organizer.c **** * Function Name: PWM_Organizer_Init
  70:.\Generated_Source\PSoC4/PWM_Organizer.c **** ********************************************************************************
  71:.\Generated_Source\PSoC4/PWM_Organizer.c **** *
  72:.\Generated_Source\PSoC4/PWM_Organizer.c **** * Summary:
  73:.\Generated_Source\PSoC4/PWM_Organizer.c **** *  Initialize component's parameters to the parameters set by user in the
  74:.\Generated_Source\PSoC4/PWM_Organizer.c **** *  customizer of the component placed onto schematic. Usually called in
  75:.\Generated_Source\PSoC4/PWM_Organizer.c **** *  PWM_Organizer_Start().
  76:.\Generated_Source\PSoC4/PWM_Organizer.c **** *
  77:.\Generated_Source\PSoC4/PWM_Organizer.c **** * Parameters:
  78:.\Generated_Source\PSoC4/PWM_Organizer.c **** *  None
  79:.\Generated_Source\PSoC4/PWM_Organizer.c **** *
  80:.\Generated_Source\PSoC4/PWM_Organizer.c **** * Return:
  81:.\Generated_Source\PSoC4/PWM_Organizer.c **** *  None
  82:.\Generated_Source\PSoC4/PWM_Organizer.c **** *
  83:.\Generated_Source\PSoC4/PWM_Organizer.c **** *******************************************************************************/
  84:.\Generated_Source\PSoC4/PWM_Organizer.c **** void PWM_Organizer_Init(void) 
  85:.\Generated_Source\PSoC4/PWM_Organizer.c **** {
  73              		.loc 1 85 0
  74              		.cfi_startproc
  75 0000 90B5     		push	{r4, r7, lr}
  76              		.cfi_def_cfa_offset 12
  77              		.cfi_offset 4, -12
  78              		.cfi_offset 7, -8
  79              		.cfi_offset 14, -4
  80 0002 83B0     		sub	sp, sp, #12
  81              		.cfi_def_cfa_offset 24
  82 0004 00AF     		add	r7, sp, #0
  83              		.cfi_def_cfa_register 7
  86:.\Generated_Source\PSoC4/PWM_Organizer.c ****     #if (PWM_Organizer_UsingFixedFunction || PWM_Organizer_UseControl)
  87:.\Generated_Source\PSoC4/PWM_Organizer.c ****         uint8 ctrl;
  88:.\Generated_Source\PSoC4/PWM_Organizer.c ****     #endif /* (PWM_Organizer_UsingFixedFunction || PWM_Organizer_UseControl) */
ARM GAS  C:\Users\Admin\AppData\Local\Temp\cc1vH8BS.s 			page 4


  89:.\Generated_Source\PSoC4/PWM_Organizer.c **** 
  90:.\Generated_Source\PSoC4/PWM_Organizer.c ****     #if(!PWM_Organizer_UsingFixedFunction)
  91:.\Generated_Source\PSoC4/PWM_Organizer.c ****         #if(PWM_Organizer_UseStatus)
  92:.\Generated_Source\PSoC4/PWM_Organizer.c ****             /* Interrupt State Backup for Critical Region*/
  93:.\Generated_Source\PSoC4/PWM_Organizer.c ****             uint8 PWM_Organizer_interruptState;
  94:.\Generated_Source\PSoC4/PWM_Organizer.c ****         #endif /* (PWM_Organizer_UseStatus) */
  95:.\Generated_Source\PSoC4/PWM_Organizer.c ****     #endif /* (!PWM_Organizer_UsingFixedFunction) */
  96:.\Generated_Source\PSoC4/PWM_Organizer.c **** 
  97:.\Generated_Source\PSoC4/PWM_Organizer.c ****     #if (PWM_Organizer_UsingFixedFunction)
  98:.\Generated_Source\PSoC4/PWM_Organizer.c ****         /* You are allowed to write the compare value (FF only) */
  99:.\Generated_Source\PSoC4/PWM_Organizer.c ****         PWM_Organizer_CONTROL |= PWM_Organizer_CFG0_MODE;
 100:.\Generated_Source\PSoC4/PWM_Organizer.c ****         #if (PWM_Organizer_DeadBand2_4)
 101:.\Generated_Source\PSoC4/PWM_Organizer.c ****             PWM_Organizer_CONTROL |= PWM_Organizer_CFG0_DB;
 102:.\Generated_Source\PSoC4/PWM_Organizer.c ****         #endif /* (PWM_Organizer_DeadBand2_4) */
 103:.\Generated_Source\PSoC4/PWM_Organizer.c **** 
 104:.\Generated_Source\PSoC4/PWM_Organizer.c ****         ctrl = PWM_Organizer_CONTROL3 & ((uint8 )(~PWM_Organizer_CTRL_CMPMODE1_MASK));
 105:.\Generated_Source\PSoC4/PWM_Organizer.c ****         PWM_Organizer_CONTROL3 = ctrl | PWM_Organizer_DEFAULT_COMPARE1_MODE;
 106:.\Generated_Source\PSoC4/PWM_Organizer.c **** 
 107:.\Generated_Source\PSoC4/PWM_Organizer.c ****          /* Clear and Set SYNCTC and SYNCCMP bits of RT1 register */
 108:.\Generated_Source\PSoC4/PWM_Organizer.c ****         PWM_Organizer_RT1 &= ((uint8)(~PWM_Organizer_RT1_MASK));
 109:.\Generated_Source\PSoC4/PWM_Organizer.c ****         PWM_Organizer_RT1 |= PWM_Organizer_SYNC;
 110:.\Generated_Source\PSoC4/PWM_Organizer.c **** 
 111:.\Generated_Source\PSoC4/PWM_Organizer.c ****         /*Enable DSI Sync all all inputs of the PWM*/
 112:.\Generated_Source\PSoC4/PWM_Organizer.c ****         PWM_Organizer_RT1 &= ((uint8)(~PWM_Organizer_SYNCDSI_MASK));
 113:.\Generated_Source\PSoC4/PWM_Organizer.c ****         PWM_Organizer_RT1 |= PWM_Organizer_SYNCDSI_EN;
 114:.\Generated_Source\PSoC4/PWM_Organizer.c **** 
 115:.\Generated_Source\PSoC4/PWM_Organizer.c ****     #elif (PWM_Organizer_UseControl)
 116:.\Generated_Source\PSoC4/PWM_Organizer.c ****         /* Set the default compare mode defined in the parameter */
 117:.\Generated_Source\PSoC4/PWM_Organizer.c ****         ctrl = PWM_Organizer_CONTROL & ((uint8)(~PWM_Organizer_CTRL_CMPMODE2_MASK)) &
  84              		.loc 1 117 0
  85 0006 204B     		ldr	r3, .L6
  86 0008 1B78     		ldrb	r3, [r3]
  87 000a DAB2     		uxtb	r2, r3
  88 000c FB1D     		add	r3, r7, #7
  89 000e 3F21     		mov	r1, #63
  90 0010 8A43     		bic	r2, r1
  91 0012 1A70     		strb	r2, [r3]
 118:.\Generated_Source\PSoC4/PWM_Organizer.c ****                 ((uint8)(~PWM_Organizer_CTRL_CMPMODE1_MASK));
 119:.\Generated_Source\PSoC4/PWM_Organizer.c ****         PWM_Organizer_CONTROL = ctrl | PWM_Organizer_DEFAULT_COMPARE2_MODE |
  92              		.loc 1 119 0
  93 0014 1C4B     		ldr	r3, .L6
  94 0016 FA1D     		add	r2, r7, #7
  95 0018 1278     		ldrb	r2, [r2]
  96 001a 0921     		mov	r1, #9
  97 001c 0A43     		orr	r2, r1
  98 001e D2B2     		uxtb	r2, r2
  99 0020 1A70     		strb	r2, [r3]
 120:.\Generated_Source\PSoC4/PWM_Organizer.c ****                                    PWM_Organizer_DEFAULT_COMPARE1_MODE;
 121:.\Generated_Source\PSoC4/PWM_Organizer.c ****     #endif /* (PWM_Organizer_UsingFixedFunction) */
 122:.\Generated_Source\PSoC4/PWM_Organizer.c **** 
 123:.\Generated_Source\PSoC4/PWM_Organizer.c ****     #if (!PWM_Organizer_UsingFixedFunction)
 124:.\Generated_Source\PSoC4/PWM_Organizer.c ****         #if (PWM_Organizer_Resolution == 8)
 125:.\Generated_Source\PSoC4/PWM_Organizer.c ****             /* Set FIFO 0 to 1 byte register for period*/
 126:.\Generated_Source\PSoC4/PWM_Organizer.c ****             PWM_Organizer_AUX_CONTROLDP0 |= (PWM_Organizer_AUX_CTRL_FIFO0_CLR);
 127:.\Generated_Source\PSoC4/PWM_Organizer.c ****         #else /* (PWM_Organizer_Resolution == 16)*/
 128:.\Generated_Source\PSoC4/PWM_Organizer.c ****             /* Set FIFO 0 to 1 byte register for period */
 129:.\Generated_Source\PSoC4/PWM_Organizer.c ****             PWM_Organizer_AUX_CONTROLDP0 |= (PWM_Organizer_AUX_CTRL_FIFO0_CLR);
ARM GAS  C:\Users\Admin\AppData\Local\Temp\cc1vH8BS.s 			page 5


 100              		.loc 1 129 0
 101 0022 1A4B     		ldr	r3, .L6+4
 102 0024 194A     		ldr	r2, .L6+4
 103 0026 1278     		ldrb	r2, [r2]
 104 0028 D2B2     		uxtb	r2, r2
 105 002a 0121     		mov	r1, #1
 106 002c 0A43     		orr	r2, r1
 107 002e D2B2     		uxtb	r2, r2
 108 0030 1A70     		strb	r2, [r3]
 130:.\Generated_Source\PSoC4/PWM_Organizer.c ****             PWM_Organizer_AUX_CONTROLDP1 |= (PWM_Organizer_AUX_CTRL_FIFO0_CLR);
 109              		.loc 1 130 0
 110 0032 174B     		ldr	r3, .L6+8
 111 0034 164A     		ldr	r2, .L6+8
 112 0036 1278     		ldrb	r2, [r2]
 113 0038 D2B2     		uxtb	r2, r2
 114 003a 0121     		mov	r1, #1
 115 003c 0A43     		orr	r2, r1
 116 003e D2B2     		uxtb	r2, r2
 117 0040 1A70     		strb	r2, [r3]
 131:.\Generated_Source\PSoC4/PWM_Organizer.c ****         #endif /* (PWM_Organizer_Resolution == 8) */
 132:.\Generated_Source\PSoC4/PWM_Organizer.c **** 
 133:.\Generated_Source\PSoC4/PWM_Organizer.c ****         PWM_Organizer_WriteCounter(PWM_Organizer_INIT_PERIOD_VALUE);
 118              		.loc 1 133 0
 119 0042 C820     		mov	r0, #200
 120 0044 FFF7FEFF 		bl	PWM_Organizer_WriteCounter
 134:.\Generated_Source\PSoC4/PWM_Organizer.c ****     #endif /* (!PWM_Organizer_UsingFixedFunction) */
 135:.\Generated_Source\PSoC4/PWM_Organizer.c **** 
 136:.\Generated_Source\PSoC4/PWM_Organizer.c ****     PWM_Organizer_WritePeriod(PWM_Organizer_INIT_PERIOD_VALUE);
 121              		.loc 1 136 0
 122 0048 C820     		mov	r0, #200
 123 004a FFF7FEFF 		bl	PWM_Organizer_WritePeriod
 137:.\Generated_Source\PSoC4/PWM_Organizer.c **** 
 138:.\Generated_Source\PSoC4/PWM_Organizer.c ****         #if (PWM_Organizer_UseOneCompareMode)
 139:.\Generated_Source\PSoC4/PWM_Organizer.c ****             PWM_Organizer_WriteCompare(PWM_Organizer_INIT_COMPARE_VALUE1);
 124              		.loc 1 139 0
 125 004e C820     		mov	r0, #200
 126 0050 FFF7FEFF 		bl	PWM_Organizer_WriteCompare
 140:.\Generated_Source\PSoC4/PWM_Organizer.c ****         #else
 141:.\Generated_Source\PSoC4/PWM_Organizer.c ****             PWM_Organizer_WriteCompare1(PWM_Organizer_INIT_COMPARE_VALUE1);
 142:.\Generated_Source\PSoC4/PWM_Organizer.c ****             PWM_Organizer_WriteCompare2(PWM_Organizer_INIT_COMPARE_VALUE2);
 143:.\Generated_Source\PSoC4/PWM_Organizer.c ****         #endif /* (PWM_Organizer_UseOneCompareMode) */
 144:.\Generated_Source\PSoC4/PWM_Organizer.c **** 
 145:.\Generated_Source\PSoC4/PWM_Organizer.c ****         #if (PWM_Organizer_KillModeMinTime)
 146:.\Generated_Source\PSoC4/PWM_Organizer.c ****             PWM_Organizer_WriteKillTime(PWM_Organizer_MinimumKillTime);
 147:.\Generated_Source\PSoC4/PWM_Organizer.c ****         #endif /* (PWM_Organizer_KillModeMinTime) */
 148:.\Generated_Source\PSoC4/PWM_Organizer.c **** 
 149:.\Generated_Source\PSoC4/PWM_Organizer.c ****         #if (PWM_Organizer_DeadBandUsed)
 150:.\Generated_Source\PSoC4/PWM_Organizer.c ****             PWM_Organizer_WriteDeadTime(PWM_Organizer_INIT_DEAD_TIME);
 151:.\Generated_Source\PSoC4/PWM_Organizer.c ****         #endif /* (PWM_Organizer_DeadBandUsed) */
 152:.\Generated_Source\PSoC4/PWM_Organizer.c **** 
 153:.\Generated_Source\PSoC4/PWM_Organizer.c ****     #if (PWM_Organizer_UseStatus || PWM_Organizer_UsingFixedFunction)
 154:.\Generated_Source\PSoC4/PWM_Organizer.c ****         PWM_Organizer_SetInterruptMode(PWM_Organizer_INIT_INTERRUPTS_MODE);
 127              		.loc 1 154 0
 128 0054 0420     		mov	r0, #4
 129 0056 FFF7FEFF 		bl	PWM_Organizer_SetInterruptMode
 155:.\Generated_Source\PSoC4/PWM_Organizer.c ****     #endif /* (PWM_Organizer_UseStatus || PWM_Organizer_UsingFixedFunction) */
 156:.\Generated_Source\PSoC4/PWM_Organizer.c **** 
ARM GAS  C:\Users\Admin\AppData\Local\Temp\cc1vH8BS.s 			page 6


 157:.\Generated_Source\PSoC4/PWM_Organizer.c ****     #if (PWM_Organizer_UsingFixedFunction)
 158:.\Generated_Source\PSoC4/PWM_Organizer.c ****         /* Globally Enable the Fixed Function Block chosen */
 159:.\Generated_Source\PSoC4/PWM_Organizer.c ****         PWM_Organizer_GLOBAL_ENABLE |= PWM_Organizer_BLOCK_EN_MASK;
 160:.\Generated_Source\PSoC4/PWM_Organizer.c ****         /* Set the Interrupt source to come from the status register */
 161:.\Generated_Source\PSoC4/PWM_Organizer.c ****         PWM_Organizer_CONTROL2 |= PWM_Organizer_CTRL2_IRQ_SEL;
 162:.\Generated_Source\PSoC4/PWM_Organizer.c ****     #else
 163:.\Generated_Source\PSoC4/PWM_Organizer.c ****         #if(PWM_Organizer_UseStatus)
 164:.\Generated_Source\PSoC4/PWM_Organizer.c **** 
 165:.\Generated_Source\PSoC4/PWM_Organizer.c ****             /* CyEnterCriticalRegion and CyExitCriticalRegion are used to mark following region cri
 166:.\Generated_Source\PSoC4/PWM_Organizer.c ****             /* Enter Critical Region*/
 167:.\Generated_Source\PSoC4/PWM_Organizer.c ****             PWM_Organizer_interruptState = CyEnterCriticalSection();
 130              		.loc 1 167 0
 131 005a BC1D     		add	r4, r7, #6
 132 005c FFF7FEFF 		bl	CyEnterCriticalSection
 133 0060 031C     		mov	r3, r0
 134 0062 2370     		strb	r3, [r4]
 168:.\Generated_Source\PSoC4/PWM_Organizer.c ****             /* Use the interrupt output of the status register for IRQ output */
 169:.\Generated_Source\PSoC4/PWM_Organizer.c ****             PWM_Organizer_STATUS_AUX_CTRL |= PWM_Organizer_STATUS_ACTL_INT_EN_MASK;
 135              		.loc 1 169 0
 136 0064 0A4B     		ldr	r3, .L6+8
 137 0066 0A4A     		ldr	r2, .L6+8
 138 0068 1278     		ldrb	r2, [r2]
 139 006a D2B2     		uxtb	r2, r2
 140 006c 1021     		mov	r1, #16
 141 006e 0A43     		orr	r2, r1
 142 0070 D2B2     		uxtb	r2, r2
 143 0072 1A70     		strb	r2, [r3]
 170:.\Generated_Source\PSoC4/PWM_Organizer.c **** 
 171:.\Generated_Source\PSoC4/PWM_Organizer.c ****              /* Exit Critical Region*/
 172:.\Generated_Source\PSoC4/PWM_Organizer.c ****             CyExitCriticalSection(PWM_Organizer_interruptState);
 144              		.loc 1 172 0
 145 0074 BB1D     		add	r3, r7, #6
 146 0076 1B78     		ldrb	r3, [r3]
 147 0078 181C     		mov	r0, r3
 148 007a FFF7FEFF 		bl	CyExitCriticalSection
 173:.\Generated_Source\PSoC4/PWM_Organizer.c **** 
 174:.\Generated_Source\PSoC4/PWM_Organizer.c ****             /* Clear the FIFO to enable the PWM_Organizer_STATUS_FIFOFULL
 175:.\Generated_Source\PSoC4/PWM_Organizer.c ****                    bit to be set on FIFO full. */
 176:.\Generated_Source\PSoC4/PWM_Organizer.c ****             PWM_Organizer_ClearFIFO();
 149              		.loc 1 176 0
 150 007e FFF7FEFF 		bl	PWM_Organizer_ClearFIFO
 177:.\Generated_Source\PSoC4/PWM_Organizer.c ****         #endif /* (PWM_Organizer_UseStatus) */
 178:.\Generated_Source\PSoC4/PWM_Organizer.c ****     #endif /* (PWM_Organizer_UsingFixedFunction) */
 179:.\Generated_Source\PSoC4/PWM_Organizer.c **** }
 151              		.loc 1 179 0
 152 0082 BD46     		mov	sp, r7
 153 0084 03B0     		add	sp, sp, #12
 154              		@ sp needed
 155 0086 90BD     		pop	{r4, r7, pc}
 156              	.L7:
 157              		.align	2
 158              	.L6:
 159 0088 70000F40 		.word	1074724976
 160 008c 90000F40 		.word	1074725008
 161 0090 91000F40 		.word	1074725009
 162              		.cfi_endproc
 163              	.LFE1:
ARM GAS  C:\Users\Admin\AppData\Local\Temp\cc1vH8BS.s 			page 7


 164              		.size	PWM_Organizer_Init, .-PWM_Organizer_Init
 165              		.section	.text.PWM_Organizer_Enable,"ax",%progbits
 166              		.align	2
 167              		.global	PWM_Organizer_Enable
 168              		.code	16
 169              		.thumb_func
 170              		.type	PWM_Organizer_Enable, %function
 171              	PWM_Organizer_Enable:
 172              	.LFB2:
 180:.\Generated_Source\PSoC4/PWM_Organizer.c **** 
 181:.\Generated_Source\PSoC4/PWM_Organizer.c **** 
 182:.\Generated_Source\PSoC4/PWM_Organizer.c **** /*******************************************************************************
 183:.\Generated_Source\PSoC4/PWM_Organizer.c **** * Function Name: PWM_Organizer_Enable
 184:.\Generated_Source\PSoC4/PWM_Organizer.c **** ********************************************************************************
 185:.\Generated_Source\PSoC4/PWM_Organizer.c **** *
 186:.\Generated_Source\PSoC4/PWM_Organizer.c **** * Summary:
 187:.\Generated_Source\PSoC4/PWM_Organizer.c **** *  Enables the PWM block operation
 188:.\Generated_Source\PSoC4/PWM_Organizer.c **** *
 189:.\Generated_Source\PSoC4/PWM_Organizer.c **** * Parameters:
 190:.\Generated_Source\PSoC4/PWM_Organizer.c **** *  None
 191:.\Generated_Source\PSoC4/PWM_Organizer.c **** *
 192:.\Generated_Source\PSoC4/PWM_Organizer.c **** * Return:
 193:.\Generated_Source\PSoC4/PWM_Organizer.c **** *  None
 194:.\Generated_Source\PSoC4/PWM_Organizer.c **** *
 195:.\Generated_Source\PSoC4/PWM_Organizer.c **** * Side Effects:
 196:.\Generated_Source\PSoC4/PWM_Organizer.c **** *  This works only if software enable mode is chosen
 197:.\Generated_Source\PSoC4/PWM_Organizer.c **** *
 198:.\Generated_Source\PSoC4/PWM_Organizer.c **** *******************************************************************************/
 199:.\Generated_Source\PSoC4/PWM_Organizer.c **** void PWM_Organizer_Enable(void) 
 200:.\Generated_Source\PSoC4/PWM_Organizer.c **** {
 173              		.loc 1 200 0
 174              		.cfi_startproc
 175 0000 80B5     		push	{r7, lr}
 176              		.cfi_def_cfa_offset 8
 177              		.cfi_offset 7, -8
 178              		.cfi_offset 14, -4
 179 0002 00AF     		add	r7, sp, #0
 180              		.cfi_def_cfa_register 7
 201:.\Generated_Source\PSoC4/PWM_Organizer.c ****     /* Globally Enable the Fixed Function Block chosen */
 202:.\Generated_Source\PSoC4/PWM_Organizer.c ****     #if (PWM_Organizer_UsingFixedFunction)
 203:.\Generated_Source\PSoC4/PWM_Organizer.c ****         PWM_Organizer_GLOBAL_ENABLE |= PWM_Organizer_BLOCK_EN_MASK;
 204:.\Generated_Source\PSoC4/PWM_Organizer.c ****         PWM_Organizer_GLOBAL_STBY_ENABLE |= PWM_Organizer_BLOCK_STBY_EN_MASK;
 205:.\Generated_Source\PSoC4/PWM_Organizer.c ****     #endif /* (PWM_Organizer_UsingFixedFunction) */
 206:.\Generated_Source\PSoC4/PWM_Organizer.c **** 
 207:.\Generated_Source\PSoC4/PWM_Organizer.c ****     /* Enable the PWM from the control register  */
 208:.\Generated_Source\PSoC4/PWM_Organizer.c ****     #if (PWM_Organizer_UseControl || PWM_Organizer_UsingFixedFunction)
 209:.\Generated_Source\PSoC4/PWM_Organizer.c ****         PWM_Organizer_CONTROL |= PWM_Organizer_CTRL_ENABLE;
 181              		.loc 1 209 0
 182 0004 054B     		ldr	r3, .L9
 183 0006 054A     		ldr	r2, .L9
 184 0008 1278     		ldrb	r2, [r2]
 185 000a D2B2     		uxtb	r2, r2
 186 000c 8021     		mov	r1, #128
 187 000e 4942     		neg	r1, r1
 188 0010 0A43     		orr	r2, r1
 189 0012 D2B2     		uxtb	r2, r2
 190 0014 1A70     		strb	r2, [r3]
ARM GAS  C:\Users\Admin\AppData\Local\Temp\cc1vH8BS.s 			page 8


 210:.\Generated_Source\PSoC4/PWM_Organizer.c ****     #endif /* (PWM_Organizer_UseControl || PWM_Organizer_UsingFixedFunction) */
 211:.\Generated_Source\PSoC4/PWM_Organizer.c **** }
 191              		.loc 1 211 0
 192 0016 BD46     		mov	sp, r7
 193              		@ sp needed
 194 0018 80BD     		pop	{r7, pc}
 195              	.L10:
 196 001a C046     		.align	2
 197              	.L9:
 198 001c 70000F40 		.word	1074724976
 199              		.cfi_endproc
 200              	.LFE2:
 201              		.size	PWM_Organizer_Enable, .-PWM_Organizer_Enable
 202              		.section	.text.PWM_Organizer_Stop,"ax",%progbits
 203              		.align	2
 204              		.global	PWM_Organizer_Stop
 205              		.code	16
 206              		.thumb_func
 207              		.type	PWM_Organizer_Stop, %function
 208              	PWM_Organizer_Stop:
 209              	.LFB3:
 212:.\Generated_Source\PSoC4/PWM_Organizer.c **** 
 213:.\Generated_Source\PSoC4/PWM_Organizer.c **** 
 214:.\Generated_Source\PSoC4/PWM_Organizer.c **** /*******************************************************************************
 215:.\Generated_Source\PSoC4/PWM_Organizer.c **** * Function Name: PWM_Organizer_Stop
 216:.\Generated_Source\PSoC4/PWM_Organizer.c **** ********************************************************************************
 217:.\Generated_Source\PSoC4/PWM_Organizer.c **** *
 218:.\Generated_Source\PSoC4/PWM_Organizer.c **** * Summary:
 219:.\Generated_Source\PSoC4/PWM_Organizer.c **** *  The stop function halts the PWM, but does not change any modes or disable
 220:.\Generated_Source\PSoC4/PWM_Organizer.c **** *  interrupts.
 221:.\Generated_Source\PSoC4/PWM_Organizer.c **** *
 222:.\Generated_Source\PSoC4/PWM_Organizer.c **** * Parameters:
 223:.\Generated_Source\PSoC4/PWM_Organizer.c **** *  None
 224:.\Generated_Source\PSoC4/PWM_Organizer.c **** *
 225:.\Generated_Source\PSoC4/PWM_Organizer.c **** * Return:
 226:.\Generated_Source\PSoC4/PWM_Organizer.c **** *  None
 227:.\Generated_Source\PSoC4/PWM_Organizer.c **** *
 228:.\Generated_Source\PSoC4/PWM_Organizer.c **** * Side Effects:
 229:.\Generated_Source\PSoC4/PWM_Organizer.c **** *  If the Enable mode is set to Hardware only then this function
 230:.\Generated_Source\PSoC4/PWM_Organizer.c **** *  has no effect on the operation of the PWM
 231:.\Generated_Source\PSoC4/PWM_Organizer.c **** *
 232:.\Generated_Source\PSoC4/PWM_Organizer.c **** *******************************************************************************/
 233:.\Generated_Source\PSoC4/PWM_Organizer.c **** void PWM_Organizer_Stop(void) 
 234:.\Generated_Source\PSoC4/PWM_Organizer.c **** {
 210              		.loc 1 234 0
 211              		.cfi_startproc
 212 0000 80B5     		push	{r7, lr}
 213              		.cfi_def_cfa_offset 8
 214              		.cfi_offset 7, -8
 215              		.cfi_offset 14, -4
 216 0002 00AF     		add	r7, sp, #0
 217              		.cfi_def_cfa_register 7
 235:.\Generated_Source\PSoC4/PWM_Organizer.c ****     #if (PWM_Organizer_UseControl || PWM_Organizer_UsingFixedFunction)
 236:.\Generated_Source\PSoC4/PWM_Organizer.c ****         PWM_Organizer_CONTROL &= ((uint8)(~PWM_Organizer_CTRL_ENABLE));
 218              		.loc 1 236 0
 219 0004 044B     		ldr	r3, .L12
 220 0006 044A     		ldr	r2, .L12
ARM GAS  C:\Users\Admin\AppData\Local\Temp\cc1vH8BS.s 			page 9


 221 0008 1278     		ldrb	r2, [r2]
 222 000a D1B2     		uxtb	r1, r2
 223 000c 7F22     		mov	r2, #127
 224 000e 0A40     		and	r2, r1
 225 0010 D2B2     		uxtb	r2, r2
 226 0012 1A70     		strb	r2, [r3]
 237:.\Generated_Source\PSoC4/PWM_Organizer.c ****     #endif /* (PWM_Organizer_UseControl || PWM_Organizer_UsingFixedFunction) */
 238:.\Generated_Source\PSoC4/PWM_Organizer.c **** 
 239:.\Generated_Source\PSoC4/PWM_Organizer.c ****     /* Globally disable the Fixed Function Block chosen */
 240:.\Generated_Source\PSoC4/PWM_Organizer.c ****     #if (PWM_Organizer_UsingFixedFunction)
 241:.\Generated_Source\PSoC4/PWM_Organizer.c ****         PWM_Organizer_GLOBAL_ENABLE &= ((uint8)(~PWM_Organizer_BLOCK_EN_MASK));
 242:.\Generated_Source\PSoC4/PWM_Organizer.c ****         PWM_Organizer_GLOBAL_STBY_ENABLE &= ((uint8)(~PWM_Organizer_BLOCK_STBY_EN_MASK));
 243:.\Generated_Source\PSoC4/PWM_Organizer.c ****     #endif /* (PWM_Organizer_UsingFixedFunction) */
 244:.\Generated_Source\PSoC4/PWM_Organizer.c **** }
 227              		.loc 1 244 0
 228 0014 BD46     		mov	sp, r7
 229              		@ sp needed
 230 0016 80BD     		pop	{r7, pc}
 231              	.L13:
 232              		.align	2
 233              	.L12:
 234 0018 70000F40 		.word	1074724976
 235              		.cfi_endproc
 236              	.LFE3:
 237              		.size	PWM_Organizer_Stop, .-PWM_Organizer_Stop
 238              		.section	.text.PWM_Organizer_WriteCounter,"ax",%progbits
 239              		.align	2
 240              		.global	PWM_Organizer_WriteCounter
 241              		.code	16
 242              		.thumb_func
 243              		.type	PWM_Organizer_WriteCounter, %function
 244              	PWM_Organizer_WriteCounter:
 245              	.LFB4:
 245:.\Generated_Source\PSoC4/PWM_Organizer.c **** 
 246:.\Generated_Source\PSoC4/PWM_Organizer.c **** #if (PWM_Organizer_UseOneCompareMode)
 247:.\Generated_Source\PSoC4/PWM_Organizer.c ****     #if (PWM_Organizer_CompareMode1SW)
 248:.\Generated_Source\PSoC4/PWM_Organizer.c **** 
 249:.\Generated_Source\PSoC4/PWM_Organizer.c **** 
 250:.\Generated_Source\PSoC4/PWM_Organizer.c ****         /*******************************************************************************
 251:.\Generated_Source\PSoC4/PWM_Organizer.c ****         * Function Name: PWM_Organizer_SetCompareMode
 252:.\Generated_Source\PSoC4/PWM_Organizer.c ****         ********************************************************************************
 253:.\Generated_Source\PSoC4/PWM_Organizer.c ****         *
 254:.\Generated_Source\PSoC4/PWM_Organizer.c ****         * Summary:
 255:.\Generated_Source\PSoC4/PWM_Organizer.c ****         *  This function writes the Compare Mode for the pwm output when in Dither mode,
 256:.\Generated_Source\PSoC4/PWM_Organizer.c ****         *  Center Align Mode or One Output Mode.
 257:.\Generated_Source\PSoC4/PWM_Organizer.c ****         *
 258:.\Generated_Source\PSoC4/PWM_Organizer.c ****         * Parameters:
 259:.\Generated_Source\PSoC4/PWM_Organizer.c ****         *  comparemode:  The new compare mode for the PWM output. Use the compare types
 260:.\Generated_Source\PSoC4/PWM_Organizer.c ****         *                defined in the H file as input arguments.
 261:.\Generated_Source\PSoC4/PWM_Organizer.c ****         *
 262:.\Generated_Source\PSoC4/PWM_Organizer.c ****         * Return:
 263:.\Generated_Source\PSoC4/PWM_Organizer.c ****         *  None
 264:.\Generated_Source\PSoC4/PWM_Organizer.c ****         *
 265:.\Generated_Source\PSoC4/PWM_Organizer.c ****         *******************************************************************************/
 266:.\Generated_Source\PSoC4/PWM_Organizer.c ****         void PWM_Organizer_SetCompareMode(uint8 comparemode) 
 267:.\Generated_Source\PSoC4/PWM_Organizer.c ****         {
 268:.\Generated_Source\PSoC4/PWM_Organizer.c ****             #if(PWM_Organizer_UsingFixedFunction)
ARM GAS  C:\Users\Admin\AppData\Local\Temp\cc1vH8BS.s 			page 10


 269:.\Generated_Source\PSoC4/PWM_Organizer.c **** 
 270:.\Generated_Source\PSoC4/PWM_Organizer.c ****                 #if(0 != PWM_Organizer_CTRL_CMPMODE1_SHIFT)
 271:.\Generated_Source\PSoC4/PWM_Organizer.c ****                     uint8 comparemodemasked = ((uint8)((uint8)comparemode << PWM_Organizer_CTRL_CMP
 272:.\Generated_Source\PSoC4/PWM_Organizer.c ****                 #else
 273:.\Generated_Source\PSoC4/PWM_Organizer.c ****                     uint8 comparemodemasked = comparemode;
 274:.\Generated_Source\PSoC4/PWM_Organizer.c ****                 #endif /* (0 != PWM_Organizer_CTRL_CMPMODE1_SHIFT) */
 275:.\Generated_Source\PSoC4/PWM_Organizer.c **** 
 276:.\Generated_Source\PSoC4/PWM_Organizer.c ****                 PWM_Organizer_CONTROL3 &= ((uint8)(~PWM_Organizer_CTRL_CMPMODE1_MASK)); /*Clear Exi
 277:.\Generated_Source\PSoC4/PWM_Organizer.c ****                 PWM_Organizer_CONTROL3 |= comparemodemasked;
 278:.\Generated_Source\PSoC4/PWM_Organizer.c **** 
 279:.\Generated_Source\PSoC4/PWM_Organizer.c ****             #elif (PWM_Organizer_UseControl)
 280:.\Generated_Source\PSoC4/PWM_Organizer.c **** 
 281:.\Generated_Source\PSoC4/PWM_Organizer.c ****                 #if(0 != PWM_Organizer_CTRL_CMPMODE1_SHIFT)
 282:.\Generated_Source\PSoC4/PWM_Organizer.c ****                     uint8 comparemode1masked = ((uint8)((uint8)comparemode << PWM_Organizer_CTRL_CM
 283:.\Generated_Source\PSoC4/PWM_Organizer.c ****                                                 PWM_Organizer_CTRL_CMPMODE1_MASK;
 284:.\Generated_Source\PSoC4/PWM_Organizer.c ****                 #else
 285:.\Generated_Source\PSoC4/PWM_Organizer.c ****                     uint8 comparemode1masked = comparemode & PWM_Organizer_CTRL_CMPMODE1_MASK;
 286:.\Generated_Source\PSoC4/PWM_Organizer.c ****                 #endif /* (0 != PWM_Organizer_CTRL_CMPMODE1_SHIFT) */
 287:.\Generated_Source\PSoC4/PWM_Organizer.c **** 
 288:.\Generated_Source\PSoC4/PWM_Organizer.c ****                 #if(0 != PWM_Organizer_CTRL_CMPMODE2_SHIFT)
 289:.\Generated_Source\PSoC4/PWM_Organizer.c ****                     uint8 comparemode2masked = ((uint8)((uint8)comparemode << PWM_Organizer_CTRL_CM
 290:.\Generated_Source\PSoC4/PWM_Organizer.c ****                                                PWM_Organizer_CTRL_CMPMODE2_MASK;
 291:.\Generated_Source\PSoC4/PWM_Organizer.c ****                 #else
 292:.\Generated_Source\PSoC4/PWM_Organizer.c ****                     uint8 comparemode2masked = comparemode & PWM_Organizer_CTRL_CMPMODE2_MASK;
 293:.\Generated_Source\PSoC4/PWM_Organizer.c ****                 #endif /* (0 != PWM_Organizer_CTRL_CMPMODE2_SHIFT) */
 294:.\Generated_Source\PSoC4/PWM_Organizer.c **** 
 295:.\Generated_Source\PSoC4/PWM_Organizer.c ****                 /*Clear existing mode */
 296:.\Generated_Source\PSoC4/PWM_Organizer.c ****                 PWM_Organizer_CONTROL &= ((uint8)(~(PWM_Organizer_CTRL_CMPMODE1_MASK |
 297:.\Generated_Source\PSoC4/PWM_Organizer.c ****                                             PWM_Organizer_CTRL_CMPMODE2_MASK)));
 298:.\Generated_Source\PSoC4/PWM_Organizer.c ****                 PWM_Organizer_CONTROL |= (comparemode1masked | comparemode2masked);
 299:.\Generated_Source\PSoC4/PWM_Organizer.c **** 
 300:.\Generated_Source\PSoC4/PWM_Organizer.c ****             #else
 301:.\Generated_Source\PSoC4/PWM_Organizer.c ****                 uint8 temp = comparemode;
 302:.\Generated_Source\PSoC4/PWM_Organizer.c ****             #endif /* (PWM_Organizer_UsingFixedFunction) */
 303:.\Generated_Source\PSoC4/PWM_Organizer.c ****         }
 304:.\Generated_Source\PSoC4/PWM_Organizer.c ****     #endif /* PWM_Organizer_CompareMode1SW */
 305:.\Generated_Source\PSoC4/PWM_Organizer.c **** 
 306:.\Generated_Source\PSoC4/PWM_Organizer.c **** #else /* UseOneCompareMode */
 307:.\Generated_Source\PSoC4/PWM_Organizer.c **** 
 308:.\Generated_Source\PSoC4/PWM_Organizer.c ****     #if (PWM_Organizer_CompareMode1SW)
 309:.\Generated_Source\PSoC4/PWM_Organizer.c **** 
 310:.\Generated_Source\PSoC4/PWM_Organizer.c **** 
 311:.\Generated_Source\PSoC4/PWM_Organizer.c ****         /*******************************************************************************
 312:.\Generated_Source\PSoC4/PWM_Organizer.c ****         * Function Name: PWM_Organizer_SetCompareMode1
 313:.\Generated_Source\PSoC4/PWM_Organizer.c ****         ********************************************************************************
 314:.\Generated_Source\PSoC4/PWM_Organizer.c ****         *
 315:.\Generated_Source\PSoC4/PWM_Organizer.c ****         * Summary:
 316:.\Generated_Source\PSoC4/PWM_Organizer.c ****         *  This function writes the Compare Mode for the pwm or pwm1 output
 317:.\Generated_Source\PSoC4/PWM_Organizer.c ****         *
 318:.\Generated_Source\PSoC4/PWM_Organizer.c ****         * Parameters:
 319:.\Generated_Source\PSoC4/PWM_Organizer.c ****         *  comparemode:  The new compare mode for the PWM output. Use the compare types
 320:.\Generated_Source\PSoC4/PWM_Organizer.c ****         *                defined in the H file as input arguments.
 321:.\Generated_Source\PSoC4/PWM_Organizer.c ****         *
 322:.\Generated_Source\PSoC4/PWM_Organizer.c ****         * Return:
 323:.\Generated_Source\PSoC4/PWM_Organizer.c ****         *  None
 324:.\Generated_Source\PSoC4/PWM_Organizer.c ****         *
 325:.\Generated_Source\PSoC4/PWM_Organizer.c ****         *******************************************************************************/
ARM GAS  C:\Users\Admin\AppData\Local\Temp\cc1vH8BS.s 			page 11


 326:.\Generated_Source\PSoC4/PWM_Organizer.c ****         void PWM_Organizer_SetCompareMode1(uint8 comparemode) 
 327:.\Generated_Source\PSoC4/PWM_Organizer.c ****         {
 328:.\Generated_Source\PSoC4/PWM_Organizer.c ****             #if(0 != PWM_Organizer_CTRL_CMPMODE1_SHIFT)
 329:.\Generated_Source\PSoC4/PWM_Organizer.c ****                 uint8 comparemodemasked = ((uint8)((uint8)comparemode << PWM_Organizer_CTRL_CMPMODE
 330:.\Generated_Source\PSoC4/PWM_Organizer.c ****                                            PWM_Organizer_CTRL_CMPMODE1_MASK;
 331:.\Generated_Source\PSoC4/PWM_Organizer.c ****             #else
 332:.\Generated_Source\PSoC4/PWM_Organizer.c ****                 uint8 comparemodemasked = comparemode & PWM_Organizer_CTRL_CMPMODE1_MASK;
 333:.\Generated_Source\PSoC4/PWM_Organizer.c ****             #endif /* (0 != PWM_Organizer_CTRL_CMPMODE1_SHIFT) */
 334:.\Generated_Source\PSoC4/PWM_Organizer.c **** 
 335:.\Generated_Source\PSoC4/PWM_Organizer.c ****             #if (PWM_Organizer_UseControl)
 336:.\Generated_Source\PSoC4/PWM_Organizer.c ****                 PWM_Organizer_CONTROL &= ((uint8)(~PWM_Organizer_CTRL_CMPMODE1_MASK)); /*Clear exis
 337:.\Generated_Source\PSoC4/PWM_Organizer.c ****                 PWM_Organizer_CONTROL |= comparemodemasked;
 338:.\Generated_Source\PSoC4/PWM_Organizer.c ****             #endif /* (PWM_Organizer_UseControl) */
 339:.\Generated_Source\PSoC4/PWM_Organizer.c ****         }
 340:.\Generated_Source\PSoC4/PWM_Organizer.c ****     #endif /* PWM_Organizer_CompareMode1SW */
 341:.\Generated_Source\PSoC4/PWM_Organizer.c **** 
 342:.\Generated_Source\PSoC4/PWM_Organizer.c **** #if (PWM_Organizer_CompareMode2SW)
 343:.\Generated_Source\PSoC4/PWM_Organizer.c **** 
 344:.\Generated_Source\PSoC4/PWM_Organizer.c **** 
 345:.\Generated_Source\PSoC4/PWM_Organizer.c ****     /*******************************************************************************
 346:.\Generated_Source\PSoC4/PWM_Organizer.c ****     * Function Name: PWM_Organizer_SetCompareMode2
 347:.\Generated_Source\PSoC4/PWM_Organizer.c ****     ********************************************************************************
 348:.\Generated_Source\PSoC4/PWM_Organizer.c ****     *
 349:.\Generated_Source\PSoC4/PWM_Organizer.c ****     * Summary:
 350:.\Generated_Source\PSoC4/PWM_Organizer.c ****     *  This function writes the Compare Mode for the pwm or pwm2 output
 351:.\Generated_Source\PSoC4/PWM_Organizer.c ****     *
 352:.\Generated_Source\PSoC4/PWM_Organizer.c ****     * Parameters:
 353:.\Generated_Source\PSoC4/PWM_Organizer.c ****     *  comparemode:  The new compare mode for the PWM output. Use the compare types
 354:.\Generated_Source\PSoC4/PWM_Organizer.c ****     *                defined in the H file as input arguments.
 355:.\Generated_Source\PSoC4/PWM_Organizer.c ****     *
 356:.\Generated_Source\PSoC4/PWM_Organizer.c ****     * Return:
 357:.\Generated_Source\PSoC4/PWM_Organizer.c ****     *  None
 358:.\Generated_Source\PSoC4/PWM_Organizer.c ****     *
 359:.\Generated_Source\PSoC4/PWM_Organizer.c ****     *******************************************************************************/
 360:.\Generated_Source\PSoC4/PWM_Organizer.c ****     void PWM_Organizer_SetCompareMode2(uint8 comparemode) 
 361:.\Generated_Source\PSoC4/PWM_Organizer.c ****     {
 362:.\Generated_Source\PSoC4/PWM_Organizer.c **** 
 363:.\Generated_Source\PSoC4/PWM_Organizer.c ****         #if(0 != PWM_Organizer_CTRL_CMPMODE2_SHIFT)
 364:.\Generated_Source\PSoC4/PWM_Organizer.c ****             uint8 comparemodemasked = ((uint8)((uint8)comparemode << PWM_Organizer_CTRL_CMPMODE2_SH
 365:.\Generated_Source\PSoC4/PWM_Organizer.c ****                                                  PWM_Organizer_CTRL_CMPMODE2_MASK;
 366:.\Generated_Source\PSoC4/PWM_Organizer.c ****         #else
 367:.\Generated_Source\PSoC4/PWM_Organizer.c ****             uint8 comparemodemasked = comparemode & PWM_Organizer_CTRL_CMPMODE2_MASK;
 368:.\Generated_Source\PSoC4/PWM_Organizer.c ****         #endif /* (0 != PWM_Organizer_CTRL_CMPMODE2_SHIFT) */
 369:.\Generated_Source\PSoC4/PWM_Organizer.c **** 
 370:.\Generated_Source\PSoC4/PWM_Organizer.c ****         #if (PWM_Organizer_UseControl)
 371:.\Generated_Source\PSoC4/PWM_Organizer.c ****             PWM_Organizer_CONTROL &= ((uint8)(~PWM_Organizer_CTRL_CMPMODE2_MASK)); /*Clear existing
 372:.\Generated_Source\PSoC4/PWM_Organizer.c ****             PWM_Organizer_CONTROL |= comparemodemasked;
 373:.\Generated_Source\PSoC4/PWM_Organizer.c ****         #endif /* (PWM_Organizer_UseControl) */
 374:.\Generated_Source\PSoC4/PWM_Organizer.c ****     }
 375:.\Generated_Source\PSoC4/PWM_Organizer.c ****     #endif /*PWM_Organizer_CompareMode2SW */
 376:.\Generated_Source\PSoC4/PWM_Organizer.c **** 
 377:.\Generated_Source\PSoC4/PWM_Organizer.c **** #endif /* UseOneCompareMode */
 378:.\Generated_Source\PSoC4/PWM_Organizer.c **** 
 379:.\Generated_Source\PSoC4/PWM_Organizer.c **** 
 380:.\Generated_Source\PSoC4/PWM_Organizer.c **** #if (!PWM_Organizer_UsingFixedFunction)
 381:.\Generated_Source\PSoC4/PWM_Organizer.c **** 
 382:.\Generated_Source\PSoC4/PWM_Organizer.c **** 
ARM GAS  C:\Users\Admin\AppData\Local\Temp\cc1vH8BS.s 			page 12


 383:.\Generated_Source\PSoC4/PWM_Organizer.c ****     /*******************************************************************************
 384:.\Generated_Source\PSoC4/PWM_Organizer.c ****     * Function Name: PWM_Organizer_WriteCounter
 385:.\Generated_Source\PSoC4/PWM_Organizer.c ****     ********************************************************************************
 386:.\Generated_Source\PSoC4/PWM_Organizer.c ****     *
 387:.\Generated_Source\PSoC4/PWM_Organizer.c ****     * Summary:
 388:.\Generated_Source\PSoC4/PWM_Organizer.c ****     *  Writes a new counter value directly to the counter register. This will be
 389:.\Generated_Source\PSoC4/PWM_Organizer.c ****     *  implemented for that currently running period and only that period. This API
 390:.\Generated_Source\PSoC4/PWM_Organizer.c ****     *  is valid only for UDB implementation and not available for fixed function
 391:.\Generated_Source\PSoC4/PWM_Organizer.c ****     *  PWM implementation.
 392:.\Generated_Source\PSoC4/PWM_Organizer.c ****     *
 393:.\Generated_Source\PSoC4/PWM_Organizer.c ****     * Parameters:
 394:.\Generated_Source\PSoC4/PWM_Organizer.c ****     *  counter:  The period new period counter value.
 395:.\Generated_Source\PSoC4/PWM_Organizer.c ****     *
 396:.\Generated_Source\PSoC4/PWM_Organizer.c ****     * Return:
 397:.\Generated_Source\PSoC4/PWM_Organizer.c ****     *  None
 398:.\Generated_Source\PSoC4/PWM_Organizer.c ****     *
 399:.\Generated_Source\PSoC4/PWM_Organizer.c ****     * Side Effects:
 400:.\Generated_Source\PSoC4/PWM_Organizer.c ****     *  The PWM Period will be reloaded when a counter value will be a zero
 401:.\Generated_Source\PSoC4/PWM_Organizer.c ****     *
 402:.\Generated_Source\PSoC4/PWM_Organizer.c ****     *******************************************************************************/
 403:.\Generated_Source\PSoC4/PWM_Organizer.c ****     void PWM_Organizer_WriteCounter(uint16 counter) \
 404:.\Generated_Source\PSoC4/PWM_Organizer.c ****                                        
 405:.\Generated_Source\PSoC4/PWM_Organizer.c ****     {
 246              		.loc 1 405 0
 247              		.cfi_startproc
 248 0000 80B5     		push	{r7, lr}
 249              		.cfi_def_cfa_offset 8
 250              		.cfi_offset 7, -8
 251              		.cfi_offset 14, -4
 252 0002 82B0     		sub	sp, sp, #8
 253              		.cfi_def_cfa_offset 16
 254 0004 00AF     		add	r7, sp, #0
 255              		.cfi_def_cfa_register 7
 256 0006 021C     		mov	r2, r0
 257 0008 BB1D     		add	r3, r7, #6
 258 000a 1A80     		strh	r2, [r3]
 406:.\Generated_Source\PSoC4/PWM_Organizer.c ****         CY_SET_REG16(PWM_Organizer_COUNTER_LSB_PTR, counter);
 259              		.loc 1 406 0
 260 000c 034B     		ldr	r3, .L15
 261 000e BA1D     		add	r2, r7, #6
 262 0010 1288     		ldrh	r2, [r2]
 263 0012 1A80     		strh	r2, [r3]
 407:.\Generated_Source\PSoC4/PWM_Organizer.c ****     }
 264              		.loc 1 407 0
 265 0014 BD46     		mov	sp, r7
 266 0016 02B0     		add	sp, sp, #8
 267              		@ sp needed
 268 0018 80BD     		pop	{r7, pc}
 269              	.L16:
 270 001a C046     		.align	2
 271              	.L15:
 272 001c 00100F40 		.word	1074728960
 273              		.cfi_endproc
 274              	.LFE4:
 275              		.size	PWM_Organizer_WriteCounter, .-PWM_Organizer_WriteCounter
 276              		.section	.text.PWM_Organizer_ReadCounter,"ax",%progbits
 277              		.align	2
ARM GAS  C:\Users\Admin\AppData\Local\Temp\cc1vH8BS.s 			page 13


 278              		.global	PWM_Organizer_ReadCounter
 279              		.code	16
 280              		.thumb_func
 281              		.type	PWM_Organizer_ReadCounter, %function
 282              	PWM_Organizer_ReadCounter:
 283              	.LFB5:
 408:.\Generated_Source\PSoC4/PWM_Organizer.c **** 
 409:.\Generated_Source\PSoC4/PWM_Organizer.c **** 
 410:.\Generated_Source\PSoC4/PWM_Organizer.c ****     /*******************************************************************************
 411:.\Generated_Source\PSoC4/PWM_Organizer.c ****     * Function Name: PWM_Organizer_ReadCounter
 412:.\Generated_Source\PSoC4/PWM_Organizer.c ****     ********************************************************************************
 413:.\Generated_Source\PSoC4/PWM_Organizer.c ****     *
 414:.\Generated_Source\PSoC4/PWM_Organizer.c ****     * Summary:
 415:.\Generated_Source\PSoC4/PWM_Organizer.c ****     *  This function returns the current value of the counter.  It doesn't matter
 416:.\Generated_Source\PSoC4/PWM_Organizer.c ****     *  if the counter is enabled or running.
 417:.\Generated_Source\PSoC4/PWM_Organizer.c ****     *
 418:.\Generated_Source\PSoC4/PWM_Organizer.c ****     * Parameters:
 419:.\Generated_Source\PSoC4/PWM_Organizer.c ****     *  None
 420:.\Generated_Source\PSoC4/PWM_Organizer.c ****     *
 421:.\Generated_Source\PSoC4/PWM_Organizer.c ****     * Return:
 422:.\Generated_Source\PSoC4/PWM_Organizer.c ****     *  The current value of the counter.
 423:.\Generated_Source\PSoC4/PWM_Organizer.c ****     *
 424:.\Generated_Source\PSoC4/PWM_Organizer.c ****     *******************************************************************************/
 425:.\Generated_Source\PSoC4/PWM_Organizer.c ****     uint16 PWM_Organizer_ReadCounter(void) 
 426:.\Generated_Source\PSoC4/PWM_Organizer.c ****     {
 284              		.loc 1 426 0
 285              		.cfi_startproc
 286 0000 80B5     		push	{r7, lr}
 287              		.cfi_def_cfa_offset 8
 288              		.cfi_offset 7, -8
 289              		.cfi_offset 14, -4
 290 0002 00AF     		add	r7, sp, #0
 291              		.cfi_def_cfa_register 7
 427:.\Generated_Source\PSoC4/PWM_Organizer.c ****         /* Force capture by reading Accumulator */
 428:.\Generated_Source\PSoC4/PWM_Organizer.c ****         /* Must first do a software capture to be able to read the counter */
 429:.\Generated_Source\PSoC4/PWM_Organizer.c ****         /* It is up to the user code to make sure there isn't already captured data in the FIFO */
 430:.\Generated_Source\PSoC4/PWM_Organizer.c ****           (void)CY_GET_REG8(PWM_Organizer_COUNTERCAP_LSB_PTR_8BIT);
 292              		.loc 1 430 0
 293 0004 034B     		ldr	r3, .L19
 294 0006 1B78     		ldrb	r3, [r3]
 431:.\Generated_Source\PSoC4/PWM_Organizer.c **** 
 432:.\Generated_Source\PSoC4/PWM_Organizer.c ****         /* Read the data from the FIFO */
 433:.\Generated_Source\PSoC4/PWM_Organizer.c ****         return (CY_GET_REG16(PWM_Organizer_CAPTURE_LSB_PTR));
 295              		.loc 1 433 0
 296 0008 034B     		ldr	r3, .L19+4
 297 000a 1B88     		ldrh	r3, [r3]
 298 000c 9BB2     		uxth	r3, r3
 434:.\Generated_Source\PSoC4/PWM_Organizer.c ****     }
 299              		.loc 1 434 0
 300 000e 181C     		mov	r0, r3
 301 0010 BD46     		mov	sp, r7
 302              		@ sp needed
 303 0012 80BD     		pop	{r7, pc}
 304              	.L20:
 305              		.align	2
 306              	.L19:
 307 0014 10000F40 		.word	1074724880
ARM GAS  C:\Users\Admin\AppData\Local\Temp\cc1vH8BS.s 			page 14


 308 0018 A0100F40 		.word	1074729120
 309              		.cfi_endproc
 310              	.LFE5:
 311              		.size	PWM_Organizer_ReadCounter, .-PWM_Organizer_ReadCounter
 312              		.section	.text.PWM_Organizer_ClearFIFO,"ax",%progbits
 313              		.align	2
 314              		.global	PWM_Organizer_ClearFIFO
 315              		.code	16
 316              		.thumb_func
 317              		.type	PWM_Organizer_ClearFIFO, %function
 318              	PWM_Organizer_ClearFIFO:
 319              	.LFB6:
 435:.\Generated_Source\PSoC4/PWM_Organizer.c **** 
 436:.\Generated_Source\PSoC4/PWM_Organizer.c ****     #if (PWM_Organizer_UseStatus)
 437:.\Generated_Source\PSoC4/PWM_Organizer.c **** 
 438:.\Generated_Source\PSoC4/PWM_Organizer.c **** 
 439:.\Generated_Source\PSoC4/PWM_Organizer.c ****         /*******************************************************************************
 440:.\Generated_Source\PSoC4/PWM_Organizer.c ****         * Function Name: PWM_Organizer_ClearFIFO
 441:.\Generated_Source\PSoC4/PWM_Organizer.c ****         ********************************************************************************
 442:.\Generated_Source\PSoC4/PWM_Organizer.c ****         *
 443:.\Generated_Source\PSoC4/PWM_Organizer.c ****         * Summary:
 444:.\Generated_Source\PSoC4/PWM_Organizer.c ****         *  This function clears all capture data from the capture FIFO
 445:.\Generated_Source\PSoC4/PWM_Organizer.c ****         *
 446:.\Generated_Source\PSoC4/PWM_Organizer.c ****         * Parameters:
 447:.\Generated_Source\PSoC4/PWM_Organizer.c ****         *  None
 448:.\Generated_Source\PSoC4/PWM_Organizer.c ****         *
 449:.\Generated_Source\PSoC4/PWM_Organizer.c ****         * Return:
 450:.\Generated_Source\PSoC4/PWM_Organizer.c ****         *  None
 451:.\Generated_Source\PSoC4/PWM_Organizer.c ****         *
 452:.\Generated_Source\PSoC4/PWM_Organizer.c ****         *******************************************************************************/
 453:.\Generated_Source\PSoC4/PWM_Organizer.c ****         void PWM_Organizer_ClearFIFO(void) 
 454:.\Generated_Source\PSoC4/PWM_Organizer.c ****         {
 320              		.loc 1 454 0
 321              		.cfi_startproc
 322 0000 80B5     		push	{r7, lr}
 323              		.cfi_def_cfa_offset 8
 324              		.cfi_offset 7, -8
 325              		.cfi_offset 14, -4
 326 0002 00AF     		add	r7, sp, #0
 327              		.cfi_def_cfa_register 7
 455:.\Generated_Source\PSoC4/PWM_Organizer.c ****             while(0u != (PWM_Organizer_ReadStatusRegister() & PWM_Organizer_STATUS_FIFONEMPTY))
 328              		.loc 1 455 0
 329 0004 01E0     		b	.L22
 330              	.L23:
 456:.\Generated_Source\PSoC4/PWM_Organizer.c ****             {
 457:.\Generated_Source\PSoC4/PWM_Organizer.c ****                 (void)PWM_Organizer_ReadCapture();
 331              		.loc 1 457 0
 332 0006 FFF7FEFF 		bl	PWM_Organizer_ReadCapture
 333              	.L22:
 455:.\Generated_Source\PSoC4/PWM_Organizer.c ****             while(0u != (PWM_Organizer_ReadStatusRegister() & PWM_Organizer_STATUS_FIFONEMPTY))
 334              		.loc 1 455 0 discriminator 1
 335 000a FFF7FEFF 		bl	PWM_Organizer_ReadStatusRegister
 336 000e 031C     		mov	r3, r0
 337 0010 1A1C     		mov	r2, r3
 338 0012 1023     		mov	r3, #16
 339 0014 1340     		and	r3, r2
 340 0016 F6D1     		bne	.L23
ARM GAS  C:\Users\Admin\AppData\Local\Temp\cc1vH8BS.s 			page 15


 458:.\Generated_Source\PSoC4/PWM_Organizer.c ****             }
 459:.\Generated_Source\PSoC4/PWM_Organizer.c ****         }
 341              		.loc 1 459 0
 342 0018 BD46     		mov	sp, r7
 343              		@ sp needed
 344 001a 80BD     		pop	{r7, pc}
 345              		.cfi_endproc
 346              	.LFE6:
 347              		.size	PWM_Organizer_ClearFIFO, .-PWM_Organizer_ClearFIFO
 348              		.section	.text.PWM_Organizer_WritePeriod,"ax",%progbits
 349              		.align	2
 350              		.global	PWM_Organizer_WritePeriod
 351              		.code	16
 352              		.thumb_func
 353              		.type	PWM_Organizer_WritePeriod, %function
 354              	PWM_Organizer_WritePeriod:
 355              	.LFB7:
 460:.\Generated_Source\PSoC4/PWM_Organizer.c **** 
 461:.\Generated_Source\PSoC4/PWM_Organizer.c ****     #endif /* PWM_Organizer_UseStatus */
 462:.\Generated_Source\PSoC4/PWM_Organizer.c **** 
 463:.\Generated_Source\PSoC4/PWM_Organizer.c **** #endif /* !PWM_Organizer_UsingFixedFunction */
 464:.\Generated_Source\PSoC4/PWM_Organizer.c **** 
 465:.\Generated_Source\PSoC4/PWM_Organizer.c **** 
 466:.\Generated_Source\PSoC4/PWM_Organizer.c **** /*******************************************************************************
 467:.\Generated_Source\PSoC4/PWM_Organizer.c **** * Function Name: PWM_Organizer_WritePeriod
 468:.\Generated_Source\PSoC4/PWM_Organizer.c **** ********************************************************************************
 469:.\Generated_Source\PSoC4/PWM_Organizer.c **** *
 470:.\Generated_Source\PSoC4/PWM_Organizer.c **** * Summary:
 471:.\Generated_Source\PSoC4/PWM_Organizer.c **** *  This function is used to change the period of the counter.  The new period
 472:.\Generated_Source\PSoC4/PWM_Organizer.c **** *  will be loaded the next time terminal count is detected.
 473:.\Generated_Source\PSoC4/PWM_Organizer.c **** *
 474:.\Generated_Source\PSoC4/PWM_Organizer.c **** * Parameters:
 475:.\Generated_Source\PSoC4/PWM_Organizer.c **** *  period:  Period value. May be between 1 and (2^Resolution)-1.  A value of 0
 476:.\Generated_Source\PSoC4/PWM_Organizer.c **** *           will result in the counter remaining at zero.
 477:.\Generated_Source\PSoC4/PWM_Organizer.c **** *
 478:.\Generated_Source\PSoC4/PWM_Organizer.c **** * Return:
 479:.\Generated_Source\PSoC4/PWM_Organizer.c **** *  None
 480:.\Generated_Source\PSoC4/PWM_Organizer.c **** *
 481:.\Generated_Source\PSoC4/PWM_Organizer.c **** *******************************************************************************/
 482:.\Generated_Source\PSoC4/PWM_Organizer.c **** void PWM_Organizer_WritePeriod(uint16 period) 
 483:.\Generated_Source\PSoC4/PWM_Organizer.c **** {
 356              		.loc 1 483 0
 357              		.cfi_startproc
 358 0000 80B5     		push	{r7, lr}
 359              		.cfi_def_cfa_offset 8
 360              		.cfi_offset 7, -8
 361              		.cfi_offset 14, -4
 362 0002 82B0     		sub	sp, sp, #8
 363              		.cfi_def_cfa_offset 16
 364 0004 00AF     		add	r7, sp, #0
 365              		.cfi_def_cfa_register 7
 366 0006 021C     		mov	r2, r0
 367 0008 BB1D     		add	r3, r7, #6
 368 000a 1A80     		strh	r2, [r3]
 484:.\Generated_Source\PSoC4/PWM_Organizer.c ****     #if(PWM_Organizer_UsingFixedFunction)
 485:.\Generated_Source\PSoC4/PWM_Organizer.c ****         CY_SET_REG16(PWM_Organizer_PERIOD_LSB_PTR, (uint16)period);
 486:.\Generated_Source\PSoC4/PWM_Organizer.c ****     #else
ARM GAS  C:\Users\Admin\AppData\Local\Temp\cc1vH8BS.s 			page 16


 487:.\Generated_Source\PSoC4/PWM_Organizer.c ****         CY_SET_REG16(PWM_Organizer_PERIOD_LSB_PTR, period);
 369              		.loc 1 487 0
 370 000c 034B     		ldr	r3, .L25
 371 000e BA1D     		add	r2, r7, #6
 372 0010 1288     		ldrh	r2, [r2]
 373 0012 1A80     		strh	r2, [r3]
 488:.\Generated_Source\PSoC4/PWM_Organizer.c ****     #endif /* (PWM_Organizer_UsingFixedFunction) */
 489:.\Generated_Source\PSoC4/PWM_Organizer.c **** }
 374              		.loc 1 489 0
 375 0014 BD46     		mov	sp, r7
 376 0016 02B0     		add	sp, sp, #8
 377              		@ sp needed
 378 0018 80BD     		pop	{r7, pc}
 379              	.L26:
 380 001a C046     		.align	2
 381              	.L25:
 382 001c 80100F40 		.word	1074729088
 383              		.cfi_endproc
 384              	.LFE7:
 385              		.size	PWM_Organizer_WritePeriod, .-PWM_Organizer_WritePeriod
 386              		.section	.text.PWM_Organizer_WriteCompare,"ax",%progbits
 387              		.align	2
 388              		.global	PWM_Organizer_WriteCompare
 389              		.code	16
 390              		.thumb_func
 391              		.type	PWM_Organizer_WriteCompare, %function
 392              	PWM_Organizer_WriteCompare:
 393              	.LFB8:
 490:.\Generated_Source\PSoC4/PWM_Organizer.c **** 
 491:.\Generated_Source\PSoC4/PWM_Organizer.c **** #if (PWM_Organizer_UseOneCompareMode)
 492:.\Generated_Source\PSoC4/PWM_Organizer.c **** 
 493:.\Generated_Source\PSoC4/PWM_Organizer.c **** 
 494:.\Generated_Source\PSoC4/PWM_Organizer.c ****     /*******************************************************************************
 495:.\Generated_Source\PSoC4/PWM_Organizer.c ****     * Function Name: PWM_Organizer_WriteCompare
 496:.\Generated_Source\PSoC4/PWM_Organizer.c ****     ********************************************************************************
 497:.\Generated_Source\PSoC4/PWM_Organizer.c ****     *
 498:.\Generated_Source\PSoC4/PWM_Organizer.c ****     * Summary:
 499:.\Generated_Source\PSoC4/PWM_Organizer.c ****     *  This funtion is used to change the compare1 value when the PWM is in Dither
 500:.\Generated_Source\PSoC4/PWM_Organizer.c ****     *  mode. The compare output will reflect the new value on the next UDB clock.
 501:.\Generated_Source\PSoC4/PWM_Organizer.c ****     *  The compare output will be driven high when the present counter value is
 502:.\Generated_Source\PSoC4/PWM_Organizer.c ****     *  compared to the compare value based on the compare mode defined in
 503:.\Generated_Source\PSoC4/PWM_Organizer.c ****     *  Dither Mode.
 504:.\Generated_Source\PSoC4/PWM_Organizer.c ****     *
 505:.\Generated_Source\PSoC4/PWM_Organizer.c ****     * Parameters:
 506:.\Generated_Source\PSoC4/PWM_Organizer.c ****     *  compare:  New compare value.
 507:.\Generated_Source\PSoC4/PWM_Organizer.c ****     *
 508:.\Generated_Source\PSoC4/PWM_Organizer.c ****     * Return:
 509:.\Generated_Source\PSoC4/PWM_Organizer.c ****     *  None
 510:.\Generated_Source\PSoC4/PWM_Organizer.c ****     *
 511:.\Generated_Source\PSoC4/PWM_Organizer.c ****     * Side Effects:
 512:.\Generated_Source\PSoC4/PWM_Organizer.c ****     *  This function is only available if the PWM mode parameter is set to
 513:.\Generated_Source\PSoC4/PWM_Organizer.c ****     *  Dither Mode, Center Aligned Mode or One Output Mode
 514:.\Generated_Source\PSoC4/PWM_Organizer.c ****     *
 515:.\Generated_Source\PSoC4/PWM_Organizer.c ****     *******************************************************************************/
 516:.\Generated_Source\PSoC4/PWM_Organizer.c ****     void PWM_Organizer_WriteCompare(uint16 compare) \
 517:.\Generated_Source\PSoC4/PWM_Organizer.c ****                                        
 518:.\Generated_Source\PSoC4/PWM_Organizer.c ****     {
ARM GAS  C:\Users\Admin\AppData\Local\Temp\cc1vH8BS.s 			page 17


 394              		.loc 1 518 0
 395              		.cfi_startproc
 396 0000 80B5     		push	{r7, lr}
 397              		.cfi_def_cfa_offset 8
 398              		.cfi_offset 7, -8
 399              		.cfi_offset 14, -4
 400 0002 82B0     		sub	sp, sp, #8
 401              		.cfi_def_cfa_offset 16
 402 0004 00AF     		add	r7, sp, #0
 403              		.cfi_def_cfa_register 7
 404 0006 021C     		mov	r2, r0
 405 0008 BB1D     		add	r3, r7, #6
 406 000a 1A80     		strh	r2, [r3]
 519:.\Generated_Source\PSoC4/PWM_Organizer.c ****         #if(PWM_Organizer_UsingFixedFunction)
 520:.\Generated_Source\PSoC4/PWM_Organizer.c ****             CY_SET_REG16(PWM_Organizer_COMPARE1_LSB_PTR, (uint16)compare);
 521:.\Generated_Source\PSoC4/PWM_Organizer.c ****         #else
 522:.\Generated_Source\PSoC4/PWM_Organizer.c ****             CY_SET_REG16(PWM_Organizer_COMPARE1_LSB_PTR, compare);
 407              		.loc 1 522 0
 408 000c 034B     		ldr	r3, .L28
 409 000e BA1D     		add	r2, r7, #6
 410 0010 1288     		ldrh	r2, [r2]
 411 0012 1A80     		strh	r2, [r3]
 523:.\Generated_Source\PSoC4/PWM_Organizer.c ****         #endif /* (PWM_Organizer_UsingFixedFunction) */
 524:.\Generated_Source\PSoC4/PWM_Organizer.c **** 
 525:.\Generated_Source\PSoC4/PWM_Organizer.c ****         #if (PWM_Organizer_PWMMode == PWM_Organizer__B_PWM__DITHER)
 526:.\Generated_Source\PSoC4/PWM_Organizer.c ****             #if(PWM_Organizer_UsingFixedFunction)
 527:.\Generated_Source\PSoC4/PWM_Organizer.c ****                 CY_SET_REG16(PWM_Organizer_COMPARE2_LSB_PTR, (uint16)(compare + 1u));
 528:.\Generated_Source\PSoC4/PWM_Organizer.c ****             #else
 529:.\Generated_Source\PSoC4/PWM_Organizer.c ****                 CY_SET_REG16(PWM_Organizer_COMPARE2_LSB_PTR, (compare + 1u));
 530:.\Generated_Source\PSoC4/PWM_Organizer.c ****             #endif /* (PWM_Organizer_UsingFixedFunction) */
 531:.\Generated_Source\PSoC4/PWM_Organizer.c ****         #endif /* (PWM_Organizer_PWMMode == PWM_Organizer__B_PWM__DITHER) */
 532:.\Generated_Source\PSoC4/PWM_Organizer.c ****     }
 412              		.loc 1 532 0
 413 0014 BD46     		mov	sp, r7
 414 0016 02B0     		add	sp, sp, #8
 415              		@ sp needed
 416 0018 80BD     		pop	{r7, pc}
 417              	.L29:
 418 001a C046     		.align	2
 419              	.L28:
 420 001c 40100F40 		.word	1074729024
 421              		.cfi_endproc
 422              	.LFE8:
 423              		.size	PWM_Organizer_WriteCompare, .-PWM_Organizer_WriteCompare
 424              		.section	.text.PWM_Organizer_SetInterruptMode,"ax",%progbits
 425              		.align	2
 426              		.global	PWM_Organizer_SetInterruptMode
 427              		.code	16
 428              		.thumb_func
 429              		.type	PWM_Organizer_SetInterruptMode, %function
 430              	PWM_Organizer_SetInterruptMode:
 431              	.LFB9:
 533:.\Generated_Source\PSoC4/PWM_Organizer.c **** 
 534:.\Generated_Source\PSoC4/PWM_Organizer.c **** 
 535:.\Generated_Source\PSoC4/PWM_Organizer.c **** #else
 536:.\Generated_Source\PSoC4/PWM_Organizer.c **** 
 537:.\Generated_Source\PSoC4/PWM_Organizer.c **** 
ARM GAS  C:\Users\Admin\AppData\Local\Temp\cc1vH8BS.s 			page 18


 538:.\Generated_Source\PSoC4/PWM_Organizer.c ****     /*******************************************************************************
 539:.\Generated_Source\PSoC4/PWM_Organizer.c ****     * Function Name: PWM_Organizer_WriteCompare1
 540:.\Generated_Source\PSoC4/PWM_Organizer.c ****     ********************************************************************************
 541:.\Generated_Source\PSoC4/PWM_Organizer.c ****     *
 542:.\Generated_Source\PSoC4/PWM_Organizer.c ****     * Summary:
 543:.\Generated_Source\PSoC4/PWM_Organizer.c ****     *  This funtion is used to change the compare1 value.  The compare output will
 544:.\Generated_Source\PSoC4/PWM_Organizer.c ****     *  reflect the new value on the next UDB clock.  The compare output will be
 545:.\Generated_Source\PSoC4/PWM_Organizer.c ****     *  driven high when the present counter value is less than or less than or
 546:.\Generated_Source\PSoC4/PWM_Organizer.c ****     *  equal to the compare register, depending on the mode.
 547:.\Generated_Source\PSoC4/PWM_Organizer.c ****     *
 548:.\Generated_Source\PSoC4/PWM_Organizer.c ****     * Parameters:
 549:.\Generated_Source\PSoC4/PWM_Organizer.c ****     *  compare:  New compare value.
 550:.\Generated_Source\PSoC4/PWM_Organizer.c ****     *
 551:.\Generated_Source\PSoC4/PWM_Organizer.c ****     * Return:
 552:.\Generated_Source\PSoC4/PWM_Organizer.c ****     *  None
 553:.\Generated_Source\PSoC4/PWM_Organizer.c ****     *
 554:.\Generated_Source\PSoC4/PWM_Organizer.c ****     *******************************************************************************/
 555:.\Generated_Source\PSoC4/PWM_Organizer.c ****     void PWM_Organizer_WriteCompare1(uint16 compare) \
 556:.\Generated_Source\PSoC4/PWM_Organizer.c ****                                         
 557:.\Generated_Source\PSoC4/PWM_Organizer.c ****     {
 558:.\Generated_Source\PSoC4/PWM_Organizer.c ****         #if(PWM_Organizer_UsingFixedFunction)
 559:.\Generated_Source\PSoC4/PWM_Organizer.c ****             CY_SET_REG16(PWM_Organizer_COMPARE1_LSB_PTR, (uint16)compare);
 560:.\Generated_Source\PSoC4/PWM_Organizer.c ****         #else
 561:.\Generated_Source\PSoC4/PWM_Organizer.c ****             CY_SET_REG16(PWM_Organizer_COMPARE1_LSB_PTR, compare);
 562:.\Generated_Source\PSoC4/PWM_Organizer.c ****         #endif /* (PWM_Organizer_UsingFixedFunction) */
 563:.\Generated_Source\PSoC4/PWM_Organizer.c ****     }
 564:.\Generated_Source\PSoC4/PWM_Organizer.c **** 
 565:.\Generated_Source\PSoC4/PWM_Organizer.c **** 
 566:.\Generated_Source\PSoC4/PWM_Organizer.c ****     /*******************************************************************************
 567:.\Generated_Source\PSoC4/PWM_Organizer.c ****     * Function Name: PWM_Organizer_WriteCompare2
 568:.\Generated_Source\PSoC4/PWM_Organizer.c ****     ********************************************************************************
 569:.\Generated_Source\PSoC4/PWM_Organizer.c ****     *
 570:.\Generated_Source\PSoC4/PWM_Organizer.c ****     * Summary:
 571:.\Generated_Source\PSoC4/PWM_Organizer.c ****     *  This funtion is used to change the compare value, for compare1 output.
 572:.\Generated_Source\PSoC4/PWM_Organizer.c ****     *  The compare output will reflect the new value on the next UDB clock.
 573:.\Generated_Source\PSoC4/PWM_Organizer.c ****     *  The compare output will be driven high when the present counter value is
 574:.\Generated_Source\PSoC4/PWM_Organizer.c ****     *  less than or less than or equal to the compare register, depending on the
 575:.\Generated_Source\PSoC4/PWM_Organizer.c ****     *  mode.
 576:.\Generated_Source\PSoC4/PWM_Organizer.c ****     *
 577:.\Generated_Source\PSoC4/PWM_Organizer.c ****     * Parameters:
 578:.\Generated_Source\PSoC4/PWM_Organizer.c ****     *  compare:  New compare value.
 579:.\Generated_Source\PSoC4/PWM_Organizer.c ****     *
 580:.\Generated_Source\PSoC4/PWM_Organizer.c ****     * Return:
 581:.\Generated_Source\PSoC4/PWM_Organizer.c ****     *  None
 582:.\Generated_Source\PSoC4/PWM_Organizer.c ****     *
 583:.\Generated_Source\PSoC4/PWM_Organizer.c ****     *******************************************************************************/
 584:.\Generated_Source\PSoC4/PWM_Organizer.c ****     void PWM_Organizer_WriteCompare2(uint16 compare) \
 585:.\Generated_Source\PSoC4/PWM_Organizer.c ****                                         
 586:.\Generated_Source\PSoC4/PWM_Organizer.c ****     {
 587:.\Generated_Source\PSoC4/PWM_Organizer.c ****         #if(PWM_Organizer_UsingFixedFunction)
 588:.\Generated_Source\PSoC4/PWM_Organizer.c ****             CY_SET_REG16(PWM_Organizer_COMPARE2_LSB_PTR, compare);
 589:.\Generated_Source\PSoC4/PWM_Organizer.c ****         #else
 590:.\Generated_Source\PSoC4/PWM_Organizer.c ****             CY_SET_REG16(PWM_Organizer_COMPARE2_LSB_PTR, compare);
 591:.\Generated_Source\PSoC4/PWM_Organizer.c ****         #endif /* (PWM_Organizer_UsingFixedFunction) */
 592:.\Generated_Source\PSoC4/PWM_Organizer.c ****     }
 593:.\Generated_Source\PSoC4/PWM_Organizer.c **** #endif /* UseOneCompareMode */
 594:.\Generated_Source\PSoC4/PWM_Organizer.c **** 
ARM GAS  C:\Users\Admin\AppData\Local\Temp\cc1vH8BS.s 			page 19


 595:.\Generated_Source\PSoC4/PWM_Organizer.c **** #if (PWM_Organizer_DeadBandUsed)
 596:.\Generated_Source\PSoC4/PWM_Organizer.c **** 
 597:.\Generated_Source\PSoC4/PWM_Organizer.c **** 
 598:.\Generated_Source\PSoC4/PWM_Organizer.c ****     /*******************************************************************************
 599:.\Generated_Source\PSoC4/PWM_Organizer.c ****     * Function Name: PWM_Organizer_WriteDeadTime
 600:.\Generated_Source\PSoC4/PWM_Organizer.c ****     ********************************************************************************
 601:.\Generated_Source\PSoC4/PWM_Organizer.c ****     *
 602:.\Generated_Source\PSoC4/PWM_Organizer.c ****     * Summary:
 603:.\Generated_Source\PSoC4/PWM_Organizer.c ****     *  This function writes the dead-band counts to the corresponding register
 604:.\Generated_Source\PSoC4/PWM_Organizer.c ****     *
 605:.\Generated_Source\PSoC4/PWM_Organizer.c ****     * Parameters:
 606:.\Generated_Source\PSoC4/PWM_Organizer.c ****     *  deadtime:  Number of counts for dead time
 607:.\Generated_Source\PSoC4/PWM_Organizer.c ****     *
 608:.\Generated_Source\PSoC4/PWM_Organizer.c ****     * Return:
 609:.\Generated_Source\PSoC4/PWM_Organizer.c ****     *  None
 610:.\Generated_Source\PSoC4/PWM_Organizer.c ****     *
 611:.\Generated_Source\PSoC4/PWM_Organizer.c ****     *******************************************************************************/
 612:.\Generated_Source\PSoC4/PWM_Organizer.c ****     void PWM_Organizer_WriteDeadTime(uint8 deadtime) 
 613:.\Generated_Source\PSoC4/PWM_Organizer.c ****     {
 614:.\Generated_Source\PSoC4/PWM_Organizer.c ****         /* If using the Dead Band 1-255 mode then just write the register */
 615:.\Generated_Source\PSoC4/PWM_Organizer.c ****         #if(!PWM_Organizer_DeadBand2_4)
 616:.\Generated_Source\PSoC4/PWM_Organizer.c ****             CY_SET_REG8(PWM_Organizer_DEADBAND_COUNT_PTR, deadtime);
 617:.\Generated_Source\PSoC4/PWM_Organizer.c ****         #else
 618:.\Generated_Source\PSoC4/PWM_Organizer.c ****             /* Otherwise the data has to be masked and offset */
 619:.\Generated_Source\PSoC4/PWM_Organizer.c ****             /* Clear existing data */
 620:.\Generated_Source\PSoC4/PWM_Organizer.c ****             PWM_Organizer_DEADBAND_COUNT &= ((uint8)(~PWM_Organizer_DEADBAND_COUNT_MASK));
 621:.\Generated_Source\PSoC4/PWM_Organizer.c **** 
 622:.\Generated_Source\PSoC4/PWM_Organizer.c ****             /* Set new dead time */
 623:.\Generated_Source\PSoC4/PWM_Organizer.c ****             #if(PWM_Organizer_DEADBAND_COUNT_SHIFT)
 624:.\Generated_Source\PSoC4/PWM_Organizer.c ****                 PWM_Organizer_DEADBAND_COUNT |= ((uint8)((uint8)deadtime << PWM_Organizer_DEADBAND_
 625:.\Generated_Source\PSoC4/PWM_Organizer.c ****                                                     PWM_Organizer_DEADBAND_COUNT_MASK;
 626:.\Generated_Source\PSoC4/PWM_Organizer.c ****             #else
 627:.\Generated_Source\PSoC4/PWM_Organizer.c ****                 PWM_Organizer_DEADBAND_COUNT |= deadtime & PWM_Organizer_DEADBAND_COUNT_MASK;
 628:.\Generated_Source\PSoC4/PWM_Organizer.c ****             #endif /* (PWM_Organizer_DEADBAND_COUNT_SHIFT) */
 629:.\Generated_Source\PSoC4/PWM_Organizer.c **** 
 630:.\Generated_Source\PSoC4/PWM_Organizer.c ****         #endif /* (!PWM_Organizer_DeadBand2_4) */
 631:.\Generated_Source\PSoC4/PWM_Organizer.c ****     }
 632:.\Generated_Source\PSoC4/PWM_Organizer.c **** 
 633:.\Generated_Source\PSoC4/PWM_Organizer.c **** 
 634:.\Generated_Source\PSoC4/PWM_Organizer.c ****     /*******************************************************************************
 635:.\Generated_Source\PSoC4/PWM_Organizer.c ****     * Function Name: PWM_Organizer_ReadDeadTime
 636:.\Generated_Source\PSoC4/PWM_Organizer.c ****     ********************************************************************************
 637:.\Generated_Source\PSoC4/PWM_Organizer.c ****     *
 638:.\Generated_Source\PSoC4/PWM_Organizer.c ****     * Summary:
 639:.\Generated_Source\PSoC4/PWM_Organizer.c ****     *  This function reads the dead-band counts from the corresponding register
 640:.\Generated_Source\PSoC4/PWM_Organizer.c ****     *
 641:.\Generated_Source\PSoC4/PWM_Organizer.c ****     * Parameters:
 642:.\Generated_Source\PSoC4/PWM_Organizer.c ****     *  None
 643:.\Generated_Source\PSoC4/PWM_Organizer.c ****     *
 644:.\Generated_Source\PSoC4/PWM_Organizer.c ****     * Return:
 645:.\Generated_Source\PSoC4/PWM_Organizer.c ****     *  Dead Band Counts
 646:.\Generated_Source\PSoC4/PWM_Organizer.c ****     *
 647:.\Generated_Source\PSoC4/PWM_Organizer.c ****     *******************************************************************************/
 648:.\Generated_Source\PSoC4/PWM_Organizer.c ****     uint8 PWM_Organizer_ReadDeadTime(void) 
 649:.\Generated_Source\PSoC4/PWM_Organizer.c ****     {
 650:.\Generated_Source\PSoC4/PWM_Organizer.c ****         /* If using the Dead Band 1-255 mode then just read the register */
 651:.\Generated_Source\PSoC4/PWM_Organizer.c ****         #if(!PWM_Organizer_DeadBand2_4)
ARM GAS  C:\Users\Admin\AppData\Local\Temp\cc1vH8BS.s 			page 20


 652:.\Generated_Source\PSoC4/PWM_Organizer.c ****             return (CY_GET_REG8(PWM_Organizer_DEADBAND_COUNT_PTR));
 653:.\Generated_Source\PSoC4/PWM_Organizer.c ****         #else
 654:.\Generated_Source\PSoC4/PWM_Organizer.c **** 
 655:.\Generated_Source\PSoC4/PWM_Organizer.c ****             /* Otherwise the data has to be masked and offset */
 656:.\Generated_Source\PSoC4/PWM_Organizer.c ****             #if(PWM_Organizer_DEADBAND_COUNT_SHIFT)
 657:.\Generated_Source\PSoC4/PWM_Organizer.c ****                 return ((uint8)(((uint8)(PWM_Organizer_DEADBAND_COUNT & PWM_Organizer_DEADBAND_COUN
 658:.\Generated_Source\PSoC4/PWM_Organizer.c ****                                                                            PWM_Organizer_DEADBAND_C
 659:.\Generated_Source\PSoC4/PWM_Organizer.c ****             #else
 660:.\Generated_Source\PSoC4/PWM_Organizer.c ****                 return (PWM_Organizer_DEADBAND_COUNT & PWM_Organizer_DEADBAND_COUNT_MASK);
 661:.\Generated_Source\PSoC4/PWM_Organizer.c ****             #endif /* (PWM_Organizer_DEADBAND_COUNT_SHIFT) */
 662:.\Generated_Source\PSoC4/PWM_Organizer.c ****         #endif /* (!PWM_Organizer_DeadBand2_4) */
 663:.\Generated_Source\PSoC4/PWM_Organizer.c ****     }
 664:.\Generated_Source\PSoC4/PWM_Organizer.c **** #endif /* DeadBandUsed */
 665:.\Generated_Source\PSoC4/PWM_Organizer.c **** 
 666:.\Generated_Source\PSoC4/PWM_Organizer.c **** #if (PWM_Organizer_UseStatus || PWM_Organizer_UsingFixedFunction)
 667:.\Generated_Source\PSoC4/PWM_Organizer.c **** 
 668:.\Generated_Source\PSoC4/PWM_Organizer.c **** 
 669:.\Generated_Source\PSoC4/PWM_Organizer.c ****     /*******************************************************************************
 670:.\Generated_Source\PSoC4/PWM_Organizer.c ****     * Function Name: PWM_Organizer_SetInterruptMode
 671:.\Generated_Source\PSoC4/PWM_Organizer.c ****     ********************************************************************************
 672:.\Generated_Source\PSoC4/PWM_Organizer.c ****     *
 673:.\Generated_Source\PSoC4/PWM_Organizer.c ****     * Summary:
 674:.\Generated_Source\PSoC4/PWM_Organizer.c ****     *  This function configures the interrupts mask control of theinterrupt
 675:.\Generated_Source\PSoC4/PWM_Organizer.c ****     *  source status register.
 676:.\Generated_Source\PSoC4/PWM_Organizer.c ****     *
 677:.\Generated_Source\PSoC4/PWM_Organizer.c ****     * Parameters:
 678:.\Generated_Source\PSoC4/PWM_Organizer.c ****     *  uint8 interruptMode: Bit field containing the interrupt sources enabled
 679:.\Generated_Source\PSoC4/PWM_Organizer.c ****     *
 680:.\Generated_Source\PSoC4/PWM_Organizer.c ****     * Return:
 681:.\Generated_Source\PSoC4/PWM_Organizer.c ****     *  None
 682:.\Generated_Source\PSoC4/PWM_Organizer.c ****     *
 683:.\Generated_Source\PSoC4/PWM_Organizer.c ****     *******************************************************************************/
 684:.\Generated_Source\PSoC4/PWM_Organizer.c ****     void PWM_Organizer_SetInterruptMode(uint8 interruptMode) 
 685:.\Generated_Source\PSoC4/PWM_Organizer.c ****     {
 432              		.loc 1 685 0
 433              		.cfi_startproc
 434 0000 80B5     		push	{r7, lr}
 435              		.cfi_def_cfa_offset 8
 436              		.cfi_offset 7, -8
 437              		.cfi_offset 14, -4
 438 0002 82B0     		sub	sp, sp, #8
 439              		.cfi_def_cfa_offset 16
 440 0004 00AF     		add	r7, sp, #0
 441              		.cfi_def_cfa_register 7
 442 0006 021C     		mov	r2, r0
 443 0008 FB1D     		add	r3, r7, #7
 444 000a 1A70     		strb	r2, [r3]
 686:.\Generated_Source\PSoC4/PWM_Organizer.c ****         CY_SET_REG8(PWM_Organizer_STATUS_MASK_PTR, interruptMode);
 445              		.loc 1 686 0
 446 000c 034B     		ldr	r3, .L31
 447 000e FA1D     		add	r2, r7, #7
 448 0010 1278     		ldrb	r2, [r2]
 449 0012 1A70     		strb	r2, [r3]
 687:.\Generated_Source\PSoC4/PWM_Organizer.c ****     }
 450              		.loc 1 687 0
 451 0014 BD46     		mov	sp, r7
 452 0016 02B0     		add	sp, sp, #8
ARM GAS  C:\Users\Admin\AppData\Local\Temp\cc1vH8BS.s 			page 21


 453              		@ sp needed
 454 0018 80BD     		pop	{r7, pc}
 455              	.L32:
 456 001a C046     		.align	2
 457              	.L31:
 458 001c 81000F40 		.word	1074724993
 459              		.cfi_endproc
 460              	.LFE9:
 461              		.size	PWM_Organizer_SetInterruptMode, .-PWM_Organizer_SetInterruptMode
 462              		.section	.text.PWM_Organizer_ReadStatusRegister,"ax",%progbits
 463              		.align	2
 464              		.global	PWM_Organizer_ReadStatusRegister
 465              		.code	16
 466              		.thumb_func
 467              		.type	PWM_Organizer_ReadStatusRegister, %function
 468              	PWM_Organizer_ReadStatusRegister:
 469              	.LFB10:
 688:.\Generated_Source\PSoC4/PWM_Organizer.c **** 
 689:.\Generated_Source\PSoC4/PWM_Organizer.c **** 
 690:.\Generated_Source\PSoC4/PWM_Organizer.c ****     /*******************************************************************************
 691:.\Generated_Source\PSoC4/PWM_Organizer.c ****     * Function Name: PWM_Organizer_ReadStatusRegister
 692:.\Generated_Source\PSoC4/PWM_Organizer.c ****     ********************************************************************************
 693:.\Generated_Source\PSoC4/PWM_Organizer.c ****     *
 694:.\Generated_Source\PSoC4/PWM_Organizer.c ****     * Summary:
 695:.\Generated_Source\PSoC4/PWM_Organizer.c ****     *  This function returns the current state of the status register.
 696:.\Generated_Source\PSoC4/PWM_Organizer.c ****     *
 697:.\Generated_Source\PSoC4/PWM_Organizer.c ****     * Parameters:
 698:.\Generated_Source\PSoC4/PWM_Organizer.c ****     *  None
 699:.\Generated_Source\PSoC4/PWM_Organizer.c ****     *
 700:.\Generated_Source\PSoC4/PWM_Organizer.c ****     * Return:
 701:.\Generated_Source\PSoC4/PWM_Organizer.c ****     *  uint8 : Current status register value. The status register bits are:
 702:.\Generated_Source\PSoC4/PWM_Organizer.c ****     *  [7:6] : Unused(0)
 703:.\Generated_Source\PSoC4/PWM_Organizer.c ****     *  [5]   : Kill event output
 704:.\Generated_Source\PSoC4/PWM_Organizer.c ****     *  [4]   : FIFO not empty
 705:.\Generated_Source\PSoC4/PWM_Organizer.c ****     *  [3]   : FIFO full
 706:.\Generated_Source\PSoC4/PWM_Organizer.c ****     *  [2]   : Terminal count
 707:.\Generated_Source\PSoC4/PWM_Organizer.c ****     *  [1]   : Compare output 2
 708:.\Generated_Source\PSoC4/PWM_Organizer.c ****     *  [0]   : Compare output 1
 709:.\Generated_Source\PSoC4/PWM_Organizer.c ****     *
 710:.\Generated_Source\PSoC4/PWM_Organizer.c ****     *******************************************************************************/
 711:.\Generated_Source\PSoC4/PWM_Organizer.c ****     uint8 PWM_Organizer_ReadStatusRegister(void) 
 712:.\Generated_Source\PSoC4/PWM_Organizer.c ****     {
 470              		.loc 1 712 0
 471              		.cfi_startproc
 472 0000 80B5     		push	{r7, lr}
 473              		.cfi_def_cfa_offset 8
 474              		.cfi_offset 7, -8
 475              		.cfi_offset 14, -4
 476 0002 00AF     		add	r7, sp, #0
 477              		.cfi_def_cfa_register 7
 713:.\Generated_Source\PSoC4/PWM_Organizer.c ****         return (CY_GET_REG8(PWM_Organizer_STATUS_PTR));
 478              		.loc 1 713 0
 479 0004 024B     		ldr	r3, .L35
 480 0006 1B78     		ldrb	r3, [r3]
 481 0008 DBB2     		uxtb	r3, r3
 714:.\Generated_Source\PSoC4/PWM_Organizer.c ****     }
 482              		.loc 1 714 0
ARM GAS  C:\Users\Admin\AppData\Local\Temp\cc1vH8BS.s 			page 22


 483 000a 181C     		mov	r0, r3
 484 000c BD46     		mov	sp, r7
 485              		@ sp needed
 486 000e 80BD     		pop	{r7, pc}
 487              	.L36:
 488              		.align	2
 489              	.L35:
 490 0010 61000F40 		.word	1074724961
 491              		.cfi_endproc
 492              	.LFE10:
 493              		.size	PWM_Organizer_ReadStatusRegister, .-PWM_Organizer_ReadStatusRegister
 494              		.section	.text.PWM_Organizer_ReadControlRegister,"ax",%progbits
 495              		.align	2
 496              		.global	PWM_Organizer_ReadControlRegister
 497              		.code	16
 498              		.thumb_func
 499              		.type	PWM_Organizer_ReadControlRegister, %function
 500              	PWM_Organizer_ReadControlRegister:
 501              	.LFB11:
 715:.\Generated_Source\PSoC4/PWM_Organizer.c **** 
 716:.\Generated_Source\PSoC4/PWM_Organizer.c **** #endif /* (PWM_Organizer_UseStatus || PWM_Organizer_UsingFixedFunction) */
 717:.\Generated_Source\PSoC4/PWM_Organizer.c **** 
 718:.\Generated_Source\PSoC4/PWM_Organizer.c **** 
 719:.\Generated_Source\PSoC4/PWM_Organizer.c **** #if (PWM_Organizer_UseControl)
 720:.\Generated_Source\PSoC4/PWM_Organizer.c **** 
 721:.\Generated_Source\PSoC4/PWM_Organizer.c **** 
 722:.\Generated_Source\PSoC4/PWM_Organizer.c ****     /*******************************************************************************
 723:.\Generated_Source\PSoC4/PWM_Organizer.c ****     * Function Name: PWM_Organizer_ReadControlRegister
 724:.\Generated_Source\PSoC4/PWM_Organizer.c ****     ********************************************************************************
 725:.\Generated_Source\PSoC4/PWM_Organizer.c ****     *
 726:.\Generated_Source\PSoC4/PWM_Organizer.c ****     * Summary:
 727:.\Generated_Source\PSoC4/PWM_Organizer.c ****     *  Returns the current state of the control register. This API is available
 728:.\Generated_Source\PSoC4/PWM_Organizer.c ****     *  only if the control register is not removed.
 729:.\Generated_Source\PSoC4/PWM_Organizer.c ****     *
 730:.\Generated_Source\PSoC4/PWM_Organizer.c ****     * Parameters:
 731:.\Generated_Source\PSoC4/PWM_Organizer.c ****     *  None
 732:.\Generated_Source\PSoC4/PWM_Organizer.c ****     *
 733:.\Generated_Source\PSoC4/PWM_Organizer.c ****     * Return:
 734:.\Generated_Source\PSoC4/PWM_Organizer.c ****     *  uint8 : Current control register value
 735:.\Generated_Source\PSoC4/PWM_Organizer.c ****     *
 736:.\Generated_Source\PSoC4/PWM_Organizer.c ****     *******************************************************************************/
 737:.\Generated_Source\PSoC4/PWM_Organizer.c ****     uint8 PWM_Organizer_ReadControlRegister(void) 
 738:.\Generated_Source\PSoC4/PWM_Organizer.c ****     {
 502              		.loc 1 738 0
 503              		.cfi_startproc
 504 0000 80B5     		push	{r7, lr}
 505              		.cfi_def_cfa_offset 8
 506              		.cfi_offset 7, -8
 507              		.cfi_offset 14, -4
 508 0002 82B0     		sub	sp, sp, #8
 509              		.cfi_def_cfa_offset 16
 510 0004 00AF     		add	r7, sp, #0
 511              		.cfi_def_cfa_register 7
 739:.\Generated_Source\PSoC4/PWM_Organizer.c ****         uint8 result;
 740:.\Generated_Source\PSoC4/PWM_Organizer.c **** 
 741:.\Generated_Source\PSoC4/PWM_Organizer.c ****         result = CY_GET_REG8(PWM_Organizer_CONTROL_PTR);
 512              		.loc 1 741 0
ARM GAS  C:\Users\Admin\AppData\Local\Temp\cc1vH8BS.s 			page 23


 513 0006 054A     		ldr	r2, .L39
 514 0008 FB1D     		add	r3, r7, #7
 515 000a 1278     		ldrb	r2, [r2]
 516 000c 1A70     		strb	r2, [r3]
 742:.\Generated_Source\PSoC4/PWM_Organizer.c ****         return (result);
 517              		.loc 1 742 0
 518 000e FB1D     		add	r3, r7, #7
 519 0010 1B78     		ldrb	r3, [r3]
 743:.\Generated_Source\PSoC4/PWM_Organizer.c ****     }
 520              		.loc 1 743 0
 521 0012 181C     		mov	r0, r3
 522 0014 BD46     		mov	sp, r7
 523 0016 02B0     		add	sp, sp, #8
 524              		@ sp needed
 525 0018 80BD     		pop	{r7, pc}
 526              	.L40:
 527 001a C046     		.align	2
 528              	.L39:
 529 001c 70000F40 		.word	1074724976
 530              		.cfi_endproc
 531              	.LFE11:
 532              		.size	PWM_Organizer_ReadControlRegister, .-PWM_Organizer_ReadControlRegister
 533              		.section	.text.PWM_Organizer_WriteControlRegister,"ax",%progbits
 534              		.align	2
 535              		.global	PWM_Organizer_WriteControlRegister
 536              		.code	16
 537              		.thumb_func
 538              		.type	PWM_Organizer_WriteControlRegister, %function
 539              	PWM_Organizer_WriteControlRegister:
 540              	.LFB12:
 744:.\Generated_Source\PSoC4/PWM_Organizer.c **** 
 745:.\Generated_Source\PSoC4/PWM_Organizer.c **** 
 746:.\Generated_Source\PSoC4/PWM_Organizer.c ****     /*******************************************************************************
 747:.\Generated_Source\PSoC4/PWM_Organizer.c ****     * Function Name: PWM_Organizer_WriteControlRegister
 748:.\Generated_Source\PSoC4/PWM_Organizer.c ****     ********************************************************************************
 749:.\Generated_Source\PSoC4/PWM_Organizer.c ****     *
 750:.\Generated_Source\PSoC4/PWM_Organizer.c ****     * Summary:
 751:.\Generated_Source\PSoC4/PWM_Organizer.c ****     *  Sets the bit field of the control register. This API is available only if
 752:.\Generated_Source\PSoC4/PWM_Organizer.c ****     *  the control register is not removed.
 753:.\Generated_Source\PSoC4/PWM_Organizer.c ****     *
 754:.\Generated_Source\PSoC4/PWM_Organizer.c ****     * Parameters:
 755:.\Generated_Source\PSoC4/PWM_Organizer.c ****     *  uint8 control: Control register bit field, The status register bits are:
 756:.\Generated_Source\PSoC4/PWM_Organizer.c ****     *  [7]   : PWM Enable
 757:.\Generated_Source\PSoC4/PWM_Organizer.c ****     *  [6]   : Reset
 758:.\Generated_Source\PSoC4/PWM_Organizer.c ****     *  [5:3] : Compare Mode2
 759:.\Generated_Source\PSoC4/PWM_Organizer.c ****     *  [2:0] : Compare Mode2
 760:.\Generated_Source\PSoC4/PWM_Organizer.c ****     *
 761:.\Generated_Source\PSoC4/PWM_Organizer.c ****     * Return:
 762:.\Generated_Source\PSoC4/PWM_Organizer.c ****     *  None
 763:.\Generated_Source\PSoC4/PWM_Organizer.c ****     *
 764:.\Generated_Source\PSoC4/PWM_Organizer.c ****     *******************************************************************************/
 765:.\Generated_Source\PSoC4/PWM_Organizer.c ****     void PWM_Organizer_WriteControlRegister(uint8 control) 
 766:.\Generated_Source\PSoC4/PWM_Organizer.c ****     {
 541              		.loc 1 766 0
 542              		.cfi_startproc
 543 0000 80B5     		push	{r7, lr}
 544              		.cfi_def_cfa_offset 8
ARM GAS  C:\Users\Admin\AppData\Local\Temp\cc1vH8BS.s 			page 24


 545              		.cfi_offset 7, -8
 546              		.cfi_offset 14, -4
 547 0002 82B0     		sub	sp, sp, #8
 548              		.cfi_def_cfa_offset 16
 549 0004 00AF     		add	r7, sp, #0
 550              		.cfi_def_cfa_register 7
 551 0006 021C     		mov	r2, r0
 552 0008 FB1D     		add	r3, r7, #7
 553 000a 1A70     		strb	r2, [r3]
 767:.\Generated_Source\PSoC4/PWM_Organizer.c ****         CY_SET_REG8(PWM_Organizer_CONTROL_PTR, control);
 554              		.loc 1 767 0
 555 000c 034B     		ldr	r3, .L42
 556 000e FA1D     		add	r2, r7, #7
 557 0010 1278     		ldrb	r2, [r2]
 558 0012 1A70     		strb	r2, [r3]
 768:.\Generated_Source\PSoC4/PWM_Organizer.c ****     }
 559              		.loc 1 768 0
 560 0014 BD46     		mov	sp, r7
 561 0016 02B0     		add	sp, sp, #8
 562              		@ sp needed
 563 0018 80BD     		pop	{r7, pc}
 564              	.L43:
 565 001a C046     		.align	2
 566              	.L42:
 567 001c 70000F40 		.word	1074724976
 568              		.cfi_endproc
 569              	.LFE12:
 570              		.size	PWM_Organizer_WriteControlRegister, .-PWM_Organizer_WriteControlRegister
 571              		.section	.text.PWM_Organizer_ReadCapture,"ax",%progbits
 572              		.align	2
 573              		.global	PWM_Organizer_ReadCapture
 574              		.code	16
 575              		.thumb_func
 576              		.type	PWM_Organizer_ReadCapture, %function
 577              	PWM_Organizer_ReadCapture:
 578              	.LFB13:
 769:.\Generated_Source\PSoC4/PWM_Organizer.c **** 
 770:.\Generated_Source\PSoC4/PWM_Organizer.c **** #endif /* (PWM_Organizer_UseControl) */
 771:.\Generated_Source\PSoC4/PWM_Organizer.c **** 
 772:.\Generated_Source\PSoC4/PWM_Organizer.c **** 
 773:.\Generated_Source\PSoC4/PWM_Organizer.c **** #if (!PWM_Organizer_UsingFixedFunction)
 774:.\Generated_Source\PSoC4/PWM_Organizer.c **** 
 775:.\Generated_Source\PSoC4/PWM_Organizer.c **** 
 776:.\Generated_Source\PSoC4/PWM_Organizer.c ****     /*******************************************************************************
 777:.\Generated_Source\PSoC4/PWM_Organizer.c ****     * Function Name: PWM_Organizer_ReadCapture
 778:.\Generated_Source\PSoC4/PWM_Organizer.c ****     ********************************************************************************
 779:.\Generated_Source\PSoC4/PWM_Organizer.c ****     *
 780:.\Generated_Source\PSoC4/PWM_Organizer.c ****     * Summary:
 781:.\Generated_Source\PSoC4/PWM_Organizer.c ****     *  Reads the capture value from the capture FIFO.
 782:.\Generated_Source\PSoC4/PWM_Organizer.c ****     *
 783:.\Generated_Source\PSoC4/PWM_Organizer.c ****     * Parameters:
 784:.\Generated_Source\PSoC4/PWM_Organizer.c ****     *  None
 785:.\Generated_Source\PSoC4/PWM_Organizer.c ****     *
 786:.\Generated_Source\PSoC4/PWM_Organizer.c ****     * Return:
 787:.\Generated_Source\PSoC4/PWM_Organizer.c ****     *  uint8/uint16: The current capture value
 788:.\Generated_Source\PSoC4/PWM_Organizer.c ****     *
 789:.\Generated_Source\PSoC4/PWM_Organizer.c ****     *******************************************************************************/
ARM GAS  C:\Users\Admin\AppData\Local\Temp\cc1vH8BS.s 			page 25


 790:.\Generated_Source\PSoC4/PWM_Organizer.c ****     uint16 PWM_Organizer_ReadCapture(void) 
 791:.\Generated_Source\PSoC4/PWM_Organizer.c ****     {
 579              		.loc 1 791 0
 580              		.cfi_startproc
 581 0000 80B5     		push	{r7, lr}
 582              		.cfi_def_cfa_offset 8
 583              		.cfi_offset 7, -8
 584              		.cfi_offset 14, -4
 585 0002 00AF     		add	r7, sp, #0
 586              		.cfi_def_cfa_register 7
 792:.\Generated_Source\PSoC4/PWM_Organizer.c ****         return (CY_GET_REG16(PWM_Organizer_CAPTURE_LSB_PTR));
 587              		.loc 1 792 0
 588 0004 024B     		ldr	r3, .L46
 589 0006 1B88     		ldrh	r3, [r3]
 590 0008 9BB2     		uxth	r3, r3
 793:.\Generated_Source\PSoC4/PWM_Organizer.c ****     }
 591              		.loc 1 793 0
 592 000a 181C     		mov	r0, r3
 593 000c BD46     		mov	sp, r7
 594              		@ sp needed
 595 000e 80BD     		pop	{r7, pc}
 596              	.L47:
 597              		.align	2
 598              	.L46:
 599 0010 A0100F40 		.word	1074729120
 600              		.cfi_endproc
 601              	.LFE13:
 602              		.size	PWM_Organizer_ReadCapture, .-PWM_Organizer_ReadCapture
 603              		.section	.text.PWM_Organizer_ReadCompare,"ax",%progbits
 604              		.align	2
 605              		.global	PWM_Organizer_ReadCompare
 606              		.code	16
 607              		.thumb_func
 608              		.type	PWM_Organizer_ReadCompare, %function
 609              	PWM_Organizer_ReadCompare:
 610              	.LFB14:
 794:.\Generated_Source\PSoC4/PWM_Organizer.c **** 
 795:.\Generated_Source\PSoC4/PWM_Organizer.c **** #endif /* (!PWM_Organizer_UsingFixedFunction) */
 796:.\Generated_Source\PSoC4/PWM_Organizer.c **** 
 797:.\Generated_Source\PSoC4/PWM_Organizer.c **** 
 798:.\Generated_Source\PSoC4/PWM_Organizer.c **** #if (PWM_Organizer_UseOneCompareMode)
 799:.\Generated_Source\PSoC4/PWM_Organizer.c **** 
 800:.\Generated_Source\PSoC4/PWM_Organizer.c **** 
 801:.\Generated_Source\PSoC4/PWM_Organizer.c ****     /*******************************************************************************
 802:.\Generated_Source\PSoC4/PWM_Organizer.c ****     * Function Name: PWM_Organizer_ReadCompare
 803:.\Generated_Source\PSoC4/PWM_Organizer.c ****     ********************************************************************************
 804:.\Generated_Source\PSoC4/PWM_Organizer.c ****     *
 805:.\Generated_Source\PSoC4/PWM_Organizer.c ****     * Summary:
 806:.\Generated_Source\PSoC4/PWM_Organizer.c ****     *  Reads the compare value for the compare output when the PWM Mode parameter is
 807:.\Generated_Source\PSoC4/PWM_Organizer.c ****     *  set to Dither mode, Center Aligned mode, or One Output mode.
 808:.\Generated_Source\PSoC4/PWM_Organizer.c ****     *
 809:.\Generated_Source\PSoC4/PWM_Organizer.c ****     * Parameters:
 810:.\Generated_Source\PSoC4/PWM_Organizer.c ****     *  None
 811:.\Generated_Source\PSoC4/PWM_Organizer.c ****     *
 812:.\Generated_Source\PSoC4/PWM_Organizer.c ****     * Return:
 813:.\Generated_Source\PSoC4/PWM_Organizer.c ****     *  uint8/uint16: Current compare value
 814:.\Generated_Source\PSoC4/PWM_Organizer.c ****     *
ARM GAS  C:\Users\Admin\AppData\Local\Temp\cc1vH8BS.s 			page 26


 815:.\Generated_Source\PSoC4/PWM_Organizer.c ****     *******************************************************************************/
 816:.\Generated_Source\PSoC4/PWM_Organizer.c ****     uint16 PWM_Organizer_ReadCompare(void) 
 817:.\Generated_Source\PSoC4/PWM_Organizer.c ****     {
 611              		.loc 1 817 0
 612              		.cfi_startproc
 613 0000 80B5     		push	{r7, lr}
 614              		.cfi_def_cfa_offset 8
 615              		.cfi_offset 7, -8
 616              		.cfi_offset 14, -4
 617 0002 00AF     		add	r7, sp, #0
 618              		.cfi_def_cfa_register 7
 818:.\Generated_Source\PSoC4/PWM_Organizer.c ****         #if(PWM_Organizer_UsingFixedFunction)
 819:.\Generated_Source\PSoC4/PWM_Organizer.c ****             return ((uint16)CY_GET_REG16(PWM_Organizer_COMPARE1_LSB_PTR));
 820:.\Generated_Source\PSoC4/PWM_Organizer.c ****         #else
 821:.\Generated_Source\PSoC4/PWM_Organizer.c ****             return (CY_GET_REG16(PWM_Organizer_COMPARE1_LSB_PTR));
 619              		.loc 1 821 0
 620 0004 024B     		ldr	r3, .L50
 621 0006 1B88     		ldrh	r3, [r3]
 622 0008 9BB2     		uxth	r3, r3
 822:.\Generated_Source\PSoC4/PWM_Organizer.c ****         #endif /* (PWM_Organizer_UsingFixedFunction) */
 823:.\Generated_Source\PSoC4/PWM_Organizer.c ****     }
 623              		.loc 1 823 0
 624 000a 181C     		mov	r0, r3
 625 000c BD46     		mov	sp, r7
 626              		@ sp needed
 627 000e 80BD     		pop	{r7, pc}
 628              	.L51:
 629              		.align	2
 630              	.L50:
 631 0010 40100F40 		.word	1074729024
 632              		.cfi_endproc
 633              	.LFE14:
 634              		.size	PWM_Organizer_ReadCompare, .-PWM_Organizer_ReadCompare
 635              		.section	.text.PWM_Organizer_ReadPeriod,"ax",%progbits
 636              		.align	2
 637              		.global	PWM_Organizer_ReadPeriod
 638              		.code	16
 639              		.thumb_func
 640              		.type	PWM_Organizer_ReadPeriod, %function
 641              	PWM_Organizer_ReadPeriod:
 642              	.LFB15:
 824:.\Generated_Source\PSoC4/PWM_Organizer.c **** 
 825:.\Generated_Source\PSoC4/PWM_Organizer.c **** #else
 826:.\Generated_Source\PSoC4/PWM_Organizer.c **** 
 827:.\Generated_Source\PSoC4/PWM_Organizer.c **** 
 828:.\Generated_Source\PSoC4/PWM_Organizer.c ****     /*******************************************************************************
 829:.\Generated_Source\PSoC4/PWM_Organizer.c ****     * Function Name: PWM_Organizer_ReadCompare1
 830:.\Generated_Source\PSoC4/PWM_Organizer.c ****     ********************************************************************************
 831:.\Generated_Source\PSoC4/PWM_Organizer.c ****     *
 832:.\Generated_Source\PSoC4/PWM_Organizer.c ****     * Summary:
 833:.\Generated_Source\PSoC4/PWM_Organizer.c ****     *  Reads the compare value for the compare1 output.
 834:.\Generated_Source\PSoC4/PWM_Organizer.c ****     *
 835:.\Generated_Source\PSoC4/PWM_Organizer.c ****     * Parameters:
 836:.\Generated_Source\PSoC4/PWM_Organizer.c ****     *  None
 837:.\Generated_Source\PSoC4/PWM_Organizer.c ****     *
 838:.\Generated_Source\PSoC4/PWM_Organizer.c ****     * Return:
 839:.\Generated_Source\PSoC4/PWM_Organizer.c ****     *  uint8/uint16: Current compare value.
ARM GAS  C:\Users\Admin\AppData\Local\Temp\cc1vH8BS.s 			page 27


 840:.\Generated_Source\PSoC4/PWM_Organizer.c ****     *
 841:.\Generated_Source\PSoC4/PWM_Organizer.c ****     *******************************************************************************/
 842:.\Generated_Source\PSoC4/PWM_Organizer.c ****     uint16 PWM_Organizer_ReadCompare1(void) 
 843:.\Generated_Source\PSoC4/PWM_Organizer.c ****     {
 844:.\Generated_Source\PSoC4/PWM_Organizer.c ****         return (CY_GET_REG16(PWM_Organizer_COMPARE1_LSB_PTR));
 845:.\Generated_Source\PSoC4/PWM_Organizer.c ****     }
 846:.\Generated_Source\PSoC4/PWM_Organizer.c **** 
 847:.\Generated_Source\PSoC4/PWM_Organizer.c **** 
 848:.\Generated_Source\PSoC4/PWM_Organizer.c ****     /*******************************************************************************
 849:.\Generated_Source\PSoC4/PWM_Organizer.c ****     * Function Name: PWM_Organizer_ReadCompare2
 850:.\Generated_Source\PSoC4/PWM_Organizer.c ****     ********************************************************************************
 851:.\Generated_Source\PSoC4/PWM_Organizer.c ****     *
 852:.\Generated_Source\PSoC4/PWM_Organizer.c ****     * Summary:
 853:.\Generated_Source\PSoC4/PWM_Organizer.c ****     *  Reads the compare value for the compare2 output.
 854:.\Generated_Source\PSoC4/PWM_Organizer.c ****     *
 855:.\Generated_Source\PSoC4/PWM_Organizer.c ****     * Parameters:
 856:.\Generated_Source\PSoC4/PWM_Organizer.c ****     *  None
 857:.\Generated_Source\PSoC4/PWM_Organizer.c ****     *
 858:.\Generated_Source\PSoC4/PWM_Organizer.c ****     * Return:
 859:.\Generated_Source\PSoC4/PWM_Organizer.c ****     *  uint8/uint16: Current compare value.
 860:.\Generated_Source\PSoC4/PWM_Organizer.c ****     *
 861:.\Generated_Source\PSoC4/PWM_Organizer.c ****     *******************************************************************************/
 862:.\Generated_Source\PSoC4/PWM_Organizer.c ****     uint16 PWM_Organizer_ReadCompare2(void) 
 863:.\Generated_Source\PSoC4/PWM_Organizer.c ****     {
 864:.\Generated_Source\PSoC4/PWM_Organizer.c ****         return (CY_GET_REG16(PWM_Organizer_COMPARE2_LSB_PTR));
 865:.\Generated_Source\PSoC4/PWM_Organizer.c ****     }
 866:.\Generated_Source\PSoC4/PWM_Organizer.c **** 
 867:.\Generated_Source\PSoC4/PWM_Organizer.c **** #endif /* (PWM_Organizer_UseOneCompareMode) */
 868:.\Generated_Source\PSoC4/PWM_Organizer.c **** 
 869:.\Generated_Source\PSoC4/PWM_Organizer.c **** 
 870:.\Generated_Source\PSoC4/PWM_Organizer.c **** /*******************************************************************************
 871:.\Generated_Source\PSoC4/PWM_Organizer.c **** * Function Name: PWM_Organizer_ReadPeriod
 872:.\Generated_Source\PSoC4/PWM_Organizer.c **** ********************************************************************************
 873:.\Generated_Source\PSoC4/PWM_Organizer.c **** *
 874:.\Generated_Source\PSoC4/PWM_Organizer.c **** * Summary:
 875:.\Generated_Source\PSoC4/PWM_Organizer.c **** *  Reads the period value used by the PWM hardware.
 876:.\Generated_Source\PSoC4/PWM_Organizer.c **** *
 877:.\Generated_Source\PSoC4/PWM_Organizer.c **** * Parameters:
 878:.\Generated_Source\PSoC4/PWM_Organizer.c **** *  None
 879:.\Generated_Source\PSoC4/PWM_Organizer.c **** *
 880:.\Generated_Source\PSoC4/PWM_Organizer.c **** * Return:
 881:.\Generated_Source\PSoC4/PWM_Organizer.c **** *  uint8/16: Period value
 882:.\Generated_Source\PSoC4/PWM_Organizer.c **** *
 883:.\Generated_Source\PSoC4/PWM_Organizer.c **** *******************************************************************************/
 884:.\Generated_Source\PSoC4/PWM_Organizer.c **** uint16 PWM_Organizer_ReadPeriod(void) 
 885:.\Generated_Source\PSoC4/PWM_Organizer.c **** {
 643              		.loc 1 885 0
 644              		.cfi_startproc
 645 0000 80B5     		push	{r7, lr}
 646              		.cfi_def_cfa_offset 8
 647              		.cfi_offset 7, -8
 648              		.cfi_offset 14, -4
 649 0002 00AF     		add	r7, sp, #0
 650              		.cfi_def_cfa_register 7
 886:.\Generated_Source\PSoC4/PWM_Organizer.c ****     #if(PWM_Organizer_UsingFixedFunction)
 887:.\Generated_Source\PSoC4/PWM_Organizer.c ****         return ((uint16)CY_GET_REG16(PWM_Organizer_PERIOD_LSB_PTR));
 888:.\Generated_Source\PSoC4/PWM_Organizer.c ****     #else
ARM GAS  C:\Users\Admin\AppData\Local\Temp\cc1vH8BS.s 			page 28


 889:.\Generated_Source\PSoC4/PWM_Organizer.c ****         return (CY_GET_REG16(PWM_Organizer_PERIOD_LSB_PTR));
 651              		.loc 1 889 0
 652 0004 024B     		ldr	r3, .L54
 653 0006 1B88     		ldrh	r3, [r3]
 654 0008 9BB2     		uxth	r3, r3
 890:.\Generated_Source\PSoC4/PWM_Organizer.c ****     #endif /* (PWM_Organizer_UsingFixedFunction) */
 891:.\Generated_Source\PSoC4/PWM_Organizer.c **** }
 655              		.loc 1 891 0
 656 000a 181C     		mov	r0, r3
 657 000c BD46     		mov	sp, r7
 658              		@ sp needed
 659 000e 80BD     		pop	{r7, pc}
 660              	.L55:
 661              		.align	2
 662              	.L54:
 663 0010 80100F40 		.word	1074729088
 664              		.cfi_endproc
 665              	.LFE15:
 666              		.size	PWM_Organizer_ReadPeriod, .-PWM_Organizer_ReadPeriod
 667              		.text
 668              	.Letext0:
 669              		.file 2 ".\\Generated_Source\\PSoC4\\cytypes.h"