ARM GAS  C:\Users\Admin\AppData\Local\Temp\ccLQsfrR.s 			page 1


   1              		.cpu cortex-m0
   2              		.fpu softvfp
   3              		.eabi_attribute 20, 1
   4              		.eabi_attribute 21, 1
   5              		.eabi_attribute 23, 3
   6              		.eabi_attribute 24, 1
   7              		.eabi_attribute 25, 1
   8              		.eabi_attribute 26, 1
   9              		.eabi_attribute 30, 4
  10              		.eabi_attribute 34, 0
  11              		.eabi_attribute 18, 4
  12              		.code	16
  13              		.file	"binary.c"
  14              		.text
  15              	.Ltext0:
  16              		.cfi_sections	.debug_frame
  17              		.section	.text.blink_zero,"ax",%progbits
  18              		.align	1
  19              		.global	blink_zero
  20              		.code	16
  21              		.thumb_func
  22              		.type	blink_zero, %function
  23              	blink_zero:
  24              	.LFB33:
  25              		.file 1 ".\\binary.c"
   1:.\binary.c    **** /* ========================================
   2:.\binary.c    ****  *
   3:.\binary.c    ****  * Copyright Nullify, 2016
   4:.\binary.c    ****  * All Rights Reserved
   5:.\binary.c    ****  * UNPUBLISHED, LICENSED SOFTWARE.
   6:.\binary.c    ****  *
   7:.\binary.c    ****  * CONFIDENTIAL AND PROPRIETARY INFORMATION
   8:.\binary.c    ****  * WHICH IS THE PROPERTY OF NULLIY.
   9:.\binary.c    ****  *
  10:.\binary.c    ****  * ========================================
  11:.\binary.c    **** */
  12:.\binary.c    **** #include <project.h>
  13:.\binary.c    **** #include <string.h>
  14:.\binary.c    **** #include "lightlib.h"
  15:.\binary.c    **** #include "binary.h"
  16:.\binary.c    **** 
  17:.\binary.c    **** void blink_zero(void) {
  26              		.loc 1 17 0
  27              		.cfi_startproc
  28 0000 10B5     		push	{r4, lr}
  29              		.cfi_def_cfa_offset 8
  30              		.cfi_offset 4, -8
  31              		.cfi_offset 14, -4
  18:.\binary.c    ****     turn_on(LEFT_LED);
  19:.\binary.c    ****     CyDelay(BLINK_DELAY_ON);
  32              		.loc 1 19 0
  33 0002 FA24     		mov	r4, #250
  34 0004 6400     		lsl	r4, r4, #1
  18:.\binary.c    ****     turn_on(LEFT_LED);
  35              		.loc 1 18 0
  36 0006 0120     		mov	r0, #1
  37 0008 FFF7FEFF 		bl	turn_on
ARM GAS  C:\Users\Admin\AppData\Local\Temp\ccLQsfrR.s 			page 2


  38              	.LVL0:
  39              		.loc 1 19 0
  40 000c 201C     		mov	r0, r4
  41 000e FFF7FEFF 		bl	CyDelay
  42              	.LVL1:
  20:.\binary.c    ****     turn_off(LEFT_LED);
  43              		.loc 1 20 0
  44 0012 0120     		mov	r0, #1
  45 0014 FFF7FEFF 		bl	turn_off
  46              	.LVL2:
  21:.\binary.c    ****     CyDelay(BLINK_DELAY_OFF);
  47              		.loc 1 21 0
  48 0018 201C     		mov	r0, r4
  49 001a FFF7FEFF 		bl	CyDelay
  50              	.LVL3:
  22:.\binary.c    **** }
  51              		.loc 1 22 0
  52              		@ sp needed
  53 001e 10BD     		pop	{r4, pc}
  54              		.cfi_endproc
  55              	.LFE33:
  56              		.size	blink_zero, .-blink_zero
  57              		.section	.text.blink_one,"ax",%progbits
  58              		.align	1
  59              		.global	blink_one
  60              		.code	16
  61              		.thumb_func
  62              		.type	blink_one, %function
  63              	blink_one:
  64              	.LFB34:
  23:.\binary.c    **** 
  24:.\binary.c    **** void blink_one(void) {
  65              		.loc 1 24 0
  66              		.cfi_startproc
  67 0000 10B5     		push	{r4, lr}
  68              		.cfi_def_cfa_offset 8
  69              		.cfi_offset 4, -8
  70              		.cfi_offset 14, -4
  25:.\binary.c    ****     turn_on(RIGHT_LED);
  26:.\binary.c    ****     CyDelay(BLINK_DELAY_ON);
  71              		.loc 1 26 0
  72 0002 FA24     		mov	r4, #250
  73 0004 6400     		lsl	r4, r4, #1
  25:.\binary.c    ****     turn_on(RIGHT_LED);
  74              		.loc 1 25 0
  75 0006 0220     		mov	r0, #2
  76 0008 FFF7FEFF 		bl	turn_on
  77              	.LVL4:
  78              		.loc 1 26 0
  79 000c 201C     		mov	r0, r4
  80 000e FFF7FEFF 		bl	CyDelay
  81              	.LVL5:
  27:.\binary.c    ****     turn_off(RIGHT_LED);
  82              		.loc 1 27 0
  83 0012 0220     		mov	r0, #2
  84 0014 FFF7FEFF 		bl	turn_off
  85              	.LVL6:
ARM GAS  C:\Users\Admin\AppData\Local\Temp\ccLQsfrR.s 			page 3


  28:.\binary.c    ****     CyDelay(BLINK_DELAY_OFF);
  86              		.loc 1 28 0
  87 0018 201C     		mov	r0, r4
  88 001a FFF7FEFF 		bl	CyDelay
  89              	.LVL7:
  29:.\binary.c    **** }
  90              		.loc 1 29 0
  91              		@ sp needed
  92 001e 10BD     		pop	{r4, pc}
  93              		.cfi_endproc
  94              	.LFE34:
  95              		.size	blink_one, .-blink_one
  96              		.section	.text.new_message,"ax",%progbits
  97              		.align	1
  98              		.global	new_message
  99              		.code	16
 100              		.thumb_func
 101              		.type	new_message, %function
 102              	new_message:
 103              	.LFB35:
  30:.\binary.c    **** 
  31:.\binary.c    **** void new_message(void) {
 104              		.loc 1 31 0
 105              		.cfi_startproc
 106 0000 10B5     		push	{r4, lr}
 107              		.cfi_def_cfa_offset 8
 108              		.cfi_offset 4, -8
 109              		.cfi_offset 14, -4
  32:.\binary.c    ****     unsigned int i;
  33:.\binary.c    ****     set_color(LEFT_RIGHT_LED, WHITE);
 110              		.loc 1 33 0
 111 0002 0320     		mov	r0, #3
 112 0004 0721     		mov	r1, #7
 113 0006 FFF7FEFF 		bl	set_color
 114              	.LVL8:
 115 000a 0524     		mov	r4, #5
 116              	.LVL9:
 117              	.L5:
  34:.\binary.c    ****     for (i=0; i<NEW_MESSAGE_NUMBER; i++) {
  35:.\binary.c    ****        turn_on(LEFT_RIGHT_LED);
 118              		.loc 1 35 0 discriminator 2
 119 000c 0320     		mov	r0, #3
 120 000e FFF7FEFF 		bl	turn_on
 121              	.LVL10:
  36:.\binary.c    ****        CyDelay(RESET_DELAY);
 122              		.loc 1 36 0 discriminator 2
 123 0012 FA20     		mov	r0, #250
 124 0014 FFF7FEFF 		bl	CyDelay
 125              	.LVL11:
  37:.\binary.c    ****        turn_off(LEFT_RIGHT_LED);
 126              		.loc 1 37 0 discriminator 2
 127 0018 0320     		mov	r0, #3
 128 001a FFF7FEFF 		bl	turn_off
 129              	.LVL12:
 130 001e 013C     		sub	r4, r4, #1
 131              	.LVL13:
  38:.\binary.c    ****        CyDelay(RESET_DELAY);
ARM GAS  C:\Users\Admin\AppData\Local\Temp\ccLQsfrR.s 			page 4


 132              		.loc 1 38 0 discriminator 2
 133 0020 FA20     		mov	r0, #250
 134 0022 FFF7FEFF 		bl	CyDelay
 135              	.LVL14:
  34:.\binary.c    ****     for (i=0; i<NEW_MESSAGE_NUMBER; i++) {
 136              		.loc 1 34 0 discriminator 2
 137 0026 002C     		cmp	r4, #0
 138 0028 F0D1     		bne	.L5
  39:.\binary.c    ****     }
  40:.\binary.c    ****     set_color(LEFT_RIGHT_LED, BLUE);
 139              		.loc 1 40 0
 140 002a 0320     		mov	r0, #3
 141 002c 0221     		mov	r1, #2
 142 002e FFF7FEFF 		bl	set_color
 143              	.LVL15:
  41:.\binary.c    **** }
 144              		.loc 1 41 0
 145              		@ sp needed
 146 0032 10BD     		pop	{r4, pc}
 147              		.cfi_endproc
 148              	.LFE35:
 149              		.size	new_message, .-new_message
 150              		.section	.text.binary_encode,"ax",%progbits
 151              		.align	1
 152              		.global	binary_encode
 153              		.code	16
 154              		.thumb_func
 155              		.type	binary_encode, %function
 156              	binary_encode:
 157              	.LFB36:
  42:.\binary.c    **** 
  43:.\binary.c    **** void binary_encode(char c){
 158              		.loc 1 43 0
 159              		.cfi_startproc
 160              	.LVL16:
  44:.\binary.c    **** 
  45:.\binary.c    ****     switch(c) {
 161              		.loc 1 45 0
 162 0000 3038     		sub	r0, r0, #48
 163              	.LVL17:
  43:.\binary.c    **** void binary_encode(char c){
 164              		.loc 1 43 0
 165 0002 08B5     		push	{r3, lr}
 166              		.cfi_def_cfa_offset 8
 167              		.cfi_offset 3, -8
 168              		.cfi_offset 14, -4
 169              		.loc 1 45 0
 170 0004 4A28     		cmp	r0, #74
 171 0006 00D9     		bls	.LCB113
 172 0008 B7E1     		b	.L7	@long jump
 173              	.LCB113:
 174 000a FFF7FEFF 		bl	__gnu_thumb1_case_uhi
 175              	.L10:
 176 000e 2D01     		.2byte	(.L9-.L10)/2
 177 0010 3801     		.2byte	(.L11-.L10)/2
 178 0012 4301     		.2byte	(.L12-.L10)/2
 179 0014 5001     		.2byte	(.L13-.L10)/2
ARM GAS  C:\Users\Admin\AppData\Local\Temp\ccLQsfrR.s 			page 5


 180 0016 5D01     		.2byte	(.L14-.L10)/2
 181 0018 6A01     		.2byte	(.L15-.L10)/2
 182 001a 7701     		.2byte	(.L16-.L10)/2
 183 001c 8601     		.2byte	(.L17-.L10)/2
 184 001e 9501     		.2byte	(.L18-.L10)/2
 185 0020 A601     		.2byte	(.L19-.L10)/2
 186 0022 B601     		.2byte	(.L7-.L10)/2
 187 0024 B601     		.2byte	(.L7-.L10)/2
 188 0026 B601     		.2byte	(.L7-.L10)/2
 189 0028 B601     		.2byte	(.L7-.L10)/2
 190 002a B601     		.2byte	(.L7-.L10)/2
 191 002c B601     		.2byte	(.L7-.L10)/2
 192 002e B601     		.2byte	(.L7-.L10)/2
 193 0030 4B00     		.2byte	(.L20-.L10)/2
 194 0032 5400     		.2byte	(.L21-.L10)/2
 195 0034 5D00     		.2byte	(.L22-.L10)/2
 196 0036 6600     		.2byte	(.L23-.L10)/2
 197 0038 6F00     		.2byte	(.L24-.L10)/2
 198 003a 7800     		.2byte	(.L25-.L10)/2
 199 003c 8100     		.2byte	(.L26-.L10)/2
 200 003e 8A00     		.2byte	(.L27-.L10)/2
 201 0040 9300     		.2byte	(.L28-.L10)/2
 202 0042 9C00     		.2byte	(.L29-.L10)/2
 203 0044 A500     		.2byte	(.L30-.L10)/2
 204 0046 B000     		.2byte	(.L31-.L10)/2
 205 0048 BB00     		.2byte	(.L32-.L10)/2
 206 004a C600     		.2byte	(.L33-.L10)/2
 207 004c D100     		.2byte	(.L34-.L10)/2
 208 004e DC00     		.2byte	(.L35-.L10)/2
 209 0050 E300     		.2byte	(.L36-.L10)/2
 210 0052 EA00     		.2byte	(.L37-.L10)/2
 211 0054 F100     		.2byte	(.L38-.L10)/2
 212 0056 F800     		.2byte	(.L39-.L10)/2
 213 0058 FF00     		.2byte	(.L40-.L10)/2
 214 005a 0601     		.2byte	(.L41-.L10)/2
 215 005c 0D01     		.2byte	(.L42-.L10)/2
 216 005e 1401     		.2byte	(.L43-.L10)/2
 217 0060 1B01     		.2byte	(.L44-.L10)/2
 218 0062 2201     		.2byte	(.L45-.L10)/2
 219 0064 B601     		.2byte	(.L7-.L10)/2
 220 0066 B601     		.2byte	(.L7-.L10)/2
 221 0068 B601     		.2byte	(.L7-.L10)/2
 222 006a B601     		.2byte	(.L7-.L10)/2
 223 006c B601     		.2byte	(.L7-.L10)/2
 224 006e B601     		.2byte	(.L7-.L10)/2
 225 0070 4B00     		.2byte	(.L20-.L10)/2
 226 0072 5400     		.2byte	(.L21-.L10)/2
 227 0074 5D00     		.2byte	(.L22-.L10)/2
 228 0076 6600     		.2byte	(.L23-.L10)/2
 229 0078 6F00     		.2byte	(.L24-.L10)/2
 230 007a 7800     		.2byte	(.L25-.L10)/2
 231 007c 8100     		.2byte	(.L26-.L10)/2
 232 007e 8A00     		.2byte	(.L27-.L10)/2
 233 0080 9300     		.2byte	(.L28-.L10)/2
 234 0082 9C00     		.2byte	(.L29-.L10)/2
 235 0084 A500     		.2byte	(.L30-.L10)/2
 236 0086 B000     		.2byte	(.L31-.L10)/2
ARM GAS  C:\Users\Admin\AppData\Local\Temp\ccLQsfrR.s 			page 6


 237 0088 BB00     		.2byte	(.L32-.L10)/2
 238 008a C600     		.2byte	(.L33-.L10)/2
 239 008c D100     		.2byte	(.L34-.L10)/2
 240 008e DC00     		.2byte	(.L35-.L10)/2
 241 0090 E300     		.2byte	(.L36-.L10)/2
 242 0092 EA00     		.2byte	(.L37-.L10)/2
 243 0094 F100     		.2byte	(.L38-.L10)/2
 244 0096 F800     		.2byte	(.L39-.L10)/2
 245 0098 FF00     		.2byte	(.L40-.L10)/2
 246 009a 0601     		.2byte	(.L41-.L10)/2
 247 009c 0D01     		.2byte	(.L42-.L10)/2
 248 009e 1401     		.2byte	(.L43-.L10)/2
 249 00a0 1B01     		.2byte	(.L44-.L10)/2
 250 00a2 2201     		.2byte	(.L45-.L10)/2
 251              		.p2align 1
 252              	.L20:
  46:.\binary.c    ****       case 'A':
  47:.\binary.c    ****       case 'a':
  48:.\binary.c    ****         blink_zero();
 253              		.loc 1 48 0
 254 00a4 FFF7FEFF 		bl	blink_zero
 255              	.LVL18:
  49:.\binary.c    ****         blink_one();
 256              		.loc 1 49 0
 257 00a8 FFF7FEFF 		bl	blink_one
 258              	.LVL19:
  50:.\binary.c    ****         blink_zero();
 259              		.loc 1 50 0
 260 00ac FFF7FEFF 		bl	blink_zero
 261              	.LVL20:
  51:.\binary.c    ****         blink_zero();
 262              		.loc 1 51 0
 263 00b0 FFF7FEFF 		bl	blink_zero
 264              	.LVL21:
 265 00b4 EBE0     		b	.L64
 266              	.L21:
  52:.\binary.c    ****         blink_zero();
  53:.\binary.c    ****         blink_zero();
  54:.\binary.c    ****         blink_zero();
  55:.\binary.c    ****         blink_one();
  56:.\binary.c    ****         break;
  57:.\binary.c    ****       case 'B':
  58:.\binary.c    ****       case 'b':
  59:.\binary.c    ****         blink_zero();
 267              		.loc 1 59 0
 268 00b6 FFF7FEFF 		bl	blink_zero
 269              	.LVL22:
  60:.\binary.c    ****         blink_one();
 270              		.loc 1 60 0
 271 00ba FFF7FEFF 		bl	blink_one
 272              	.LVL23:
  61:.\binary.c    ****         blink_zero();
 273              		.loc 1 61 0
 274 00be FFF7FEFF 		bl	blink_zero
 275              	.LVL24:
  62:.\binary.c    ****         blink_zero();
 276              		.loc 1 62 0
ARM GAS  C:\Users\Admin\AppData\Local\Temp\ccLQsfrR.s 			page 7


 277 00c2 FFF7FEFF 		bl	blink_zero
 278              	.LVL25:
 279 00c6 EDE0     		b	.L73
 280              	.L22:
  63:.\binary.c    ****         blink_zero();
  64:.\binary.c    ****         blink_zero();
  65:.\binary.c    ****         blink_one();
  66:.\binary.c    ****         blink_zero();
  67:.\binary.c    ****         break;
  68:.\binary.c    ****       case 'C':
  69:.\binary.c    ****       case 'c':
  70:.\binary.c    ****         blink_zero();
 281              		.loc 1 70 0
 282 00c8 FFF7FEFF 		bl	blink_zero
 283              	.LVL26:
  71:.\binary.c    ****         blink_one();
 284              		.loc 1 71 0
 285 00cc FFF7FEFF 		bl	blink_one
 286              	.LVL27:
  72:.\binary.c    ****         blink_zero();
 287              		.loc 1 72 0
 288 00d0 FFF7FEFF 		bl	blink_zero
 289              	.LVL28:
  73:.\binary.c    ****         blink_zero();
 290              		.loc 1 73 0
 291 00d4 FFF7FEFF 		bl	blink_zero
 292              	.LVL29:
 293 00d8 F1E0     		b	.L76
 294              	.L23:
  74:.\binary.c    ****         blink_zero();
  75:.\binary.c    ****         blink_zero();
  76:.\binary.c    ****         blink_one();
  77:.\binary.c    ****         blink_one();
  78:.\binary.c    ****         break;
  79:.\binary.c    ****       case 'D':
  80:.\binary.c    ****       case 'd':
  81:.\binary.c    ****         blink_zero();
 295              		.loc 1 81 0
 296 00da FFF7FEFF 		bl	blink_zero
 297              	.LVL30:
  82:.\binary.c    ****         blink_one();
 298              		.loc 1 82 0
 299 00de FFF7FEFF 		bl	blink_one
 300              	.LVL31:
  83:.\binary.c    ****         blink_zero();
 301              		.loc 1 83 0
 302 00e2 FFF7FEFF 		bl	blink_zero
 303              	.LVL32:
  84:.\binary.c    ****         blink_zero();
 304              		.loc 1 84 0
 305 00e6 FFF7FEFF 		bl	blink_zero
 306              	.LVL33:
 307 00ea F5E0     		b	.L58
 308              	.L24:
  85:.\binary.c    ****         blink_zero();
  86:.\binary.c    ****         blink_one();
  87:.\binary.c    ****         blink_zero();
ARM GAS  C:\Users\Admin\AppData\Local\Temp\ccLQsfrR.s 			page 8


  88:.\binary.c    ****         blink_zero();
  89:.\binary.c    ****         break;
  90:.\binary.c    ****        case 'E':
  91:.\binary.c    ****        case 'e':
  92:.\binary.c    ****         blink_zero();
 309              		.loc 1 92 0
 310 00ec FFF7FEFF 		bl	blink_zero
 311              	.LVL34:
  93:.\binary.c    ****         blink_one();
 312              		.loc 1 93 0
 313 00f0 FFF7FEFF 		bl	blink_one
 314              	.LVL35:
  94:.\binary.c    ****         blink_zero();
 315              		.loc 1 94 0
 316 00f4 FFF7FEFF 		bl	blink_zero
 317              	.LVL36:
  95:.\binary.c    ****         blink_zero();
 318              		.loc 1 95 0
 319 00f8 FFF7FEFF 		bl	blink_zero
 320              	.LVL37:
 321 00fc F9E0     		b	.L67
 322              	.L25:
  96:.\binary.c    ****         blink_zero();
  97:.\binary.c    ****         blink_one();
  98:.\binary.c    ****         blink_zero();
  99:.\binary.c    ****         blink_one();
 100:.\binary.c    ****         break;
 101:.\binary.c    ****        case 'F':
 102:.\binary.c    ****        case 'f':
 103:.\binary.c    ****         blink_zero();
 323              		.loc 1 103 0
 324 00fe FFF7FEFF 		bl	blink_zero
 325              	.LVL38:
 104:.\binary.c    ****         blink_one();
 326              		.loc 1 104 0
 327 0102 FFF7FEFF 		bl	blink_one
 328              	.LVL39:
 105:.\binary.c    ****         blink_zero();
 329              		.loc 1 105 0
 330 0106 FFF7FEFF 		bl	blink_zero
 331              	.LVL40:
 106:.\binary.c    ****         blink_zero();
 332              		.loc 1 106 0
 333 010a FFF7FEFF 		bl	blink_zero
 334              	.LVL41:
 335 010e FDE0     		b	.L61
 336              	.L26:
 107:.\binary.c    ****         blink_zero();
 108:.\binary.c    ****         blink_one();
 109:.\binary.c    ****         blink_one();
 110:.\binary.c    ****         blink_zero();
 111:.\binary.c    ****         break;
 112:.\binary.c    ****        case 'G':
 113:.\binary.c    ****        case 'g':
 114:.\binary.c    ****         blink_zero();
 337              		.loc 1 114 0
 338 0110 FFF7FEFF 		bl	blink_zero
ARM GAS  C:\Users\Admin\AppData\Local\Temp\ccLQsfrR.s 			page 9


 339              	.LVL42:
 115:.\binary.c    ****         blink_one();
 340              		.loc 1 115 0
 341 0114 FFF7FEFF 		bl	blink_one
 342              	.LVL43:
 116:.\binary.c    ****         blink_zero();
 343              		.loc 1 116 0
 344 0118 FFF7FEFF 		bl	blink_zero
 345              	.LVL44:
 117:.\binary.c    ****         blink_zero();
 346              		.loc 1 117 0
 347 011c FFF7FEFF 		bl	blink_zero
 348              	.LVL45:
 349 0120 03E1     		b	.L70
 350              	.L27:
 118:.\binary.c    ****         blink_zero();
 119:.\binary.c    ****         blink_one();
 120:.\binary.c    ****         blink_one();
 121:.\binary.c    ****         blink_one();
 122:.\binary.c    ****         break;
 123:.\binary.c    ****        case 'H':
 124:.\binary.c    ****        case 'h':
 125:.\binary.c    ****         blink_zero();
 351              		.loc 1 125 0
 352 0122 FFF7FEFF 		bl	blink_zero
 353              	.LVL46:
 126:.\binary.c    ****         blink_one();
 354              		.loc 1 126 0
 355 0126 FFF7FEFF 		bl	blink_one
 356              	.LVL47:
 127:.\binary.c    ****         blink_zero();
 357              		.loc 1 127 0
 358 012a FFF7FEFF 		bl	blink_zero
 359              	.LVL48:
 128:.\binary.c    ****         blink_zero();
 360              		.loc 1 128 0
 361 012e FFF7FEFF 		bl	blink_zero
 362              	.LVL49:
 363 0132 09E1     		b	.L55
 364              	.L28:
 129:.\binary.c    ****         blink_one();
 130:.\binary.c    ****         blink_zero();
 131:.\binary.c    ****         blink_zero();
 132:.\binary.c    ****         blink_zero();
 133:.\binary.c    ****         break;
 134:.\binary.c    ****        case 'I':
 135:.\binary.c    ****        case 'i':
 136:.\binary.c    ****         blink_zero();
 365              		.loc 1 136 0
 366 0134 FFF7FEFF 		bl	blink_zero
 367              	.LVL50:
 137:.\binary.c    ****         blink_one();
 368              		.loc 1 137 0
 369 0138 FFF7FEFF 		bl	blink_one
 370              	.LVL51:
 138:.\binary.c    ****         blink_zero();
 371              		.loc 1 138 0
ARM GAS  C:\Users\Admin\AppData\Local\Temp\ccLQsfrR.s 			page 10


 372 013c FFF7FEFF 		bl	blink_zero
 373              	.LVL52:
 139:.\binary.c    ****         blink_zero();
 374              		.loc 1 139 0
 375 0140 FFF7FEFF 		bl	blink_zero
 376              	.LVL53:
 377 0144 11E1     		b	.L54
 378              	.L29:
 140:.\binary.c    ****         blink_one();
 141:.\binary.c    ****         blink_zero();
 142:.\binary.c    ****         blink_zero();
 143:.\binary.c    ****         blink_one();
 144:.\binary.c    ****         break;
 145:.\binary.c    ****        case 'J':
 146:.\binary.c    ****        case 'j':
 147:.\binary.c    ****         blink_zero();
 379              		.loc 1 147 0
 380 0146 FFF7FEFF 		bl	blink_zero
 381              	.LVL54:
 148:.\binary.c    ****         blink_one();
 382              		.loc 1 148 0
 383 014a FFF7FEFF 		bl	blink_one
 384              	.LVL55:
 149:.\binary.c    ****         blink_zero();
 385              		.loc 1 149 0
 386 014e FFF7FEFF 		bl	blink_zero
 387              	.LVL56:
 150:.\binary.c    ****         blink_zero();
 388              		.loc 1 150 0
 389 0152 FFF7FEFF 		bl	blink_zero
 390              	.LVL57:
 391 0156 84E0     		b	.L79
 392              	.L30:
 151:.\binary.c    ****         blink_one();
 152:.\binary.c    ****         blink_zero();
 153:.\binary.c    ****         blink_one();
 154:.\binary.c    ****         blink_zero();
 155:.\binary.c    ****         break;
 156:.\binary.c    ****        case 'K':
 157:.\binary.c    ****        case 'k':
 158:.\binary.c    ****         blink_zero();
 393              		.loc 1 158 0
 394 0158 FFF7FEFF 		bl	blink_zero
 395              	.LVL58:
 159:.\binary.c    ****         blink_one();
 396              		.loc 1 159 0
 397 015c FFF7FEFF 		bl	blink_one
 398              	.LVL59:
 160:.\binary.c    ****         blink_zero();
 399              		.loc 1 160 0
 400 0160 FFF7FEFF 		bl	blink_zero
 401              	.LVL60:
 161:.\binary.c    ****         blink_zero();
 402              		.loc 1 161 0
 403 0164 FFF7FEFF 		bl	blink_zero
 404              	.LVL61:
 162:.\binary.c    ****         blink_one();
ARM GAS  C:\Users\Admin\AppData\Local\Temp\ccLQsfrR.s 			page 11


 405              		.loc 1 162 0
 406 0168 FFF7FEFF 		bl	blink_one
 407              	.LVL62:
 408 016c A9E0     		b	.L78
 409              	.L31:
 163:.\binary.c    ****         blink_zero();
 164:.\binary.c    ****         blink_one();
 165:.\binary.c    ****         blink_one();
 166:.\binary.c    ****         break;
 167:.\binary.c    ****        case 'L':
 168:.\binary.c    ****        case 'l':
 169:.\binary.c    ****         blink_zero();
 410              		.loc 1 169 0
 411 016e FFF7FEFF 		bl	blink_zero
 412              	.LVL63:
 170:.\binary.c    ****         blink_one();
 413              		.loc 1 170 0
 414 0172 FFF7FEFF 		bl	blink_one
 415              	.LVL64:
 171:.\binary.c    ****         blink_zero();
 416              		.loc 1 171 0
 417 0176 FFF7FEFF 		bl	blink_zero
 418              	.LVL65:
 172:.\binary.c    ****         blink_zero();
 419              		.loc 1 172 0
 420 017a FFF7FEFF 		bl	blink_zero
 421              	.LVL66:
 173:.\binary.c    ****         blink_one();
 422              		.loc 1 173 0
 423 017e FFF7FEFF 		bl	blink_one
 424              	.LVL67:
 425 0182 ABE0     		b	.L59
 426              	.L32:
 174:.\binary.c    ****         blink_one();
 175:.\binary.c    ****         blink_zero();
 176:.\binary.c    ****         blink_zero();
 177:.\binary.c    ****         break;
 178:.\binary.c    ****        case 'M':
 179:.\binary.c    ****        case 'm':
 180:.\binary.c    ****         blink_zero();
 427              		.loc 1 180 0
 428 0184 FFF7FEFF 		bl	blink_zero
 429              	.LVL68:
 181:.\binary.c    ****         blink_one();
 430              		.loc 1 181 0
 431 0188 FFF7FEFF 		bl	blink_one
 432              	.LVL69:
 182:.\binary.c    ****         blink_zero();
 433              		.loc 1 182 0
 434 018c FFF7FEFF 		bl	blink_zero
 435              	.LVL70:
 183:.\binary.c    ****         blink_zero();
 436              		.loc 1 183 0
 437 0190 FFF7FEFF 		bl	blink_zero
 438              	.LVL71:
 184:.\binary.c    ****         blink_one();
 439              		.loc 1 184 0
ARM GAS  C:\Users\Admin\AppData\Local\Temp\ccLQsfrR.s 			page 12


 440 0194 FFF7FEFF 		bl	blink_one
 441              	.LVL72:
 442 0198 ADE0     		b	.L68
 443              	.L33:
 185:.\binary.c    ****         blink_one();
 186:.\binary.c    ****         blink_zero();
 187:.\binary.c    ****         blink_one();
 188:.\binary.c    ****         break;
 189:.\binary.c    ****        case 'N':
 190:.\binary.c    ****        case 'n':
 191:.\binary.c    ****         blink_zero();
 444              		.loc 1 191 0
 445 019a FFF7FEFF 		bl	blink_zero
 446              	.LVL73:
 192:.\binary.c    ****         blink_one();
 447              		.loc 1 192 0
 448 019e FFF7FEFF 		bl	blink_one
 449              	.LVL74:
 193:.\binary.c    ****         blink_zero();
 450              		.loc 1 193 0
 451 01a2 FFF7FEFF 		bl	blink_zero
 452              	.LVL75:
 194:.\binary.c    ****         blink_zero();
 453              		.loc 1 194 0
 454 01a6 FFF7FEFF 		bl	blink_zero
 455              	.LVL76:
 195:.\binary.c    ****         blink_one();
 456              		.loc 1 195 0
 457 01aa FFF7FEFF 		bl	blink_one
 458              	.LVL77:
 459 01ae AFE0     		b	.L62
 460              	.L34:
 196:.\binary.c    ****         blink_one();
 197:.\binary.c    ****         blink_one();
 198:.\binary.c    ****         blink_zero();
 199:.\binary.c    ****         break;
 200:.\binary.c    ****        case 'O':
 201:.\binary.c    ****        case 'o':
 202:.\binary.c    ****         blink_zero();
 461              		.loc 1 202 0
 462 01b0 FFF7FEFF 		bl	blink_zero
 463              	.LVL78:
 203:.\binary.c    ****         blink_one();
 464              		.loc 1 203 0
 465 01b4 FFF7FEFF 		bl	blink_one
 466              	.LVL79:
 204:.\binary.c    ****         blink_zero();
 467              		.loc 1 204 0
 468 01b8 FFF7FEFF 		bl	blink_zero
 469              	.LVL80:
 205:.\binary.c    ****         blink_zero();
 470              		.loc 1 205 0
 471 01bc FFF7FEFF 		bl	blink_zero
 472              	.LVL81:
 206:.\binary.c    ****         blink_one();
 473              		.loc 1 206 0
 474 01c0 FFF7FEFF 		bl	blink_one
ARM GAS  C:\Users\Admin\AppData\Local\Temp\ccLQsfrR.s 			page 13


 475              	.LVL82:
 476 01c4 B3E0     		b	.L71
 477              	.L35:
 207:.\binary.c    ****         blink_one();
 208:.\binary.c    ****         blink_one();
 209:.\binary.c    ****         blink_one();
 210:.\binary.c    ****         break;
 211:.\binary.c    ****        case 'P':
 212:.\binary.c    ****        case 'p':
 213:.\binary.c    ****         blink_zero();
 478              		.loc 1 213 0
 479 01c6 FFF7FEFF 		bl	blink_zero
 480              	.LVL83:
 214:.\binary.c    ****         blink_one();
 481              		.loc 1 214 0
 482 01ca FFF7FEFF 		bl	blink_one
 483              	.LVL84:
 215:.\binary.c    ****         blink_zero();
 484              		.loc 1 215 0
 485 01ce FFF7FEFF 		bl	blink_zero
 486              	.LVL85:
 487 01d2 4FE0     		b	.L56
 488              	.L36:
 216:.\binary.c    ****         blink_one();
 217:.\binary.c    ****         blink_zero();
 218:.\binary.c    ****         blink_zero();
 219:.\binary.c    ****         blink_zero();
 220:.\binary.c    ****         blink_zero();
 221:.\binary.c    ****         break;
 222:.\binary.c    ****        case 'Q':
 223:.\binary.c    ****        case 'q':
 224:.\binary.c    ****         blink_zero();
 489              		.loc 1 224 0
 490 01d4 FFF7FEFF 		bl	blink_zero
 491              	.LVL86:
 225:.\binary.c    ****         blink_one();
 492              		.loc 1 225 0
 493 01d8 FFF7FEFF 		bl	blink_one
 494              	.LVL87:
 226:.\binary.c    ****         blink_zero();
 495              		.loc 1 226 0
 496 01dc FFF7FEFF 		bl	blink_zero
 497              	.LVL88:
 498 01e0 53E0     		b	.L65
 499              	.L37:
 227:.\binary.c    ****         blink_one();
 228:.\binary.c    ****         blink_zero();
 229:.\binary.c    ****         blink_zero();
 230:.\binary.c    ****         blink_zero();
 231:.\binary.c    ****         blink_one();
 232:.\binary.c    ****         break;
 233:.\binary.c    ****        case 'R':
 234:.\binary.c    ****        case 'r':
 235:.\binary.c    ****         blink_zero();
 500              		.loc 1 235 0
 501 01e2 FFF7FEFF 		bl	blink_zero
 502              	.LVL89:
ARM GAS  C:\Users\Admin\AppData\Local\Temp\ccLQsfrR.s 			page 14


 236:.\binary.c    ****         blink_one();
 503              		.loc 1 236 0
 504 01e6 FFF7FEFF 		bl	blink_one
 505              	.LVL90:
 237:.\binary.c    ****         blink_zero();
 506              		.loc 1 237 0
 507 01ea FFF7FEFF 		bl	blink_zero
 508              	.LVL91:
 509 01ee 57E0     		b	.L75
 510              	.L38:
 238:.\binary.c    ****         blink_one();
 239:.\binary.c    ****         blink_zero();
 240:.\binary.c    ****         blink_zero();
 241:.\binary.c    ****         blink_one();
 242:.\binary.c    ****         blink_zero();
 243:.\binary.c    ****         break;
 244:.\binary.c    ****        case 'S':
 245:.\binary.c    ****        case 's':
 246:.\binary.c    ****         blink_zero();
 511              		.loc 1 246 0
 512 01f0 FFF7FEFF 		bl	blink_zero
 513              	.LVL92:
 247:.\binary.c    ****         blink_one();
 514              		.loc 1 247 0
 515 01f4 FFF7FEFF 		bl	blink_one
 516              	.LVL93:
 248:.\binary.c    ****         blink_zero();
 517              		.loc 1 248 0
 518 01f8 FFF7FEFF 		bl	blink_zero
 519              	.LVL94:
 520 01fc 5DE0     		b	.L77
 521              	.L39:
 249:.\binary.c    ****         blink_one();
 250:.\binary.c    ****         blink_zero();
 251:.\binary.c    ****         blink_zero();
 252:.\binary.c    ****         blink_one();
 253:.\binary.c    ****         blink_one();
 254:.\binary.c    ****         break;
 255:.\binary.c    ****        case 'T':
 256:.\binary.c    ****        case 't':
 257:.\binary.c    ****         blink_zero();
 522              		.loc 1 257 0
 523 01fe FFF7FEFF 		bl	blink_zero
 524              	.LVL95:
 258:.\binary.c    ****         blink_one();
 525              		.loc 1 258 0
 526 0202 FFF7FEFF 		bl	blink_one
 527              	.LVL96:
 259:.\binary.c    ****         blink_zero();
 528              		.loc 1 259 0
 529 0206 FFF7FEFF 		bl	blink_zero
 530              	.LVL97:
 531 020a 63E0     		b	.L57
 532              	.L40:
 260:.\binary.c    ****         blink_one();
 261:.\binary.c    ****         blink_zero();
 262:.\binary.c    ****         blink_one();
ARM GAS  C:\Users\Admin\AppData\Local\Temp\ccLQsfrR.s 			page 15


 263:.\binary.c    ****         blink_zero();
 264:.\binary.c    ****         blink_zero();
 265:.\binary.c    ****         break;
 266:.\binary.c    ****        case 'U':
 267:.\binary.c    ****        case 'u':
 268:.\binary.c    ****         blink_zero();
 533              		.loc 1 268 0
 534 020c FFF7FEFF 		bl	blink_zero
 535              	.LVL98:
 269:.\binary.c    ****         blink_one();
 536              		.loc 1 269 0
 537 0210 FFF7FEFF 		bl	blink_one
 538              	.LVL99:
 270:.\binary.c    ****         blink_zero();
 539              		.loc 1 270 0
 540 0214 FFF7FEFF 		bl	blink_zero
 541              	.LVL100:
 542 0218 69E0     		b	.L66
 543              	.L41:
 271:.\binary.c    ****         blink_one();
 272:.\binary.c    ****         blink_zero();
 273:.\binary.c    ****         blink_one();
 274:.\binary.c    ****         blink_zero();
 275:.\binary.c    ****         blink_one();
 276:.\binary.c    ****         break;
 277:.\binary.c    ****        case 'V':
 278:.\binary.c    ****        case 'v':
 279:.\binary.c    ****         blink_zero();
 544              		.loc 1 279 0
 545 021a FFF7FEFF 		bl	blink_zero
 546              	.LVL101:
 280:.\binary.c    ****         blink_one();
 547              		.loc 1 280 0
 548 021e FFF7FEFF 		bl	blink_one
 549              	.LVL102:
 281:.\binary.c    ****         blink_zero();
 550              		.loc 1 281 0
 551 0222 FFF7FEFF 		bl	blink_zero
 552              	.LVL103:
 553 0226 6FE0     		b	.L63
 554              	.L42:
 282:.\binary.c    ****         blink_one();
 283:.\binary.c    ****         blink_zero();
 284:.\binary.c    ****         blink_one();
 285:.\binary.c    ****         blink_one();
 286:.\binary.c    ****         blink_zero();
 287:.\binary.c    ****         break;
 288:.\binary.c    ****        case 'W':
 289:.\binary.c    ****        case 'w':
 290:.\binary.c    ****         blink_zero();
 555              		.loc 1 290 0
 556 0228 FFF7FEFF 		bl	blink_zero
 557              	.LVL104:
 291:.\binary.c    ****         blink_one();
 558              		.loc 1 291 0
 559 022c FFF7FEFF 		bl	blink_one
 560              	.LVL105:
ARM GAS  C:\Users\Admin\AppData\Local\Temp\ccLQsfrR.s 			page 16


 292:.\binary.c    ****         blink_zero();
 561              		.loc 1 292 0
 562 0230 FFF7FEFF 		bl	blink_zero
 563              	.LVL106:
 564 0234 77E0     		b	.L72
 565              	.L43:
 293:.\binary.c    ****         blink_one();
 294:.\binary.c    ****         blink_zero();
 295:.\binary.c    ****         blink_one();
 296:.\binary.c    ****         blink_one();
 297:.\binary.c    ****         blink_one();
 298:.\binary.c    ****         break;
 299:.\binary.c    ****        case 'X':
 300:.\binary.c    ****        case 'x':
 301:.\binary.c    ****         blink_zero();
 566              		.loc 1 301 0
 567 0236 FFF7FEFF 		bl	blink_zero
 568              	.LVL107:
 302:.\binary.c    ****         blink_one();
 569              		.loc 1 302 0
 570 023a FFF7FEFF 		bl	blink_one
 571              	.LVL108:
 303:.\binary.c    ****         blink_zero();
 572              		.loc 1 303 0
 573 023e FFF7FEFF 		bl	blink_zero
 574              	.LVL109:
 575 0242 7FE0     		b	.L53
 576              	.L44:
 304:.\binary.c    ****         blink_one();
 305:.\binary.c    ****         blink_one();
 306:.\binary.c    ****         blink_zero();
 307:.\binary.c    ****         blink_zero();
 308:.\binary.c    ****         blink_zero();
 309:.\binary.c    ****         break;
 310:.\binary.c    ****        case 'Y':
 311:.\binary.c    ****        case 'y':
 312:.\binary.c    ****         blink_zero();
 577              		.loc 1 312 0
 578 0244 FFF7FEFF 		bl	blink_zero
 579              	.LVL110:
 313:.\binary.c    ****         blink_one();
 580              		.loc 1 313 0
 581 0248 FFF7FEFF 		bl	blink_one
 582              	.LVL111:
 314:.\binary.c    ****         blink_zero();
 583              		.loc 1 314 0
 584 024c FFF7FEFF 		bl	blink_zero
 585              	.LVL112:
 586 0250 89E0     		b	.L52
 587              	.L45:
 315:.\binary.c    ****         blink_one();
 316:.\binary.c    ****         blink_one();
 317:.\binary.c    ****         blink_zero();
 318:.\binary.c    ****         blink_zero();
 319:.\binary.c    ****         blink_one();
 320:.\binary.c    ****         break;
 321:.\binary.c    ****        case 'Z':
ARM GAS  C:\Users\Admin\AppData\Local\Temp\ccLQsfrR.s 			page 17


 322:.\binary.c    ****        case 'z':
 323:.\binary.c    ****         blink_zero();
 588              		.loc 1 323 0
 589 0252 FFF7FEFF 		bl	blink_zero
 590              	.LVL113:
 324:.\binary.c    ****         blink_one();
 591              		.loc 1 324 0
 592 0256 FFF7FEFF 		bl	blink_one
 593              	.LVL114:
 325:.\binary.c    ****         blink_zero();
 594              		.loc 1 325 0
 595 025a FFF7FEFF 		bl	blink_zero
 596              	.LVL115:
 326:.\binary.c    ****         blink_one();
 597              		.loc 1 326 0
 598 025e FFF7FEFF 		bl	blink_one
 599              	.LVL116:
 600              	.L79:
 327:.\binary.c    ****         blink_one();
 601              		.loc 1 327 0
 602 0262 FFF7FEFF 		bl	blink_one
 603              	.LVL117:
 604 0266 1FE0     		b	.L74
 605              	.L9:
 328:.\binary.c    ****         blink_zero();
 329:.\binary.c    ****         blink_one();
 330:.\binary.c    ****         blink_zero();
 331:.\binary.c    ****         break;
 332:.\binary.c    ****        case '0':
 333:.\binary.c    ****         blink_zero();
 606              		.loc 1 333 0
 607 0268 FFF7FEFF 		bl	blink_zero
 608              	.LVL118:
 334:.\binary.c    ****         blink_zero();
 609              		.loc 1 334 0
 610 026c FFF7FEFF 		bl	blink_zero
 611              	.LVL119:
 335:.\binary.c    ****         blink_one();
 612              		.loc 1 335 0
 613 0270 FFF7FEFF 		bl	blink_one
 614              	.LVL120:
 615              	.L56:
 336:.\binary.c    ****         blink_one();
 616              		.loc 1 336 0
 617 0274 FFF7FEFF 		bl	blink_one
 618              	.LVL121:
 337:.\binary.c    ****         blink_zero();
 619              		.loc 1 337 0
 620 0278 FFF7FEFF 		bl	blink_zero
 621              	.LVL122:
 622 027c 66E0     		b	.L51
 623              	.L11:
 338:.\binary.c    ****         blink_zero();
 339:.\binary.c    ****         blink_zero();
 340:.\binary.c    ****         blink_zero();
 341:.\binary.c    ****         break;
 342:.\binary.c    ****        case '1':
ARM GAS  C:\Users\Admin\AppData\Local\Temp\ccLQsfrR.s 			page 18


 343:.\binary.c    ****         blink_zero();
 624              		.loc 1 343 0
 625 027e FFF7FEFF 		bl	blink_zero
 626              	.LVL123:
 344:.\binary.c    ****         blink_zero();
 627              		.loc 1 344 0
 628 0282 FFF7FEFF 		bl	blink_zero
 629              	.LVL124:
 345:.\binary.c    ****         blink_one();
 630              		.loc 1 345 0
 631 0286 FFF7FEFF 		bl	blink_one
 632              	.LVL125:
 633              	.L65:
 346:.\binary.c    ****         blink_one();
 634              		.loc 1 346 0
 635 028a FFF7FEFF 		bl	blink_one
 636              	.LVL126:
 637              	.L64:
 347:.\binary.c    ****         blink_zero();
 638              		.loc 1 347 0
 639 028e FFF7FEFF 		bl	blink_zero
 640              	.LVL127:
 641 0292 6CE0     		b	.L47
 642              	.L12:
 348:.\binary.c    ****         blink_zero();
 349:.\binary.c    ****         blink_zero();
 350:.\binary.c    ****         blink_one();
 351:.\binary.c    ****         break;
 352:.\binary.c    ****        case '2':
 353:.\binary.c    ****         blink_zero();
 643              		.loc 1 353 0
 644 0294 FFF7FEFF 		bl	blink_zero
 645              	.LVL128:
 354:.\binary.c    ****         blink_zero();
 646              		.loc 1 354 0
 647 0298 FFF7FEFF 		bl	blink_zero
 648              	.LVL129:
 355:.\binary.c    ****         blink_one();
 649              		.loc 1 355 0
 650 029c FFF7FEFF 		bl	blink_one
 651              	.LVL130:
 652              	.L75:
 356:.\binary.c    ****         blink_one();
 653              		.loc 1 356 0
 654 02a0 FFF7FEFF 		bl	blink_one
 655              	.LVL131:
 656              	.L73:
 357:.\binary.c    ****         blink_zero();
 657              		.loc 1 357 0
 658 02a4 FFF7FEFF 		bl	blink_zero
 659              	.LVL132:
 660              	.L74:
 358:.\binary.c    ****         blink_zero();
 661              		.loc 1 358 0
 662 02a8 FFF7FEFF 		bl	blink_zero
 663              	.LVL133:
 664 02ac 32E0     		b	.L60
ARM GAS  C:\Users\Admin\AppData\Local\Temp\ccLQsfrR.s 			page 19


 665              	.L13:
 359:.\binary.c    ****         blink_one();
 360:.\binary.c    ****         blink_zero();
 361:.\binary.c    ****         break;
 362:.\binary.c    ****        case '3':
 363:.\binary.c    ****         blink_zero();
 666              		.loc 1 363 0
 667 02ae FFF7FEFF 		bl	blink_zero
 668              	.LVL134:
 364:.\binary.c    ****         blink_zero();
 669              		.loc 1 364 0
 670 02b2 FFF7FEFF 		bl	blink_zero
 671              	.LVL135:
 365:.\binary.c    ****         blink_one();
 672              		.loc 1 365 0
 673 02b6 FFF7FEFF 		bl	blink_one
 674              	.LVL136:
 675              	.L77:
 366:.\binary.c    ****         blink_one();
 676              		.loc 1 366 0
 677 02ba FFF7FEFF 		bl	blink_one
 678              	.LVL137:
 679              	.L76:
 367:.\binary.c    ****         blink_zero();
 680              		.loc 1 367 0
 681 02be FFF7FEFF 		bl	blink_zero
 682              	.LVL138:
 683              	.L78:
 368:.\binary.c    ****         blink_zero();
 684              		.loc 1 368 0
 685 02c2 FFF7FEFF 		bl	blink_zero
 686              	.LVL139:
 687 02c6 34E0     		b	.L69
 688              	.L14:
 369:.\binary.c    ****         blink_one();
 370:.\binary.c    ****         blink_one();
 371:.\binary.c    ****         break;
 372:.\binary.c    ****        case '4':
 373:.\binary.c    ****         blink_zero();
 689              		.loc 1 373 0
 690 02c8 FFF7FEFF 		bl	blink_zero
 691              	.LVL140:
 374:.\binary.c    ****         blink_zero();
 692              		.loc 1 374 0
 693 02cc FFF7FEFF 		bl	blink_zero
 694              	.LVL141:
 375:.\binary.c    ****         blink_one();
 695              		.loc 1 375 0
 696 02d0 FFF7FEFF 		bl	blink_one
 697              	.LVL142:
 698              	.L57:
 376:.\binary.c    ****         blink_one();
 699              		.loc 1 376 0
 700 02d4 FFF7FEFF 		bl	blink_one
 701              	.LVL143:
 702              	.L58:
 377:.\binary.c    ****         blink_zero();
ARM GAS  C:\Users\Admin\AppData\Local\Temp\ccLQsfrR.s 			page 20


 703              		.loc 1 377 0
 704 02d8 FFF7FEFF 		bl	blink_zero
 705              	.LVL144:
 706              	.L59:
 378:.\binary.c    ****         blink_one();
 707              		.loc 1 378 0
 708 02dc FFF7FEFF 		bl	blink_one
 709              	.LVL145:
 710 02e0 36E0     		b	.L50
 711              	.L15:
 379:.\binary.c    ****         blink_zero();
 380:.\binary.c    ****         blink_zero();
 381:.\binary.c    ****         break;
 382:.\binary.c    ****        case '5':
 383:.\binary.c    ****         blink_zero();
 712              		.loc 1 383 0
 713 02e2 FFF7FEFF 		bl	blink_zero
 714              	.LVL146:
 384:.\binary.c    ****         blink_zero();
 715              		.loc 1 384 0
 716 02e6 FFF7FEFF 		bl	blink_zero
 717              	.LVL147:
 385:.\binary.c    ****         blink_one();
 718              		.loc 1 385 0
 719 02ea FFF7FEFF 		bl	blink_one
 720              	.LVL148:
 721              	.L66:
 386:.\binary.c    ****         blink_one();
 722              		.loc 1 386 0
 723 02ee FFF7FEFF 		bl	blink_one
 724              	.LVL149:
 725              	.L67:
 387:.\binary.c    ****         blink_zero();
 726              		.loc 1 387 0
 727 02f2 FFF7FEFF 		bl	blink_zero
 728              	.LVL150:
 729              	.L68:
 388:.\binary.c    ****         blink_one();
 730              		.loc 1 388 0
 731 02f6 FFF7FEFF 		bl	blink_one
 732              	.LVL151:
 733 02fa 3AE0     		b	.L49
 734              	.L16:
 389:.\binary.c    ****         blink_zero();
 390:.\binary.c    ****         blink_one();
 391:.\binary.c    ****         break;
 392:.\binary.c    ****        case '6':
 393:.\binary.c    ****         blink_zero();
 735              		.loc 1 393 0
 736 02fc FFF7FEFF 		bl	blink_zero
 737              	.LVL152:
 394:.\binary.c    ****         blink_zero();
 738              		.loc 1 394 0
 739 0300 FFF7FEFF 		bl	blink_zero
 740              	.LVL153:
 395:.\binary.c    ****         blink_one();
 741              		.loc 1 395 0
ARM GAS  C:\Users\Admin\AppData\Local\Temp\ccLQsfrR.s 			page 21


 742 0304 FFF7FEFF 		bl	blink_one
 743              	.LVL154:
 744              	.L63:
 396:.\binary.c    ****         blink_one();
 745              		.loc 1 396 0
 746 0308 FFF7FEFF 		bl	blink_one
 747              	.LVL155:
 748              	.L61:
 397:.\binary.c    ****         blink_zero();
 749              		.loc 1 397 0
 750 030c FFF7FEFF 		bl	blink_zero
 751              	.LVL156:
 752              	.L62:
 398:.\binary.c    ****         blink_one();
 753              		.loc 1 398 0
 754 0310 FFF7FEFF 		bl	blink_one
 755              	.LVL157:
 756              	.L60:
 399:.\binary.c    ****         blink_one();
 757              		.loc 1 399 0
 758 0314 FFF7FEFF 		bl	blink_one
 759              	.LVL158:
 760 0318 1CE0     		b	.L48
 761              	.L17:
 400:.\binary.c    ****         blink_zero();
 401:.\binary.c    ****         break;
 402:.\binary.c    ****        case '7':
 403:.\binary.c    ****         blink_zero();
 762              		.loc 1 403 0
 763 031a FFF7FEFF 		bl	blink_zero
 764              	.LVL159:
 404:.\binary.c    ****         blink_zero();
 765              		.loc 1 404 0
 766 031e FFF7FEFF 		bl	blink_zero
 767              	.LVL160:
 405:.\binary.c    ****         blink_one();
 768              		.loc 1 405 0
 769 0322 FFF7FEFF 		bl	blink_one
 770              	.LVL161:
 771              	.L72:
 406:.\binary.c    ****         blink_one();
 772              		.loc 1 406 0
 773 0326 FFF7FEFF 		bl	blink_one
 774              	.LVL162:
 775              	.L70:
 407:.\binary.c    ****         blink_zero();
 776              		.loc 1 407 0
 777 032a FFF7FEFF 		bl	blink_zero
 778              	.LVL163:
 779              	.L71:
 408:.\binary.c    ****         blink_one();
 780              		.loc 1 408 0
 781 032e FFF7FEFF 		bl	blink_one
 782              	.LVL164:
 783              	.L69:
 409:.\binary.c    ****         blink_one();
 784              		.loc 1 409 0
ARM GAS  C:\Users\Admin\AppData\Local\Temp\ccLQsfrR.s 			page 22


 785 0332 FFF7FEFF 		bl	blink_one
 786              	.LVL165:
 787 0336 1EE0     		b	.L46
 788              	.L18:
 410:.\binary.c    ****         blink_one();
 411:.\binary.c    ****         break;
 412:.\binary.c    ****        case '8':
 413:.\binary.c    ****         blink_zero();
 789              		.loc 1 413 0
 790 0338 FFF7FEFF 		bl	blink_zero
 791              	.LVL166:
 414:.\binary.c    ****         blink_zero();
 792              		.loc 1 414 0
 793 033c FFF7FEFF 		bl	blink_zero
 794              	.LVL167:
 415:.\binary.c    ****         blink_one();
 795              		.loc 1 415 0
 796 0340 FFF7FEFF 		bl	blink_one
 797              	.LVL168:
 798              	.L53:
 416:.\binary.c    ****         blink_one();
 799              		.loc 1 416 0
 800 0344 FFF7FEFF 		bl	blink_one
 801              	.LVL169:
 802              	.L55:
 417:.\binary.c    ****         blink_one();
 803              		.loc 1 417 0
 804 0348 FFF7FEFF 		bl	blink_one
 805              	.LVL170:
 806              	.L51:
 418:.\binary.c    ****         blink_zero();
 807              		.loc 1 418 0
 808 034c FFF7FEFF 		bl	blink_zero
 809              	.LVL171:
 810              	.L50:
 419:.\binary.c    ****         blink_zero();
 811              		.loc 1 419 0
 812 0350 FFF7FEFF 		bl	blink_zero
 813              	.LVL172:
 814              	.L48:
 420:.\binary.c    ****         blink_zero();
 815              		.loc 1 420 0
 816 0354 FFF7FEFF 		bl	blink_zero
 817              	.LVL173:
 421:.\binary.c    ****         break;
 818              		.loc 1 421 0
 819 0358 0FE0     		b	.L7
 820              	.L19:
 422:.\binary.c    ****        case '9':
 423:.\binary.c    ****         blink_zero();
 821              		.loc 1 423 0
 822 035a FFF7FEFF 		bl	blink_zero
 823              	.LVL174:
 424:.\binary.c    ****         blink_zero();
 824              		.loc 1 424 0
 825 035e FFF7FEFF 		bl	blink_zero
 826              	.LVL175:
ARM GAS  C:\Users\Admin\AppData\Local\Temp\ccLQsfrR.s 			page 23


 425:.\binary.c    ****         blink_one();
 827              		.loc 1 425 0
 828 0362 FFF7FEFF 		bl	blink_one
 829              	.LVL176:
 830              	.L52:
 426:.\binary.c    ****         blink_one();
 831              		.loc 1 426 0
 832 0366 FFF7FEFF 		bl	blink_one
 833              	.LVL177:
 834              	.L54:
 427:.\binary.c    ****         blink_one();
 835              		.loc 1 427 0
 836 036a FFF7FEFF 		bl	blink_one
 837              	.LVL178:
 838              	.L47:
 428:.\binary.c    ****         blink_zero();
 839              		.loc 1 428 0
 840 036e FFF7FEFF 		bl	blink_zero
 841              	.LVL179:
 842              	.L49:
 429:.\binary.c    ****         blink_zero();
 843              		.loc 1 429 0
 844 0372 FFF7FEFF 		bl	blink_zero
 845              	.LVL180:
 846              	.L46:
 430:.\binary.c    ****         blink_one();
 847              		.loc 1 430 0
 848 0376 FFF7FEFF 		bl	blink_one
 849              	.LVL181:
 850              	.L7:
 431:.\binary.c    ****         break;
 432:.\binary.c    ****        case '\n':
 433:.\binary.c    ****         /* Clear the screen on a new line */
 434:.\binary.c    ****         break;
 435:.\binary.c    ****    }
 436:.\binary.c    **** }
 851              		.loc 1 436 0
 852              		@ sp needed
 853 037a 08BD     		pop	{r3, pc}
 854              		.cfi_endproc
 855              	.LFE36:
 856              		.size	binary_encode, .-binary_encode
 857              		.section	.text.binary_message,"ax",%progbits
 858              		.align	1
 859              		.global	binary_message
 860              		.code	16
 861              		.thumb_func
 862              		.type	binary_message, %function
 863              	binary_message:
 864              	.LFB37:
 437:.\binary.c    **** 
 438:.\binary.c    **** void binary_message(char* message) {
 865              		.loc 1 438 0
 866              		.cfi_startproc
 867              	.LVL182:
 868 0000 38B5     		push	{r3, r4, r5, lr}
 869              		.cfi_def_cfa_offset 16
ARM GAS  C:\Users\Admin\AppData\Local\Temp\ccLQsfrR.s 			page 24


 870              		.cfi_offset 3, -16
 871              		.cfi_offset 4, -12
 872              		.cfi_offset 5, -8
 873              		.cfi_offset 14, -4
 874              		.loc 1 438 0
 875 0002 051C     		mov	r5, r0
 439:.\binary.c    ****     unsigned int i;
 440:.\binary.c    ****     
 441:.\binary.c    ****     /* Signal new message to user */
 442:.\binary.c    ****     new_message();
 876              		.loc 1 442 0
 877 0004 FFF7FEFF 		bl	new_message
 878              	.LVL183:
 443:.\binary.c    ****     
 444:.\binary.c    ****     /* Blink the encoded message */
 445:.\binary.c    ****     for (i=0; i < strlen(message); i++) {
 879              		.loc 1 445 0
 880 0008 0024     		mov	r4, #0
 881              	.LVL184:
 882              	.L81:
 883              		.loc 1 445 0 is_stmt 0 discriminator 1
 884 000a 281C     		mov	r0, r5
 885 000c FFF7FEFF 		bl	strlen
 886              	.LVL185:
 887 0010 8442     		cmp	r4, r0
 888 0012 04D2     		bcs	.L83
 446:.\binary.c    ****         binary_encode(message[i]);
 889              		.loc 1 446 0 is_stmt 1 discriminator 2
 890 0014 285D     		ldrb	r0, [r5, r4]
 891 0016 FFF7FEFF 		bl	binary_encode
 892              	.LVL186:
 445:.\binary.c    ****     for (i=0; i < strlen(message); i++) {
 893              		.loc 1 445 0 discriminator 2
 894 001a 0134     		add	r4, r4, #1
 895              	.LVL187:
 896 001c F5E7     		b	.L81
 897              	.L83:
 447:.\binary.c    ****     }
 448:.\binary.c    **** }
 898              		.loc 1 448 0
 899              		@ sp needed
 900              	.LVL188:
 901              	.LVL189:
 902 001e 38BD     		pop	{r3, r4, r5, pc}
 903              		.cfi_endproc
 904              	.LFE37:
 905              		.size	binary_message, .-binary_message
 906              		.text
 907              	.Letext0:
 908              		.file 2 ".\\Generated_Source\\PSoC4/cytypes.h"
 909              		.file 3 "c:\\program files\\cypress\\psoc creator\\3.1\\psoc creator\\import\\gnu_cs\\arm\\4.8.4\\
 910              		.file 4 ".\\lightlib.h"
 911              		.file 5 ".\\Generated_Source\\PSoC4/CyLib.h"
 912              		.file 6 "c:\\program files\\cypress\\psoc creator\\3.1\\psoc creator\\import\\gnu_cs\\arm\\4.8.4\\