ARM GAS  C:\Users\Admin\AppData\Local\Temp\cc7dvJpg.s 			page 1


   1              		.cpu cortex-m0
   2              		.fpu softvfp
   3              		.eabi_attribute 20, 1
   4              		.eabi_attribute 21, 1
   5              		.eabi_attribute 23, 3
   6              		.eabi_attribute 24, 1
   7              		.eabi_attribute 25, 1
   8              		.eabi_attribute 26, 1
   9              		.eabi_attribute 30, 4
  10              		.eabi_attribute 34, 0
  11              		.eabi_attribute 18, 4
  12              		.code	16
  13              		.file	"cyfitter_cfg.c"
  14              		.text
  15              	.Ltext0:
  16              		.cfi_sections	.debug_frame
  17              		.section	.psocinit,"ax",%progbits
  18              		.align	1
  19              		.global	cyfitter_cfg
  20              		.code	16
  21              		.thumb_func
  22              		.type	cyfitter_cfg, %function
  23              	cyfitter_cfg:
  24              	.LFB7:
  25              		.file 1 ".\\Generated_Source\\PSoC4\\cyfitter_cfg.c"
   1:.\Generated_Source\PSoC4/cyfitter_cfg.c **** /*******************************************************************************
   2:.\Generated_Source\PSoC4/cyfitter_cfg.c **** * FILENAME: cyfitter_cfg.c
   3:.\Generated_Source\PSoC4/cyfitter_cfg.c **** * PSoC Creator  3.1 SP1
   4:.\Generated_Source\PSoC4/cyfitter_cfg.c **** *
   5:.\Generated_Source\PSoC4/cyfitter_cfg.c **** * Description:
   6:.\Generated_Source\PSoC4/cyfitter_cfg.c **** * This file is automatically generated by PSoC Creator with device 
   7:.\Generated_Source\PSoC4/cyfitter_cfg.c **** * initialization code.  Except for the user defined sections in
   8:.\Generated_Source\PSoC4/cyfitter_cfg.c **** * CyClockStartupError(), this file should not be modified.
   9:.\Generated_Source\PSoC4/cyfitter_cfg.c **** *
  10:.\Generated_Source\PSoC4/cyfitter_cfg.c **** ********************************************************************************
  11:.\Generated_Source\PSoC4/cyfitter_cfg.c **** * Copyright 2013, Cypress Semiconductor Corporation.  All rights reserved.
  12:.\Generated_Source\PSoC4/cyfitter_cfg.c **** * You may use this file only in accordance with the license, terms, conditions, 
  13:.\Generated_Source\PSoC4/cyfitter_cfg.c **** * disclaimers, and limitations in the end user license agreement accompanying 
  14:.\Generated_Source\PSoC4/cyfitter_cfg.c **** * the software package with which this file was provided.
  15:.\Generated_Source\PSoC4/cyfitter_cfg.c **** ********************************************************************************/
  16:.\Generated_Source\PSoC4/cyfitter_cfg.c **** 
  17:.\Generated_Source\PSoC4/cyfitter_cfg.c **** #include <string.h>
  18:.\Generated_Source\PSoC4/cyfitter_cfg.c **** #include <cytypes.h>
  19:.\Generated_Source\PSoC4/cyfitter_cfg.c **** #include <cydevice_trm.h>
  20:.\Generated_Source\PSoC4/cyfitter_cfg.c **** #include <cyfitter.h>
  21:.\Generated_Source\PSoC4/cyfitter_cfg.c **** #include <CyLib.h>
  22:.\Generated_Source\PSoC4/cyfitter_cfg.c **** #include <cyfitter_cfg.h>
  23:.\Generated_Source\PSoC4/cyfitter_cfg.c **** 
  24:.\Generated_Source\PSoC4/cyfitter_cfg.c **** 
  25:.\Generated_Source\PSoC4/cyfitter_cfg.c **** #if defined(__GNUC__) || defined(__ARMCC_VERSION)
  26:.\Generated_Source\PSoC4/cyfitter_cfg.c ****     #define CYPACKED 
  27:.\Generated_Source\PSoC4/cyfitter_cfg.c ****     #define CYPACKED_ATTR __attribute__ ((packed))
  28:.\Generated_Source\PSoC4/cyfitter_cfg.c ****     #define CYALIGNED __attribute__ ((aligned))
  29:.\Generated_Source\PSoC4/cyfitter_cfg.c ****     #define CY_CFG_UNUSED __attribute__ ((unused))
  30:.\Generated_Source\PSoC4/cyfitter_cfg.c ****     #define CY_CFG_SECTION __attribute__ ((section(".psocinit")))
  31:.\Generated_Source\PSoC4/cyfitter_cfg.c ****     
  32:.\Generated_Source\PSoC4/cyfitter_cfg.c ****     #if defined(__ARMCC_VERSION)
ARM GAS  C:\Users\Admin\AppData\Local\Temp\cc7dvJpg.s 			page 2


  33:.\Generated_Source\PSoC4/cyfitter_cfg.c ****         #define CY_CFG_MEMORY_BARRIER() __memory_changed()
  34:.\Generated_Source\PSoC4/cyfitter_cfg.c ****     #else
  35:.\Generated_Source\PSoC4/cyfitter_cfg.c ****         #define CY_CFG_MEMORY_BARRIER() __sync_synchronize()
  36:.\Generated_Source\PSoC4/cyfitter_cfg.c ****     #endif
  37:.\Generated_Source\PSoC4/cyfitter_cfg.c ****     
  38:.\Generated_Source\PSoC4/cyfitter_cfg.c **** #elif defined(__ICCARM__)
  39:.\Generated_Source\PSoC4/cyfitter_cfg.c ****     #include <intrinsics.h>
  40:.\Generated_Source\PSoC4/cyfitter_cfg.c **** 
  41:.\Generated_Source\PSoC4/cyfitter_cfg.c ****     #define CYPACKED __packed
  42:.\Generated_Source\PSoC4/cyfitter_cfg.c ****     #define CYPACKED_ATTR 
  43:.\Generated_Source\PSoC4/cyfitter_cfg.c ****     #define CYALIGNED _Pragma("data_alignment=4")
  44:.\Generated_Source\PSoC4/cyfitter_cfg.c ****     #define CY_CFG_UNUSED _Pragma("diag_suppress=Pe177")
  45:.\Generated_Source\PSoC4/cyfitter_cfg.c ****     #define CY_CFG_SECTION _Pragma("location=\".psocinit\"")
  46:.\Generated_Source\PSoC4/cyfitter_cfg.c ****     
  47:.\Generated_Source\PSoC4/cyfitter_cfg.c ****     #define CY_CFG_MEMORY_BARRIER() __DMB()
  48:.\Generated_Source\PSoC4/cyfitter_cfg.c ****     
  49:.\Generated_Source\PSoC4/cyfitter_cfg.c **** #else
  50:.\Generated_Source\PSoC4/cyfitter_cfg.c ****     #error Unsupported toolchain
  51:.\Generated_Source\PSoC4/cyfitter_cfg.c **** #endif
  52:.\Generated_Source\PSoC4/cyfitter_cfg.c **** 
  53:.\Generated_Source\PSoC4/cyfitter_cfg.c **** 
  54:.\Generated_Source\PSoC4/cyfitter_cfg.c **** CY_CFG_UNUSED
  55:.\Generated_Source\PSoC4/cyfitter_cfg.c **** static void CYMEMZERO(void *s, size_t n);
  56:.\Generated_Source\PSoC4/cyfitter_cfg.c **** CY_CFG_UNUSED
  57:.\Generated_Source\PSoC4/cyfitter_cfg.c **** static void CYMEMZERO(void *s, size_t n)
  58:.\Generated_Source\PSoC4/cyfitter_cfg.c **** {
  59:.\Generated_Source\PSoC4/cyfitter_cfg.c **** 	(void)memset(s, 0, n);
  60:.\Generated_Source\PSoC4/cyfitter_cfg.c **** }
  61:.\Generated_Source\PSoC4/cyfitter_cfg.c **** CY_CFG_UNUSED
  62:.\Generated_Source\PSoC4/cyfitter_cfg.c **** static void CYCONFIGCPY(void *dest, const void *src, size_t n);
  63:.\Generated_Source\PSoC4/cyfitter_cfg.c **** CY_CFG_UNUSED
  64:.\Generated_Source\PSoC4/cyfitter_cfg.c **** static void CYCONFIGCPY(void *dest, const void *src, size_t n)
  65:.\Generated_Source\PSoC4/cyfitter_cfg.c **** {
  66:.\Generated_Source\PSoC4/cyfitter_cfg.c **** 	(void)memcpy(dest, src, n);
  67:.\Generated_Source\PSoC4/cyfitter_cfg.c **** }
  68:.\Generated_Source\PSoC4/cyfitter_cfg.c **** CY_CFG_UNUSED
  69:.\Generated_Source\PSoC4/cyfitter_cfg.c **** static void CYCONFIGCPYCODE(void *dest, const void *src, size_t n);
  70:.\Generated_Source\PSoC4/cyfitter_cfg.c **** CY_CFG_UNUSED
  71:.\Generated_Source\PSoC4/cyfitter_cfg.c **** static void CYCONFIGCPYCODE(void *dest, const void *src, size_t n)
  72:.\Generated_Source\PSoC4/cyfitter_cfg.c **** {
  73:.\Generated_Source\PSoC4/cyfitter_cfg.c **** 	(void)memcpy(dest, src, n);
  74:.\Generated_Source\PSoC4/cyfitter_cfg.c **** }
  75:.\Generated_Source\PSoC4/cyfitter_cfg.c **** 
  76:.\Generated_Source\PSoC4/cyfitter_cfg.c **** 
  77:.\Generated_Source\PSoC4/cyfitter_cfg.c **** 
  78:.\Generated_Source\PSoC4/cyfitter_cfg.c **** /* Clock startup error codes                                                   */
  79:.\Generated_Source\PSoC4/cyfitter_cfg.c **** #define CYCLOCKSTART_NO_ERROR    0u
  80:.\Generated_Source\PSoC4/cyfitter_cfg.c **** #define CYCLOCKSTART_XTAL_ERROR  1u
  81:.\Generated_Source\PSoC4/cyfitter_cfg.c **** #define CYCLOCKSTART_32KHZ_ERROR 2u
  82:.\Generated_Source\PSoC4/cyfitter_cfg.c **** #define CYCLOCKSTART_PLL_ERROR   3u
  83:.\Generated_Source\PSoC4/cyfitter_cfg.c **** 
  84:.\Generated_Source\PSoC4/cyfitter_cfg.c **** #ifdef CY_NEED_CYCLOCKSTARTUPERROR
  85:.\Generated_Source\PSoC4/cyfitter_cfg.c **** /*******************************************************************************
  86:.\Generated_Source\PSoC4/cyfitter_cfg.c **** * Function Name: CyClockStartupError
  87:.\Generated_Source\PSoC4/cyfitter_cfg.c **** ********************************************************************************
  88:.\Generated_Source\PSoC4/cyfitter_cfg.c **** * Summary:
  89:.\Generated_Source\PSoC4/cyfitter_cfg.c **** *  If an error is encountered during clock configuration (crystal startup error,
ARM GAS  C:\Users\Admin\AppData\Local\Temp\cc7dvJpg.s 			page 3


  90:.\Generated_Source\PSoC4/cyfitter_cfg.c **** *  PLL lock error, etc.), the system will end up here.  Unless reimplemented by
  91:.\Generated_Source\PSoC4/cyfitter_cfg.c **** *  the customer, this function will stop in an infinite loop.
  92:.\Generated_Source\PSoC4/cyfitter_cfg.c **** *
  93:.\Generated_Source\PSoC4/cyfitter_cfg.c **** * Parameters:
  94:.\Generated_Source\PSoC4/cyfitter_cfg.c **** *   void
  95:.\Generated_Source\PSoC4/cyfitter_cfg.c **** *
  96:.\Generated_Source\PSoC4/cyfitter_cfg.c **** * Return:
  97:.\Generated_Source\PSoC4/cyfitter_cfg.c **** *   void
  98:.\Generated_Source\PSoC4/cyfitter_cfg.c **** *
  99:.\Generated_Source\PSoC4/cyfitter_cfg.c **** *******************************************************************************/
 100:.\Generated_Source\PSoC4/cyfitter_cfg.c **** CY_CFG_UNUSED
 101:.\Generated_Source\PSoC4/cyfitter_cfg.c **** static void CyClockStartupError(uint8 errorCode);
 102:.\Generated_Source\PSoC4/cyfitter_cfg.c **** CY_CFG_UNUSED
 103:.\Generated_Source\PSoC4/cyfitter_cfg.c **** static void CyClockStartupError(uint8 errorCode)
 104:.\Generated_Source\PSoC4/cyfitter_cfg.c **** {
 105:.\Generated_Source\PSoC4/cyfitter_cfg.c ****     /* To remove the compiler warning if errorCode not used.                */
 106:.\Generated_Source\PSoC4/cyfitter_cfg.c ****     errorCode = errorCode;
 107:.\Generated_Source\PSoC4/cyfitter_cfg.c **** 
 108:.\Generated_Source\PSoC4/cyfitter_cfg.c ****     /* `#START CyClockStartupError` */
 109:.\Generated_Source\PSoC4/cyfitter_cfg.c **** 
 110:.\Generated_Source\PSoC4/cyfitter_cfg.c ****     /* If we have a clock startup error (bad MHz crystal, PLL lock, etc.),  */
 111:.\Generated_Source\PSoC4/cyfitter_cfg.c ****     /* we will end up here to allow the customer to implement something to  */
 112:.\Generated_Source\PSoC4/cyfitter_cfg.c ****     /* deal with the clock condition.                                       */
 113:.\Generated_Source\PSoC4/cyfitter_cfg.c **** 
 114:.\Generated_Source\PSoC4/cyfitter_cfg.c ****     /* `#END` */
 115:.\Generated_Source\PSoC4/cyfitter_cfg.c **** 
 116:.\Generated_Source\PSoC4/cyfitter_cfg.c ****     /* If nothing else, stop here since the clocks have not started         */
 117:.\Generated_Source\PSoC4/cyfitter_cfg.c ****     /* correctly.                                                           */
 118:.\Generated_Source\PSoC4/cyfitter_cfg.c ****     while(1) {}
 119:.\Generated_Source\PSoC4/cyfitter_cfg.c **** }
 120:.\Generated_Source\PSoC4/cyfitter_cfg.c **** #endif
 121:.\Generated_Source\PSoC4/cyfitter_cfg.c **** 
 122:.\Generated_Source\PSoC4/cyfitter_cfg.c **** #define CY_CFG_BASE_ADDR_COUNT 8u
 123:.\Generated_Source\PSoC4/cyfitter_cfg.c **** CYPACKED typedef struct
 124:.\Generated_Source\PSoC4/cyfitter_cfg.c **** {
 125:.\Generated_Source\PSoC4/cyfitter_cfg.c **** 	uint8 offset;
 126:.\Generated_Source\PSoC4/cyfitter_cfg.c **** 	uint8 value;
 127:.\Generated_Source\PSoC4/cyfitter_cfg.c **** } CYPACKED_ATTR cy_cfg_addrvalue_t;
 128:.\Generated_Source\PSoC4/cyfitter_cfg.c **** 
 129:.\Generated_Source\PSoC4/cyfitter_cfg.c **** 
 130:.\Generated_Source\PSoC4/cyfitter_cfg.c **** 
 131:.\Generated_Source\PSoC4/cyfitter_cfg.c **** /*******************************************************************************
 132:.\Generated_Source\PSoC4/cyfitter_cfg.c **** * Function Name: cfg_write_bytes32
 133:.\Generated_Source\PSoC4/cyfitter_cfg.c **** ********************************************************************************
 134:.\Generated_Source\PSoC4/cyfitter_cfg.c **** * Summary:
 135:.\Generated_Source\PSoC4/cyfitter_cfg.c **** *  This function is used for setting up the chip configuration areas that
 136:.\Generated_Source\PSoC4/cyfitter_cfg.c **** *  contain relatively sparse data.
 137:.\Generated_Source\PSoC4/cyfitter_cfg.c **** *
 138:.\Generated_Source\PSoC4/cyfitter_cfg.c **** * Parameters:
 139:.\Generated_Source\PSoC4/cyfitter_cfg.c **** *   void
 140:.\Generated_Source\PSoC4/cyfitter_cfg.c **** *
 141:.\Generated_Source\PSoC4/cyfitter_cfg.c **** * Return:
 142:.\Generated_Source\PSoC4/cyfitter_cfg.c **** *   void
 143:.\Generated_Source\PSoC4/cyfitter_cfg.c **** *
 144:.\Generated_Source\PSoC4/cyfitter_cfg.c **** *******************************************************************************/
 145:.\Generated_Source\PSoC4/cyfitter_cfg.c **** static void cfg_write_bytes32(const uint32 addr_table[], const cy_cfg_addrvalue_t data_table[]);
 146:.\Generated_Source\PSoC4/cyfitter_cfg.c **** static void cfg_write_bytes32(const uint32 addr_table[], const cy_cfg_addrvalue_t data_table[])
ARM GAS  C:\Users\Admin\AppData\Local\Temp\cc7dvJpg.s 			page 4


 147:.\Generated_Source\PSoC4/cyfitter_cfg.c **** {
 148:.\Generated_Source\PSoC4/cyfitter_cfg.c **** 	/* For 32-bit little-endian architectures */
 149:.\Generated_Source\PSoC4/cyfitter_cfg.c **** 	uint32 i, j = 0u;
 150:.\Generated_Source\PSoC4/cyfitter_cfg.c **** 	for (i = 0u; i < CY_CFG_BASE_ADDR_COUNT; i++)
 151:.\Generated_Source\PSoC4/cyfitter_cfg.c **** 	{
 152:.\Generated_Source\PSoC4/cyfitter_cfg.c **** 		uint32 baseAddr = addr_table[i];
 153:.\Generated_Source\PSoC4/cyfitter_cfg.c **** 		uint8 count = (uint8)baseAddr;
 154:.\Generated_Source\PSoC4/cyfitter_cfg.c **** 		baseAddr &= 0xFFFFFF00u;
 155:.\Generated_Source\PSoC4/cyfitter_cfg.c **** 		while (count != 0u)
 156:.\Generated_Source\PSoC4/cyfitter_cfg.c **** 		{
 157:.\Generated_Source\PSoC4/cyfitter_cfg.c **** 			CY_SET_XTND_REG8((void CYFAR *)(baseAddr + data_table[j].offset), data_table[j].value);
 158:.\Generated_Source\PSoC4/cyfitter_cfg.c **** 			j++;
 159:.\Generated_Source\PSoC4/cyfitter_cfg.c **** 			count--;
 160:.\Generated_Source\PSoC4/cyfitter_cfg.c **** 		}
 161:.\Generated_Source\PSoC4/cyfitter_cfg.c **** 	}
 162:.\Generated_Source\PSoC4/cyfitter_cfg.c **** }
 163:.\Generated_Source\PSoC4/cyfitter_cfg.c **** 
 164:.\Generated_Source\PSoC4/cyfitter_cfg.c **** /*******************************************************************************
 165:.\Generated_Source\PSoC4/cyfitter_cfg.c **** * Function Name: SetIMOBGTrims
 166:.\Generated_Source\PSoC4/cyfitter_cfg.c **** ********************************************************************************
 167:.\Generated_Source\PSoC4/cyfitter_cfg.c **** *
 168:.\Generated_Source\PSoC4/cyfitter_cfg.c **** * Summary:
 169:.\Generated_Source\PSoC4/cyfitter_cfg.c **** *   Performs the configuration of the bandgap trim for the IMO based on the given
 170:.\Generated_Source\PSoC4/cyfitter_cfg.c **** *   expected frequency of the IMO. 
 171:.\Generated_Source\PSoC4/cyfitter_cfg.c **** *
 172:.\Generated_Source\PSoC4/cyfitter_cfg.c **** * Parameters:
 173:.\Generated_Source\PSoC4/cyfitter_cfg.c **** *   imoFreq: Frequency for operation of the IMO.
 174:.\Generated_Source\PSoC4/cyfitter_cfg.c **** *
 175:.\Generated_Source\PSoC4/cyfitter_cfg.c **** * Return:
 176:.\Generated_Source\PSoC4/cyfitter_cfg.c **** *   void
 177:.\Generated_Source\PSoC4/cyfitter_cfg.c **** *
 178:.\Generated_Source\PSoC4/cyfitter_cfg.c **** *******************************************************************************/
 179:.\Generated_Source\PSoC4/cyfitter_cfg.c **** static void SetIMOBGTrims(uint8 imoFreq);
 180:.\Generated_Source\PSoC4/cyfitter_cfg.c **** CY_CFG_SECTION
 181:.\Generated_Source\PSoC4/cyfitter_cfg.c **** static void SetIMOBGTrims(uint8 imoFreq)
 182:.\Generated_Source\PSoC4/cyfitter_cfg.c **** {
 183:.\Generated_Source\PSoC4/cyfitter_cfg.c **** 	CYPACKED typedef struct {
 184:.\Generated_Source\PSoC4/cyfitter_cfg.c **** 		uint8 freq;
 185:.\Generated_Source\PSoC4/cyfitter_cfg.c **** 		uint8 absolute;
 186:.\Generated_Source\PSoC4/cyfitter_cfg.c **** 		uint8 tmpco;
 187:.\Generated_Source\PSoC4/cyfitter_cfg.c **** 	} CYPACKED_ATTR imo_trim_entry_t;
 188:.\Generated_Source\PSoC4/cyfitter_cfg.c **** 
 189:.\Generated_Source\PSoC4/cyfitter_cfg.c **** 	CYPACKED typedef struct {
 190:.\Generated_Source\PSoC4/cyfitter_cfg.c **** 		imo_trim_entry_t entries[4];
 191:.\Generated_Source\PSoC4/cyfitter_cfg.c **** 	} CYPACKED_ATTR imo_trim_table_t;
 192:.\Generated_Source\PSoC4/cyfitter_cfg.c **** 
 193:.\Generated_Source\PSoC4/cyfitter_cfg.c **** 	static const imo_trim_table_t *imo_trim_table = (const imo_trim_table_t *)CYREG_SFLASH_IMO_MAXF0;
 194:.\Generated_Source\PSoC4/cyfitter_cfg.c **** 	static const uint32 IMO_TRIM_FREQ_TABLE_ENTRIES = sizeof(imo_trim_table->entries)/sizeof(imo_trim_
 195:.\Generated_Source\PSoC4/cyfitter_cfg.c **** 
 196:.\Generated_Source\PSoC4/cyfitter_cfg.c **** 	int32 imoTrimIndex;
 197:.\Generated_Source\PSoC4/cyfitter_cfg.c **** 	uint8 setAbs;
 198:.\Generated_Source\PSoC4/cyfitter_cfg.c **** 	uint8 setTmpCo;
 199:.\Generated_Source\PSoC4/cyfitter_cfg.c **** 
 200:.\Generated_Source\PSoC4/cyfitter_cfg.c **** 	/* Traverse the SFLASH IMO frequency-dependent bandgap trim table to
 201:.\Generated_Source\PSoC4/cyfitter_cfg.c **** 	 * locate the appropriate value to trim the IMO bandgap based on freq. */
 202:.\Generated_Source\PSoC4/cyfitter_cfg.c **** 	setAbs = CY_GET_REG8((const void *)CYREG_SFLASH_IMO_ABS4);
 203:.\Generated_Source\PSoC4/cyfitter_cfg.c **** 	setTmpCo = CY_GET_REG8((const void *)CYREG_SFLASH_IMO_TMPCO4);
ARM GAS  C:\Users\Admin\AppData\Local\Temp\cc7dvJpg.s 			page 5


 204:.\Generated_Source\PSoC4/cyfitter_cfg.c **** 	for (imoTrimIndex = ((int32)IMO_TRIM_FREQ_TABLE_ENTRIES)-1;
 205:.\Generated_Source\PSoC4/cyfitter_cfg.c **** 	     (imoTrimIndex >= 0) && (imoFreq <= imo_trim_table->entries[imoTrimIndex].freq);
 206:.\Generated_Source\PSoC4/cyfitter_cfg.c **** 	     imoTrimIndex--)
 207:.\Generated_Source\PSoC4/cyfitter_cfg.c **** 	{
 208:.\Generated_Source\PSoC4/cyfitter_cfg.c **** 		setAbs = imo_trim_table->entries[imoTrimIndex].absolute;
 209:.\Generated_Source\PSoC4/cyfitter_cfg.c **** 		setTmpCo = imo_trim_table->entries[imoTrimIndex].tmpco;
 210:.\Generated_Source\PSoC4/cyfitter_cfg.c **** 	}
 211:.\Generated_Source\PSoC4/cyfitter_cfg.c **** 
 212:.\Generated_Source\PSoC4/cyfitter_cfg.c **** 	CY_SET_REG32((void *)CYREG_PWR_BG_TRIM4, setAbs);
 213:.\Generated_Source\PSoC4/cyfitter_cfg.c **** 	CY_SET_REG32((void *)CYREG_PWR_BG_TRIM5, setTmpCo);
 214:.\Generated_Source\PSoC4/cyfitter_cfg.c **** }
 215:.\Generated_Source\PSoC4/cyfitter_cfg.c **** 
 216:.\Generated_Source\PSoC4/cyfitter_cfg.c **** 
 217:.\Generated_Source\PSoC4/cyfitter_cfg.c **** 
 218:.\Generated_Source\PSoC4/cyfitter_cfg.c **** /*******************************************************************************
 219:.\Generated_Source\PSoC4/cyfitter_cfg.c **** * Function Name: ClockSetup
 220:.\Generated_Source\PSoC4/cyfitter_cfg.c **** ********************************************************************************
 221:.\Generated_Source\PSoC4/cyfitter_cfg.c **** *
 222:.\Generated_Source\PSoC4/cyfitter_cfg.c **** * Summary:
 223:.\Generated_Source\PSoC4/cyfitter_cfg.c **** *   Performs the initialization of all of the clocks in the device based on the
 224:.\Generated_Source\PSoC4/cyfitter_cfg.c **** *   settings in the Clock tab of the DWR.  This includes enabling the requested
 225:.\Generated_Source\PSoC4/cyfitter_cfg.c **** *   clocks and setting the necessary dividers to produce the desired frequency. 
 226:.\Generated_Source\PSoC4/cyfitter_cfg.c **** *
 227:.\Generated_Source\PSoC4/cyfitter_cfg.c **** * Parameters:
 228:.\Generated_Source\PSoC4/cyfitter_cfg.c **** *   void
 229:.\Generated_Source\PSoC4/cyfitter_cfg.c **** *
 230:.\Generated_Source\PSoC4/cyfitter_cfg.c **** * Return:
 231:.\Generated_Source\PSoC4/cyfitter_cfg.c **** *   void
 232:.\Generated_Source\PSoC4/cyfitter_cfg.c **** *
 233:.\Generated_Source\PSoC4/cyfitter_cfg.c **** *******************************************************************************/
 234:.\Generated_Source\PSoC4/cyfitter_cfg.c **** static void ClockSetup(void);
 235:.\Generated_Source\PSoC4/cyfitter_cfg.c **** CY_CFG_SECTION
 236:.\Generated_Source\PSoC4/cyfitter_cfg.c **** static void ClockSetup(void)
 237:.\Generated_Source\PSoC4/cyfitter_cfg.c **** {
 238:.\Generated_Source\PSoC4/cyfitter_cfg.c **** 	/* Enable HALF_EN before trimming for the flash accelerator. */
 239:.\Generated_Source\PSoC4/cyfitter_cfg.c **** 	CY_SET_REG32((void CYXDATA *)(CYREG_CLK_SELECT), (CY_GET_REG32((void *)CYREG_CLK_SELECT) | 0x00040
 240:.\Generated_Source\PSoC4/cyfitter_cfg.c **** 
 241:.\Generated_Source\PSoC4/cyfitter_cfg.c **** 	/* Trim IMO BG based on desired frequency. */
 242:.\Generated_Source\PSoC4/cyfitter_cfg.c **** 	SetIMOBGTrims(24u);
 243:.\Generated_Source\PSoC4/cyfitter_cfg.c **** 
 244:.\Generated_Source\PSoC4/cyfitter_cfg.c **** 	/* Going less than or equal to 24MHz, so update the clock speed then adjust trim value. */
 245:.\Generated_Source\PSoC4/cyfitter_cfg.c **** 	CY_SET_REG32((void CYXDATA *)(CYREG_CLK_IMO_TRIM2), (25u));
 246:.\Generated_Source\PSoC4/cyfitter_cfg.c **** 	CyDelayCycles(5u);
 247:.\Generated_Source\PSoC4/cyfitter_cfg.c **** 	CY_SET_REG32((void CYXDATA *)(CYREG_CLK_IMO_TRIM1), (CY_GET_REG8((void *)CYREG_SFLASH_IMO_TRIM21))
 248:.\Generated_Source\PSoC4/cyfitter_cfg.c **** 	CyDelayUs(5u);
 249:.\Generated_Source\PSoC4/cyfitter_cfg.c **** 
 250:.\Generated_Source\PSoC4/cyfitter_cfg.c **** 	/* Disable HALF_EN since it is not required at this IMO frequency. */
 251:.\Generated_Source\PSoC4/cyfitter_cfg.c **** 	CY_SET_REG32((void CYXDATA *)(CYREG_CLK_SELECT), (CY_GET_REG32((void *)CYREG_CLK_SELECT) & 0xFFFBF
 252:.\Generated_Source\PSoC4/cyfitter_cfg.c **** 	/* CYDEV_CLK_ILO_CONFIG Starting address: CYDEV_CLK_ILO_CONFIG */
 253:.\Generated_Source\PSoC4/cyfitter_cfg.c **** 	CY_SET_XTND_REG32((void CYFAR *)(CYREG_CLK_ILO_CONFIG), 0x80000006u);
 254:.\Generated_Source\PSoC4/cyfitter_cfg.c **** 
 255:.\Generated_Source\PSoC4/cyfitter_cfg.c **** 
 256:.\Generated_Source\PSoC4/cyfitter_cfg.c **** 	/* CYDEV_CLK_SELECT00 Starting address: CYDEV_CLK_SELECT00 */
 257:.\Generated_Source\PSoC4/cyfitter_cfg.c **** 	CY_SET_XTND_REG32((void CYFAR *)(CYREG_CLK_SELECT12), 0x00000010u);
 258:.\Generated_Source\PSoC4/cyfitter_cfg.c **** 
 259:.\Generated_Source\PSoC4/cyfitter_cfg.c **** 	/* CYDEV_CLK_IMO_CONFIG Starting address: CYDEV_CLK_IMO_CONFIG */
 260:.\Generated_Source\PSoC4/cyfitter_cfg.c **** 	CY_SET_XTND_REG32((void CYFAR *)(CYREG_CLK_IMO_CONFIG), 0x80000000u);
ARM GAS  C:\Users\Admin\AppData\Local\Temp\cc7dvJpg.s 			page 6


 261:.\Generated_Source\PSoC4/cyfitter_cfg.c **** 
 262:.\Generated_Source\PSoC4/cyfitter_cfg.c **** 	/* CYDEV_CLK_DIVIDER_A00 Starting address: CYDEV_CLK_DIVIDER_A00 */
 263:.\Generated_Source\PSoC4/cyfitter_cfg.c **** 	CY_SET_XTND_REG32((void CYFAR *)(CYREG_CLK_DIVIDER_A00), 0x8000176Fu);
 264:.\Generated_Source\PSoC4/cyfitter_cfg.c **** 
 265:.\Generated_Source\PSoC4/cyfitter_cfg.c **** }
 266:.\Generated_Source\PSoC4/cyfitter_cfg.c **** 
 267:.\Generated_Source\PSoC4/cyfitter_cfg.c **** 
 268:.\Generated_Source\PSoC4/cyfitter_cfg.c **** /* Analog API Functions */
 269:.\Generated_Source\PSoC4/cyfitter_cfg.c **** 
 270:.\Generated_Source\PSoC4/cyfitter_cfg.c **** 
 271:.\Generated_Source\PSoC4/cyfitter_cfg.c **** /*******************************************************************************
 272:.\Generated_Source\PSoC4/cyfitter_cfg.c **** * Function Name: AnalogSetDefault
 273:.\Generated_Source\PSoC4/cyfitter_cfg.c **** ********************************************************************************
 274:.\Generated_Source\PSoC4/cyfitter_cfg.c **** *
 275:.\Generated_Source\PSoC4/cyfitter_cfg.c **** * Summary:
 276:.\Generated_Source\PSoC4/cyfitter_cfg.c **** *  Sets up the analog portions of the chip to default values based on chip
 277:.\Generated_Source\PSoC4/cyfitter_cfg.c **** *  configuration options from the project.
 278:.\Generated_Source\PSoC4/cyfitter_cfg.c **** *
 279:.\Generated_Source\PSoC4/cyfitter_cfg.c **** * Parameters:
 280:.\Generated_Source\PSoC4/cyfitter_cfg.c **** *  void
 281:.\Generated_Source\PSoC4/cyfitter_cfg.c **** *
 282:.\Generated_Source\PSoC4/cyfitter_cfg.c **** * Return:
 283:.\Generated_Source\PSoC4/cyfitter_cfg.c **** *  void
 284:.\Generated_Source\PSoC4/cyfitter_cfg.c **** *
 285:.\Generated_Source\PSoC4/cyfitter_cfg.c **** *******************************************************************************/
 286:.\Generated_Source\PSoC4/cyfitter_cfg.c **** static void AnalogSetDefault(void);
 287:.\Generated_Source\PSoC4/cyfitter_cfg.c **** static void AnalogSetDefault(void)
 288:.\Generated_Source\PSoC4/cyfitter_cfg.c **** {
 289:.\Generated_Source\PSoC4/cyfitter_cfg.c **** }
 290:.\Generated_Source\PSoC4/cyfitter_cfg.c **** 
 291:.\Generated_Source\PSoC4/cyfitter_cfg.c **** #define CY_AMUX_UNUSED CYREG_CM0_ROM_DWT
 292:.\Generated_Source\PSoC4/cyfitter_cfg.c **** 
 293:.\Generated_Source\PSoC4/cyfitter_cfg.c **** 
 294:.\Generated_Source\PSoC4/cyfitter_cfg.c **** /*******************************************************************************
 295:.\Generated_Source\PSoC4/cyfitter_cfg.c **** * Function Name: cyfitter_cfg
 296:.\Generated_Source\PSoC4/cyfitter_cfg.c **** ********************************************************************************
 297:.\Generated_Source\PSoC4/cyfitter_cfg.c **** * Summary:
 298:.\Generated_Source\PSoC4/cyfitter_cfg.c **** *  This function is called by the start-up code for the selected device. It
 299:.\Generated_Source\PSoC4/cyfitter_cfg.c **** *  performs all of the necessary device configuration based on the design
 300:.\Generated_Source\PSoC4/cyfitter_cfg.c **** *  settings.  This includes settings from the Design Wide Resources (DWR) such
 301:.\Generated_Source\PSoC4/cyfitter_cfg.c **** *  as Clocks and Pins as well as any component configuration that is necessary.
 302:.\Generated_Source\PSoC4/cyfitter_cfg.c **** *
 303:.\Generated_Source\PSoC4/cyfitter_cfg.c **** * Parameters:  
 304:.\Generated_Source\PSoC4/cyfitter_cfg.c **** *   void
 305:.\Generated_Source\PSoC4/cyfitter_cfg.c **** *
 306:.\Generated_Source\PSoC4/cyfitter_cfg.c **** * Return:
 307:.\Generated_Source\PSoC4/cyfitter_cfg.c **** *   void
 308:.\Generated_Source\PSoC4/cyfitter_cfg.c **** *
 309:.\Generated_Source\PSoC4/cyfitter_cfg.c **** *******************************************************************************/
 310:.\Generated_Source\PSoC4/cyfitter_cfg.c **** CY_CFG_SECTION
 311:.\Generated_Source\PSoC4/cyfitter_cfg.c **** void cyfitter_cfg(void)
 312:.\Generated_Source\PSoC4/cyfitter_cfg.c **** {
  26              		.loc 1 312 0
  27              		.cfi_startproc
  28 0000 F7B5     		push	{r0, r1, r2, r4, r5, r6, r7, lr}
  29              		.cfi_def_cfa_offset 32
  30              		.cfi_offset 0, -32
ARM GAS  C:\Users\Admin\AppData\Local\Temp\cc7dvJpg.s 			page 7


  31              		.cfi_offset 1, -28
  32              		.cfi_offset 2, -24
  33              		.cfi_offset 4, -20
  34              		.cfi_offset 5, -16
  35              		.cfi_offset 6, -12
  36              		.cfi_offset 7, -8
  37              		.cfi_offset 14, -4
 313:.\Generated_Source\PSoC4/cyfitter_cfg.c **** 	/* Disable interrupts by default. Let user enable if/when they want. */
 314:.\Generated_Source\PSoC4/cyfitter_cfg.c **** 	CyGlobalIntDisable;
  38              		.loc 1 314 0
  39              	@ 314 ".\Generated_Source\PSoC4\cyfitter_cfg.c" 1
  40 0002 72B6     		CPSID   i
  41              	@ 0 "" 2
  42              	.LVL0:
  43              		.code	16
  44              	.LBB18:
  45              	.LBB19:
  46              	.LBB20:
  47              	.LBB21:
  59:.\Generated_Source\PSoC4/cyfitter_cfg.c **** 	(void)memset(s, 0, n);
  48              		.loc 1 59 0
  49 0004 8022     		mov	r2, #128
  50 0006 0021     		mov	r1, #0
  51 0008 D200     		lsl	r2, r2, #3
  52 000a 6348     		ldr	r0, .L11
  53 000c FFF7FEFF 		bl	memset
  54              	.LVL1:
  55 0010 8022     		mov	r2, #128
  56 0012 0021     		mov	r1, #0
  57 0014 6148     		ldr	r0, .L11+4
  58 0016 D200     		lsl	r2, r2, #3
  59 0018 FFF7FEFF 		bl	memset
  60              	.LVL2:
  61 001c 0023     		mov	r3, #0
  62 001e 191C     		mov	r1, r3
  63              	.LVL3:
  64              	.L5:
  65              	.LBE21:
  66              	.LBE20:
  67              	.LBE19:
  68              	.LBB22:
  69              	.LBB23:
  70              	.LBB24:
 152:.\Generated_Source\PSoC4/cyfitter_cfg.c **** 		uint32 baseAddr = addr_table[i];
  71              		.loc 1 152 0
  72 0020 5F4C     		ldr	r4, .L11+8
  73 0022 1859     		ldr	r0, [r3, r4]
  74              	.LVL4:
  75 0024 2034     		add	r4, r4, #32
 153:.\Generated_Source\PSoC4/cyfitter_cfg.c **** 		uint8 count = (uint8)baseAddr;
  76              		.loc 1 153 0
  77 0026 C2B2     		uxtb	r2, r0
  78 0028 0192     		str	r2, [sp, #4]
  79              	.LVL5:
 154:.\Generated_Source\PSoC4/cyfitter_cfg.c **** 		baseAddr &= 0xFFFFFF00u;
  80              		.loc 1 154 0
  81 002a 071C     		mov	r7, r0
ARM GAS  C:\Users\Admin\AppData\Local\Temp\cc7dvJpg.s 			page 8


  82 002c FF22     		mov	r2, #255
  83 002e 9743     		bic	r7, r2
  84              	.LVL6:
  85 0030 4A00     		lsl	r2, r1, #1
  86 0032 A418     		add	r4, r4, r2
  87 0034 0022     		mov	r2, #0
  88              	.LVL7:
  89              	.L2:
 155:.\Generated_Source\PSoC4/cyfitter_cfg.c **** 		while (count != 0u)
  90              		.loc 1 155 0
  91 0036 019E     		ldr	r6, [sp, #4]
  92 0038 D5B2     		uxtb	r5, r2
  93 003a AE42     		cmp	r6, r5
  94 003c 09D0     		beq	.L10
  95 003e 5500     		lsl	r5, r2, #1
 157:.\Generated_Source\PSoC4/cyfitter_cfg.c **** 			CY_SET_XTND_REG8((void CYFAR *)(baseAddr + data_table[j].offset), data_table[j].value);
  96              		.loc 1 157 0
  97 0040 665D     		ldrb	r6, [r4, r5]
  98 0042 6519     		add	r5, r4, r5
  99 0044 B446     		mov	ip, r6
 100 0046 BC44     		add	ip, ip, r7
 101 0048 6D78     		ldrb	r5, [r5, #1]
 102 004a 6646     		mov	r6, ip
 103 004c 3570     		strb	r5, [r6]
 104              	.LVL8:
 105 004e 0132     		add	r2, r2, #1
 106              	.LVL9:
 107 0050 F1E7     		b	.L2
 108              	.LVL10:
 109              	.L10:
 110 0052 C0B2     		uxtb	r0, r0
 111              	.LVL11:
 112 0054 0433     		add	r3, r3, #4
 113              	.LVL12:
 114 0056 0918     		add	r1, r1, r0
 115              	.LVL13:
 116              	.LBE24:
 150:.\Generated_Source\PSoC4/cyfitter_cfg.c **** 	for (i = 0u; i < CY_CFG_BASE_ADDR_COUNT; i++)
 117              		.loc 1 150 0
 118 0058 202B     		cmp	r3, #32
 119 005a E1D1     		bne	.L5
 120              	.LBE23:
 121              	.LBE22:
 315:.\Generated_Source\PSoC4/cyfitter_cfg.c **** 
 316:.\Generated_Source\PSoC4/cyfitter_cfg.c **** 	{
 317:.\Generated_Source\PSoC4/cyfitter_cfg.c **** 		static const uint32 CYCODE cy_cfg_addr_table[] = {
 318:.\Generated_Source\PSoC4/cyfitter_cfg.c **** 			0x400F0002u, /* Base address: 0x400F0000 Count: 2 */
 319:.\Generated_Source\PSoC4/cyfitter_cfg.c **** 			0x400F324Cu, /* Base address: 0x400F3200 Count: 76 */
 320:.\Generated_Source\PSoC4/cyfitter_cfg.c **** 			0x400F332Bu, /* Base address: 0x400F3300 Count: 43 */
 321:.\Generated_Source\PSoC4/cyfitter_cfg.c **** 			0x400F4002u, /* Base address: 0x400F4000 Count: 2 */
 322:.\Generated_Source\PSoC4/cyfitter_cfg.c **** 			0x400F4102u, /* Base address: 0x400F4100 Count: 2 */
 323:.\Generated_Source\PSoC4/cyfitter_cfg.c **** 			0x400F4202u, /* Base address: 0x400F4200 Count: 2 */
 324:.\Generated_Source\PSoC4/cyfitter_cfg.c **** 			0x400F4302u, /* Base address: 0x400F4300 Count: 2 */
 325:.\Generated_Source\PSoC4/cyfitter_cfg.c **** 			0x400F6002u, /* Base address: 0x400F6000 Count: 2 */
 326:.\Generated_Source\PSoC4/cyfitter_cfg.c **** 		};
 327:.\Generated_Source\PSoC4/cyfitter_cfg.c **** 
 328:.\Generated_Source\PSoC4/cyfitter_cfg.c **** 		static const cy_cfg_addrvalue_t CYCODE cy_cfg_data_table[] = {
ARM GAS  C:\Users\Admin\AppData\Local\Temp\cc7dvJpg.s 			page 9


 329:.\Generated_Source\PSoC4/cyfitter_cfg.c **** 			{0x82u, 0x0Du},
 330:.\Generated_Source\PSoC4/cyfitter_cfg.c **** 			{0x83u, 0x0Du},
 331:.\Generated_Source\PSoC4/cyfitter_cfg.c **** 			{0x0Fu, 0x01u},
 332:.\Generated_Source\PSoC4/cyfitter_cfg.c **** 			{0x14u, 0x04u},
 333:.\Generated_Source\PSoC4/cyfitter_cfg.c **** 			{0x1Au, 0x07u},
 334:.\Generated_Source\PSoC4/cyfitter_cfg.c **** 			{0x27u, 0x01u},
 335:.\Generated_Source\PSoC4/cyfitter_cfg.c **** 			{0x2Eu, 0x09u},
 336:.\Generated_Source\PSoC4/cyfitter_cfg.c **** 			{0x30u, 0x04u},
 337:.\Generated_Source\PSoC4/cyfitter_cfg.c **** 			{0x32u, 0x02u},
 338:.\Generated_Source\PSoC4/cyfitter_cfg.c **** 			{0x34u, 0x08u},
 339:.\Generated_Source\PSoC4/cyfitter_cfg.c **** 			{0x35u, 0x01u},
 340:.\Generated_Source\PSoC4/cyfitter_cfg.c **** 			{0x36u, 0x01u},
 341:.\Generated_Source\PSoC4/cyfitter_cfg.c **** 			{0x3Fu, 0x10u},
 342:.\Generated_Source\PSoC4/cyfitter_cfg.c **** 			{0x40u, 0x20u},
 343:.\Generated_Source\PSoC4/cyfitter_cfg.c **** 			{0x41u, 0x05u},
 344:.\Generated_Source\PSoC4/cyfitter_cfg.c **** 			{0x45u, 0xD1u},
 345:.\Generated_Source\PSoC4/cyfitter_cfg.c **** 			{0x46u, 0x02u},
 346:.\Generated_Source\PSoC4/cyfitter_cfg.c **** 			{0x48u, 0x07u},
 347:.\Generated_Source\PSoC4/cyfitter_cfg.c **** 			{0x49u, 0xFFu},
 348:.\Generated_Source\PSoC4/cyfitter_cfg.c **** 			{0x4Au, 0xFFu},
 349:.\Generated_Source\PSoC4/cyfitter_cfg.c **** 			{0x4Bu, 0xFFu},
 350:.\Generated_Source\PSoC4/cyfitter_cfg.c **** 			{0x4Du, 0xA0u},
 351:.\Generated_Source\PSoC4/cyfitter_cfg.c **** 			{0x4Fu, 0x04u},
 352:.\Generated_Source\PSoC4/cyfitter_cfg.c **** 			{0x50u, 0x18u},
 353:.\Generated_Source\PSoC4/cyfitter_cfg.c **** 			{0x52u, 0x80u},
 354:.\Generated_Source\PSoC4/cyfitter_cfg.c **** 			{0x54u, 0x05u},
 355:.\Generated_Source\PSoC4/cyfitter_cfg.c **** 			{0x58u, 0x04u},
 356:.\Generated_Source\PSoC4/cyfitter_cfg.c **** 			{0x59u, 0x04u},
 357:.\Generated_Source\PSoC4/cyfitter_cfg.c **** 			{0x5Au, 0x04u},
 358:.\Generated_Source\PSoC4/cyfitter_cfg.c **** 			{0x5Bu, 0x04u},
 359:.\Generated_Source\PSoC4/cyfitter_cfg.c **** 			{0x5Fu, 0x01u},
 360:.\Generated_Source\PSoC4/cyfitter_cfg.c **** 			{0x60u, 0x40u},
 361:.\Generated_Source\PSoC4/cyfitter_cfg.c **** 			{0x62u, 0xC0u},
 362:.\Generated_Source\PSoC4/cyfitter_cfg.c **** 			{0x64u, 0x40u},
 363:.\Generated_Source\PSoC4/cyfitter_cfg.c **** 			{0x65u, 0x40u},
 364:.\Generated_Source\PSoC4/cyfitter_cfg.c **** 			{0x66u, 0xC0u},
 365:.\Generated_Source\PSoC4/cyfitter_cfg.c **** 			{0x68u, 0xC0u},
 366:.\Generated_Source\PSoC4/cyfitter_cfg.c **** 			{0x6Au, 0xC0u},
 367:.\Generated_Source\PSoC4/cyfitter_cfg.c **** 			{0x6Cu, 0xC0u},
 368:.\Generated_Source\PSoC4/cyfitter_cfg.c **** 			{0x6Eu, 0xC0u},
 369:.\Generated_Source\PSoC4/cyfitter_cfg.c **** 			{0x87u, 0x01u},
 370:.\Generated_Source\PSoC4/cyfitter_cfg.c **** 			{0x92u, 0x09u},
 371:.\Generated_Source\PSoC4/cyfitter_cfg.c **** 			{0x93u, 0x01u},
 372:.\Generated_Source\PSoC4/cyfitter_cfg.c **** 			{0x9Cu, 0x04u},
 373:.\Generated_Source\PSoC4/cyfitter_cfg.c **** 			{0xA6u, 0x07u},
 374:.\Generated_Source\PSoC4/cyfitter_cfg.c **** 			{0xB0u, 0x04u},
 375:.\Generated_Source\PSoC4/cyfitter_cfg.c **** 			{0xB2u, 0x01u},
 376:.\Generated_Source\PSoC4/cyfitter_cfg.c **** 			{0xB3u, 0x01u},
 377:.\Generated_Source\PSoC4/cyfitter_cfg.c **** 			{0xB4u, 0x08u},
 378:.\Generated_Source\PSoC4/cyfitter_cfg.c **** 			{0xB6u, 0x02u},
 379:.\Generated_Source\PSoC4/cyfitter_cfg.c **** 			{0xBFu, 0x04u},
 380:.\Generated_Source\PSoC4/cyfitter_cfg.c **** 			{0xC0u, 0x20u},
 381:.\Generated_Source\PSoC4/cyfitter_cfg.c **** 			{0xC1u, 0x05u},
 382:.\Generated_Source\PSoC4/cyfitter_cfg.c **** 			{0xC5u, 0xD1u},
 383:.\Generated_Source\PSoC4/cyfitter_cfg.c **** 			{0xC7u, 0x20u},
 384:.\Generated_Source\PSoC4/cyfitter_cfg.c **** 			{0xC8u, 0x23u},
 385:.\Generated_Source\PSoC4/cyfitter_cfg.c **** 			{0xC9u, 0xFFu},
ARM GAS  C:\Users\Admin\AppData\Local\Temp\cc7dvJpg.s 			page 10


 386:.\Generated_Source\PSoC4/cyfitter_cfg.c **** 			{0xCAu, 0xFFu},
 387:.\Generated_Source\PSoC4/cyfitter_cfg.c **** 			{0xCBu, 0xFFu},
 388:.\Generated_Source\PSoC4/cyfitter_cfg.c **** 			{0xCDu, 0xA0u},
 389:.\Generated_Source\PSoC4/cyfitter_cfg.c **** 			{0xCFu, 0x04u},
 390:.\Generated_Source\PSoC4/cyfitter_cfg.c **** 			{0xD0u, 0x18u},
 391:.\Generated_Source\PSoC4/cyfitter_cfg.c **** 			{0xD2u, 0x80u},
 392:.\Generated_Source\PSoC4/cyfitter_cfg.c **** 			{0xD4u, 0x05u},
 393:.\Generated_Source\PSoC4/cyfitter_cfg.c **** 			{0xD8u, 0x04u},
 394:.\Generated_Source\PSoC4/cyfitter_cfg.c **** 			{0xD9u, 0x04u},
 395:.\Generated_Source\PSoC4/cyfitter_cfg.c **** 			{0xDAu, 0x04u},
 396:.\Generated_Source\PSoC4/cyfitter_cfg.c **** 			{0xDBu, 0x04u},
 397:.\Generated_Source\PSoC4/cyfitter_cfg.c **** 			{0xDFu, 0x01u},
 398:.\Generated_Source\PSoC4/cyfitter_cfg.c **** 			{0xE0u, 0x40u},
 399:.\Generated_Source\PSoC4/cyfitter_cfg.c **** 			{0xE2u, 0xC0u},
 400:.\Generated_Source\PSoC4/cyfitter_cfg.c **** 			{0xE4u, 0x40u},
 401:.\Generated_Source\PSoC4/cyfitter_cfg.c **** 			{0xE5u, 0x40u},
 402:.\Generated_Source\PSoC4/cyfitter_cfg.c **** 			{0xE6u, 0xC0u},
 403:.\Generated_Source\PSoC4/cyfitter_cfg.c **** 			{0xE8u, 0xC0u},
 404:.\Generated_Source\PSoC4/cyfitter_cfg.c **** 			{0xEAu, 0xC0u},
 405:.\Generated_Source\PSoC4/cyfitter_cfg.c **** 			{0xECu, 0xC0u},
 406:.\Generated_Source\PSoC4/cyfitter_cfg.c **** 			{0xEEu, 0xC0u},
 407:.\Generated_Source\PSoC4/cyfitter_cfg.c **** 			{0x09u, 0x02u},
 408:.\Generated_Source\PSoC4/cyfitter_cfg.c **** 			{0x0Au, 0x01u},
 409:.\Generated_Source\PSoC4/cyfitter_cfg.c **** 			{0x0Eu, 0x20u},
 410:.\Generated_Source\PSoC4/cyfitter_cfg.c **** 			{0x0Fu, 0x08u},
 411:.\Generated_Source\PSoC4/cyfitter_cfg.c **** 			{0x10u, 0x20u},
 412:.\Generated_Source\PSoC4/cyfitter_cfg.c **** 			{0x17u, 0x80u},
 413:.\Generated_Source\PSoC4/cyfitter_cfg.c **** 			{0x18u, 0x04u},
 414:.\Generated_Source\PSoC4/cyfitter_cfg.c **** 			{0x19u, 0x08u},
 415:.\Generated_Source\PSoC4/cyfitter_cfg.c **** 			{0x1Au, 0x41u},
 416:.\Generated_Source\PSoC4/cyfitter_cfg.c **** 			{0x1Du, 0xA0u},
 417:.\Generated_Source\PSoC4/cyfitter_cfg.c **** 			{0x1Eu, 0xA0u},
 418:.\Generated_Source\PSoC4/cyfitter_cfg.c **** 			{0x1Fu, 0x20u},
 419:.\Generated_Source\PSoC4/cyfitter_cfg.c **** 			{0x22u, 0x04u},
 420:.\Generated_Source\PSoC4/cyfitter_cfg.c **** 			{0x27u, 0x08u},
 421:.\Generated_Source\PSoC4/cyfitter_cfg.c **** 			{0x2Fu, 0x20u},
 422:.\Generated_Source\PSoC4/cyfitter_cfg.c **** 			{0x30u, 0x02u},
 423:.\Generated_Source\PSoC4/cyfitter_cfg.c **** 			{0x38u, 0x04u},
 424:.\Generated_Source\PSoC4/cyfitter_cfg.c **** 			{0x3Fu, 0x80u},
 425:.\Generated_Source\PSoC4/cyfitter_cfg.c **** 			{0x40u, 0x04u},
 426:.\Generated_Source\PSoC4/cyfitter_cfg.c **** 			{0x45u, 0x20u},
 427:.\Generated_Source\PSoC4/cyfitter_cfg.c **** 			{0x48u, 0x22u},
 428:.\Generated_Source\PSoC4/cyfitter_cfg.c **** 			{0x49u, 0x01u},
 429:.\Generated_Source\PSoC4/cyfitter_cfg.c **** 			{0x4Fu, 0x89u},
 430:.\Generated_Source\PSoC4/cyfitter_cfg.c **** 			{0x50u, 0x02u},
 431:.\Generated_Source\PSoC4/cyfitter_cfg.c **** 			{0x57u, 0x40u},
 432:.\Generated_Source\PSoC4/cyfitter_cfg.c **** 			{0x59u, 0x01u},
 433:.\Generated_Source\PSoC4/cyfitter_cfg.c **** 			{0x5Au, 0x48u},
 434:.\Generated_Source\PSoC4/cyfitter_cfg.c **** 			{0x5Eu, 0x80u},
 435:.\Generated_Source\PSoC4/cyfitter_cfg.c **** 			{0x5Fu, 0x09u},
 436:.\Generated_Source\PSoC4/cyfitter_cfg.c **** 			{0x71u, 0x02u},
 437:.\Generated_Source\PSoC4/cyfitter_cfg.c **** 			{0x77u, 0x80u},
 438:.\Generated_Source\PSoC4/cyfitter_cfg.c **** 			{0x81u, 0x08u},
 439:.\Generated_Source\PSoC4/cyfitter_cfg.c **** 			{0x8Du, 0x80u},
 440:.\Generated_Source\PSoC4/cyfitter_cfg.c **** 			{0xC2u, 0x69u},
 441:.\Generated_Source\PSoC4/cyfitter_cfg.c **** 			{0xC4u, 0x84u},
 442:.\Generated_Source\PSoC4/cyfitter_cfg.c **** 			{0xCAu, 0x40u},
ARM GAS  C:\Users\Admin\AppData\Local\Temp\cc7dvJpg.s 			page 11


 443:.\Generated_Source\PSoC4/cyfitter_cfg.c **** 			{0xCCu, 0x01u},
 444:.\Generated_Source\PSoC4/cyfitter_cfg.c **** 			{0xCEu, 0x12u},
 445:.\Generated_Source\PSoC4/cyfitter_cfg.c **** 			{0xD0u, 0x24u},
 446:.\Generated_Source\PSoC4/cyfitter_cfg.c **** 			{0xD2u, 0x18u},
 447:.\Generated_Source\PSoC4/cyfitter_cfg.c **** 			{0xD6u, 0xDBu},
 448:.\Generated_Source\PSoC4/cyfitter_cfg.c **** 			{0xE2u, 0x10u},
 449:.\Generated_Source\PSoC4/cyfitter_cfg.c **** 			{0xE4u, 0x04u},
 450:.\Generated_Source\PSoC4/cyfitter_cfg.c **** 			{0x5Au, 0x80u},
 451:.\Generated_Source\PSoC4/cyfitter_cfg.c **** 			{0xD4u, 0x80u},
 452:.\Generated_Source\PSoC4/cyfitter_cfg.c **** 			{0x8Eu, 0x40u},
 453:.\Generated_Source\PSoC4/cyfitter_cfg.c **** 			{0x96u, 0x80u},
 454:.\Generated_Source\PSoC4/cyfitter_cfg.c **** 			{0x67u, 0x02u},
 455:.\Generated_Source\PSoC4/cyfitter_cfg.c **** 			{0xD6u, 0x01u},
 456:.\Generated_Source\PSoC4/cyfitter_cfg.c **** 			{0x83u, 0x01u},
 457:.\Generated_Source\PSoC4/cyfitter_cfg.c **** 			{0x97u, 0x02u},
 458:.\Generated_Source\PSoC4/cyfitter_cfg.c **** 			{0x10u, 0x01u},
 459:.\Generated_Source\PSoC4/cyfitter_cfg.c **** 			{0x11u, 0x01u},
 460:.\Generated_Source\PSoC4/cyfitter_cfg.c **** 		};
 461:.\Generated_Source\PSoC4/cyfitter_cfg.c **** 
 462:.\Generated_Source\PSoC4/cyfitter_cfg.c **** 
 463:.\Generated_Source\PSoC4/cyfitter_cfg.c **** 
 464:.\Generated_Source\PSoC4/cyfitter_cfg.c **** 		CYPACKED typedef struct {
 465:.\Generated_Source\PSoC4/cyfitter_cfg.c **** 			void CYFAR *address;
 466:.\Generated_Source\PSoC4/cyfitter_cfg.c **** 			uint16 size;
 467:.\Generated_Source\PSoC4/cyfitter_cfg.c **** 		} CYPACKED_ATTR cfg_memset_t;
 468:.\Generated_Source\PSoC4/cyfitter_cfg.c **** 
 469:.\Generated_Source\PSoC4/cyfitter_cfg.c **** 		static const cfg_memset_t CYCODE cfg_memset_list [] = {
 470:.\Generated_Source\PSoC4/cyfitter_cfg.c **** 			/* address, size */
 471:.\Generated_Source\PSoC4/cyfitter_cfg.c **** 			{(void CYFAR *)(CYDEV_UDB_P0_U0_BASE), 1024u},
 472:.\Generated_Source\PSoC4/cyfitter_cfg.c **** 			{(void CYFAR *)(CYDEV_UDB_DSI0_BASE), 1024u},
 473:.\Generated_Source\PSoC4/cyfitter_cfg.c **** 		};
 474:.\Generated_Source\PSoC4/cyfitter_cfg.c **** 
 475:.\Generated_Source\PSoC4/cyfitter_cfg.c **** 		uint8 CYDATA i;
 476:.\Generated_Source\PSoC4/cyfitter_cfg.c **** 
 477:.\Generated_Source\PSoC4/cyfitter_cfg.c **** 		/* Zero out critical memory blocks before beginning configuration */
 478:.\Generated_Source\PSoC4/cyfitter_cfg.c **** 		for (i = 0u; i < (sizeof(cfg_memset_list)/sizeof(cfg_memset_list[0])); i++)
 479:.\Generated_Source\PSoC4/cyfitter_cfg.c **** 		{
 480:.\Generated_Source\PSoC4/cyfitter_cfg.c **** 			const cfg_memset_t CYCODE * CYDATA ms = &cfg_memset_list[i];
 481:.\Generated_Source\PSoC4/cyfitter_cfg.c **** 			CYMEMZERO(ms->address, (size_t)(uint32)(ms->size));
 482:.\Generated_Source\PSoC4/cyfitter_cfg.c **** 		}
 483:.\Generated_Source\PSoC4/cyfitter_cfg.c **** 
 484:.\Generated_Source\PSoC4/cyfitter_cfg.c **** 		cfg_write_bytes32(cy_cfg_addr_table, cy_cfg_data_table);
 485:.\Generated_Source\PSoC4/cyfitter_cfg.c **** 
 486:.\Generated_Source\PSoC4/cyfitter_cfg.c **** 		/* Perform normal device configuration. Order is not critical for these items. */
 487:.\Generated_Source\PSoC4/cyfitter_cfg.c **** 		CY_SET_XTND_REG16((void CYFAR *)(CYREG_UDB_BCTL0_DRV), 0x0100u);
 122              		.loc 1 487 0
 123 005c 514A     		ldr	r2, .L11+12
 124              	.LVL14:
 125 005e 8021     		mov	r1, #128
 126              	.LVL15:
 127 0060 4900     		lsl	r1, r1, #1
 128 0062 1180     		strh	r1, [r2]
 488:.\Generated_Source\PSoC4/cyfitter_cfg.c **** 		CY_SET_XTND_REG8((void CYFAR *)(CYREG_UDB_BCTL0_DRV + 0x2u), 0x01u);
 129              		.loc 1 488 0
 130 0064 504A     		ldr	r2, .L11+16
 131 0066 0121     		mov	r1, #1
 132 0068 1170     		strb	r1, [r2]
ARM GAS  C:\Users\Admin\AppData\Local\Temp\cc7dvJpg.s 			page 12


 489:.\Generated_Source\PSoC4/cyfitter_cfg.c **** 
 490:.\Generated_Source\PSoC4/cyfitter_cfg.c **** 		/* HSIOM Starting address: CYDEV_HSIOM_BASE */
 491:.\Generated_Source\PSoC4/cyfitter_cfg.c **** 		CY_SET_XTND_REG32((void CYFAR *)(CYDEV_HSIOM_BASE), 0x00000003u);
 133              		.loc 1 491 0
 134 006a 504A     		ldr	r2, .L11+20
 135 006c 0321     		mov	r1, #3
 136 006e 1160     		str	r1, [r2]
 492:.\Generated_Source\PSoC4/cyfitter_cfg.c **** 		CY_SET_XTND_REG32((void CYFAR *)(CYREG_HSIOM_PORT_SEL2), 0x00300000u);
 137              		.loc 1 492 0
 138 0070 4F4A     		ldr	r2, .L11+24
 139 0072 C021     		mov	r1, #192
 140 0074 8903     		lsl	r1, r1, #14
 141 0076 1160     		str	r1, [r2]
 493:.\Generated_Source\PSoC4/cyfitter_cfg.c **** 		CY_SET_XTND_REG32((void CYFAR *)(CYREG_HSIOM_PORT_SEL3), 0x0000EE00u);
 142              		.loc 1 493 0
 143 0078 4E4A     		ldr	r2, .L11+28
 144 007a EE21     		mov	r1, #238
 145 007c 0902     		lsl	r1, r1, #8
 146 007e 1160     		str	r1, [r2]
 494:.\Generated_Source\PSoC4/cyfitter_cfg.c **** 
 495:.\Generated_Source\PSoC4/cyfitter_cfg.c **** 		/* IOPINS0_0 Starting address: CYDEV_PRT0_DR */
 496:.\Generated_Source\PSoC4/cyfitter_cfg.c **** 		CY_SET_XTND_REG32((void CYFAR *)(CYREG_PRT0_DR), 0x00000081u);
 147              		.loc 1 496 0
 148 0080 4D4A     		ldr	r2, .L11+32
 149 0082 8121     		mov	r1, #129
 150 0084 1160     		str	r1, [r2]
 497:.\Generated_Source\PSoC4/cyfitter_cfg.c **** 		CY_SET_XTND_REG32((void CYFAR *)(CYREG_PRT0_PC), 0x005801B6u);
 151              		.loc 1 497 0
 152 0086 4D49     		ldr	r1, .L11+36
 153 0088 4D4A     		ldr	r2, .L11+40
 498:.\Generated_Source\PSoC4/cyfitter_cfg.c **** 		CY_SET_XTND_REG32((void CYFAR *)(CYREG_PRT0_INTCFG), 0x0000C000u);
 499:.\Generated_Source\PSoC4/cyfitter_cfg.c **** 
 500:.\Generated_Source\PSoC4/cyfitter_cfg.c **** 		/* IOPINS0_1 Starting address: CYDEV_PRT1_DR */
 501:.\Generated_Source\PSoC4/cyfitter_cfg.c **** 		CY_SET_XTND_REG32((void CYFAR *)(CYREG_PRT1_DR), 0x00000004u);
 502:.\Generated_Source\PSoC4/cyfitter_cfg.c **** 		CY_SET_XTND_REG32((void CYFAR *)(CYREG_PRT1_PC), 0x00180080u);
 503:.\Generated_Source\PSoC4/cyfitter_cfg.c **** 		CY_SET_XTND_REG32((void CYFAR *)(CYREG_PRT1_INTCFG), 0x00000020u);
 504:.\Generated_Source\PSoC4/cyfitter_cfg.c **** 
 505:.\Generated_Source\PSoC4/cyfitter_cfg.c **** 		/* IOPINS0_2 Starting address: CYDEV_PRT2_DR */
 506:.\Generated_Source\PSoC4/cyfitter_cfg.c **** 		CY_SET_XTND_REG32((void CYFAR *)(CYREG_PRT2_DR), 0x00000020u);
 507:.\Generated_Source\PSoC4/cyfitter_cfg.c **** 		CY_SET_XTND_REG32((void CYFAR *)(CYREG_PRT2_PC), 0x00DB0000u);
 508:.\Generated_Source\PSoC4/cyfitter_cfg.c **** 
 509:.\Generated_Source\PSoC4/cyfitter_cfg.c **** 		/* IOPINS0_3 Starting address: CYDEV_PRT3_DR */
 510:.\Generated_Source\PSoC4/cyfitter_cfg.c **** 		CY_SET_XTND_REG32((void CYFAR *)(CYREG_PRT3_DR), 0x00000010u);
 511:.\Generated_Source\PSoC4/cyfitter_cfg.c **** 		CY_SET_XTND_REG32((void CYFAR *)(CYREG_PRT3_PC), 0x00002D80u);
 512:.\Generated_Source\PSoC4/cyfitter_cfg.c **** 		CY_SET_XTND_REG32((void CYFAR *)(CYREG_PRT3_INTCFG), 0x00000200u);
 513:.\Generated_Source\PSoC4/cyfitter_cfg.c **** 
 514:.\Generated_Source\PSoC4/cyfitter_cfg.c **** 		/* UDB_PA_0 Starting address: CYDEV_UDB_PA0_BASE */
 515:.\Generated_Source\PSoC4/cyfitter_cfg.c **** 		CY_SET_XTND_REG32((void CYFAR *)(CYDEV_UDB_PA0_BASE), 0x00990000u);
 516:.\Generated_Source\PSoC4/cyfitter_cfg.c **** 		CY_SET_XTND_REG32((void CYFAR *)(CYREG_UDB_PA0_CFG4), 0x80000000u);
 517:.\Generated_Source\PSoC4/cyfitter_cfg.c **** 		CY_SET_XTND_REG32((void CYFAR *)(CYREG_UDB_PA0_CFG8), 0x00020000u);
 518:.\Generated_Source\PSoC4/cyfitter_cfg.c **** 
 519:.\Generated_Source\PSoC4/cyfitter_cfg.c **** 		/* UDB_PA_1 Starting address: CYDEV_UDB_PA1_BASE */
 520:.\Generated_Source\PSoC4/cyfitter_cfg.c **** 		CY_SET_XTND_REG32((void CYFAR *)(CYDEV_UDB_PA1_BASE), 0x00990000u);
 521:.\Generated_Source\PSoC4/cyfitter_cfg.c **** 		CY_SET_XTND_REG32((void CYFAR *)(CYREG_UDB_PA1_CFG4), 0x00200000u);
 522:.\Generated_Source\PSoC4/cyfitter_cfg.c **** 
 523:.\Generated_Source\PSoC4/cyfitter_cfg.c **** 		/* UDB_PA_2 Starting address: CYDEV_UDB_PA2_BASE */
 524:.\Generated_Source\PSoC4/cyfitter_cfg.c **** 		CY_SET_XTND_REG32((void CYFAR *)(CYDEV_UDB_PA2_BASE), 0x00990000u);
ARM GAS  C:\Users\Admin\AppData\Local\Temp\cc7dvJpg.s 			page 13


 525:.\Generated_Source\PSoC4/cyfitter_cfg.c **** 		CY_SET_XTND_REG32((void CYFAR *)(CYREG_UDB_PA2_CFG8), 0x04000000u);
 526:.\Generated_Source\PSoC4/cyfitter_cfg.c **** 
 527:.\Generated_Source\PSoC4/cyfitter_cfg.c **** 		/* UDB_PA_3 Starting address: CYDEV_UDB_PA3_BASE */
 528:.\Generated_Source\PSoC4/cyfitter_cfg.c **** 		CY_SET_XTND_REG32((void CYFAR *)(CYDEV_UDB_PA3_BASE), 0x00990000u);
 529:.\Generated_Source\PSoC4/cyfitter_cfg.c **** 		CY_SET_XTND_REG32((void CYFAR *)(CYREG_UDB_PA3_CFG4), 0x02000000u);
 530:.\Generated_Source\PSoC4/cyfitter_cfg.c **** 
 531:.\Generated_Source\PSoC4/cyfitter_cfg.c **** 		/* Enable digital routing */
 532:.\Generated_Source\PSoC4/cyfitter_cfg.c **** 		CY_SET_XTND_REG8((void *)CYREG_UDB_UDBIF_BANK_CTL, CY_GET_XTND_REG8((void *)CYREG_UDB_UDBIF_BANK_
 533:.\Generated_Source\PSoC4/cyfitter_cfg.c **** 
 534:.\Generated_Source\PSoC4/cyfitter_cfg.c **** 		/* Enable UDB array */
 535:.\Generated_Source\PSoC4/cyfitter_cfg.c **** 		CY_SET_XTND_REG8((void *)CYREG_UDB_UDBIF_WAIT_CFG, (uint8)((CY_GET_XTND_REG8((void *)CYREG_UDB_UD
 154              		.loc 1 535 0
 155 008a 3C20     		mov	r0, #60
 497:.\Generated_Source\PSoC4/cyfitter_cfg.c **** 		CY_SET_XTND_REG32((void CYFAR *)(CYREG_PRT0_PC), 0x005801B6u);
 156              		.loc 1 497 0
 157 008c 1160     		str	r1, [r2]
 498:.\Generated_Source\PSoC4/cyfitter_cfg.c **** 		CY_SET_XTND_REG32((void CYFAR *)(CYREG_PRT0_INTCFG), 0x0000C000u);
 158              		.loc 1 498 0
 159 008e 4D4A     		ldr	r2, .L11+44
 160 0090 C021     		mov	r1, #192
 161 0092 0902     		lsl	r1, r1, #8
 162 0094 1160     		str	r1, [r2]
 501:.\Generated_Source\PSoC4/cyfitter_cfg.c **** 		CY_SET_XTND_REG32((void CYFAR *)(CYREG_PRT1_DR), 0x00000004u);
 163              		.loc 1 501 0
 164 0096 4C4A     		ldr	r2, .L11+48
 165 0098 0421     		mov	r1, #4
 166 009a 1160     		str	r1, [r2]
 502:.\Generated_Source\PSoC4/cyfitter_cfg.c **** 		CY_SET_XTND_REG32((void CYFAR *)(CYREG_PRT1_PC), 0x00180080u);
 167              		.loc 1 502 0
 168 009c 4B49     		ldr	r1, .L11+52
 169 009e 4C4A     		ldr	r2, .L11+56
 170 00a0 1160     		str	r1, [r2]
 503:.\Generated_Source\PSoC4/cyfitter_cfg.c **** 		CY_SET_XTND_REG32((void CYFAR *)(CYREG_PRT1_INTCFG), 0x00000020u);
 171              		.loc 1 503 0
 172 00a2 4C4A     		ldr	r2, .L11+60
 516:.\Generated_Source\PSoC4/cyfitter_cfg.c **** 		CY_SET_XTND_REG32((void CYFAR *)(CYREG_UDB_PA0_CFG4), 0x80000000u);
 173              		.loc 1 516 0
 174 00a4 8021     		mov	r1, #128
 503:.\Generated_Source\PSoC4/cyfitter_cfg.c **** 		CY_SET_XTND_REG32((void CYFAR *)(CYREG_PRT1_INTCFG), 0x00000020u);
 175              		.loc 1 503 0
 176 00a6 1360     		str	r3, [r2]
 506:.\Generated_Source\PSoC4/cyfitter_cfg.c **** 		CY_SET_XTND_REG32((void CYFAR *)(CYREG_PRT2_DR), 0x00000020u);
 177              		.loc 1 506 0
 178 00a8 4B4A     		ldr	r2, .L11+64
 516:.\Generated_Source\PSoC4/cyfitter_cfg.c **** 		CY_SET_XTND_REG32((void CYFAR *)(CYREG_UDB_PA0_CFG4), 0x80000000u);
 179              		.loc 1 516 0
 180 00aa 0906     		lsl	r1, r1, #24
 506:.\Generated_Source\PSoC4/cyfitter_cfg.c **** 		CY_SET_XTND_REG32((void CYFAR *)(CYREG_PRT2_DR), 0x00000020u);
 181              		.loc 1 506 0
 182 00ac 1360     		str	r3, [r2]
 507:.\Generated_Source\PSoC4/cyfitter_cfg.c **** 		CY_SET_XTND_REG32((void CYFAR *)(CYREG_PRT2_PC), 0x00DB0000u);
 183              		.loc 1 507 0
 184 00ae 4B4B     		ldr	r3, .L11+68
 185 00b0 DB22     		mov	r2, #219
 186 00b2 1204     		lsl	r2, r2, #16
 187 00b4 1A60     		str	r2, [r3]
 510:.\Generated_Source\PSoC4/cyfitter_cfg.c **** 		CY_SET_XTND_REG32((void CYFAR *)(CYREG_PRT3_DR), 0x00000010u);
ARM GAS  C:\Users\Admin\AppData\Local\Temp\cc7dvJpg.s 			page 14


 188              		.loc 1 510 0
 189 00b6 4A4B     		ldr	r3, .L11+72
 190 00b8 1022     		mov	r2, #16
 191 00ba 1A60     		str	r2, [r3]
 511:.\Generated_Source\PSoC4/cyfitter_cfg.c **** 		CY_SET_XTND_REG32((void CYFAR *)(CYREG_PRT3_PC), 0x00002D80u);
 192              		.loc 1 511 0
 193 00bc 494B     		ldr	r3, .L11+76
 194 00be B622     		mov	r2, #182
 195 00c0 9201     		lsl	r2, r2, #6
 196 00c2 1A60     		str	r2, [r3]
 512:.\Generated_Source\PSoC4/cyfitter_cfg.c **** 		CY_SET_XTND_REG32((void CYFAR *)(CYREG_PRT3_INTCFG), 0x00000200u);
 197              		.loc 1 512 0
 198 00c4 484B     		ldr	r3, .L11+80
 199 00c6 8022     		mov	r2, #128
 200 00c8 9200     		lsl	r2, r2, #2
 201 00ca 1A60     		str	r2, [r3]
 515:.\Generated_Source\PSoC4/cyfitter_cfg.c **** 		CY_SET_XTND_REG32((void CYFAR *)(CYDEV_UDB_PA0_BASE), 0x00990000u);
 202              		.loc 1 515 0
 203 00cc 474A     		ldr	r2, .L11+84
 204 00ce 9923     		mov	r3, #153
 205 00d0 1B04     		lsl	r3, r3, #16
 206 00d2 1360     		str	r3, [r2]
 516:.\Generated_Source\PSoC4/cyfitter_cfg.c **** 		CY_SET_XTND_REG32((void CYFAR *)(CYREG_UDB_PA0_CFG4), 0x80000000u);
 207              		.loc 1 516 0
 208 00d4 464A     		ldr	r2, .L11+88
 209 00d6 1160     		str	r1, [r2]
 517:.\Generated_Source\PSoC4/cyfitter_cfg.c **** 		CY_SET_XTND_REG32((void CYFAR *)(CYREG_UDB_PA0_CFG8), 0x00020000u);
 210              		.loc 1 517 0
 211 00d8 464A     		ldr	r2, .L11+92
 212 00da 8021     		mov	r1, #128
 213 00dc 8902     		lsl	r1, r1, #10
 214 00de 1160     		str	r1, [r2]
 520:.\Generated_Source\PSoC4/cyfitter_cfg.c **** 		CY_SET_XTND_REG32((void CYFAR *)(CYDEV_UDB_PA1_BASE), 0x00990000u);
 215              		.loc 1 520 0
 216 00e0 454A     		ldr	r2, .L11+96
 521:.\Generated_Source\PSoC4/cyfitter_cfg.c **** 		CY_SET_XTND_REG32((void CYFAR *)(CYREG_UDB_PA1_CFG4), 0x00200000u);
 217              		.loc 1 521 0
 218 00e2 8021     		mov	r1, #128
 520:.\Generated_Source\PSoC4/cyfitter_cfg.c **** 		CY_SET_XTND_REG32((void CYFAR *)(CYDEV_UDB_PA1_BASE), 0x00990000u);
 219              		.loc 1 520 0
 220 00e4 1360     		str	r3, [r2]
 521:.\Generated_Source\PSoC4/cyfitter_cfg.c **** 		CY_SET_XTND_REG32((void CYFAR *)(CYREG_UDB_PA1_CFG4), 0x00200000u);
 221              		.loc 1 521 0
 222 00e6 454A     		ldr	r2, .L11+100
 223 00e8 8903     		lsl	r1, r1, #14
 224 00ea 1160     		str	r1, [r2]
 524:.\Generated_Source\PSoC4/cyfitter_cfg.c **** 		CY_SET_XTND_REG32((void CYFAR *)(CYDEV_UDB_PA2_BASE), 0x00990000u);
 225              		.loc 1 524 0
 226 00ec 444A     		ldr	r2, .L11+104
 525:.\Generated_Source\PSoC4/cyfitter_cfg.c **** 		CY_SET_XTND_REG32((void CYFAR *)(CYREG_UDB_PA2_CFG8), 0x04000000u);
 227              		.loc 1 525 0
 228 00ee 8021     		mov	r1, #128
 524:.\Generated_Source\PSoC4/cyfitter_cfg.c **** 		CY_SET_XTND_REG32((void CYFAR *)(CYDEV_UDB_PA2_BASE), 0x00990000u);
 229              		.loc 1 524 0
 230 00f0 1360     		str	r3, [r2]
 525:.\Generated_Source\PSoC4/cyfitter_cfg.c **** 		CY_SET_XTND_REG32((void CYFAR *)(CYREG_UDB_PA2_CFG8), 0x04000000u);
 231              		.loc 1 525 0
ARM GAS  C:\Users\Admin\AppData\Local\Temp\cc7dvJpg.s 			page 15


 232 00f2 444A     		ldr	r2, .L11+108
 233 00f4 C904     		lsl	r1, r1, #19
 234 00f6 1160     		str	r1, [r2]
 528:.\Generated_Source\PSoC4/cyfitter_cfg.c **** 		CY_SET_XTND_REG32((void CYFAR *)(CYDEV_UDB_PA3_BASE), 0x00990000u);
 235              		.loc 1 528 0
 236 00f8 434A     		ldr	r2, .L11+112
 532:.\Generated_Source\PSoC4/cyfitter_cfg.c **** 		CY_SET_XTND_REG8((void *)CYREG_UDB_UDBIF_BANK_CTL, CY_GET_XTND_REG8((void *)CYREG_UDB_UDBIF_BANK_
 237              		.loc 1 532 0
 238 00fa 0221     		mov	r1, #2
 528:.\Generated_Source\PSoC4/cyfitter_cfg.c **** 		CY_SET_XTND_REG32((void CYFAR *)(CYDEV_UDB_PA3_BASE), 0x00990000u);
 239              		.loc 1 528 0
 240 00fc 1360     		str	r3, [r2]
 529:.\Generated_Source\PSoC4/cyfitter_cfg.c **** 		CY_SET_XTND_REG32((void CYFAR *)(CYREG_UDB_PA3_CFG4), 0x02000000u);
 241              		.loc 1 529 0
 242 00fe 434B     		ldr	r3, .L11+116
 243 0100 8022     		mov	r2, #128
 244 0102 9204     		lsl	r2, r2, #18
 245 0104 1A60     		str	r2, [r3]
 532:.\Generated_Source\PSoC4/cyfitter_cfg.c **** 		CY_SET_XTND_REG8((void *)CYREG_UDB_UDBIF_BANK_CTL, CY_GET_XTND_REG8((void *)CYREG_UDB_UDBIF_BANK_
 246              		.loc 1 532 0
 247 0106 424B     		ldr	r3, .L11+120
 248 0108 1A78     		ldrb	r2, [r3]
 249 010a 0A43     		orr	r2, r1
 250 010c 1A70     		strb	r2, [r3]
 251              		.loc 1 535 0
 252 010e 414A     		ldr	r2, .L11+124
 253 0110 1178     		ldrb	r1, [r2]
 254 0112 8143     		bic	r1, r0
 255 0114 1420     		mov	r0, #20
 256 0116 0143     		orr	r1, r0
 257 0118 1170     		strb	r1, [r2]
 536:.\Generated_Source\PSoC4/cyfitter_cfg.c **** 		CY_SET_XTND_REG8((void *)CYREG_UDB_UDBIF_BANK_CTL, (uint8)(CY_GET_XTND_REG8((void *)CYREG_UDB_UDB
 258              		.loc 1 536 0
 259 011a 1A78     		ldrb	r2, [r3]
 260 011c 1621     		mov	r1, #22
 261 011e 0A43     		orr	r2, r1
 262 0120 1A70     		strb	r2, [r3]
 263              	.LBE18:
 264              	.LBB25:
 265              	.LBB26:
 239:.\Generated_Source\PSoC4/cyfitter_cfg.c **** 	CY_SET_REG32((void CYXDATA *)(CYREG_CLK_SELECT), (CY_GET_REG32((void *)CYREG_CLK_SELECT) | 0x00040
 266              		.loc 1 239 0
 267 0122 3D4A     		ldr	r2, .L11+128
 268 0124 8023     		mov	r3, #128
 269 0126 1168     		ldr	r1, [r2]
 270 0128 DB02     		lsl	r3, r3, #11
 271 012a 0B43     		orr	r3, r1
 272 012c 1360     		str	r3, [r2]
 273              	.LVL16:
 274              	.LBB27:
 275              	.LBB28:
 202:.\Generated_Source\PSoC4/cyfitter_cfg.c **** 	setAbs = CY_GET_REG8((const void *)CYREG_SFLASH_IMO_ABS4);
 276              		.loc 1 202 0
 277 012e 3B4B     		ldr	r3, .L11+132
 278 0130 141C     		mov	r4, r2
 279 0132 1878     		ldrb	r0, [r3]
 203:.\Generated_Source\PSoC4/cyfitter_cfg.c **** 	setTmpCo = CY_GET_REG8((const void *)CYREG_SFLASH_IMO_TMPCO4);
ARM GAS  C:\Users\Admin\AppData\Local\Temp\cc7dvJpg.s 			page 16


 280              		.loc 1 203 0
 281 0134 3A4B     		ldr	r3, .L11+136
 202:.\Generated_Source\PSoC4/cyfitter_cfg.c **** 	setAbs = CY_GET_REG8((const void *)CYREG_SFLASH_IMO_ABS4);
 282              		.loc 1 202 0
 283 0136 C0B2     		uxtb	r0, r0
 284              	.LVL17:
 203:.\Generated_Source\PSoC4/cyfitter_cfg.c **** 	setTmpCo = CY_GET_REG8((const void *)CYREG_SFLASH_IMO_TMPCO4);
 285              		.loc 1 203 0
 286 0138 1978     		ldrb	r1, [r3]
 287 013a 3A4B     		ldr	r3, .L11+140
 288 013c C9B2     		uxtb	r1, r1
 289              	.LVL18:
 290              	.L6:
 205:.\Generated_Source\PSoC4/cyfitter_cfg.c **** 	     (imoTrimIndex >= 0) && (imoFreq <= imo_trim_table->entries[imoTrimIndex].freq);
 291              		.loc 1 205 0
 292 013e 1A78     		ldrb	r2, [r3]
 293 0140 172A     		cmp	r2, #23
 294 0142 05D9     		bls	.L7
 204:.\Generated_Source\PSoC4/cyfitter_cfg.c **** 	for (imoTrimIndex = ((int32)IMO_TRIM_FREQ_TABLE_ENTRIES)-1;
 295              		.loc 1 204 0
 296 0144 384A     		ldr	r2, .L11+144
 208:.\Generated_Source\PSoC4/cyfitter_cfg.c **** 		setAbs = imo_trim_table->entries[imoTrimIndex].absolute;
 297              		.loc 1 208 0
 298 0146 5878     		ldrb	r0, [r3, #1]
 299              	.LVL19:
 209:.\Generated_Source\PSoC4/cyfitter_cfg.c **** 		setTmpCo = imo_trim_table->entries[imoTrimIndex].tmpco;
 300              		.loc 1 209 0
 301 0148 9978     		ldrb	r1, [r3, #2]
 302              	.LVL20:
 303 014a 033B     		sub	r3, r3, #3
 304              	.LVL21:
 204:.\Generated_Source\PSoC4/cyfitter_cfg.c **** 	for (imoTrimIndex = ((int32)IMO_TRIM_FREQ_TABLE_ENTRIES)-1;
 305              		.loc 1 204 0
 306 014c 9342     		cmp	r3, r2
 307 014e F6D1     		bne	.L6
 308              	.LVL22:
 309              	.L7:
 212:.\Generated_Source\PSoC4/cyfitter_cfg.c **** 	CY_SET_REG32((void *)CYREG_PWR_BG_TRIM4, setAbs);
 310              		.loc 1 212 0
 311 0150 364B     		ldr	r3, .L11+148
 312              	.LBE28:
 313              	.LBE27:
 245:.\Generated_Source\PSoC4/cyfitter_cfg.c **** 	CY_SET_REG32((void CYXDATA *)(CYREG_CLK_IMO_TRIM2), (25u));
 314              		.loc 1 245 0
 315 0152 1922     		mov	r2, #25
 316              	.LBB31:
 317              	.LBB29:
 212:.\Generated_Source\PSoC4/cyfitter_cfg.c **** 	CY_SET_REG32((void *)CYREG_PWR_BG_TRIM4, setAbs);
 318              		.loc 1 212 0
 319 0154 1860     		str	r0, [r3]
 213:.\Generated_Source\PSoC4/cyfitter_cfg.c **** 	CY_SET_REG32((void *)CYREG_PWR_BG_TRIM5, setTmpCo);
 320              		.loc 1 213 0
 321 0156 364B     		ldr	r3, .L11+152
 322              	.LBE29:
 323              	.LBE31:
 246:.\Generated_Source\PSoC4/cyfitter_cfg.c **** 	CyDelayCycles(5u);
 324              		.loc 1 246 0
ARM GAS  C:\Users\Admin\AppData\Local\Temp\cc7dvJpg.s 			page 17


 325 0158 0520     		mov	r0, #5
 326              	.LBB32:
 327              	.LBB30:
 213:.\Generated_Source\PSoC4/cyfitter_cfg.c **** 	CY_SET_REG32((void *)CYREG_PWR_BG_TRIM5, setTmpCo);
 328              		.loc 1 213 0
 329 015a 1960     		str	r1, [r3]
 330              	.LBE30:
 331              	.LBE32:
 245:.\Generated_Source\PSoC4/cyfitter_cfg.c **** 	CY_SET_REG32((void CYXDATA *)(CYREG_CLK_IMO_TRIM2), (25u));
 332              		.loc 1 245 0
 333 015c 354B     		ldr	r3, .L11+156
 334              	.LBE26:
 335              	.LBE25:
 537:.\Generated_Source\PSoC4/cyfitter_cfg.c **** 	}
 538:.\Generated_Source\PSoC4/cyfitter_cfg.c **** 
 539:.\Generated_Source\PSoC4/cyfitter_cfg.c **** 	/* Setup clocks based on selections from Clock DWR */
 540:.\Generated_Source\PSoC4/cyfitter_cfg.c **** 	ClockSetup();
 541:.\Generated_Source\PSoC4/cyfitter_cfg.c **** 
 542:.\Generated_Source\PSoC4/cyfitter_cfg.c **** 	/* Perform basic analog initialization to defaults */
 543:.\Generated_Source\PSoC4/cyfitter_cfg.c **** 	AnalogSetDefault();
 544:.\Generated_Source\PSoC4/cyfitter_cfg.c **** 
 545:.\Generated_Source\PSoC4/cyfitter_cfg.c **** }
 336              		.loc 1 545 0
 337              		@ sp needed
 338              	.LBB34:
 339              	.LBB33:
 245:.\Generated_Source\PSoC4/cyfitter_cfg.c **** 	CY_SET_REG32((void CYXDATA *)(CYREG_CLK_IMO_TRIM2), (25u));
 340              		.loc 1 245 0
 341 015e 1A60     		str	r2, [r3]
 246:.\Generated_Source\PSoC4/cyfitter_cfg.c **** 	CyDelayCycles(5u);
 342              		.loc 1 246 0
 343 0160 FFF7FEFF 		bl	CyDelayCycles
 344              	.LVL23:
 247:.\Generated_Source\PSoC4/cyfitter_cfg.c **** 	CY_SET_REG32((void CYXDATA *)(CYREG_CLK_IMO_TRIM1), (CY_GET_REG8((void *)CYREG_SFLASH_IMO_TRIM21))
 345              		.loc 1 247 0
 346 0164 344B     		ldr	r3, .L11+160
 248:.\Generated_Source\PSoC4/cyfitter_cfg.c **** 	CyDelayUs(5u);
 347              		.loc 1 248 0
 348 0166 0520     		mov	r0, #5
 247:.\Generated_Source\PSoC4/cyfitter_cfg.c **** 	CY_SET_REG32((void CYXDATA *)(CYREG_CLK_IMO_TRIM1), (CY_GET_REG8((void *)CYREG_SFLASH_IMO_TRIM21))
 349              		.loc 1 247 0
 350 0168 1A78     		ldrb	r2, [r3]
 351 016a 344B     		ldr	r3, .L11+164
 352 016c D2B2     		uxtb	r2, r2
 353 016e 1A60     		str	r2, [r3]
 248:.\Generated_Source\PSoC4/cyfitter_cfg.c **** 	CyDelayUs(5u);
 354              		.loc 1 248 0
 355 0170 FFF7FEFF 		bl	CyDelayUs
 356              	.LVL24:
 251:.\Generated_Source\PSoC4/cyfitter_cfg.c **** 	CY_SET_REG32((void CYXDATA *)(CYREG_CLK_SELECT), (CY_GET_REG32((void *)CYREG_CLK_SELECT) & 0xFFFBF
 357              		.loc 1 251 0
 358 0174 2268     		ldr	r2, [r4]
 359 0176 324B     		ldr	r3, .L11+168
 360 0178 1340     		and	r3, r2
 361 017a 2360     		str	r3, [r4]
 253:.\Generated_Source\PSoC4/cyfitter_cfg.c **** 	CY_SET_XTND_REG32((void CYFAR *)(CYREG_CLK_ILO_CONFIG), 0x80000006u);
 362              		.loc 1 253 0
ARM GAS  C:\Users\Admin\AppData\Local\Temp\cc7dvJpg.s 			page 18


 363 017c 314A     		ldr	r2, .L11+172
 364 017e 324B     		ldr	r3, .L11+176
 365 0180 1A60     		str	r2, [r3]
 257:.\Generated_Source\PSoC4/cyfitter_cfg.c **** 	CY_SET_XTND_REG32((void CYFAR *)(CYREG_CLK_SELECT12), 0x00000010u);
 366              		.loc 1 257 0
 367 0182 324B     		ldr	r3, .L11+180
 368 0184 1022     		mov	r2, #16
 369 0186 1A60     		str	r2, [r3]
 260:.\Generated_Source\PSoC4/cyfitter_cfg.c **** 	CY_SET_XTND_REG32((void CYFAR *)(CYREG_CLK_IMO_CONFIG), 0x80000000u);
 370              		.loc 1 260 0
 371 0188 314B     		ldr	r3, .L11+184
 372 018a 8022     		mov	r2, #128
 373 018c 1206     		lsl	r2, r2, #24
 374 018e 1A60     		str	r2, [r3]
 263:.\Generated_Source\PSoC4/cyfitter_cfg.c **** 	CY_SET_XTND_REG32((void CYFAR *)(CYREG_CLK_DIVIDER_A00), 0x8000176Fu);
 375              		.loc 1 263 0
 376 0190 304A     		ldr	r2, .L11+188
 377 0192 314B     		ldr	r3, .L11+192
 378 0194 1A60     		str	r2, [r3]
 379              	.LVL25:
 380              	.LBE33:
 381              	.LBE34:
 382              		.loc 1 545 0
 383 0196 F7BD     		pop	{r0, r1, r2, r4, r5, r6, r7, pc}
 384              	.L12:
 385              		.align	2
 386              	.L11:
 387 0198 00300F40 		.word	1074737152
 388 019c 00400F40 		.word	1074741248
 389 01a0 00000000 		.word	.LANCHOR0
 390 01a4 00600F40 		.word	1074749440
 391 01a8 02600F40 		.word	1074749442
 392 01ac 00000140 		.word	1073807360
 393 01b0 08000140 		.word	1073807368
 394 01b4 0C000140 		.word	1073807372
 395 01b8 00000440 		.word	1074003968
 396 01bc B6015800 		.word	5767606
 397 01c0 08000440 		.word	1074003976
 398 01c4 0C000440 		.word	1074003980
 399 01c8 00010440 		.word	1074004224
 400 01cc 80001800 		.word	1572992
 401 01d0 08010440 		.word	1074004232
 402 01d4 0C010440 		.word	1074004236
 403 01d8 00020440 		.word	1074004480
 404 01dc 08020440 		.word	1074004488
 405 01e0 00030440 		.word	1074004736
 406 01e4 08030440 		.word	1074004744
 407 01e8 0C030440 		.word	1074004748
 408 01ec 00500F40 		.word	1074745344
 409 01f0 04500F40 		.word	1074745348
 410 01f4 08500F40 		.word	1074745352
 411 01f8 10500F40 		.word	1074745360
 412 01fc 14500F40 		.word	1074745364
 413 0200 20500F40 		.word	1074745376
 414 0204 28500F40 		.word	1074745384
 415 0208 30500F40 		.word	1074745392
 416 020c 34500F40 		.word	1074745396
ARM GAS  C:\Users\Admin\AppData\Local\Temp\cc7dvJpg.s 			page 19


 417 0210 00700F40 		.word	1074753536
 418 0214 01700F40 		.word	1074753537
 419 0218 00010B40 		.word	1074462976
 420 021c CCF1FF0F 		.word	268431820
 421 0220 CDF1FF0F 		.word	268431821
 422 0224 C9F1FF0F 		.word	268431817
 423 0228 BDF1FF0F 		.word	268431805
 424 022c 1CFF0B40 		.word	1074528028
 425 0230 20FF0B40 		.word	1074528032
 426 0234 2CFF0B40 		.word	1074528044
 427 0238 E5F1FF0F 		.word	268431845
 428 023c 28FF0B40 		.word	1074528040
 429 0240 FFFFFBFF 		.word	-262145
 430 0244 06000080 		.word	-2147483642
 431 0248 04010B40 		.word	1074462980
 432 024c 30020240 		.word	1073873456
 433 0250 08010B40 		.word	1074462984
 434 0254 6F170080 		.word	-2147477649
 435 0258 00000240 		.word	1073872896
 436              		.cfi_endproc
 437              	.LFE7:
 438              		.size	cyfitter_cfg, .-cyfitter_cfg
 439              		.section	.rodata
 440              		.align	2
 441              		.set	.LANCHOR0,. + 0
 442              		.type	cy_cfg_addr_table.4729, %object
 443              		.size	cy_cfg_addr_table.4729, 32
 444              	cy_cfg_addr_table.4729:
 445 0000 02000F40 		.word	1074724866
 446 0004 4C320F40 		.word	1074737740
 447 0008 2B330F40 		.word	1074737963
 448 000c 02400F40 		.word	1074741250
 449 0010 02410F40 		.word	1074741506
 450 0014 02420F40 		.word	1074741762
 451 0018 02430F40 		.word	1074742018
 452 001c 02600F40 		.word	1074749442
 453              		.type	cy_cfg_data_table.4730, %object
 454              		.size	cy_cfg_data_table.4730, 262
 455              	cy_cfg_data_table.4730:
 456 0020 82       		.byte	-126
 457 0021 0D       		.byte	13
 458 0022 83       		.byte	-125
 459 0023 0D       		.byte	13
 460 0024 0F       		.byte	15
 461 0025 01       		.byte	1
 462 0026 14       		.byte	20
 463 0027 04       		.byte	4
 464 0028 1A       		.byte	26
 465 0029 07       		.byte	7
 466 002a 27       		.byte	39
 467 002b 01       		.byte	1
 468 002c 2E       		.byte	46
 469 002d 09       		.byte	9
 470 002e 30       		.byte	48
 471 002f 04       		.byte	4
 472 0030 32       		.byte	50
 473 0031 02       		.byte	2
ARM GAS  C:\Users\Admin\AppData\Local\Temp\cc7dvJpg.s 			page 20


 474 0032 34       		.byte	52
 475 0033 08       		.byte	8
 476 0034 35       		.byte	53
 477 0035 01       		.byte	1
 478 0036 36       		.byte	54
 479 0037 01       		.byte	1
 480 0038 3F       		.byte	63
 481 0039 10       		.byte	16
 482 003a 40       		.byte	64
 483 003b 20       		.byte	32
 484 003c 41       		.byte	65
 485 003d 05       		.byte	5
 486 003e 45       		.byte	69
 487 003f D1       		.byte	-47
 488 0040 46       		.byte	70
 489 0041 02       		.byte	2
 490 0042 48       		.byte	72
 491 0043 07       		.byte	7
 492 0044 49       		.byte	73
 493 0045 FF       		.byte	-1
 494 0046 4A       		.byte	74
 495 0047 FF       		.byte	-1
 496 0048 4B       		.byte	75
 497 0049 FF       		.byte	-1
 498 004a 4D       		.byte	77
 499 004b A0       		.byte	-96
 500 004c 4F       		.byte	79
 501 004d 04       		.byte	4
 502 004e 50       		.byte	80
 503 004f 18       		.byte	24
 504 0050 52       		.byte	82
 505 0051 80       		.byte	-128
 506 0052 54       		.byte	84
 507 0053 05       		.byte	5
 508 0054 58       		.byte	88
 509 0055 04       		.byte	4
 510 0056 59       		.byte	89
 511 0057 04       		.byte	4
 512 0058 5A       		.byte	90
 513 0059 04       		.byte	4
 514 005a 5B       		.byte	91
 515 005b 04       		.byte	4
 516 005c 5F       		.byte	95
 517 005d 01       		.byte	1
 518 005e 60       		.byte	96
 519 005f 40       		.byte	64
 520 0060 62       		.byte	98
 521 0061 C0       		.byte	-64
 522 0062 64       		.byte	100
 523 0063 40       		.byte	64
 524 0064 65       		.byte	101
 525 0065 40       		.byte	64
 526 0066 66       		.byte	102
 527 0067 C0       		.byte	-64
 528 0068 68       		.byte	104
 529 0069 C0       		.byte	-64
 530 006a 6A       		.byte	106
ARM GAS  C:\Users\Admin\AppData\Local\Temp\cc7dvJpg.s 			page 21


 531 006b C0       		.byte	-64
 532 006c 6C       		.byte	108
 533 006d C0       		.byte	-64
 534 006e 6E       		.byte	110
 535 006f C0       		.byte	-64
 536 0070 87       		.byte	-121
 537 0071 01       		.byte	1
 538 0072 92       		.byte	-110
 539 0073 09       		.byte	9
 540 0074 93       		.byte	-109
 541 0075 01       		.byte	1
 542 0076 9C       		.byte	-100
 543 0077 04       		.byte	4
 544 0078 A6       		.byte	-90
 545 0079 07       		.byte	7
 546 007a B0       		.byte	-80
 547 007b 04       		.byte	4
 548 007c B2       		.byte	-78
 549 007d 01       		.byte	1
 550 007e B3       		.byte	-77
 551 007f 01       		.byte	1
 552 0080 B4       		.byte	-76
 553 0081 08       		.byte	8
 554 0082 B6       		.byte	-74
 555 0083 02       		.byte	2
 556 0084 BF       		.byte	-65
 557 0085 04       		.byte	4
 558 0086 C0       		.byte	-64
 559 0087 20       		.byte	32
 560 0088 C1       		.byte	-63
 561 0089 05       		.byte	5
 562 008a C5       		.byte	-59
 563 008b D1       		.byte	-47
 564 008c C7       		.byte	-57
 565 008d 20       		.byte	32
 566 008e C8       		.byte	-56
 567 008f 23       		.byte	35
 568 0090 C9       		.byte	-55
 569 0091 FF       		.byte	-1
 570 0092 CA       		.byte	-54
 571 0093 FF       		.byte	-1
 572 0094 CB       		.byte	-53
 573 0095 FF       		.byte	-1
 574 0096 CD       		.byte	-51
 575 0097 A0       		.byte	-96
 576 0098 CF       		.byte	-49
 577 0099 04       		.byte	4
 578 009a D0       		.byte	-48
 579 009b 18       		.byte	24
 580 009c D2       		.byte	-46
 581 009d 80       		.byte	-128
 582 009e D4       		.byte	-44
 583 009f 05       		.byte	5
 584 00a0 D8       		.byte	-40
 585 00a1 04       		.byte	4
 586 00a2 D9       		.byte	-39
 587 00a3 04       		.byte	4
ARM GAS  C:\Users\Admin\AppData\Local\Temp\cc7dvJpg.s 			page 22


 588 00a4 DA       		.byte	-38
 589 00a5 04       		.byte	4
 590 00a6 DB       		.byte	-37
 591 00a7 04       		.byte	4
 592 00a8 DF       		.byte	-33
 593 00a9 01       		.byte	1
 594 00aa E0       		.byte	-32
 595 00ab 40       		.byte	64
 596 00ac E2       		.byte	-30
 597 00ad C0       		.byte	-64
 598 00ae E4       		.byte	-28
 599 00af 40       		.byte	64
 600 00b0 E5       		.byte	-27
 601 00b1 40       		.byte	64
 602 00b2 E6       		.byte	-26
 603 00b3 C0       		.byte	-64
 604 00b4 E8       		.byte	-24
 605 00b5 C0       		.byte	-64
 606 00b6 EA       		.byte	-22
 607 00b7 C0       		.byte	-64
 608 00b8 EC       		.byte	-20
 609 00b9 C0       		.byte	-64
 610 00ba EE       		.byte	-18
 611 00bb C0       		.byte	-64
 612 00bc 09       		.byte	9
 613 00bd 02       		.byte	2
 614 00be 0A       		.byte	10
 615 00bf 01       		.byte	1
 616 00c0 0E       		.byte	14
 617 00c1 20       		.byte	32
 618 00c2 0F       		.byte	15
 619 00c3 08       		.byte	8
 620 00c4 10       		.byte	16
 621 00c5 20       		.byte	32
 622 00c6 17       		.byte	23
 623 00c7 80       		.byte	-128
 624 00c8 18       		.byte	24
 625 00c9 04       		.byte	4
 626 00ca 19       		.byte	25
 627 00cb 08       		.byte	8
 628 00cc 1A       		.byte	26
 629 00cd 41       		.byte	65
 630 00ce 1D       		.byte	29
 631 00cf A0       		.byte	-96
 632 00d0 1E       		.byte	30
 633 00d1 A0       		.byte	-96
 634 00d2 1F       		.byte	31
 635 00d3 20       		.byte	32
 636 00d4 22       		.byte	34
 637 00d5 04       		.byte	4
 638 00d6 27       		.byte	39
 639 00d7 08       		.byte	8
 640 00d8 2F       		.byte	47
 641 00d9 20       		.byte	32
 642 00da 30       		.byte	48
 643 00db 02       		.byte	2
 644 00dc 38       		.byte	56
ARM GAS  C:\Users\Admin\AppData\Local\Temp\cc7dvJpg.s 			page 23


 645 00dd 04       		.byte	4
 646 00de 3F       		.byte	63
 647 00df 80       		.byte	-128
 648 00e0 40       		.byte	64
 649 00e1 04       		.byte	4
 650 00e2 45       		.byte	69
 651 00e3 20       		.byte	32
 652 00e4 48       		.byte	72
 653 00e5 22       		.byte	34
 654 00e6 49       		.byte	73
 655 00e7 01       		.byte	1
 656 00e8 4F       		.byte	79
 657 00e9 89       		.byte	-119
 658 00ea 50       		.byte	80
 659 00eb 02       		.byte	2
 660 00ec 57       		.byte	87
 661 00ed 40       		.byte	64
 662 00ee 59       		.byte	89
 663 00ef 01       		.byte	1
 664 00f0 5A       		.byte	90
 665 00f1 48       		.byte	72
 666 00f2 5E       		.byte	94
 667 00f3 80       		.byte	-128
 668 00f4 5F       		.byte	95
 669 00f5 09       		.byte	9
 670 00f6 71       		.byte	113
 671 00f7 02       		.byte	2
 672 00f8 77       		.byte	119
 673 00f9 80       		.byte	-128
 674 00fa 81       		.byte	-127
 675 00fb 08       		.byte	8
 676 00fc 8D       		.byte	-115
 677 00fd 80       		.byte	-128
 678 00fe C2       		.byte	-62
 679 00ff 69       		.byte	105
 680 0100 C4       		.byte	-60
 681 0101 84       		.byte	-124
 682 0102 CA       		.byte	-54
 683 0103 40       		.byte	64
 684 0104 CC       		.byte	-52
 685 0105 01       		.byte	1
 686 0106 CE       		.byte	-50
 687 0107 12       		.byte	18
 688 0108 D0       		.byte	-48
 689 0109 24       		.byte	36
 690 010a D2       		.byte	-46
 691 010b 18       		.byte	24
 692 010c D6       		.byte	-42
 693 010d DB       		.byte	-37
 694 010e E2       		.byte	-30
 695 010f 10       		.byte	16
 696 0110 E4       		.byte	-28
 697 0111 04       		.byte	4
 698 0112 5A       		.byte	90
 699 0113 80       		.byte	-128
 700 0114 D4       		.byte	-44
 701 0115 80       		.byte	-128
ARM GAS  C:\Users\Admin\AppData\Local\Temp\cc7dvJpg.s 			page 24


 702 0116 8E       		.byte	-114
 703 0117 40       		.byte	64
 704 0118 96       		.byte	-106
 705 0119 80       		.byte	-128
 706 011a 67       		.byte	103
 707 011b 02       		.byte	2
 708 011c D6       		.byte	-42
 709 011d 01       		.byte	1
 710 011e 83       		.byte	-125
 711 011f 01       		.byte	1
 712 0120 97       		.byte	-105
 713 0121 02       		.byte	2
 714 0122 10       		.byte	16
 715 0123 01       		.byte	1
 716 0124 11       		.byte	17
 717 0125 01       		.byte	1
 718 0126 0000     		.text
 719              	.Letext0:
 720              		.file 2 "c:\\program files\\cypress\\psoc creator\\3.1\\psoc creator\\import\\gnu_cs\\arm\\4.8.4\\
 721              		.file 3 ".\\Generated_Source\\PSoC4/cytypes.h"
 722              		.file 4 ".\\Generated_Source\\PSoC4/CyLib.h"