ARM GAS  C:\Users\Admin\AppData\Local\Temp\cc94kbZI.s 			page 1


   1              		.cpu cortex-m0
   2              		.fpu softvfp
   3              		.eabi_attribute 20, 1
   4              		.eabi_attribute 21, 1
   5              		.eabi_attribute 23, 3
   6              		.eabi_attribute 24, 1
   7              		.eabi_attribute 25, 1
   8              		.eabi_attribute 26, 1
   9              		.eabi_attribute 30, 4
  10              		.eabi_attribute 34, 0
  11              		.eabi_attribute 18, 4
  12              		.code	16
  13              		.file	"lightlib.c"
  14              		.text
  15              	.Ltext0:
  16              		.cfi_sections	.debug_frame
  17              		.section	.text.set_color,"ax",%progbits
  18              		.align	1
  19              		.global	set_color
  20              		.code	16
  21              		.thumb_func
  22              		.type	set_color, %function
  23              	set_color:
  24              	.LFB33:
  25              		.file 1 ".\\lightlib.c"
   1:.\lightlib.c  **** /* ========================================
   2:.\lightlib.c  ****  *
   3:.\lightlib.c  ****  * Copyright Nullify, 2016
   4:.\lightlib.c  ****  * All Rights Reserved
   5:.\lightlib.c  ****  * UNPUBLISHED, LICENSED SOFTWARE.
   6:.\lightlib.c  ****  *
   7:.\lightlib.c  ****  * CONFIDENTIAL AND PROPRIETARY INFORMATION
   8:.\lightlib.c  ****  * WHICH IS THE PROPERTY OF NULLIY.
   9:.\lightlib.c  ****  *
  10:.\lightlib.c  ****  * ========================================
  11:.\lightlib.c  **** */
  12:.\lightlib.c  **** #include <project.h>
  13:.\lightlib.c  **** #include "lightlib.h"
  14:.\lightlib.c  **** 
  15:.\lightlib.c  **** 
  16:.\lightlib.c  **** /* Allocate a structure for each led in the project */
  17:.\lightlib.c  **** volatile struct RGB_LED_State Left_LED_State;
  18:.\lightlib.c  **** volatile struct RGB_LED_State Right_LED_State;
  19:.\lightlib.c  **** volatile struct LED_State IR_LED_State;
  20:.\lightlib.c  **** volatile struct LED_State Board_LED_State;
  21:.\lightlib.c  **** 
  22:.\lightlib.c  **** /*
  23:.\lightlib.c  ****  * Sets the color of the of the passed in led_flag.
  24:.\lightlib.c  ****  */
  25:.\lightlib.c  **** void set_color(uint8 led_flag, uint8 color) {
  26              		.loc 1 25 0
  27              		.cfi_startproc
  28              	.LVL0:
  29 0000 10B5     		push	{r4, lr}
  30              		.cfi_def_cfa_offset 8
  31              		.cfi_offset 4, -8
  32              		.cfi_offset 14, -4
ARM GAS  C:\Users\Admin\AppData\Local\Temp\cc94kbZI.s 			page 2


  33              		.loc 1 25 0
  34 0002 0C1C     		mov	r4, r1
  26:.\lightlib.c  ****     switch(led_flag) {
  35              		.loc 1 26 0
  36 0004 0228     		cmp	r0, #2
  37 0006 08D0     		beq	.L3
  38 0008 0328     		cmp	r0, #3
  39 000a 03D0     		beq	.L4
  40 000c 0128     		cmp	r0, #1
  41 000e 06D1     		bne	.L1
  27:.\lightlib.c  ****         case LEFT_LED:
  28:.\lightlib.c  ****             Left_LED_State.color = color;
  42              		.loc 1 28 0
  43 0010 034B     		ldr	r3, .L11
  44 0012 03E0     		b	.L9
  45              	.L4:
  29:.\lightlib.c  ****         break;
  30:.\lightlib.c  ****         case RIGHT_LED:
  31:.\lightlib.c  ****             Right_LED_State.color = color;
  32:.\lightlib.c  ****         break;
  33:.\lightlib.c  ****         case LEFT_RIGHT_LED:
  34:.\lightlib.c  ****             set_color(LEFT_LED, color);
  46              		.loc 1 34 0
  47 0014 0120     		mov	r0, #1
  48              	.LVL1:
  49 0016 FFF7FEFF 		bl	set_color
  50              	.LVL2:
  51              	.L3:
  31:.\lightlib.c  ****             Right_LED_State.color = color;
  52              		.loc 1 31 0
  53 001a 024B     		ldr	r3, .L11+4
  54              	.L9:
  55 001c 5C70     		strb	r4, [r3, #1]
  56              	.L1:
  35:.\lightlib.c  ****             set_color(RIGHT_LED, color);
  36:.\lightlib.c  ****         break;
  37:.\lightlib.c  ****     }    
  38:.\lightlib.c  **** }
  57              		.loc 1 38 0
  58              		@ sp needed
  59 001e 10BD     		pop	{r4, pc}
  60              	.L12:
  61              		.align	2
  62              	.L11:
  63 0020 00000000 		.word	Left_LED_State
  64 0024 00000000 		.word	Right_LED_State
  65              		.cfi_endproc
  66              	.LFE33:
  67              		.size	set_color, .-set_color
  68              		.section	.text.set_status,"ax",%progbits
  69              		.align	1
  70              		.global	set_status
  71              		.code	16
  72              		.thumb_func
  73              		.type	set_status, %function
  74              	set_status:
  75              	.LFB34:
ARM GAS  C:\Users\Admin\AppData\Local\Temp\cc94kbZI.s 			page 3


  39:.\lightlib.c  **** 
  40:.\lightlib.c  **** void set_status(uint8 led_flag, uint8 status) {
  76              		.loc 1 40 0
  77              		.cfi_startproc
  78              	.LVL3:
  41:.\lightlib.c  ****     switch(led_flag) {
  79              		.loc 1 41 0
  80 0000 0138     		sub	r0, r0, #1
  81              	.LVL4:
  40:.\lightlib.c  **** void set_status(uint8 led_flag, uint8 status) {
  82              		.loc 1 40 0
  83 0002 10B5     		push	{r4, lr}
  84              		.cfi_def_cfa_offset 8
  85              		.cfi_offset 4, -8
  86              		.cfi_offset 14, -4
  40:.\lightlib.c  **** void set_status(uint8 led_flag, uint8 status) {
  87              		.loc 1 40 0
  88 0004 0C1C     		mov	r4, r1
  89              		.loc 1 41 0
  90 0006 0428     		cmp	r0, #4
  91 0008 0FD8     		bhi	.L13
  92 000a FFF7FEFF 		bl	__gnu_thumb1_case_uqi
  93              	.L16:
  94 000e 03       		.byte	(.L15-.L16)/2
  95 000f 08       		.byte	(.L17-.L16)/2
  96 0010 05       		.byte	(.L18-.L16)/2
  97 0011 0A       		.byte	(.L19-.L16)/2
  98 0012 0C       		.byte	(.L20-.L16)/2
  99 0013 00       		.p2align 1
 100              	.L15:
  42:.\lightlib.c  ****         case LEFT_LED:
  43:.\lightlib.c  ****             Left_LED_State.status = status;
 101              		.loc 1 43 0
 102 0014 054B     		ldr	r3, .L22
 103 0016 07E0     		b	.L21
 104              	.L18:
  44:.\lightlib.c  ****         break;
  45:.\lightlib.c  ****         case RIGHT_LED:
  46:.\lightlib.c  ****             Right_LED_State.status = status;
  47:.\lightlib.c  ****         break;
  48:.\lightlib.c  ****         case LEFT_RIGHT_LED:
  49:.\lightlib.c  ****             set_status(LEFT_LED, status);
 105              		.loc 1 49 0
 106 0018 0120     		mov	r0, #1
 107 001a FFF7FEFF 		bl	set_status
 108              	.LVL5:
 109              	.L17:
  46:.\lightlib.c  ****             Right_LED_State.status = status;
 110              		.loc 1 46 0
 111 001e 044B     		ldr	r3, .L22+4
 112 0020 02E0     		b	.L21
 113              	.LVL6:
 114              	.L19:
  50:.\lightlib.c  ****             set_status(RIGHT_LED, status);
  51:.\lightlib.c  ****         break;
  52:.\lightlib.c  ****         case IR_LED:
  53:.\lightlib.c  ****             IR_LED_State.status = status;
ARM GAS  C:\Users\Admin\AppData\Local\Temp\cc94kbZI.s 			page 4


 115              		.loc 1 53 0
 116 0022 044B     		ldr	r3, .L22+8
 117 0024 00E0     		b	.L21
 118              	.L20:
  54:.\lightlib.c  ****         break;
  55:.\lightlib.c  ****         case BOARD_LED:
  56:.\lightlib.c  ****            Board_LED_State.status = status;
 119              		.loc 1 56 0
 120 0026 044B     		ldr	r3, .L22+12
 121              	.LVL7:
 122              	.L21:
 123 0028 1C70     		strb	r4, [r3]
 124              	.L13:
  57:.\lightlib.c  ****         break;
  58:.\lightlib.c  ****     }    
  59:.\lightlib.c  **** }
 125              		.loc 1 59 0
 126              		@ sp needed
 127 002a 10BD     		pop	{r4, pc}
 128              	.L23:
 129              		.align	2
 130              	.L22:
 131 002c 00000000 		.word	Left_LED_State
 132 0030 00000000 		.word	Right_LED_State
 133 0034 00000000 		.word	IR_LED_State
 134 0038 00000000 		.word	Board_LED_State
 135              		.cfi_endproc
 136              	.LFE34:
 137              		.size	set_status, .-set_status
 138              		.section	.text.get_color,"ax",%progbits
 139              		.align	1
 140              		.global	get_color
 141              		.code	16
 142              		.thumb_func
 143              		.type	get_color, %function
 144              	get_color:
 145              	.LFB35:
  60:.\lightlib.c  **** 
  61:.\lightlib.c  **** uint8 get_color(uint8 led_flag) {
 146              		.loc 1 61 0
 147              		.cfi_startproc
 148              	.LVL8:
  62:.\lightlib.c  ****     switch(led_flag) {
 149              		.loc 1 62 0
 150 0000 0128     		cmp	r0, #1
 151 0002 03D0     		beq	.L26
 152 0004 0228     		cmp	r0, #2
 153 0006 05D1     		bne	.L31
  63:.\lightlib.c  ****         case LEFT_LED:
  64:.\lightlib.c  ****             return Left_LED_State.color;
  65:.\lightlib.c  ****         break;
  66:.\lightlib.c  ****         case RIGHT_LED:
  67:.\lightlib.c  ****             return Right_LED_State.color;
 154              		.loc 1 67 0
 155 0008 034B     		ldr	r3, .L32
 156 000a 00E0     		b	.L30
 157              	.L26:
ARM GAS  C:\Users\Admin\AppData\Local\Temp\cc94kbZI.s 			page 5


  64:.\lightlib.c  ****             return Left_LED_State.color;
 158              		.loc 1 64 0
 159 000c 034B     		ldr	r3, .L32+4
 160              	.L30:
 161              		.loc 1 67 0
 162 000e 5878     		ldrb	r0, [r3, #1]
 163              	.LVL9:
 164 0010 C0B2     		uxtb	r0, r0
 165 0012 00E0     		b	.L25
 166              	.LVL10:
 167              	.L31:
  68:.\lightlib.c  ****         break;
  69:.\lightlib.c  ****     }
  70:.\lightlib.c  ****     return -1;
 168              		.loc 1 70 0
 169 0014 FF20     		mov	r0, #255
 170              	.LVL11:
 171              	.L25:
  71:.\lightlib.c  **** }
 172              		.loc 1 71 0
 173              		@ sp needed
 174 0016 7047     		bx	lr
 175              	.L33:
 176              		.align	2
 177              	.L32:
 178 0018 00000000 		.word	Right_LED_State
 179 001c 00000000 		.word	Left_LED_State
 180              		.cfi_endproc
 181              	.LFE35:
 182              		.size	get_color, .-get_color
 183              		.section	.text.get_status,"ax",%progbits
 184              		.align	1
 185              		.global	get_status
 186              		.code	16
 187              		.thumb_func
 188              		.type	get_status, %function
 189              	get_status:
 190              	.LFB36:
  72:.\lightlib.c  **** 
  73:.\lightlib.c  **** uint8 get_status(uint8 led_flag) {
 191              		.loc 1 73 0
 192              		.cfi_startproc
 193              	.LVL12:
  74:.\lightlib.c  ****     switch(led_flag) {
 194              		.loc 1 74 0
 195 0000 0138     		sub	r0, r0, #1
 196              	.LVL13:
  73:.\lightlib.c  **** uint8 get_status(uint8 led_flag) {
 197              		.loc 1 73 0
 198 0002 00B5     		push	{lr}
 199              		.cfi_def_cfa_offset 4
 200              		.cfi_offset 14, -4
 201              		.loc 1 74 0
 202 0004 0428     		cmp	r0, #4
 203 0006 0ED8     		bhi	.L41
 204 0008 FFF7FEFF 		bl	__gnu_thumb1_case_uqi
 205              	.L37:
ARM GAS  C:\Users\Admin\AppData\Local\Temp\cc94kbZI.s 			page 6


 206 000c 03       		.byte	(.L36-.L37)/2
 207 000d 05       		.byte	(.L38-.L37)/2
 208 000e 0D       		.byte	(.L41-.L37)/2
 209 000f 07       		.byte	(.L39-.L37)/2
 210 0010 09       		.byte	(.L40-.L37)/2
 211 0011 00       		.p2align 1
 212              	.L36:
  75:.\lightlib.c  ****         case LEFT_LED:
  76:.\lightlib.c  ****             return Left_LED_State.status;
 213              		.loc 1 76 0
 214 0012 064B     		ldr	r3, .L43
 215 0014 04E0     		b	.L42
 216              	.L38:
  77:.\lightlib.c  ****         break;
  78:.\lightlib.c  ****         case RIGHT_LED:
  79:.\lightlib.c  ****             return Right_LED_State.status;
 217              		.loc 1 79 0
 218 0016 064B     		ldr	r3, .L43+4
 219 0018 02E0     		b	.L42
 220              	.L39:
  80:.\lightlib.c  ****         break;
  81:.\lightlib.c  ****         case IR_LED:
  82:.\lightlib.c  ****             return IR_LED_State.status;
 221              		.loc 1 82 0
 222 001a 064B     		ldr	r3, .L43+8
 223 001c 00E0     		b	.L42
 224              	.L40:
  83:.\lightlib.c  ****         break;
  84:.\lightlib.c  ****         case BOARD_LED:
  85:.\lightlib.c  ****            return Board_LED_State.status;
 225              		.loc 1 85 0
 226 001e 064B     		ldr	r3, .L43+12
 227              	.L42:
 228 0020 1878     		ldrb	r0, [r3]
 229 0022 C0B2     		uxtb	r0, r0
 230 0024 00E0     		b	.L35
 231              	.L41:
  86:.\lightlib.c  ****         break;
  87:.\lightlib.c  ****     }  
  88:.\lightlib.c  ****     return -1;
 232              		.loc 1 88 0
 233 0026 FF20     		mov	r0, #255
 234              	.L35:
  89:.\lightlib.c  **** }
 235              		.loc 1 89 0
 236              		@ sp needed
 237 0028 00BD     		pop	{pc}
 238              	.L44:
 239 002a C046     		.align	2
 240              	.L43:
 241 002c 00000000 		.word	Left_LED_State
 242 0030 00000000 		.word	Right_LED_State
 243 0034 00000000 		.word	IR_LED_State
 244 0038 00000000 		.word	Board_LED_State
 245              		.cfi_endproc
 246              	.LFE36:
 247              		.size	get_status, .-get_status
ARM GAS  C:\Users\Admin\AppData\Local\Temp\cc94kbZI.s 			page 7


 248              		.section	.text.turn_on,"ax",%progbits
 249              		.align	1
 250              		.global	turn_on
 251              		.code	16
 252              		.thumb_func
 253              		.type	turn_on, %function
 254              	turn_on:
 255              	.LFB37:
  90:.\lightlib.c  **** 
  91:.\lightlib.c  **** void turn_on(uint8 led_flag) {
 256              		.loc 1 91 0
 257              		.cfi_startproc
 258              	.LVL14:
  92:.\lightlib.c  ****     switch(led_flag) {
 259              		.loc 1 92 0
 260 0000 0138     		sub	r0, r0, #1
 261              	.LVL15:
  91:.\lightlib.c  **** void turn_on(uint8 led_flag) {
 262              		.loc 1 91 0
 263 0002 08B5     		push	{r3, lr}
 264              		.cfi_def_cfa_offset 8
 265              		.cfi_offset 3, -8
 266              		.cfi_offset 14, -4
 267              		.loc 1 92 0
 268 0004 0428     		cmp	r0, #4
 269 0006 5AD8     		bhi	.L45
 270 0008 FFF7FEFF 		bl	__gnu_thumb1_case_uqi
 271              	.L48:
 272 000c 03       		.byte	(.L47-.L48)/2
 273 000d 2A       		.byte	(.L49-.L48)/2
 274 000e 27       		.byte	(.L50-.L48)/2
 275 000f 4D       		.byte	(.L51-.L48)/2
 276 0010 52       		.byte	(.L52-.L48)/2
 277 0011 00       		.p2align 1
 278              	.L47:
 279              	.LVL16:
 280              	.LBB6:
 281              	.LBB7:
  64:.\lightlib.c  ****             return Left_LED_State.color;
 282              		.loc 1 64 0
 283 0012 2B4B     		ldr	r3, .L79
 284 0014 5878     		ldrb	r0, [r3, #1]
 285              	.LBE7:
 286              	.LBE6:
  93:.\lightlib.c  ****         case LEFT_LED:
  94:.\lightlib.c  ****             switch(get_color(LEFT_LED)) {
 287              		.loc 1 94 0
 288 0016 0138     		sub	r0, r0, #1
 289 0018 0628     		cmp	r0, #6
 290 001a 1BD8     		bhi	.L53
 291 001c FFF7FEFF 		bl	__gnu_thumb1_case_uqi
 292              	.L55:
 293 0020 04       		.byte	(.L54-.L55)/2
 294 0021 0B       		.byte	(.L71-.L55)/2
 295 0022 08       		.byte	(.L57-.L55)/2
 296 0023 17       		.byte	(.L73-.L55)/2
 297 0024 0E       		.byte	(.L59-.L55)/2
ARM GAS  C:\Users\Admin\AppData\Local\Temp\cc94kbZI.s 			page 8


 298 0025 15       		.byte	(.L72-.L55)/2
 299 0026 12       		.byte	(.L61-.L55)/2
 300 0027 00       		.p2align 1
 301              	.L54:
  95:.\lightlib.c  ****                 case RED:
  96:.\lightlib.c  ****                     Left_LED_Red_Write(1);
 302              		.loc 1 96 0
 303 0028 0120     		mov	r0, #1
 304 002a FFF7FEFF 		bl	Left_LED_Red_Write
 305              	.LVL17:
  97:.\lightlib.c  ****                 break;
 306              		.loc 1 97 0
 307 002e 11E0     		b	.L53
 308              	.L57:
  98:.\lightlib.c  ****                 case BLUE:
  99:.\lightlib.c  ****                     PWM_Left_LED_Blue_Start();
 100:.\lightlib.c  ****                 break;
 101:.\lightlib.c  ****                 case MAGENTA:
 102:.\lightlib.c  ****                     Left_LED_Red_Write(1);
 309              		.loc 1 102 0
 310 0030 0120     		mov	r0, #1
 311 0032 FFF7FEFF 		bl	Left_LED_Red_Write
 312              	.LVL18:
 313              	.L71:
 103:.\lightlib.c  ****                     PWM_Left_LED_Blue_Start();
 314              		.loc 1 103 0
 315 0036 FFF7FEFF 		bl	PWM_Left_LED_Blue_Start
 316              	.LVL19:
 104:.\lightlib.c  ****                 break;
 317              		.loc 1 104 0
 318 003a 0BE0     		b	.L53
 319              	.L59:
 105:.\lightlib.c  ****                 case GREEN:
 106:.\lightlib.c  ****                     Left_LED_Green_Write(1);
 107:.\lightlib.c  ****                 break;
 108:.\lightlib.c  ****                 case YELLOW:
 109:.\lightlib.c  ****                     Left_LED_Red_Write(1);
 320              		.loc 1 109 0
 321 003c 0120     		mov	r0, #1
 322 003e FFF7FEFF 		bl	Left_LED_Red_Write
 323              	.LVL20:
 324 0042 04E0     		b	.L73
 325              	.L61:
 110:.\lightlib.c  ****                     Left_LED_Green_Write(1);
 111:.\lightlib.c  ****                 break;
 112:.\lightlib.c  ****                 case CYAN:
 113:.\lightlib.c  ****                     PWM_Left_LED_Blue_Start();
 114:.\lightlib.c  ****                     Left_LED_Green_Write(1);
 115:.\lightlib.c  ****                 break;
 116:.\lightlib.c  ****                 case WHITE:
 117:.\lightlib.c  ****                     Left_LED_Red_Write(1);
 326              		.loc 1 117 0
 327 0044 0120     		mov	r0, #1
 328 0046 FFF7FEFF 		bl	Left_LED_Red_Write
 329              	.LVL21:
 330              	.L72:
 118:.\lightlib.c  ****                     PWM_Left_LED_Blue_Start();
ARM GAS  C:\Users\Admin\AppData\Local\Temp\cc94kbZI.s 			page 9


 331              		.loc 1 118 0
 332 004a FFF7FEFF 		bl	PWM_Left_LED_Blue_Start
 333              	.LVL22:
 334              	.L73:
 119:.\lightlib.c  ****                     Left_LED_Green_Write(1);
 335              		.loc 1 119 0
 336 004e 0120     		mov	r0, #1
 337 0050 FFF7FEFF 		bl	Left_LED_Green_Write
 338              	.LVL23:
 339              	.L53:
 120:.\lightlib.c  ****                 break;
 121:.\lightlib.c  ****             }
 122:.\lightlib.c  ****         set_status(LEFT_LED, ON);
 340              		.loc 1 122 0
 341 0054 0120     		mov	r0, #1
 342 0056 011C     		mov	r1, r0
 343 0058 2FE0     		b	.L78
 344              	.LVL24:
 345              	.L50:
 123:.\lightlib.c  ****         break;
 124:.\lightlib.c  ****         case RIGHT_LED:
 125:.\lightlib.c  ****             switch(get_color(RIGHT_LED)) {
 126:.\lightlib.c  ****                 case RED:
 127:.\lightlib.c  ****                     Right_LED_Red_Write(1);
 128:.\lightlib.c  ****                 break;
 129:.\lightlib.c  ****                 case BLUE:
 130:.\lightlib.c  ****                     PWM_Right_LED_Blue_Start();
 131:.\lightlib.c  ****                 break;
 132:.\lightlib.c  ****                 case MAGENTA:
 133:.\lightlib.c  ****                     Right_LED_Red_Write(1);
 134:.\lightlib.c  ****                     PWM_Right_LED_Blue_Start();
 135:.\lightlib.c  ****                 break;
 136:.\lightlib.c  ****                 case GREEN:
 137:.\lightlib.c  ****                     Right_LED_Green_Write(1);
 138:.\lightlib.c  ****                 break;
 139:.\lightlib.c  ****                 case YELLOW:
 140:.\lightlib.c  ****                     Right_LED_Red_Write(1);
 141:.\lightlib.c  ****                     Right_LED_Green_Write(1);
 142:.\lightlib.c  ****                 break;
 143:.\lightlib.c  ****                 case CYAN:
 144:.\lightlib.c  ****                     PWM_Right_LED_Blue_Start();
 145:.\lightlib.c  ****                     Right_LED_Green_Write(1);
 146:.\lightlib.c  ****                 break;
 147:.\lightlib.c  ****                 case WHITE:
 148:.\lightlib.c  ****                     Right_LED_Red_Write(1);
 149:.\lightlib.c  ****                     PWM_Right_LED_Blue_Start();
 150:.\lightlib.c  ****                     Right_LED_Green_Write(1);
 151:.\lightlib.c  ****                 break;
 152:.\lightlib.c  ****             }
 153:.\lightlib.c  ****         set_status(RIGHT_LED, ON);
 154:.\lightlib.c  ****         break;
 155:.\lightlib.c  ****         case LEFT_RIGHT_LED:
 156:.\lightlib.c  ****             turn_on(LEFT_LED);
 346              		.loc 1 156 0
 347 005a 0120     		mov	r0, #1
 348 005c FFF7FEFF 		bl	turn_on
 349              	.LVL25:
ARM GAS  C:\Users\Admin\AppData\Local\Temp\cc94kbZI.s 			page 10


 350              	.L49:
 351              	.LBB8:
 352              	.LBB9:
  67:.\lightlib.c  ****             return Right_LED_State.color;
 353              		.loc 1 67 0
 354 0060 184B     		ldr	r3, .L79+4
 355 0062 5878     		ldrb	r0, [r3, #1]
 356              	.LBE9:
 357              	.LBE8:
 125:.\lightlib.c  ****             switch(get_color(RIGHT_LED)) {
 358              		.loc 1 125 0
 359 0064 0138     		sub	r0, r0, #1
 360 0066 0628     		cmp	r0, #6
 361 0068 1BD8     		bhi	.L62
 362 006a FFF7FEFF 		bl	__gnu_thumb1_case_uqi
 363              	.L64:
 364 006e 04       		.byte	(.L63-.L64)/2
 365 006f 0B       		.byte	(.L74-.L64)/2
 366 0070 08       		.byte	(.L66-.L64)/2
 367 0071 17       		.byte	(.L76-.L64)/2
 368 0072 0E       		.byte	(.L68-.L64)/2
 369 0073 15       		.byte	(.L75-.L64)/2
 370 0074 12       		.byte	(.L70-.L64)/2
 371 0075 00       		.p2align 1
 372              	.L63:
 127:.\lightlib.c  ****                     Right_LED_Red_Write(1);
 373              		.loc 1 127 0
 374 0076 0120     		mov	r0, #1
 375 0078 FFF7FEFF 		bl	Right_LED_Red_Write
 376              	.LVL26:
 128:.\lightlib.c  ****                 break;
 377              		.loc 1 128 0
 378 007c 11E0     		b	.L62
 379              	.L66:
 133:.\lightlib.c  ****                     Right_LED_Red_Write(1);
 380              		.loc 1 133 0
 381 007e 0120     		mov	r0, #1
 382 0080 FFF7FEFF 		bl	Right_LED_Red_Write
 383              	.LVL27:
 384              	.L74:
 134:.\lightlib.c  ****                     PWM_Right_LED_Blue_Start();
 385              		.loc 1 134 0
 386 0084 FFF7FEFF 		bl	PWM_Right_LED_Blue_Start
 387              	.LVL28:
 135:.\lightlib.c  ****                 break;
 388              		.loc 1 135 0
 389 0088 0BE0     		b	.L62
 390              	.L68:
 140:.\lightlib.c  ****                     Right_LED_Red_Write(1);
 391              		.loc 1 140 0
 392 008a 0120     		mov	r0, #1
 393 008c FFF7FEFF 		bl	Right_LED_Red_Write
 394              	.LVL29:
 395 0090 04E0     		b	.L76
 396              	.L70:
 148:.\lightlib.c  ****                     Right_LED_Red_Write(1);
 397              		.loc 1 148 0
ARM GAS  C:\Users\Admin\AppData\Local\Temp\cc94kbZI.s 			page 11


 398 0092 0120     		mov	r0, #1
 399 0094 FFF7FEFF 		bl	Right_LED_Red_Write
 400              	.LVL30:
 401              	.L75:
 149:.\lightlib.c  ****                     PWM_Right_LED_Blue_Start();
 402              		.loc 1 149 0
 403 0098 FFF7FEFF 		bl	PWM_Right_LED_Blue_Start
 404              	.LVL31:
 405              	.L76:
 150:.\lightlib.c  ****                     Right_LED_Green_Write(1);
 406              		.loc 1 150 0
 407 009c 0120     		mov	r0, #1
 408 009e FFF7FEFF 		bl	Right_LED_Green_Write
 409              	.LVL32:
 410              	.L62:
 153:.\lightlib.c  ****         set_status(RIGHT_LED, ON);
 411              		.loc 1 153 0
 412 00a2 0220     		mov	r0, #2
 413 00a4 08E0     		b	.L77
 414              	.LVL33:
 415              	.L51:
 157:.\lightlib.c  ****             turn_on(RIGHT_LED);
 158:.\lightlib.c  ****         break;
 159:.\lightlib.c  ****         case IR_LED:
 160:.\lightlib.c  ****             IR_LED_Write(1);
 416              		.loc 1 160 0
 417 00a6 0120     		mov	r0, #1
 418 00a8 FFF7FEFF 		bl	IR_LED_Write
 419              	.LVL34:
 161:.\lightlib.c  ****             set_status(IR_LED, ON);
 420              		.loc 1 161 0
 421 00ac 0420     		mov	r0, #4
 422 00ae 03E0     		b	.L77
 423              	.L52:
 162:.\lightlib.c  ****         break;
 163:.\lightlib.c  ****         case BOARD_LED:
 164:.\lightlib.c  ****             Board_LED_Write(1);
 424              		.loc 1 164 0
 425 00b0 0120     		mov	r0, #1
 426 00b2 FFF7FEFF 		bl	Board_LED_Write
 427              	.LVL35:
 165:.\lightlib.c  ****             set_status(BOARD_LED, ON);
 428              		.loc 1 165 0
 429 00b6 0520     		mov	r0, #5
 430              	.L77:
 431 00b8 0121     		mov	r1, #1
 432              	.L78:
 433 00ba FFF7FEFF 		bl	set_status
 434              	.LVL36:
 435              	.L45:
 166:.\lightlib.c  **** 
 167:.\lightlib.c  ****         break;
 168:.\lightlib.c  ****     }    
 169:.\lightlib.c  **** }
 436              		.loc 1 169 0
 437              		@ sp needed
 438 00be 08BD     		pop	{r3, pc}
ARM GAS  C:\Users\Admin\AppData\Local\Temp\cc94kbZI.s 			page 12


 439              	.L80:
 440              		.align	2
 441              	.L79:
 442 00c0 00000000 		.word	Left_LED_State
 443 00c4 00000000 		.word	Right_LED_State
 444              		.cfi_endproc
 445              	.LFE37:
 446              		.size	turn_on, .-turn_on
 447              		.section	.text.turn_off,"ax",%progbits
 448              		.align	1
 449              		.global	turn_off
 450              		.code	16
 451              		.thumb_func
 452              		.type	turn_off, %function
 453              	turn_off:
 454              	.LFB38:
 170:.\lightlib.c  **** 
 171:.\lightlib.c  **** void turn_off(uint8 led_flag) {
 455              		.loc 1 171 0
 456              		.cfi_startproc
 457              	.LVL37:
 172:.\lightlib.c  ****     switch(led_flag) {
 458              		.loc 1 172 0
 459 0000 0138     		sub	r0, r0, #1
 460              	.LVL38:
 171:.\lightlib.c  **** void turn_off(uint8 led_flag) {
 461              		.loc 1 171 0
 462 0002 08B5     		push	{r3, lr}
 463              		.cfi_def_cfa_offset 8
 464              		.cfi_offset 3, -8
 465              		.cfi_offset 14, -4
 466              		.loc 1 172 0
 467 0004 0428     		cmp	r0, #4
 468 0006 27D8     		bhi	.L81
 469 0008 FFF7FEFF 		bl	__gnu_thumb1_case_uqi
 470              	.L84:
 471 000c 03       		.byte	(.L83-.L84)/2
 472 000d 10       		.byte	(.L85-.L84)/2
 473 000e 0D       		.byte	(.L86-.L84)/2
 474 000f 1A       		.byte	(.L87-.L84)/2
 475 0010 1F       		.byte	(.L88-.L84)/2
 476 0011 00       		.p2align 1
 477              	.L83:
 478              	.LVL39:
 479              	.LBB12:
 480              	.LBB13:
 173:.\lightlib.c  ****         case LEFT_LED:
 174:.\lightlib.c  ****             Left_LED_Red_Write(0);
 481              		.loc 1 174 0
 482 0012 0020     		mov	r0, #0
 483 0014 FFF7FEFF 		bl	Left_LED_Red_Write
 484              	.LVL40:
 175:.\lightlib.c  ****             PWM_Left_LED_Blue_Stop();
 485              		.loc 1 175 0
 486 0018 FFF7FEFF 		bl	PWM_Left_LED_Blue_Stop
 487              	.LVL41:
 176:.\lightlib.c  ****             Left_LED_Green_Write(0);
ARM GAS  C:\Users\Admin\AppData\Local\Temp\cc94kbZI.s 			page 13


 488              		.loc 1 176 0
 489 001c 0020     		mov	r0, #0
 490 001e FFF7FEFF 		bl	Left_LED_Green_Write
 491              	.LVL42:
 177:.\lightlib.c  ****             set_status(LEFT_LED, OFF);
 492              		.loc 1 177 0
 493 0022 0120     		mov	r0, #1
 494 0024 15E0     		b	.L89
 495              	.LVL43:
 496              	.L86:
 497              	.LBE13:
 498              	.LBE12:
 178:.\lightlib.c  ****         break;
 179:.\lightlib.c  ****         case RIGHT_LED:
 180:.\lightlib.c  ****             Right_LED_Red_Write(0);
 181:.\lightlib.c  ****             PWM_Right_LED_Blue_Stop();
 182:.\lightlib.c  ****             Right_LED_Green_Write(0);
 183:.\lightlib.c  ****             set_status(RIGHT_LED, OFF);
 184:.\lightlib.c  ****         break;
 185:.\lightlib.c  ****         case LEFT_RIGHT_LED:
 186:.\lightlib.c  ****             turn_off(LEFT_LED);
 499              		.loc 1 186 0
 500 0026 0120     		mov	r0, #1
 501 0028 FFF7FEFF 		bl	turn_off
 502              	.LVL44:
 503              	.L85:
 180:.\lightlib.c  ****             Right_LED_Red_Write(0);
 504              		.loc 1 180 0
 505 002c 0020     		mov	r0, #0
 506 002e FFF7FEFF 		bl	Right_LED_Red_Write
 507              	.LVL45:
 181:.\lightlib.c  ****             PWM_Right_LED_Blue_Stop();
 508              		.loc 1 181 0
 509 0032 FFF7FEFF 		bl	PWM_Right_LED_Blue_Stop
 510              	.LVL46:
 182:.\lightlib.c  ****             Right_LED_Green_Write(0);
 511              		.loc 1 182 0
 512 0036 0020     		mov	r0, #0
 513 0038 FFF7FEFF 		bl	Right_LED_Green_Write
 514              	.LVL47:
 183:.\lightlib.c  ****             set_status(RIGHT_LED, OFF);
 515              		.loc 1 183 0
 516 003c 0220     		mov	r0, #2
 517 003e 08E0     		b	.L89
 518              	.L87:
 187:.\lightlib.c  ****             turn_off(RIGHT_LED);
 188:.\lightlib.c  ****         break;
 189:.\lightlib.c  ****         case IR_LED:
 190:.\lightlib.c  ****             IR_LED_Write(0);
 519              		.loc 1 190 0
 520 0040 0020     		mov	r0, #0
 521 0042 FFF7FEFF 		bl	IR_LED_Write
 522              	.LVL48:
 191:.\lightlib.c  ****             set_status(IR_LED, OFF);
 523              		.loc 1 191 0
 524 0046 0420     		mov	r0, #4
 525 0048 03E0     		b	.L89
ARM GAS  C:\Users\Admin\AppData\Local\Temp\cc94kbZI.s 			page 14


 526              	.L88:
 192:.\lightlib.c  ****         break;
 193:.\lightlib.c  ****         case BOARD_LED:
 194:.\lightlib.c  ****             Board_LED_Write(0);
 527              		.loc 1 194 0
 528 004a 0020     		mov	r0, #0
 529 004c FFF7FEFF 		bl	Board_LED_Write
 530              	.LVL49:
 195:.\lightlib.c  ****            set_status(BOARD_LED, OFF);
 531              		.loc 1 195 0
 532 0050 0520     		mov	r0, #5
 533              	.L89:
 534 0052 0021     		mov	r1, #0
 535 0054 FFF7FEFF 		bl	set_status
 536              	.LVL50:
 537              	.L81:
 196:.\lightlib.c  ****         break;
 197:.\lightlib.c  ****     }    
 198:.\lightlib.c  **** }
 538              		.loc 1 198 0
 539              		@ sp needed
 540 0058 08BD     		pop	{r3, pc}
 541              		.cfi_endproc
 542              	.LFE38:
 543              		.size	turn_off, .-turn_off
 544              		.section	.text.turn_on_all_led,"ax",%progbits
 545              		.align	1
 546              		.global	turn_on_all_led
 547              		.code	16
 548              		.thumb_func
 549              		.type	turn_on_all_led, %function
 550              	turn_on_all_led:
 551              	.LFB39:
 199:.\lightlib.c  **** 
 200:.\lightlib.c  **** void turn_on_all_led(void) {
 552              		.loc 1 200 0
 553              		.cfi_startproc
 554 0000 08B5     		push	{r3, lr}
 555              		.cfi_def_cfa_offset 8
 556              		.cfi_offset 3, -8
 557              		.cfi_offset 14, -4
 201:.\lightlib.c  ****     turn_on(LEFT_LED);
 558              		.loc 1 201 0
 559 0002 0120     		mov	r0, #1
 560 0004 FFF7FEFF 		bl	turn_on
 561              	.LVL51:
 202:.\lightlib.c  ****     turn_on(RIGHT_LED); 
 562              		.loc 1 202 0
 563 0008 0220     		mov	r0, #2
 564 000a FFF7FEFF 		bl	turn_on
 565              	.LVL52:
 203:.\lightlib.c  ****     turn_on(IR_LED); 
 566              		.loc 1 203 0
 567 000e 0420     		mov	r0, #4
 568 0010 FFF7FEFF 		bl	turn_on
 569              	.LVL53:
 204:.\lightlib.c  ****     turn_on(BOARD_LED); 
ARM GAS  C:\Users\Admin\AppData\Local\Temp\cc94kbZI.s 			page 15


 570              		.loc 1 204 0
 571 0014 0520     		mov	r0, #5
 572 0016 FFF7FEFF 		bl	turn_on
 573              	.LVL54:
 205:.\lightlib.c  **** }
 574              		.loc 1 205 0
 575              		@ sp needed
 576 001a 08BD     		pop	{r3, pc}
 577              		.cfi_endproc
 578              	.LFE39:
 579              		.size	turn_on_all_led, .-turn_on_all_led
 580              		.section	.text.turn_off_all_led,"ax",%progbits
 581              		.align	1
 582              		.global	turn_off_all_led
 583              		.code	16
 584              		.thumb_func
 585              		.type	turn_off_all_led, %function
 586              	turn_off_all_led:
 587              	.LFB40:
 206:.\lightlib.c  **** 
 207:.\lightlib.c  **** void turn_off_all_led(void) {
 588              		.loc 1 207 0
 589              		.cfi_startproc
 590 0000 08B5     		push	{r3, lr}
 591              		.cfi_def_cfa_offset 8
 592              		.cfi_offset 3, -8
 593              		.cfi_offset 14, -4
 208:.\lightlib.c  ****     turn_off(LEFT_LED);
 594              		.loc 1 208 0
 595 0002 0120     		mov	r0, #1
 596 0004 FFF7FEFF 		bl	turn_off
 597              	.LVL55:
 209:.\lightlib.c  ****     turn_off(RIGHT_LED); 
 598              		.loc 1 209 0
 599 0008 0220     		mov	r0, #2
 600 000a FFF7FEFF 		bl	turn_off
 601              	.LVL56:
 210:.\lightlib.c  ****     turn_off(IR_LED); 
 602              		.loc 1 210 0
 603 000e 0420     		mov	r0, #4
 604 0010 FFF7FEFF 		bl	turn_off
 605              	.LVL57:
 211:.\lightlib.c  ****     turn_off(BOARD_LED); 
 606              		.loc 1 211 0
 607 0014 0520     		mov	r0, #5
 608 0016 FFF7FEFF 		bl	turn_off
 609              	.LVL58:
 212:.\lightlib.c  **** }
 610              		.loc 1 212 0
 611              		@ sp needed
 612 001a 08BD     		pop	{r3, pc}
 613              		.cfi_endproc
 614              	.LFE40:
 615              		.size	turn_off_all_led, .-turn_off_all_led
 616              		.section	.text.init_led,"ax",%progbits
 617              		.align	1
 618              		.global	init_led
ARM GAS  C:\Users\Admin\AppData\Local\Temp\cc94kbZI.s 			page 16


 619              		.code	16
 620              		.thumb_func
 621              		.type	init_led, %function
 622              	init_led:
 623              	.LFB41:
 213:.\lightlib.c  **** 
 214:.\lightlib.c  **** void init_led(uint8 color) {
 624              		.loc 1 214 0
 625              		.cfi_startproc
 626              	.LVL59:
 627 0000 10B5     		push	{r4, lr}
 628              		.cfi_def_cfa_offset 8
 629              		.cfi_offset 4, -8
 630              		.cfi_offset 14, -4
 631              		.loc 1 214 0
 632 0002 041C     		mov	r4, r0
 215:.\lightlib.c  ****     /* Turn off all leds */
 216:.\lightlib.c  ****     turn_off_all_led();
 633              		.loc 1 216 0
 634 0004 FFF7FEFF 		bl	turn_off_all_led
 635              	.LVL60:
 217:.\lightlib.c  ****     
 218:.\lightlib.c  ****     /* Set default led color */
 219:.\lightlib.c  ****     set_color(LEFT_LED, color);
 636              		.loc 1 219 0
 637 0008 211C     		mov	r1, r4
 638 000a 0120     		mov	r0, #1
 639 000c FFF7FEFF 		bl	set_color
 640              	.LVL61:
 220:.\lightlib.c  ****     set_color(RIGHT_LED, color);
 641              		.loc 1 220 0
 642 0010 0220     		mov	r0, #2
 643 0012 211C     		mov	r1, r4
 644 0014 FFF7FEFF 		bl	set_color
 645              	.LVL62:
 221:.\lightlib.c  **** }...
 646              		.loc 1 221 0
 647              		@ sp needed
 648 0018 10BD     		pop	{r4, pc}
 649              		.cfi_endproc
 650              	.LFE41:
 651              		.size	init_led, .-init_led
 652              		.comm	Board_LED_State,1,1
 653              		.comm	IR_LED_State,1,1
 654              		.comm	Right_LED_State,2,1
 655              		.comm	Left_LED_State,2,1
 656              		.text
 657              	.Letext0:
 658              		.file 2 ".\\lightlib.h"
 659              		.file 3 ".\\Generated_Source\\PSoC4/Left_LED_Red.h"
 660              		.file 4 ".\\Generated_Source\\PSoC4/Left_LED_Green.h"
 661              		.file 5 ".\\Generated_Source\\PSoC4/Right_LED_Red.h"
 662              		.file 6 ".\\Generated_Source\\PSoC4/PWM_Left_LED_Blue.h"
 663              		.file 7 ".\\Generated_Source\\PSoC4/PWM_Right_LED_Blue.h"
 664              		.file 8 ".\\Generated_Source\\PSoC4/Right_LED_Green.h"
 665              		.file 9 ".\\Generated_Source\\PSoC4/IR_LED.h"
 666              		.file 10 ".\\Generated_Source\\PSoC4/Board_LED.h"
ARM GAS  C:\Users\Admin\AppData\Local\Temp\cc94kbZI.s 			page 17


 667              		.file 11 ".\\Generated_Source\\PSoC4/cytypes.h"