ARM GAS  C:\Users\Admin\AppData\Local\Temp\cczodve5.s 			page 1


   1              		.cpu cortex-m0
   2              		.fpu softvfp
   3              		.eabi_attribute 20, 1
   4              		.eabi_attribute 21, 1
   5              		.eabi_attribute 23, 3
   6              		.eabi_attribute 24, 1
   7              		.eabi_attribute 25, 1
   8              		.eabi_attribute 26, 1
   9              		.eabi_attribute 30, 4
  10              		.eabi_attribute 34, 0
  11              		.eabi_attribute 18, 4
  12              		.code	16
  13              		.file	"morse.c"
  14              		.text
  15              	.Ltext0:
  16              		.cfi_sections	.debug_frame
  17              		.section	.text.blinkdot,"ax",%progbits
  18              		.align	1
  19              		.global	blinkdot
  20              		.code	16
  21              		.thumb_func
  22              		.type	blinkdot, %function
  23              	blinkdot:
  24              	.LFB33:
  25              		.file 1 ".\\morse.c"
   1:.\morse.c     **** /* ========================================
   2:.\morse.c     ****  *
   3:.\morse.c     ****  * Copyright Nullify, 2016
   4:.\morse.c     ****  * All Rights Reserved
   5:.\morse.c     ****  * UNPUBLISHED, LICENSED SOFTWARE.
   6:.\morse.c     ****  *
   7:.\morse.c     ****  * CONFIDENTIAL AND PROPRIETARY INFORMATION
   8:.\morse.c     ****  * WHICH IS THE PROPERTY OF NULLIY.
   9:.\morse.c     ****  *
  10:.\morse.c     ****  * ========================================
  11:.\morse.c     **** */
  12:.\morse.c     **** #include <project.h>
  13:.\morse.c     **** #include <string.h>
  14:.\morse.c     **** #include "lightlib.h"
  15:.\morse.c     **** #include "morse.h"
  16:.\morse.c     **** 
  17:.\morse.c     **** void blinkdot(uint8 led_flag) {
  26              		.loc 1 17 0
  27              		.cfi_startproc
  28              	.LVL0:
  29 0000 10B5     		push	{r4, lr}
  30              		.cfi_def_cfa_offset 8
  31              		.cfi_offset 4, -8
  32              		.cfi_offset 14, -4
  33              		.loc 1 17 0
  34 0002 041C     		mov	r4, r0
  18:.\morse.c     ****     turn_on(led_flag);
  35              		.loc 1 18 0
  36 0004 FFF7FEFF 		bl	turn_on
  37              	.LVL1:
  19:.\morse.c     ****     CyDelay(DOT_ON_TIME);
  38              		.loc 1 19 0
ARM GAS  C:\Users\Admin\AppData\Local\Temp\cczodve5.s 			page 2


  39 0008 FA20     		mov	r0, #250
  40 000a 4000     		lsl	r0, r0, #1
  41 000c FFF7FEFF 		bl	CyDelay
  42              	.LVL2:
  20:.\morse.c     ****     turn_off(led_flag);
  43              		.loc 1 20 0
  44 0010 201C     		mov	r0, r4
  45 0012 FFF7FEFF 		bl	turn_off
  46              	.LVL3:
  21:.\morse.c     ****     CyDelay(DOT_OFF_TIME);
  47              		.loc 1 21 0
  48 0016 FA20     		mov	r0, #250
  49 0018 FFF7FEFF 		bl	CyDelay
  50              	.LVL4:
  22:.\morse.c     **** }
  51              		.loc 1 22 0
  52              		@ sp needed
  53 001c 10BD     		pop	{r4, pc}
  54              		.cfi_endproc
  55              	.LFE33:
  56              		.size	blinkdot, .-blinkdot
  57              		.section	.text.blinkdash,"ax",%progbits
  58              		.align	1
  59              		.global	blinkdash
  60              		.code	16
  61              		.thumb_func
  62              		.type	blinkdash, %function
  63              	blinkdash:
  64              	.LFB34:
  23:.\morse.c     **** 
  24:.\morse.c     **** void blinkdash(uint8 led_flag) {
  65              		.loc 1 24 0
  66              		.cfi_startproc
  67              	.LVL5:
  68 0000 10B5     		push	{r4, lr}
  69              		.cfi_def_cfa_offset 8
  70              		.cfi_offset 4, -8
  71              		.cfi_offset 14, -4
  72              		.loc 1 24 0
  73 0002 041C     		mov	r4, r0
  25:.\morse.c     ****     turn_on(led_flag);
  74              		.loc 1 25 0
  75 0004 FFF7FEFF 		bl	turn_on
  76              	.LVL6:
  26:.\morse.c     ****     CyDelay(DASH_ON_TIME);
  77              		.loc 1 26 0
  78 0008 0448     		ldr	r0, .L3
  79 000a FFF7FEFF 		bl	CyDelay
  80              	.LVL7:
  27:.\morse.c     ****     turn_off(led_flag);
  81              		.loc 1 27 0
  82 000e 201C     		mov	r0, r4
  83 0010 FFF7FEFF 		bl	turn_off
  84              	.LVL8:
  28:.\morse.c     ****     CyDelay(DASH_OFF_TIME);
  85              		.loc 1 28 0
  86 0014 FA20     		mov	r0, #250
ARM GAS  C:\Users\Admin\AppData\Local\Temp\cczodve5.s 			page 3


  87 0016 FFF7FEFF 		bl	CyDelay
  88              	.LVL9:
  29:.\morse.c     **** }
  89              		.loc 1 29 0
  90              		@ sp needed
  91 001a 10BD     		pop	{r4, pc}
  92              	.L4:
  93              		.align	2
  94              	.L3:
  95 001c DC050000 		.word	1500
  96              		.cfi_endproc
  97              	.LFE34:
  98              		.size	blinkdash, .-blinkdash
  99              		.section	.text.new_message_morse,"ax",%progbits
 100              		.align	1
 101              		.global	new_message_morse
 102              		.code	16
 103              		.thumb_func
 104              		.type	new_message_morse, %function
 105              	new_message_morse:
 106              	.LFB35:
  30:.\morse.c     **** 
  31:.\morse.c     **** void new_message_morse(void) {
 107              		.loc 1 31 0
 108              		.cfi_startproc
 109 0000 38B5     		push	{r3, r4, r5, lr}
 110              		.cfi_def_cfa_offset 16
 111              		.cfi_offset 3, -16
 112              		.cfi_offset 4, -12
 113              		.cfi_offset 5, -8
 114              		.cfi_offset 14, -4
  32:.\morse.c     ****     unsigned int i;
  33:.\morse.c     ****     uint8 original_color;
  34:.\morse.c     ****     original_color = get_color(LEFT_LED);
 115              		.loc 1 34 0
 116 0002 0120     		mov	r0, #1
 117 0004 FFF7FEFF 		bl	get_color
 118              	.LVL10:
  35:.\morse.c     ****     set_color(LEFT_RIGHT_LED, WHITE);
 119              		.loc 1 35 0
 120 0008 0721     		mov	r1, #7
  34:.\morse.c     ****     original_color = get_color(LEFT_LED);
 121              		.loc 1 34 0
 122 000a 051C     		mov	r5, r0
 123              	.LVL11:
 124              		.loc 1 35 0
 125 000c 0320     		mov	r0, #3
 126              	.LVL12:
 127 000e FFF7FEFF 		bl	set_color
 128              	.LVL13:
 129 0012 0524     		mov	r4, #5
 130              	.LVL14:
 131              	.L7:
  36:.\morse.c     ****     for (i=0; i<NEW_MESSAGE_NUMBER; i++) {
  37:.\morse.c     ****        turn_on(LEFT_RIGHT_LED);
 132              		.loc 1 37 0 discriminator 2
 133 0014 0320     		mov	r0, #3
ARM GAS  C:\Users\Admin\AppData\Local\Temp\cczodve5.s 			page 4


 134 0016 FFF7FEFF 		bl	turn_on
 135              	.LVL15:
  38:.\morse.c     ****        CyDelay(RESET_DELAY);
 136              		.loc 1 38 0 discriminator 2
 137 001a FA20     		mov	r0, #250
 138 001c FFF7FEFF 		bl	CyDelay
 139              	.LVL16:
  39:.\morse.c     ****        turn_off(LEFT_RIGHT_LED);
 140              		.loc 1 39 0 discriminator 2
 141 0020 0320     		mov	r0, #3
 142 0022 FFF7FEFF 		bl	turn_off
 143              	.LVL17:
 144 0026 013C     		sub	r4, r4, #1
 145              	.LVL18:
  40:.\morse.c     ****        CyDelay(RESET_DELAY);
 146              		.loc 1 40 0 discriminator 2
 147 0028 FA20     		mov	r0, #250
 148 002a FFF7FEFF 		bl	CyDelay
 149              	.LVL19:
  36:.\morse.c     ****     for (i=0; i<NEW_MESSAGE_NUMBER; i++) {
 150              		.loc 1 36 0 discriminator 2
 151 002e 002C     		cmp	r4, #0
 152 0030 F0D1     		bne	.L7
  41:.\morse.c     ****     }
  42:.\morse.c     ****     set_color(LEFT_RIGHT_LED, original_color);
 153              		.loc 1 42 0
 154 0032 291C     		mov	r1, r5
 155 0034 0320     		mov	r0, #3
 156 0036 FFF7FEFF 		bl	set_color
 157              	.LVL20:
  43:.\morse.c     **** }
 158              		.loc 1 43 0
 159              		@ sp needed
 160              	.LVL21:
 161 003a 38BD     		pop	{r3, r4, r5, pc}
 162              		.cfi_endproc
 163              	.LFE35:
 164              		.size	new_message_morse, .-new_message_morse
 165              		.section	.text.char_separate,"ax",%progbits
 166              		.align	1
 167              		.global	char_separate
 168              		.code	16
 169              		.thumb_func
 170              		.type	char_separate, %function
 171              	char_separate:
 172              	.LFB36:
  44:.\morse.c     **** 
  45:.\morse.c     **** void char_separate(void) {
 173              		.loc 1 45 0
 174              		.cfi_startproc
 175 0000 08B5     		push	{r3, lr}
 176              		.cfi_def_cfa_offset 8
 177              		.cfi_offset 3, -8
 178              		.cfi_offset 14, -4
  46:.\morse.c     ****     CyDelay(CHAR_SEPARATE_TIME);
 179              		.loc 1 46 0
 180 0002 FA20     		mov	r0, #250
ARM GAS  C:\Users\Admin\AppData\Local\Temp\cczodve5.s 			page 5


 181 0004 8000     		lsl	r0, r0, #2
 182 0006 FFF7FEFF 		bl	CyDelay
 183              	.LVL22:
  47:.\morse.c     **** }
 184              		.loc 1 47 0
 185              		@ sp needed
 186 000a 08BD     		pop	{r3, pc}
 187              		.cfi_endproc
 188              	.LFE36:
 189              		.size	char_separate, .-char_separate
 190              		.section	.text.morse_encode,"ax",%progbits
 191              		.align	1
 192              		.global	morse_encode
 193              		.code	16
 194              		.thumb_func
 195              		.type	morse_encode, %function
 196              	morse_encode:
 197              	.LFB37:
  48:.\morse.c     **** 
  49:.\morse.c     **** void morse_encode(uint8 led_flag, char c){
 198              		.loc 1 49 0
 199              		.cfi_startproc
 200              	.LVL23:
 201 0000 10B5     		push	{r4, lr}
 202              		.cfi_def_cfa_offset 8
 203              		.cfi_offset 4, -8
 204              		.cfi_offset 14, -4
 205              		.loc 1 49 0
 206 0002 041C     		mov	r4, r0
  50:.\morse.c     ****     switch(c) {
 207              		.loc 1 50 0
 208 0004 081C     		mov	r0, r1
 209              	.LVL24:
 210 0006 2038     		sub	r0, r0, #32
 211 0008 5A28     		cmp	r0, #90
 212 000a 00D9     		bls	.LCB150
 213 000c CCE0     		b	.L10	@long jump
 214              	.LCB150:
 215 000e FFF7FEFF 		bl	__gnu_thumb1_case_uqi
 216              	.L13:
 217 0012 C7       		.byte	(.L12-.L13)/2
 218 0013 CB       		.byte	(.L10-.L13)/2
 219 0014 CB       		.byte	(.L10-.L13)/2
 220 0015 CB       		.byte	(.L10-.L13)/2
 221 0016 CB       		.byte	(.L10-.L13)/2
 222 0017 CB       		.byte	(.L10-.L13)/2
 223 0018 CB       		.byte	(.L10-.L13)/2
 224 0019 CB       		.byte	(.L10-.L13)/2
 225 001a CB       		.byte	(.L10-.L13)/2
 226 001b CB       		.byte	(.L10-.L13)/2
 227 001c CB       		.byte	(.L10-.L13)/2
 228 001d CB       		.byte	(.L10-.L13)/2
 229 001e B2       		.byte	(.L14-.L13)/2
 230 001f CB       		.byte	(.L10-.L13)/2
 231 0020 A2       		.byte	(.L15-.L13)/2
 232 0021 CB       		.byte	(.L10-.L13)/2
 233 0022 4D       		.byte	(.L16-.L13)/2
ARM GAS  C:\Users\Admin\AppData\Local\Temp\cczodve5.s 			page 6


 234 0023 51       		.byte	(.L17-.L13)/2
 235 0024 58       		.byte	(.L18-.L13)/2
 236 0025 62       		.byte	(.L19-.L13)/2
 237 0026 66       		.byte	(.L20-.L13)/2
 238 0027 70       		.byte	(.L21-.L13)/2
 239 0028 74       		.byte	(.L22-.L13)/2
 240 0029 7B       		.byte	(.L23-.L13)/2
 241 002a 85       		.byte	(.L24-.L13)/2
 242 002b 92       		.byte	(.L25-.L13)/2
 243 002c CB       		.byte	(.L10-.L13)/2
 244 002d CB       		.byte	(.L10-.L13)/2
 245 002e CB       		.byte	(.L10-.L13)/2
 246 002f CB       		.byte	(.L10-.L13)/2
 247 0030 CB       		.byte	(.L10-.L13)/2
 248 0031 CB       		.byte	(.L10-.L13)/2
 249 0032 CB       		.byte	(.L10-.L13)/2
 250 0033 AE       		.byte	(.L59-.L13)/2
 251 0034 7E       		.byte	(.L71-.L13)/2
 252 0035 2E       		.byte	(.L28-.L13)/2
 253 0036 8B       		.byte	(.L68-.L13)/2
 254 0037 9E       		.byte	(.L61-.L13)/2
 255 0038 32       		.byte	(.L31-.L13)/2
 256 0039 98       		.byte	(.L63-.L13)/2
 257 003a 77       		.byte	(.L73-.L13)/2
 258 003b 8E       		.byte	(.L66-.L13)/2
 259 003c 5B       		.byte	(.L58-.L13)/2
 260 003d AB       		.byte	(.L60-.L13)/2
 261 003e 39       		.byte	(.L37-.L13)/2
 262 003f BE       		.byte	(.L55-.L13)/2
 263 0040 9B       		.byte	(.L62-.L13)/2
 264 0041 5E       		.byte	(.L57-.L13)/2
 265 0042 3D       		.byte	(.L41-.L13)/2
 266 0043 41       		.byte	(.L42-.L13)/2
 267 0044 35       		.byte	(.L65-.L13)/2
 268 0045 81       		.byte	(.L72-.L13)/2
 269 0046 C1       		.byte	(.L52-.L13)/2
 270 0047 6C       		.byte	(.L69-.L13)/2
 271 0048 69       		.byte	(.L70-.L13)/2
 272 0049 BB       		.byte	(.L56-.L13)/2
 273 004a 45       		.byte	(.L49-.L13)/2
 274 004b 49       		.byte	(.L50-.L13)/2
 275 004c 88       		.byte	(.L67-.L13)/2
 276 004d CB       		.byte	(.L10-.L13)/2
 277 004e CB       		.byte	(.L10-.L13)/2
 278 004f CB       		.byte	(.L10-.L13)/2
 279 0050 CB       		.byte	(.L10-.L13)/2
 280 0051 CB       		.byte	(.L10-.L13)/2
 281 0052 CB       		.byte	(.L10-.L13)/2
 282 0053 AE       		.byte	(.L59-.L13)/2
 283 0054 7E       		.byte	(.L71-.L13)/2
 284 0055 2E       		.byte	(.L28-.L13)/2
 285 0056 8B       		.byte	(.L68-.L13)/2
 286 0057 9E       		.byte	(.L61-.L13)/2
 287 0058 32       		.byte	(.L31-.L13)/2
 288 0059 98       		.byte	(.L63-.L13)/2
 289 005a 77       		.byte	(.L73-.L13)/2
 290 005b 8E       		.byte	(.L66-.L13)/2
ARM GAS  C:\Users\Admin\AppData\Local\Temp\cczodve5.s 			page 7


 291 005c 5B       		.byte	(.L58-.L13)/2
 292 005d AB       		.byte	(.L60-.L13)/2
 293 005e 39       		.byte	(.L37-.L13)/2
 294 005f BE       		.byte	(.L55-.L13)/2
 295 0060 9B       		.byte	(.L62-.L13)/2
 296 0061 5E       		.byte	(.L57-.L13)/2
 297 0062 3D       		.byte	(.L41-.L13)/2
 298 0063 41       		.byte	(.L42-.L13)/2
 299 0064 35       		.byte	(.L65-.L13)/2
 300 0065 81       		.byte	(.L72-.L13)/2
 301 0066 C1       		.byte	(.L52-.L13)/2
 302 0067 6C       		.byte	(.L69-.L13)/2
 303 0068 69       		.byte	(.L70-.L13)/2
 304 0069 BB       		.byte	(.L56-.L13)/2
 305 006a 45       		.byte	(.L49-.L13)/2
 306 006b 49       		.byte	(.L50-.L13)/2
 307 006c 88       		.byte	(.L67-.L13)/2
 308 006d 00       		.p2align 1
 309              	.L28:
  51:.\morse.c     ****       case 'A':
  52:.\morse.c     ****       case 'a':
  53:.\morse.c     ****         blinkdot(led_flag);
  54:.\morse.c     ****         blinkdash(led_flag);
  55:.\morse.c     ****         char_separate();
  56:.\morse.c     ****         break;
  57:.\morse.c     ****       case 'B':
  58:.\morse.c     ****       case 'b':
  59:.\morse.c     ****         blinkdash(led_flag);
  60:.\morse.c     ****         blinkdot(led_flag);
  61:.\morse.c     ****         blinkdot(led_flag);
  62:.\morse.c     ****         blinkdot(led_flag);
  63:.\morse.c     ****         char_separate();
  64:.\morse.c     ****         break;
  65:.\morse.c     ****       case 'C':
  66:.\morse.c     ****       case 'c':
  67:.\morse.c     ****         blinkdash(led_flag);
 310              		.loc 1 67 0
 311 006e 201C     		mov	r0, r4
 312 0070 FFF7FEFF 		bl	blinkdash
 313              	.LVL25:
 314 0074 02E0     		b	.L65
 315              	.LVL26:
 316              	.L31:
  68:.\morse.c     ****         blinkdot(led_flag);
  69:.\morse.c     ****         blinkdash(led_flag);
  70:.\morse.c     ****         blinkdot(led_flag);
  71:.\morse.c     ****         char_separate();
  72:.\morse.c     ****         break;
  73:.\morse.c     ****       case 'D':
  74:.\morse.c     ****       case 'd':
  75:.\morse.c     ****         blinkdash(led_flag);
  76:.\morse.c     ****         blinkdot(led_flag);
  77:.\morse.c     ****         blinkdot(led_flag);
  78:.\morse.c     ****         char_separate();
  79:.\morse.c     ****         break;
  80:.\morse.c     ****        case 'E':
  81:.\morse.c     ****        case 'e':
ARM GAS  C:\Users\Admin\AppData\Local\Temp\cczodve5.s 			page 8


  82:.\morse.c     ****         blinkdot(led_flag);
  83:.\morse.c     ****         char_separate();
  84:.\morse.c     ****         break;
  85:.\morse.c     ****        case 'F':
  86:.\morse.c     ****        case 'f':
  87:.\morse.c     ****         blinkdot(led_flag);
 317              		.loc 1 87 0
 318 0076 201C     		mov	r0, r4
 319 0078 FFF7FEFF 		bl	blinkdot
 320              	.LVL27:
 321              	.L65:
  88:.\morse.c     ****         blinkdot(led_flag);
 322              		.loc 1 88 0
 323 007c 201C     		mov	r0, r4
 324 007e FFF7FEFF 		bl	blinkdot
 325              	.LVL28:
 326 0082 61E0     		b	.L62
 327              	.LVL29:
 328              	.L37:
  89:.\morse.c     ****         blinkdash(led_flag);
  90:.\morse.c     ****         blinkdot(led_flag);
  91:.\morse.c     ****         char_separate();
  92:.\morse.c     ****         break;
  93:.\morse.c     ****        case 'G':
  94:.\morse.c     ****        case 'g':
  95:.\morse.c     ****         blinkdash(led_flag);
  96:.\morse.c     ****         blinkdash(led_flag);
  97:.\morse.c     ****         blinkdot(led_flag);
  98:.\morse.c     ****         char_separate();
  99:.\morse.c     ****         break;
 100:.\morse.c     ****        case 'H':
 101:.\morse.c     ****        case 'h':
 102:.\morse.c     ****         blinkdot(led_flag);
 103:.\morse.c     ****         blinkdot(led_flag);
 104:.\morse.c     ****         blinkdot(led_flag);
 105:.\morse.c     ****         blinkdot(led_flag);
 106:.\morse.c     ****         char_separate();
 107:.\morse.c     ****         break;
 108:.\morse.c     ****        case 'I':
 109:.\morse.c     ****        case 'i':
 110:.\morse.c     ****         blinkdot(led_flag);
 111:.\morse.c     ****         blinkdot(led_flag);
 112:.\morse.c     ****         char_separate();
 113:.\morse.c     ****         break;
 114:.\morse.c     ****        case 'J':
 115:.\morse.c     ****        case 'j':
 116:.\morse.c     ****         blinkdot(led_flag);
 117:.\morse.c     ****         blinkdash(led_flag);
 118:.\morse.c     ****         blinkdash(led_flag);
 119:.\morse.c     ****         blinkdash(led_flag);
 120:.\morse.c     ****         char_separate();
 121:.\morse.c     ****         break;
 122:.\morse.c     ****        case 'K':
 123:.\morse.c     ****        case 'k':
 124:.\morse.c     ****         blinkdash(led_flag);
 125:.\morse.c     ****         blinkdot(led_flag);
 126:.\morse.c     ****         blinkdash(led_flag);
ARM GAS  C:\Users\Admin\AppData\Local\Temp\cczodve5.s 			page 9


 127:.\morse.c     ****         char_separate();
 128:.\morse.c     ****         break;
 129:.\morse.c     ****        case 'L':
 130:.\morse.c     ****        case 'l':
 131:.\morse.c     ****         blinkdot(led_flag);
 329              		.loc 1 131 0
 330 0084 201C     		mov	r0, r4
 331 0086 FFF7FEFF 		bl	blinkdot
 332              	.LVL30:
 333 008a 4DE0     		b	.L68
 334              	.LVL31:
 335              	.L41:
 132:.\morse.c     ****         blinkdash(led_flag);
 133:.\morse.c     ****         blinkdot(led_flag);
 134:.\morse.c     ****         blinkdot(led_flag);
 135:.\morse.c     ****         char_separate();
 136:.\morse.c     ****         break;
 137:.\morse.c     ****        case 'M':
 138:.\morse.c     ****        case 'm':
 139:.\morse.c     ****         blinkdash(led_flag);
 140:.\morse.c     ****         blinkdash(led_flag);
 141:.\morse.c     ****         char_separate();
 142:.\morse.c     ****         break;
 143:.\morse.c     ****        case 'N':
 144:.\morse.c     ****        case 'n':
 145:.\morse.c     ****         blinkdash(led_flag);
 146:.\morse.c     ****         blinkdot(led_flag);
 147:.\morse.c     ****         char_separate();
 148:.\morse.c     ****         break;
 149:.\morse.c     ****        case 'O':
 150:.\morse.c     ****        case 'o':
 151:.\morse.c     ****         blinkdash(led_flag);
 152:.\morse.c     ****         blinkdash(led_flag);
 153:.\morse.c     ****         blinkdash(led_flag);
 154:.\morse.c     ****         char_separate();
 155:.\morse.c     ****         break;
 156:.\morse.c     ****        case 'P':
 157:.\morse.c     ****        case 'p':
 158:.\morse.c     ****         blinkdot(led_flag);
 336              		.loc 1 158 0
 337 008c 201C     		mov	r0, r4
 338 008e FFF7FEFF 		bl	blinkdot
 339              	.LVL32:
 340 0092 56E0     		b	.L63
 341              	.LVL33:
 342              	.L42:
 159:.\morse.c     ****         blinkdash(led_flag);
 160:.\morse.c     ****         blinkdash(led_flag);
 161:.\morse.c     ****         blinkdot(led_flag);
 162:.\morse.c     ****         char_separate();
 163:.\morse.c     ****         break;
 164:.\morse.c     ****        case 'Q':
 165:.\morse.c     ****        case 'q':
 166:.\morse.c     ****         blinkdash(led_flag);
 343              		.loc 1 166 0
 344 0094 201C     		mov	r0, r4
 345 0096 FFF7FEFF 		bl	blinkdash
ARM GAS  C:\Users\Admin\AppData\Local\Temp\cczodve5.s 			page 10


 346              	.LVL34:
 347 009a 65E0     		b	.L60
 348              	.LVL35:
 349              	.L49:
 167:.\morse.c     ****         blinkdash(led_flag);
 168:.\morse.c     ****         blinkdot(led_flag);
 169:.\morse.c     ****         blinkdash(led_flag);
 170:.\morse.c     ****         char_separate();
 171:.\morse.c     ****         break;
 172:.\morse.c     ****        case 'R':
 173:.\morse.c     ****        case 'r':
 174:.\morse.c     ****         blinkdot(led_flag);
 175:.\morse.c     ****         blinkdash(led_flag);
 176:.\morse.c     ****         blinkdot(led_flag);
 177:.\morse.c     ****         char_separate();
 178:.\morse.c     ****         break;
 179:.\morse.c     ****        case 'S':
 180:.\morse.c     ****        case 's':
 181:.\morse.c     ****         blinkdot(led_flag);
 182:.\morse.c     ****         blinkdot(led_flag);
 183:.\morse.c     ****         blinkdot(led_flag);
 184:.\morse.c     ****         char_separate();
 185:.\morse.c     ****         break;
 186:.\morse.c     ****        case 'T':
 187:.\morse.c     ****        case 't':
 188:.\morse.c     ****         blinkdash(led_flag);
 189:.\morse.c     ****         char_separate();
 190:.\morse.c     ****         break;
 191:.\morse.c     ****        case 'U':
 192:.\morse.c     ****        case 'u':
 193:.\morse.c     ****         blinkdot(led_flag);
 194:.\morse.c     ****         blinkdot(led_flag);
 195:.\morse.c     ****         blinkdash(led_flag);
 196:.\morse.c     ****         char_separate();
 197:.\morse.c     ****         break;
 198:.\morse.c     ****        case 'V':
 199:.\morse.c     ****        case 'v':
 200:.\morse.c     ****         blinkdot(led_flag);
 201:.\morse.c     ****         blinkdot(led_flag);
 202:.\morse.c     ****         blinkdot(led_flag);
 203:.\morse.c     ****         blinkdash(led_flag);
 204:.\morse.c     ****         char_separate();
 205:.\morse.c     ****         break;
 206:.\morse.c     ****        case 'W':
 207:.\morse.c     ****        case 'w':
 208:.\morse.c     ****         blinkdot(led_flag);
 209:.\morse.c     ****         blinkdash(led_flag);
 210:.\morse.c     ****         blinkdash(led_flag);
 211:.\morse.c     ****         char_separate();
 212:.\morse.c     ****         break;
 213:.\morse.c     ****        case 'X':
 214:.\morse.c     ****        case 'x':
 215:.\morse.c     ****         blinkdash(led_flag);
 350              		.loc 1 215 0
 351 009c 201C     		mov	r0, r4
 352 009e FFF7FEFF 		bl	blinkdash
 353              	.LVL36:
ARM GAS  C:\Users\Admin\AppData\Local\Temp\cczodve5.s 			page 11


 354 00a2 22E0     		b	.L69
 355              	.LVL37:
 356              	.L50:
 216:.\morse.c     ****         blinkdot(led_flag);
 217:.\morse.c     ****         blinkdot(led_flag);
 218:.\morse.c     ****         blinkdash(led_flag);
 219:.\morse.c     ****         char_separate();
 220:.\morse.c     ****         break;
 221:.\morse.c     ****        case 'Y':
 222:.\morse.c     ****        case 'y':
 223:.\morse.c     ****         blinkdash(led_flag);
 357              		.loc 1 223 0
 358 00a4 201C     		mov	r0, r4
 359 00a6 FFF7FEFF 		bl	blinkdash
 360              	.LVL38:
 361 00aa 6DE0     		b	.L56
 362              	.LVL39:
 363              	.L16:
 224:.\morse.c     ****         blinkdot(led_flag);
 225:.\morse.c     ****         blinkdash(led_flag);
 226:.\morse.c     ****         blinkdash(led_flag);
 227:.\morse.c     ****         char_separate();
 228:.\morse.c     ****         break;
 229:.\morse.c     ****        case 'Z':
 230:.\morse.c     ****        case 'z':
 231:.\morse.c     ****         blinkdash(led_flag);
 232:.\morse.c     ****         blinkdash(led_flag);
 233:.\morse.c     ****         blinkdot(led_flag);
 234:.\morse.c     ****         blinkdot(led_flag);
 235:.\morse.c     ****         char_separate();
 236:.\morse.c     ****         break;
 237:.\morse.c     ****        case '0':
 238:.\morse.c     ****         blinkdash(led_flag);
 364              		.loc 1 238 0
 365 00ac 201C     		mov	r0, r4
 366 00ae FFF7FEFF 		bl	blinkdash
 367              	.LVL40:
 368 00b2 02E0     		b	.L64
 369              	.LVL41:
 370              	.L17:
 239:.\morse.c     ****         blinkdash(led_flag);
 240:.\morse.c     ****         blinkdash(led_flag);
 241:.\morse.c     ****         blinkdash(led_flag);
 242:.\morse.c     ****         blinkdash(led_flag);
 243:.\morse.c     ****         char_separate();
 244:.\morse.c     ****         break;
 245:.\morse.c     ****        case '1':
 246:.\morse.c     ****         blinkdot(led_flag);
 371              		.loc 1 246 0
 372 00b4 201C     		mov	r0, r4
 373 00b6 FFF7FEFF 		bl	blinkdot
 374              	.LVL42:
 375              	.L64:
 247:.\morse.c     ****         blinkdash(led_flag);
 376              		.loc 1 247 0
 377 00ba 201C     		mov	r0, r4
 378 00bc FFF7FEFF 		bl	blinkdash
ARM GAS  C:\Users\Admin\AppData\Local\Temp\cczodve5.s 			page 12


 379              	.LVL43:
 380 00c0 05E0     		b	.L57
 381              	.LVL44:
 382              	.L18:
 248:.\morse.c     ****         blinkdash(led_flag);
 249:.\morse.c     ****         blinkdash(led_flag);
 250:.\morse.c     ****         blinkdash(led_flag);
 251:.\morse.c     ****         char_separate();
 252:.\morse.c     ****         break;
 253:.\morse.c     ****        case '2':
 254:.\morse.c     ****         blinkdot(led_flag);
 383              		.loc 1 254 0
 384 00c2 201C     		mov	r0, r4
 385 00c4 FFF7FEFF 		bl	blinkdot
 386              	.LVL45:
 387              	.L58:
 255:.\morse.c     ****         blinkdot(led_flag);
 388              		.loc 1 255 0
 389 00c8 201C     		mov	r0, r4
 390 00ca FFF7FEFF 		bl	blinkdot
 391              	.LVL46:
 392              	.L57:
 256:.\morse.c     ****         blinkdash(led_flag);
 393              		.loc 1 256 0
 394 00ce 201C     		mov	r0, r4
 395 00d0 FFF7FEFF 		bl	blinkdash
 396              	.LVL47:
 397 00d4 5BE0     		b	.L55
 398              	.LVL48:
 399              	.L19:
 257:.\morse.c     ****         blinkdash(led_flag);
 258:.\morse.c     ****         blinkdash(led_flag);
 259:.\morse.c     ****         char_separate();
 260:.\morse.c     ****         break;
 261:.\morse.c     ****        case '3':
 262:.\morse.c     ****         blinkdot(led_flag);
 400              		.loc 1 262 0
 401 00d6 201C     		mov	r0, r4
 402 00d8 FFF7FEFF 		bl	blinkdot
 403              	.LVL49:
 404 00dc 51E0     		b	.L54
 405              	.LVL50:
 406              	.L20:
 263:.\morse.c     ****         blinkdot(led_flag);
 264:.\morse.c     ****         blinkdot(led_flag);
 265:.\morse.c     ****         blinkdash(led_flag);
 266:.\morse.c     ****         blinkdash(led_flag);
 267:.\morse.c     ****         char_separate();
 268:.\morse.c     ****         break;
 269:.\morse.c     ****        case '4':
 270:.\morse.c     ****         blinkdot(led_flag);
 407              		.loc 1 270 0
 408 00de 201C     		mov	r0, r4
 409 00e0 FFF7FEFF 		bl	blinkdot
 410              	.LVL51:
 411              	.L70:
 271:.\morse.c     ****         blinkdot(led_flag);
ARM GAS  C:\Users\Admin\AppData\Local\Temp\cczodve5.s 			page 13


 412              		.loc 1 271 0
 413 00e4 201C     		mov	r0, r4
 414 00e6 FFF7FEFF 		bl	blinkdot
 415              	.LVL52:
 416              	.L69:
 272:.\morse.c     ****         blinkdot(led_flag);
 417              		.loc 1 272 0
 418 00ea 201C     		mov	r0, r4
 419 00ec FFF7FEFF 		bl	blinkdot
 420              	.LVL53:
 421 00f0 3DE0     		b	.L59
 422              	.LVL54:
 423              	.L21:
 273:.\morse.c     ****         blinkdot(led_flag);
 274:.\morse.c     ****         blinkdash(led_flag);
 275:.\morse.c     ****         char_separate();
 276:.\morse.c     ****         break;
 277:.\morse.c     ****        case '5':
 278:.\morse.c     ****         blinkdot(led_flag);
 424              		.loc 1 278 0
 425 00f2 201C     		mov	r0, r4
 426 00f4 FFF7FEFF 		bl	blinkdot
 427              	.LVL55:
 428 00f8 02E0     		b	.L73
 429              	.LVL56:
 430              	.L22:
 279:.\morse.c     ****         blinkdot(led_flag);
 280:.\morse.c     ****         blinkdot(led_flag);
 281:.\morse.c     ****         blinkdot(led_flag);
 282:.\morse.c     ****         blinkdot(led_flag);
 283:.\morse.c     ****         char_separate();
 284:.\morse.c     ****         break;
 285:.\morse.c     ****        case '6':
 286:.\morse.c     ****         blinkdash(led_flag);
 431              		.loc 1 286 0
 432 00fa 201C     		mov	r0, r4
 433 00fc FFF7FEFF 		bl	blinkdash
 434              	.LVL57:
 435              	.L73:
 287:.\morse.c     ****         blinkdot(led_flag);
 436              		.loc 1 287 0
 437 0100 201C     		mov	r0, r4
 438 0102 FFF7FEFF 		bl	blinkdot
 439              	.LVL58:
 440 0106 05E0     		b	.L72
 441              	.LVL59:
 442              	.L23:
 288:.\morse.c     ****         blinkdot(led_flag);
 289:.\morse.c     ****         blinkdot(led_flag);
 290:.\morse.c     ****         blinkdot(led_flag);
 291:.\morse.c     ****         char_separate();
 292:.\morse.c     ****         break;
 293:.\morse.c     ****        case '7':
 294:.\morse.c     ****         blinkdash(led_flag);
 443              		.loc 1 294 0
 444 0108 201C     		mov	r0, r4
 445 010a FFF7FEFF 		bl	blinkdash
ARM GAS  C:\Users\Admin\AppData\Local\Temp\cczodve5.s 			page 14


 446              	.LVL60:
 447              	.L71:
 295:.\morse.c     ****         blinkdash(led_flag);
 448              		.loc 1 295 0
 449 010e 201C     		mov	r0, r4
 450 0110 FFF7FEFF 		bl	blinkdash
 451              	.LVL61:
 452              	.L72:
 296:.\morse.c     ****         blinkdot(led_flag);
 453              		.loc 1 296 0
 454 0114 201C     		mov	r0, r4
 455 0116 FFF7FEFF 		bl	blinkdot
 456              	.LVL62:
 457 011a 08E0     		b	.L66
 458              	.LVL63:
 459              	.L24:
 297:.\morse.c     ****         blinkdot(led_flag);
 298:.\morse.c     ****         blinkdot(led_flag);
 299:.\morse.c     ****         char_separate();
 300:.\morse.c     ****         break;
 301:.\morse.c     ****        case '8':
 302:.\morse.c     ****         blinkdash(led_flag);
 460              		.loc 1 302 0
 461 011c 201C     		mov	r0, r4
 462 011e FFF7FEFF 		bl	blinkdash
 463              	.LVL64:
 464              	.L67:
 303:.\morse.c     ****         blinkdash(led_flag);
 465              		.loc 1 303 0
 466 0122 201C     		mov	r0, r4
 467 0124 FFF7FEFF 		bl	blinkdash
 468              	.LVL65:
 469              	.L68:
 304:.\morse.c     ****         blinkdash(led_flag);
 470              		.loc 1 304 0
 471 0128 201C     		mov	r0, r4
 472 012a FFF7FEFF 		bl	blinkdash
 473              	.LVL66:
 474              	.L66:
 305:.\morse.c     ****         blinkdot(led_flag);
 475              		.loc 1 305 0
 476 012e 201C     		mov	r0, r4
 477 0130 FFF7FEFF 		bl	blinkdot
 478              	.LVL67:
 479 0134 0BE0     		b	.L61
 480              	.LVL68:
 481              	.L25:
 306:.\morse.c     ****         blinkdot(led_flag);
 307:.\morse.c     ****         char_separate();
 308:.\morse.c     ****         break;
 309:.\morse.c     ****        case '9':
 310:.\morse.c     ****         blinkdash(led_flag);
 482              		.loc 1 310 0
 483 0136 201C     		mov	r0, r4
 484 0138 FFF7FEFF 		bl	blinkdash
 485              	.LVL69:
 311:.\morse.c     ****         blinkdash(led_flag);
ARM GAS  C:\Users\Admin\AppData\Local\Temp\cczodve5.s 			page 15


 486              		.loc 1 311 0
 487 013c 201C     		mov	r0, r4
 488 013e FFF7FEFF 		bl	blinkdash
 489              	.LVL70:
 490              	.L63:
 312:.\morse.c     ****         blinkdash(led_flag);
 491              		.loc 1 312 0
 492 0142 201C     		mov	r0, r4
 493 0144 FFF7FEFF 		bl	blinkdash
 494              	.LVL71:
 495              	.L62:
 313:.\morse.c     ****         blinkdash(led_flag);
 496              		.loc 1 313 0
 497 0148 201C     		mov	r0, r4
 498 014a FFF7FEFF 		bl	blinkdash
 499              	.LVL72:
 500              	.L61:
 314:.\morse.c     ****         blinkdot(led_flag);
 501              		.loc 1 314 0
 502 014e 201C     		mov	r0, r4
 503 0150 FFF7FEFF 		bl	blinkdot
 504              	.LVL73:
 505 0154 21E0     		b	.L53
 506              	.LVL74:
 507              	.L15:
 315:.\morse.c     ****         char_separate();
 316:.\morse.c     ****         break;
 317:.\morse.c     ****        case '.':
 318:.\morse.c     ****         blinkdot(led_flag);
 508              		.loc 1 318 0
 509 0156 201C     		mov	r0, r4
 510 0158 FFF7FEFF 		bl	blinkdot
 511              	.LVL75:
 319:.\morse.c     ****         blinkdash(led_flag);
 512              		.loc 1 319 0
 513 015c 201C     		mov	r0, r4
 514 015e FFF7FEFF 		bl	blinkdash
 515              	.LVL76:
 320:.\morse.c     ****         blinkdot(led_flag);
 516              		.loc 1 320 0
 517 0162 201C     		mov	r0, r4
 518 0164 FFF7FEFF 		bl	blinkdot
 519              	.LVL77:
 520              	.L60:
 321:.\morse.c     ****         blinkdash(led_flag);
 521              		.loc 1 321 0
 522 0168 201C     		mov	r0, r4
 523 016a FFF7FEFF 		bl	blinkdash
 524              	.LVL78:
 525              	.L59:
 322:.\morse.c     ****         blinkdot(led_flag);
 526              		.loc 1 322 0
 527 016e 201C     		mov	r0, r4
 528 0170 FFF7FEFF 		bl	blinkdot
 529              	.LVL79:
 530 0174 0EE0     		b	.L52
 531              	.LVL80:
ARM GAS  C:\Users\Admin\AppData\Local\Temp\cczodve5.s 			page 16


 532              	.L14:
 323:.\morse.c     ****         blinkdash(led_flag);
 324:.\morse.c     ****         char_separate();
 325:.\morse.c     ****         break;
 326:.\morse.c     ****        case ',':
 327:.\morse.c     ****         blinkdash(led_flag);
 533              		.loc 1 327 0
 534 0176 201C     		mov	r0, r4
 535 0178 FFF7FEFF 		bl	blinkdash
 536              	.LVL81:
 328:.\morse.c     ****         blinkdash(led_flag);
 537              		.loc 1 328 0
 538 017c 201C     		mov	r0, r4
 539 017e FFF7FEFF 		bl	blinkdash
 540              	.LVL82:
 541              	.L54:
 329:.\morse.c     ****         blinkdot(led_flag);
 542              		.loc 1 329 0
 543 0182 201C     		mov	r0, r4
 544 0184 FFF7FEFF 		bl	blinkdot
 545              	.LVL83:
 546              	.L56:
 330:.\morse.c     ****         blinkdot(led_flag);
 547              		.loc 1 330 0
 548 0188 201C     		mov	r0, r4
 549 018a FFF7FEFF 		bl	blinkdot
 550              	.LVL84:
 551              	.L55:
 331:.\morse.c     ****         blinkdash(led_flag);
 552              		.loc 1 331 0
 553 018e 201C     		mov	r0, r4
 554 0190 FFF7FEFF 		bl	blinkdash
 555              	.LVL85:
 556              	.L52:
 332:.\morse.c     ****         blinkdash(led_flag);
 557              		.loc 1 332 0
 558 0194 201C     		mov	r0, r4
 559 0196 FFF7FEFF 		bl	blinkdash
 560              	.LVL86:
 561              	.L53:
 333:.\morse.c     ****         char_separate();
 562              		.loc 1 333 0
 563 019a FFF7FEFF 		bl	char_separate
 564              	.LVL87:
 334:.\morse.c     ****         break;
 565              		.loc 1 334 0
 566 019e 03E0     		b	.L10
 567              	.LVL88:
 568              	.L12:
 335:.\morse.c     ****        case ' ':
 336:.\morse.c     ****         CyDelay(WORD_SEPARATE_TIME);
 569              		.loc 1 336 0
 570 01a0 FA20     		mov	r0, #250
 571 01a2 8000     		lsl	r0, r0, #2
 572 01a4 FFF7FEFF 		bl	CyDelay
 573              	.LVL89:
 574              	.L10:
ARM GAS  C:\Users\Admin\AppData\Local\Temp\cczodve5.s 			page 17


 337:.\morse.c     ****         break;
 338:.\morse.c     ****        case '\n':
 339:.\morse.c     ****         break;
 340:.\morse.c     ****    }
 341:.\morse.c     **** }
 575              		.loc 1 341 0
 576              		@ sp needed
 577 01a8 10BD     		pop	{r4, pc}
 578              		.cfi_endproc
 579              	.LFE37:
 580              		.size	morse_encode, .-morse_encode
 581              		.section	.text.morse_message,"ax",%progbits
 582              		.align	1
 583              		.global	morse_message
 584              		.code	16
 585              		.thumb_func
 586              		.type	morse_message, %function
 587              	morse_message:
 588              	.LFB38:
 342:.\morse.c     **** 
 343:.\morse.c     **** void morse_message(uint8 led_flag, char* message) {
 589              		.loc 1 343 0
 590              		.cfi_startproc
 591              	.LVL90:
 592 0000 70B5     		push	{r4, r5, r6, lr}
 593              		.cfi_def_cfa_offset 16
 594              		.cfi_offset 4, -16
 595              		.cfi_offset 5, -12
 596              		.cfi_offset 6, -8
 597              		.cfi_offset 14, -4
 598              		.loc 1 343 0
 599 0002 061C     		mov	r6, r0
 600 0004 0D1C     		mov	r5, r1
 344:.\morse.c     ****     unsigned int i;
 345:.\morse.c     ****     
 346:.\morse.c     ****     new_message_morse();
 601              		.loc 1 346 0
 602 0006 FFF7FEFF 		bl	new_message_morse
 603              	.LVL91:
 347:.\morse.c     ****     
 348:.\morse.c     ****     for (i=0; i < strlen(message); i++) {
 604              		.loc 1 348 0
 605 000a 0024     		mov	r4, #0
 606              	.LVL92:
 607              	.L75:
 608              		.loc 1 348 0 is_stmt 0 discriminator 1
 609 000c 281C     		mov	r0, r5
 610 000e FFF7FEFF 		bl	strlen
 611              	.LVL93:
 612 0012 8442     		cmp	r4, r0
 613 0014 05D2     		bcs	.L77
 349:.\morse.c     ****         morse_encode(led_flag, message[i]);
 614              		.loc 1 349 0 is_stmt 1 discriminator 2
 615 0016 295D     		ldrb	r1, [r5, r4]
 616 0018 301C     		mov	r0, r6
 617 001a FFF7FEFF 		bl	morse_encode
 618              	.LVL94:
ARM GAS  C:\Users\Admin\AppData\Local\Temp\cczodve5.s 			page 18


 348:.\morse.c     ****     for (i=0; i < strlen(message); i++) {
 619              		.loc 1 348 0 discriminator 2
 620 001e 0134     		add	r4, r4, #1
 621              	.LVL95:
 622 0020 F4E7     		b	.L75
 623              	.L77:
 350:.\morse.c     ****     }
 351:.\morse.c     **** }
 624              		.loc 1 351 0
 625              		@ sp needed
 626              	.LVL96:
 627              	.LVL97:
 628 0022 70BD     		pop	{r4, r5, r6, pc}
 629              		.cfi_endproc
 630              	.LFE38:
 631              		.size	morse_message, .-morse_message
 632              		.text
 633              	.Letext0:
 634              		.file 2 ".\\Generated_Source\\PSoC4/cytypes.h"
 635              		.file 3 "c:\\program files\\cypress\\psoc creator\\3.1\\psoc creator\\import\\gnu_cs\\arm\\4.8.4\\
 636              		.file 4 ".\\lightlib.h"
 637              		.file 5 ".\\Generated_Source\\PSoC4/CyLib.h"
 638              		.file 6 "c:\\program files\\cypress\\psoc creator\\3.1\\psoc creator\\import\\gnu_cs\\arm\\4.8.4\\