ARM GAS  C:\Users\Admin\AppData\Local\Temp\ccXr27ZC.s 			page 1


   1              		.cpu cortex-m0
   2              		.fpu softvfp
   3              		.eabi_attribute 20, 1
   4              		.eabi_attribute 21, 1
   5              		.eabi_attribute 23, 3
   6              		.eabi_attribute 24, 1
   7              		.eabi_attribute 25, 1
   8              		.eabi_attribute 26, 1
   9              		.eabi_attribute 30, 4
  10              		.eabi_attribute 34, 0
  11              		.eabi_attribute 18, 4
  12              		.code	16
  13              		.file	"PWM_Right_LED_Blue.c"
  14              		.text
  15              	.Ltext0:
  16              		.cfi_sections	.debug_frame
  17              		.section	.text.PWM_Right_LED_Blue_Enable,"ax",%progbits
  18              		.align	1
  19              		.global	PWM_Right_LED_Blue_Enable
  20              		.code	16
  21              		.thumb_func
  22              		.type	PWM_Right_LED_Blue_Enable, %function
  23              	PWM_Right_LED_Blue_Enable:
  24              	.LFB2:
  25              		.file 1 ".\\Generated_Source\\PSoC4\\PWM_Right_LED_Blue.c"
   1:.\Generated_Source\PSoC4/PWM_Right_LED_Blue.c **** /*******************************************************************************
   2:.\Generated_Source\PSoC4/PWM_Right_LED_Blue.c **** * File Name: PWM_Right_LED_Blue.c
   3:.\Generated_Source\PSoC4/PWM_Right_LED_Blue.c **** * Version 3.10
   4:.\Generated_Source\PSoC4/PWM_Right_LED_Blue.c **** *
   5:.\Generated_Source\PSoC4/PWM_Right_LED_Blue.c **** * Description:
   6:.\Generated_Source\PSoC4/PWM_Right_LED_Blue.c **** *  The PWM User Module consist of an 8 or 16-bit counter with two 8 or 16-bit
   7:.\Generated_Source\PSoC4/PWM_Right_LED_Blue.c **** *  comparitors. Each instance of this user module is capable of generating
   8:.\Generated_Source\PSoC4/PWM_Right_LED_Blue.c **** *  two PWM outputs with the same period. The pulse width is selectable between
   9:.\Generated_Source\PSoC4/PWM_Right_LED_Blue.c **** *  1 and 255/65535. The period is selectable between 2 and 255/65536 clocks.
  10:.\Generated_Source\PSoC4/PWM_Right_LED_Blue.c **** *  The compare value output may be configured to be active when the present
  11:.\Generated_Source\PSoC4/PWM_Right_LED_Blue.c **** *  counter is less than or less than/equal to the compare value.
  12:.\Generated_Source\PSoC4/PWM_Right_LED_Blue.c **** *  A terminal count output is also provided. It generates a pulse one clock
  13:.\Generated_Source\PSoC4/PWM_Right_LED_Blue.c **** *  width wide when the counter is equal to zero.
  14:.\Generated_Source\PSoC4/PWM_Right_LED_Blue.c **** *
  15:.\Generated_Source\PSoC4/PWM_Right_LED_Blue.c **** * Note:
  16:.\Generated_Source\PSoC4/PWM_Right_LED_Blue.c **** *
  17:.\Generated_Source\PSoC4/PWM_Right_LED_Blue.c **** *******************************************************************************
  18:.\Generated_Source\PSoC4/PWM_Right_LED_Blue.c **** * Copyright 2008-2014, Cypress Semiconductor Corporation.  All rights reserved.
  19:.\Generated_Source\PSoC4/PWM_Right_LED_Blue.c **** * You may use this file only in accordance with the license, terms, conditions,
  20:.\Generated_Source\PSoC4/PWM_Right_LED_Blue.c **** * disclaimers, and limitations in the end user license agreement accompanying
  21:.\Generated_Source\PSoC4/PWM_Right_LED_Blue.c **** * the software package with which this file was provided.
  22:.\Generated_Source\PSoC4/PWM_Right_LED_Blue.c **** ********************************************************************************/
  23:.\Generated_Source\PSoC4/PWM_Right_LED_Blue.c **** 
  24:.\Generated_Source\PSoC4/PWM_Right_LED_Blue.c **** #include "PWM_Right_LED_Blue.h"
  25:.\Generated_Source\PSoC4/PWM_Right_LED_Blue.c **** 
  26:.\Generated_Source\PSoC4/PWM_Right_LED_Blue.c **** /* Error message for removed <resource> through optimization */
  27:.\Generated_Source\PSoC4/PWM_Right_LED_Blue.c **** #ifdef PWM_Right_LED_Blue_PWMUDB_genblk1_ctrlreg__REMOVED
  28:.\Generated_Source\PSoC4/PWM_Right_LED_Blue.c ****     #error PWM_v3_10 detected with a constant 0 for the enable or \
  29:.\Generated_Source\PSoC4/PWM_Right_LED_Blue.c ****          constant 1 for reset. This will prevent the component from operating.
  30:.\Generated_Source\PSoC4/PWM_Right_LED_Blue.c **** #endif /* PWM_Right_LED_Blue_PWMUDB_genblk1_ctrlreg__REMOVED */
  31:.\Generated_Source\PSoC4/PWM_Right_LED_Blue.c **** 
  32:.\Generated_Source\PSoC4/PWM_Right_LED_Blue.c **** uint8 PWM_Right_LED_Blue_initVar = 0u;
ARM GAS  C:\Users\Admin\AppData\Local\Temp\ccXr27ZC.s 			page 2


  33:.\Generated_Source\PSoC4/PWM_Right_LED_Blue.c **** 
  34:.\Generated_Source\PSoC4/PWM_Right_LED_Blue.c **** 
  35:.\Generated_Source\PSoC4/PWM_Right_LED_Blue.c **** /*******************************************************************************
  36:.\Generated_Source\PSoC4/PWM_Right_LED_Blue.c **** * Function Name: PWM_Right_LED_Blue_Start
  37:.\Generated_Source\PSoC4/PWM_Right_LED_Blue.c **** ********************************************************************************
  38:.\Generated_Source\PSoC4/PWM_Right_LED_Blue.c **** *
  39:.\Generated_Source\PSoC4/PWM_Right_LED_Blue.c **** * Summary:
  40:.\Generated_Source\PSoC4/PWM_Right_LED_Blue.c **** *  The start function initializes the pwm with the default values, the
  41:.\Generated_Source\PSoC4/PWM_Right_LED_Blue.c **** *  enables the counter to begin counting.  It does not enable interrupts,
  42:.\Generated_Source\PSoC4/PWM_Right_LED_Blue.c **** *  the EnableInt command should be called if interrupt generation is required.
  43:.\Generated_Source\PSoC4/PWM_Right_LED_Blue.c **** *
  44:.\Generated_Source\PSoC4/PWM_Right_LED_Blue.c **** * Parameters:
  45:.\Generated_Source\PSoC4/PWM_Right_LED_Blue.c **** *  None
  46:.\Generated_Source\PSoC4/PWM_Right_LED_Blue.c **** *
  47:.\Generated_Source\PSoC4/PWM_Right_LED_Blue.c **** * Return:
  48:.\Generated_Source\PSoC4/PWM_Right_LED_Blue.c **** *  None
  49:.\Generated_Source\PSoC4/PWM_Right_LED_Blue.c **** *
  50:.\Generated_Source\PSoC4/PWM_Right_LED_Blue.c **** * Global variables:
  51:.\Generated_Source\PSoC4/PWM_Right_LED_Blue.c **** *  PWM_Right_LED_Blue_initVar: Is modified when this function is called for the
  52:.\Generated_Source\PSoC4/PWM_Right_LED_Blue.c **** *   first time. Is used to ensure that initialization happens only once.
  53:.\Generated_Source\PSoC4/PWM_Right_LED_Blue.c **** *
  54:.\Generated_Source\PSoC4/PWM_Right_LED_Blue.c **** *******************************************************************************/
  55:.\Generated_Source\PSoC4/PWM_Right_LED_Blue.c **** void PWM_Right_LED_Blue_Start(void) 
  56:.\Generated_Source\PSoC4/PWM_Right_LED_Blue.c **** {
  57:.\Generated_Source\PSoC4/PWM_Right_LED_Blue.c ****     /* If not Initialized then initialize all required hardware and software */
  58:.\Generated_Source\PSoC4/PWM_Right_LED_Blue.c ****     if(PWM_Right_LED_Blue_initVar == 0u)
  59:.\Generated_Source\PSoC4/PWM_Right_LED_Blue.c ****     {
  60:.\Generated_Source\PSoC4/PWM_Right_LED_Blue.c ****         PWM_Right_LED_Blue_Init();
  61:.\Generated_Source\PSoC4/PWM_Right_LED_Blue.c ****         PWM_Right_LED_Blue_initVar = 1u;
  62:.\Generated_Source\PSoC4/PWM_Right_LED_Blue.c ****     }
  63:.\Generated_Source\PSoC4/PWM_Right_LED_Blue.c ****     PWM_Right_LED_Blue_Enable();
  64:.\Generated_Source\PSoC4/PWM_Right_LED_Blue.c **** 
  65:.\Generated_Source\PSoC4/PWM_Right_LED_Blue.c **** }
  66:.\Generated_Source\PSoC4/PWM_Right_LED_Blue.c **** 
  67:.\Generated_Source\PSoC4/PWM_Right_LED_Blue.c **** 
  68:.\Generated_Source\PSoC4/PWM_Right_LED_Blue.c **** /*******************************************************************************
  69:.\Generated_Source\PSoC4/PWM_Right_LED_Blue.c **** * Function Name: PWM_Right_LED_Blue_Init
  70:.\Generated_Source\PSoC4/PWM_Right_LED_Blue.c **** ********************************************************************************
  71:.\Generated_Source\PSoC4/PWM_Right_LED_Blue.c **** *
  72:.\Generated_Source\PSoC4/PWM_Right_LED_Blue.c **** * Summary:
  73:.\Generated_Source\PSoC4/PWM_Right_LED_Blue.c **** *  Initialize component's parameters to the parameters set by user in the
  74:.\Generated_Source\PSoC4/PWM_Right_LED_Blue.c **** *  customizer of the component placed onto schematic. Usually called in
  75:.\Generated_Source\PSoC4/PWM_Right_LED_Blue.c **** *  PWM_Right_LED_Blue_Start().
  76:.\Generated_Source\PSoC4/PWM_Right_LED_Blue.c **** *
  77:.\Generated_Source\PSoC4/PWM_Right_LED_Blue.c **** * Parameters:
  78:.\Generated_Source\PSoC4/PWM_Right_LED_Blue.c **** *  None
  79:.\Generated_Source\PSoC4/PWM_Right_LED_Blue.c **** *
  80:.\Generated_Source\PSoC4/PWM_Right_LED_Blue.c **** * Return:
  81:.\Generated_Source\PSoC4/PWM_Right_LED_Blue.c **** *  None
  82:.\Generated_Source\PSoC4/PWM_Right_LED_Blue.c **** *
  83:.\Generated_Source\PSoC4/PWM_Right_LED_Blue.c **** *******************************************************************************/
  84:.\Generated_Source\PSoC4/PWM_Right_LED_Blue.c **** void PWM_Right_LED_Blue_Init(void) 
  85:.\Generated_Source\PSoC4/PWM_Right_LED_Blue.c **** {
  86:.\Generated_Source\PSoC4/PWM_Right_LED_Blue.c ****     #if (PWM_Right_LED_Blue_UsingFixedFunction || PWM_Right_LED_Blue_UseControl)
  87:.\Generated_Source\PSoC4/PWM_Right_LED_Blue.c ****         uint8 ctrl;
  88:.\Generated_Source\PSoC4/PWM_Right_LED_Blue.c ****     #endif /* (PWM_Right_LED_Blue_UsingFixedFunction || PWM_Right_LED_Blue_UseControl) */
  89:.\Generated_Source\PSoC4/PWM_Right_LED_Blue.c **** 
ARM GAS  C:\Users\Admin\AppData\Local\Temp\ccXr27ZC.s 			page 3


  90:.\Generated_Source\PSoC4/PWM_Right_LED_Blue.c ****     #if(!PWM_Right_LED_Blue_UsingFixedFunction)
  91:.\Generated_Source\PSoC4/PWM_Right_LED_Blue.c ****         #if(PWM_Right_LED_Blue_UseStatus)
  92:.\Generated_Source\PSoC4/PWM_Right_LED_Blue.c ****             /* Interrupt State Backup for Critical Region*/
  93:.\Generated_Source\PSoC4/PWM_Right_LED_Blue.c ****             uint8 PWM_Right_LED_Blue_interruptState;
  94:.\Generated_Source\PSoC4/PWM_Right_LED_Blue.c ****         #endif /* (PWM_Right_LED_Blue_UseStatus) */
  95:.\Generated_Source\PSoC4/PWM_Right_LED_Blue.c ****     #endif /* (!PWM_Right_LED_Blue_UsingFixedFunction) */
  96:.\Generated_Source\PSoC4/PWM_Right_LED_Blue.c **** 
  97:.\Generated_Source\PSoC4/PWM_Right_LED_Blue.c ****     #if (PWM_Right_LED_Blue_UsingFixedFunction)
  98:.\Generated_Source\PSoC4/PWM_Right_LED_Blue.c ****         /* You are allowed to write the compare value (FF only) */
  99:.\Generated_Source\PSoC4/PWM_Right_LED_Blue.c ****         PWM_Right_LED_Blue_CONTROL |= PWM_Right_LED_Blue_CFG0_MODE;
 100:.\Generated_Source\PSoC4/PWM_Right_LED_Blue.c ****         #if (PWM_Right_LED_Blue_DeadBand2_4)
 101:.\Generated_Source\PSoC4/PWM_Right_LED_Blue.c ****             PWM_Right_LED_Blue_CONTROL |= PWM_Right_LED_Blue_CFG0_DB;
 102:.\Generated_Source\PSoC4/PWM_Right_LED_Blue.c ****         #endif /* (PWM_Right_LED_Blue_DeadBand2_4) */
 103:.\Generated_Source\PSoC4/PWM_Right_LED_Blue.c **** 
 104:.\Generated_Source\PSoC4/PWM_Right_LED_Blue.c ****         ctrl = PWM_Right_LED_Blue_CONTROL3 & ((uint8 )(~PWM_Right_LED_Blue_CTRL_CMPMODE1_MASK));
 105:.\Generated_Source\PSoC4/PWM_Right_LED_Blue.c ****         PWM_Right_LED_Blue_CONTROL3 = ctrl | PWM_Right_LED_Blue_DEFAULT_COMPARE1_MODE;
 106:.\Generated_Source\PSoC4/PWM_Right_LED_Blue.c **** 
 107:.\Generated_Source\PSoC4/PWM_Right_LED_Blue.c ****          /* Clear and Set SYNCTC and SYNCCMP bits of RT1 register */
 108:.\Generated_Source\PSoC4/PWM_Right_LED_Blue.c ****         PWM_Right_LED_Blue_RT1 &= ((uint8)(~PWM_Right_LED_Blue_RT1_MASK));
 109:.\Generated_Source\PSoC4/PWM_Right_LED_Blue.c ****         PWM_Right_LED_Blue_RT1 |= PWM_Right_LED_Blue_SYNC;
 110:.\Generated_Source\PSoC4/PWM_Right_LED_Blue.c **** 
 111:.\Generated_Source\PSoC4/PWM_Right_LED_Blue.c ****         /*Enable DSI Sync all all inputs of the PWM*/
 112:.\Generated_Source\PSoC4/PWM_Right_LED_Blue.c ****         PWM_Right_LED_Blue_RT1 &= ((uint8)(~PWM_Right_LED_Blue_SYNCDSI_MASK));
 113:.\Generated_Source\PSoC4/PWM_Right_LED_Blue.c ****         PWM_Right_LED_Blue_RT1 |= PWM_Right_LED_Blue_SYNCDSI_EN;
 114:.\Generated_Source\PSoC4/PWM_Right_LED_Blue.c **** 
 115:.\Generated_Source\PSoC4/PWM_Right_LED_Blue.c ****     #elif (PWM_Right_LED_Blue_UseControl)
 116:.\Generated_Source\PSoC4/PWM_Right_LED_Blue.c ****         /* Set the default compare mode defined in the parameter */
 117:.\Generated_Source\PSoC4/PWM_Right_LED_Blue.c ****         ctrl = PWM_Right_LED_Blue_CONTROL & ((uint8)(~PWM_Right_LED_Blue_CTRL_CMPMODE2_MASK)) &
 118:.\Generated_Source\PSoC4/PWM_Right_LED_Blue.c ****                 ((uint8)(~PWM_Right_LED_Blue_CTRL_CMPMODE1_MASK));
 119:.\Generated_Source\PSoC4/PWM_Right_LED_Blue.c ****         PWM_Right_LED_Blue_CONTROL = ctrl | PWM_Right_LED_Blue_DEFAULT_COMPARE2_MODE |
 120:.\Generated_Source\PSoC4/PWM_Right_LED_Blue.c ****                                    PWM_Right_LED_Blue_DEFAULT_COMPARE1_MODE;
 121:.\Generated_Source\PSoC4/PWM_Right_LED_Blue.c ****     #endif /* (PWM_Right_LED_Blue_UsingFixedFunction) */
 122:.\Generated_Source\PSoC4/PWM_Right_LED_Blue.c **** 
 123:.\Generated_Source\PSoC4/PWM_Right_LED_Blue.c ****     #if (!PWM_Right_LED_Blue_UsingFixedFunction)
 124:.\Generated_Source\PSoC4/PWM_Right_LED_Blue.c ****         #if (PWM_Right_LED_Blue_Resolution == 8)
 125:.\Generated_Source\PSoC4/PWM_Right_LED_Blue.c ****             /* Set FIFO 0 to 1 byte register for period*/
 126:.\Generated_Source\PSoC4/PWM_Right_LED_Blue.c ****             PWM_Right_LED_Blue_AUX_CONTROLDP0 |= (PWM_Right_LED_Blue_AUX_CTRL_FIFO0_CLR);
 127:.\Generated_Source\PSoC4/PWM_Right_LED_Blue.c ****         #else /* (PWM_Right_LED_Blue_Resolution == 16)*/
 128:.\Generated_Source\PSoC4/PWM_Right_LED_Blue.c ****             /* Set FIFO 0 to 1 byte register for period */
 129:.\Generated_Source\PSoC4/PWM_Right_LED_Blue.c ****             PWM_Right_LED_Blue_AUX_CONTROLDP0 |= (PWM_Right_LED_Blue_AUX_CTRL_FIFO0_CLR);
 130:.\Generated_Source\PSoC4/PWM_Right_LED_Blue.c ****             PWM_Right_LED_Blue_AUX_CONTROLDP1 |= (PWM_Right_LED_Blue_AUX_CTRL_FIFO0_CLR);
 131:.\Generated_Source\PSoC4/PWM_Right_LED_Blue.c ****         #endif /* (PWM_Right_LED_Blue_Resolution == 8) */
 132:.\Generated_Source\PSoC4/PWM_Right_LED_Blue.c **** 
 133:.\Generated_Source\PSoC4/PWM_Right_LED_Blue.c ****         PWM_Right_LED_Blue_WriteCounter(PWM_Right_LED_Blue_INIT_PERIOD_VALUE);
 134:.\Generated_Source\PSoC4/PWM_Right_LED_Blue.c ****     #endif /* (!PWM_Right_LED_Blue_UsingFixedFunction) */
 135:.\Generated_Source\PSoC4/PWM_Right_LED_Blue.c **** 
 136:.\Generated_Source\PSoC4/PWM_Right_LED_Blue.c ****     PWM_Right_LED_Blue_WritePeriod(PWM_Right_LED_Blue_INIT_PERIOD_VALUE);
 137:.\Generated_Source\PSoC4/PWM_Right_LED_Blue.c **** 
 138:.\Generated_Source\PSoC4/PWM_Right_LED_Blue.c ****         #if (PWM_Right_LED_Blue_UseOneCompareMode)
 139:.\Generated_Source\PSoC4/PWM_Right_LED_Blue.c ****             PWM_Right_LED_Blue_WriteCompare(PWM_Right_LED_Blue_INIT_COMPARE_VALUE1);
 140:.\Generated_Source\PSoC4/PWM_Right_LED_Blue.c ****         #else
 141:.\Generated_Source\PSoC4/PWM_Right_LED_Blue.c ****             PWM_Right_LED_Blue_WriteCompare1(PWM_Right_LED_Blue_INIT_COMPARE_VALUE1);
 142:.\Generated_Source\PSoC4/PWM_Right_LED_Blue.c ****             PWM_Right_LED_Blue_WriteCompare2(PWM_Right_LED_Blue_INIT_COMPARE_VALUE2);
 143:.\Generated_Source\PSoC4/PWM_Right_LED_Blue.c ****         #endif /* (PWM_Right_LED_Blue_UseOneCompareMode) */
 144:.\Generated_Source\PSoC4/PWM_Right_LED_Blue.c **** 
 145:.\Generated_Source\PSoC4/PWM_Right_LED_Blue.c ****         #if (PWM_Right_LED_Blue_KillModeMinTime)
 146:.\Generated_Source\PSoC4/PWM_Right_LED_Blue.c ****             PWM_Right_LED_Blue_WriteKillTime(PWM_Right_LED_Blue_MinimumKillTime);
ARM GAS  C:\Users\Admin\AppData\Local\Temp\ccXr27ZC.s 			page 4


 147:.\Generated_Source\PSoC4/PWM_Right_LED_Blue.c ****         #endif /* (PWM_Right_LED_Blue_KillModeMinTime) */
 148:.\Generated_Source\PSoC4/PWM_Right_LED_Blue.c **** 
 149:.\Generated_Source\PSoC4/PWM_Right_LED_Blue.c ****         #if (PWM_Right_LED_Blue_DeadBandUsed)
 150:.\Generated_Source\PSoC4/PWM_Right_LED_Blue.c ****             PWM_Right_LED_Blue_WriteDeadTime(PWM_Right_LED_Blue_INIT_DEAD_TIME);
 151:.\Generated_Source\PSoC4/PWM_Right_LED_Blue.c ****         #endif /* (PWM_Right_LED_Blue_DeadBandUsed) */
 152:.\Generated_Source\PSoC4/PWM_Right_LED_Blue.c **** 
 153:.\Generated_Source\PSoC4/PWM_Right_LED_Blue.c ****     #if (PWM_Right_LED_Blue_UseStatus || PWM_Right_LED_Blue_UsingFixedFunction)
 154:.\Generated_Source\PSoC4/PWM_Right_LED_Blue.c ****         PWM_Right_LED_Blue_SetInterruptMode(PWM_Right_LED_Blue_INIT_INTERRUPTS_MODE);
 155:.\Generated_Source\PSoC4/PWM_Right_LED_Blue.c ****     #endif /* (PWM_Right_LED_Blue_UseStatus || PWM_Right_LED_Blue_UsingFixedFunction) */
 156:.\Generated_Source\PSoC4/PWM_Right_LED_Blue.c **** 
 157:.\Generated_Source\PSoC4/PWM_Right_LED_Blue.c ****     #if (PWM_Right_LED_Blue_UsingFixedFunction)
 158:.\Generated_Source\PSoC4/PWM_Right_LED_Blue.c ****         /* Globally Enable the Fixed Function Block chosen */
 159:.\Generated_Source\PSoC4/PWM_Right_LED_Blue.c ****         PWM_Right_LED_Blue_GLOBAL_ENABLE |= PWM_Right_LED_Blue_BLOCK_EN_MASK;
 160:.\Generated_Source\PSoC4/PWM_Right_LED_Blue.c ****         /* Set the Interrupt source to come from the status register */
 161:.\Generated_Source\PSoC4/PWM_Right_LED_Blue.c ****         PWM_Right_LED_Blue_CONTROL2 |= PWM_Right_LED_Blue_CTRL2_IRQ_SEL;
 162:.\Generated_Source\PSoC4/PWM_Right_LED_Blue.c ****     #else
 163:.\Generated_Source\PSoC4/PWM_Right_LED_Blue.c ****         #if(PWM_Right_LED_Blue_UseStatus)
 164:.\Generated_Source\PSoC4/PWM_Right_LED_Blue.c **** 
 165:.\Generated_Source\PSoC4/PWM_Right_LED_Blue.c ****             /* CyEnterCriticalRegion and CyExitCriticalRegion are used to mark following region cri
 166:.\Generated_Source\PSoC4/PWM_Right_LED_Blue.c ****             /* Enter Critical Region*/
 167:.\Generated_Source\PSoC4/PWM_Right_LED_Blue.c ****             PWM_Right_LED_Blue_interruptState = CyEnterCriticalSection();
 168:.\Generated_Source\PSoC4/PWM_Right_LED_Blue.c ****             /* Use the interrupt output of the status register for IRQ output */
 169:.\Generated_Source\PSoC4/PWM_Right_LED_Blue.c ****             PWM_Right_LED_Blue_STATUS_AUX_CTRL |= PWM_Right_LED_Blue_STATUS_ACTL_INT_EN_MASK;
 170:.\Generated_Source\PSoC4/PWM_Right_LED_Blue.c **** 
 171:.\Generated_Source\PSoC4/PWM_Right_LED_Blue.c ****              /* Exit Critical Region*/
 172:.\Generated_Source\PSoC4/PWM_Right_LED_Blue.c ****             CyExitCriticalSection(PWM_Right_LED_Blue_interruptState);
 173:.\Generated_Source\PSoC4/PWM_Right_LED_Blue.c **** 
 174:.\Generated_Source\PSoC4/PWM_Right_LED_Blue.c ****             /* Clear the FIFO to enable the PWM_Right_LED_Blue_STATUS_FIFOFULL
 175:.\Generated_Source\PSoC4/PWM_Right_LED_Blue.c ****                    bit to be set on FIFO full. */
 176:.\Generated_Source\PSoC4/PWM_Right_LED_Blue.c ****             PWM_Right_LED_Blue_ClearFIFO();
 177:.\Generated_Source\PSoC4/PWM_Right_LED_Blue.c ****         #endif /* (PWM_Right_LED_Blue_UseStatus) */
 178:.\Generated_Source\PSoC4/PWM_Right_LED_Blue.c ****     #endif /* (PWM_Right_LED_Blue_UsingFixedFunction) */
 179:.\Generated_Source\PSoC4/PWM_Right_LED_Blue.c **** }
 180:.\Generated_Source\PSoC4/PWM_Right_LED_Blue.c **** 
 181:.\Generated_Source\PSoC4/PWM_Right_LED_Blue.c **** 
 182:.\Generated_Source\PSoC4/PWM_Right_LED_Blue.c **** /*******************************************************************************
 183:.\Generated_Source\PSoC4/PWM_Right_LED_Blue.c **** * Function Name: PWM_Right_LED_Blue_Enable
 184:.\Generated_Source\PSoC4/PWM_Right_LED_Blue.c **** ********************************************************************************
 185:.\Generated_Source\PSoC4/PWM_Right_LED_Blue.c **** *
 186:.\Generated_Source\PSoC4/PWM_Right_LED_Blue.c **** * Summary:
 187:.\Generated_Source\PSoC4/PWM_Right_LED_Blue.c **** *  Enables the PWM block operation
 188:.\Generated_Source\PSoC4/PWM_Right_LED_Blue.c **** *
 189:.\Generated_Source\PSoC4/PWM_Right_LED_Blue.c **** * Parameters:
 190:.\Generated_Source\PSoC4/PWM_Right_LED_Blue.c **** *  None
 191:.\Generated_Source\PSoC4/PWM_Right_LED_Blue.c **** *
 192:.\Generated_Source\PSoC4/PWM_Right_LED_Blue.c **** * Return:
 193:.\Generated_Source\PSoC4/PWM_Right_LED_Blue.c **** *  None
 194:.\Generated_Source\PSoC4/PWM_Right_LED_Blue.c **** *
 195:.\Generated_Source\PSoC4/PWM_Right_LED_Blue.c **** * Side Effects:
 196:.\Generated_Source\PSoC4/PWM_Right_LED_Blue.c **** *  This works only if software enable mode is chosen
 197:.\Generated_Source\PSoC4/PWM_Right_LED_Blue.c **** *
 198:.\Generated_Source\PSoC4/PWM_Right_LED_Blue.c **** *******************************************************************************/
 199:.\Generated_Source\PSoC4/PWM_Right_LED_Blue.c **** void PWM_Right_LED_Blue_Enable(void) 
 200:.\Generated_Source\PSoC4/PWM_Right_LED_Blue.c **** {
  26              		.loc 1 200 0
  27              		.cfi_startproc
 201:.\Generated_Source\PSoC4/PWM_Right_LED_Blue.c ****     /* Globally Enable the Fixed Function Block chosen */
ARM GAS  C:\Users\Admin\AppData\Local\Temp\ccXr27ZC.s 			page 5


 202:.\Generated_Source\PSoC4/PWM_Right_LED_Blue.c ****     #if (PWM_Right_LED_Blue_UsingFixedFunction)
 203:.\Generated_Source\PSoC4/PWM_Right_LED_Blue.c ****         PWM_Right_LED_Blue_GLOBAL_ENABLE |= PWM_Right_LED_Blue_BLOCK_EN_MASK;
 204:.\Generated_Source\PSoC4/PWM_Right_LED_Blue.c ****         PWM_Right_LED_Blue_GLOBAL_STBY_ENABLE |= PWM_Right_LED_Blue_BLOCK_STBY_EN_MASK;
 205:.\Generated_Source\PSoC4/PWM_Right_LED_Blue.c ****     #endif /* (PWM_Right_LED_Blue_UsingFixedFunction) */
 206:.\Generated_Source\PSoC4/PWM_Right_LED_Blue.c **** 
 207:.\Generated_Source\PSoC4/PWM_Right_LED_Blue.c ****     /* Enable the PWM from the control register  */
 208:.\Generated_Source\PSoC4/PWM_Right_LED_Blue.c ****     #if (PWM_Right_LED_Blue_UseControl || PWM_Right_LED_Blue_UsingFixedFunction)
 209:.\Generated_Source\PSoC4/PWM_Right_LED_Blue.c ****         PWM_Right_LED_Blue_CONTROL |= PWM_Right_LED_Blue_CTRL_ENABLE;
  28              		.loc 1 209 0
  29 0000 024B     		ldr	r3, .L2
  30 0002 8022     		mov	r2, #128
  31 0004 1978     		ldrb	r1, [r3]
 210:.\Generated_Source\PSoC4/PWM_Right_LED_Blue.c ****     #endif /* (PWM_Right_LED_Blue_UseControl || PWM_Right_LED_Blue_UsingFixedFunction) */
 211:.\Generated_Source\PSoC4/PWM_Right_LED_Blue.c **** }
  32              		.loc 1 211 0
  33              		@ sp needed
 209:.\Generated_Source\PSoC4/PWM_Right_LED_Blue.c ****         PWM_Right_LED_Blue_CONTROL |= PWM_Right_LED_Blue_CTRL_ENABLE;
  34              		.loc 1 209 0
  35 0006 0A43     		orr	r2, r1
  36 0008 1A70     		strb	r2, [r3]
  37              		.loc 1 211 0
  38 000a 7047     		bx	lr
  39              	.L3:
  40              		.align	2
  41              	.L2:
  42 000c 72000F40 		.word	1074724978
  43              		.cfi_endproc
  44              	.LFE2:
  45              		.size	PWM_Right_LED_Blue_Enable, .-PWM_Right_LED_Blue_Enable
  46              		.section	.text.PWM_Right_LED_Blue_Stop,"ax",%progbits
  47              		.align	1
  48              		.global	PWM_Right_LED_Blue_Stop
  49              		.code	16
  50              		.thumb_func
  51              		.type	PWM_Right_LED_Blue_Stop, %function
  52              	PWM_Right_LED_Blue_Stop:
  53              	.LFB3:
 212:.\Generated_Source\PSoC4/PWM_Right_LED_Blue.c **** 
 213:.\Generated_Source\PSoC4/PWM_Right_LED_Blue.c **** 
 214:.\Generated_Source\PSoC4/PWM_Right_LED_Blue.c **** /*******************************************************************************
 215:.\Generated_Source\PSoC4/PWM_Right_LED_Blue.c **** * Function Name: PWM_Right_LED_Blue_Stop
 216:.\Generated_Source\PSoC4/PWM_Right_LED_Blue.c **** ********************************************************************************
 217:.\Generated_Source\PSoC4/PWM_Right_LED_Blue.c **** *
 218:.\Generated_Source\PSoC4/PWM_Right_LED_Blue.c **** * Summary:
 219:.\Generated_Source\PSoC4/PWM_Right_LED_Blue.c **** *  The stop function halts the PWM, but does not change any modes or disable
 220:.\Generated_Source\PSoC4/PWM_Right_LED_Blue.c **** *  interrupts.
 221:.\Generated_Source\PSoC4/PWM_Right_LED_Blue.c **** *
 222:.\Generated_Source\PSoC4/PWM_Right_LED_Blue.c **** * Parameters:
 223:.\Generated_Source\PSoC4/PWM_Right_LED_Blue.c **** *  None
 224:.\Generated_Source\PSoC4/PWM_Right_LED_Blue.c **** *
 225:.\Generated_Source\PSoC4/PWM_Right_LED_Blue.c **** * Return:
 226:.\Generated_Source\PSoC4/PWM_Right_LED_Blue.c **** *  None
 227:.\Generated_Source\PSoC4/PWM_Right_LED_Blue.c **** *
 228:.\Generated_Source\PSoC4/PWM_Right_LED_Blue.c **** * Side Effects:
 229:.\Generated_Source\PSoC4/PWM_Right_LED_Blue.c **** *  If the Enable mode is set to Hardware only then this function
 230:.\Generated_Source\PSoC4/PWM_Right_LED_Blue.c **** *  has no effect on the operation of the PWM
 231:.\Generated_Source\PSoC4/PWM_Right_LED_Blue.c **** *
ARM GAS  C:\Users\Admin\AppData\Local\Temp\ccXr27ZC.s 			page 6


 232:.\Generated_Source\PSoC4/PWM_Right_LED_Blue.c **** *******************************************************************************/
 233:.\Generated_Source\PSoC4/PWM_Right_LED_Blue.c **** void PWM_Right_LED_Blue_Stop(void) 
 234:.\Generated_Source\PSoC4/PWM_Right_LED_Blue.c **** {
  54              		.loc 1 234 0
  55              		.cfi_startproc
 235:.\Generated_Source\PSoC4/PWM_Right_LED_Blue.c ****     #if (PWM_Right_LED_Blue_UseControl || PWM_Right_LED_Blue_UsingFixedFunction)
 236:.\Generated_Source\PSoC4/PWM_Right_LED_Blue.c ****         PWM_Right_LED_Blue_CONTROL &= ((uint8)(~PWM_Right_LED_Blue_CTRL_ENABLE));
  56              		.loc 1 236 0
  57 0000 024B     		ldr	r3, .L5
  58 0002 7F22     		mov	r2, #127
  59 0004 1978     		ldrb	r1, [r3]
 237:.\Generated_Source\PSoC4/PWM_Right_LED_Blue.c ****     #endif /* (PWM_Right_LED_Blue_UseControl || PWM_Right_LED_Blue_UsingFixedFunction) */
 238:.\Generated_Source\PSoC4/PWM_Right_LED_Blue.c **** 
 239:.\Generated_Source\PSoC4/PWM_Right_LED_Blue.c ****     /* Globally disable the Fixed Function Block chosen */
 240:.\Generated_Source\PSoC4/PWM_Right_LED_Blue.c ****     #if (PWM_Right_LED_Blue_UsingFixedFunction)
 241:.\Generated_Source\PSoC4/PWM_Right_LED_Blue.c ****         PWM_Right_LED_Blue_GLOBAL_ENABLE &= ((uint8)(~PWM_Right_LED_Blue_BLOCK_EN_MASK));
 242:.\Generated_Source\PSoC4/PWM_Right_LED_Blue.c ****         PWM_Right_LED_Blue_GLOBAL_STBY_ENABLE &= ((uint8)(~PWM_Right_LED_Blue_BLOCK_STBY_EN_MASK));
 243:.\Generated_Source\PSoC4/PWM_Right_LED_Blue.c ****     #endif /* (PWM_Right_LED_Blue_UsingFixedFunction) */
 244:.\Generated_Source\PSoC4/PWM_Right_LED_Blue.c **** }
  60              		.loc 1 244 0
  61              		@ sp needed
 236:.\Generated_Source\PSoC4/PWM_Right_LED_Blue.c ****         PWM_Right_LED_Blue_CONTROL &= ((uint8)(~PWM_Right_LED_Blue_CTRL_ENABLE));
  62              		.loc 1 236 0
  63 0006 0A40     		and	r2, r1
  64 0008 1A70     		strb	r2, [r3]
  65              		.loc 1 244 0
  66 000a 7047     		bx	lr
  67              	.L6:
  68              		.align	2
  69              	.L5:
  70 000c 72000F40 		.word	1074724978
  71              		.cfi_endproc
  72              	.LFE3:
  73              		.size	PWM_Right_LED_Blue_Stop, .-PWM_Right_LED_Blue_Stop
  74              		.section	.text.PWM_Right_LED_Blue_WriteCounter,"ax",%progbits
  75              		.align	1
  76              		.global	PWM_Right_LED_Blue_WriteCounter
  77              		.code	16
  78              		.thumb_func
  79              		.type	PWM_Right_LED_Blue_WriteCounter, %function
  80              	PWM_Right_LED_Blue_WriteCounter:
  81              	.LFB4:
 245:.\Generated_Source\PSoC4/PWM_Right_LED_Blue.c **** 
 246:.\Generated_Source\PSoC4/PWM_Right_LED_Blue.c **** #if (PWM_Right_LED_Blue_UseOneCompareMode)
 247:.\Generated_Source\PSoC4/PWM_Right_LED_Blue.c ****     #if (PWM_Right_LED_Blue_CompareMode1SW)
 248:.\Generated_Source\PSoC4/PWM_Right_LED_Blue.c **** 
 249:.\Generated_Source\PSoC4/PWM_Right_LED_Blue.c **** 
 250:.\Generated_Source\PSoC4/PWM_Right_LED_Blue.c ****         /*******************************************************************************
 251:.\Generated_Source\PSoC4/PWM_Right_LED_Blue.c ****         * Function Name: PWM_Right_LED_Blue_SetCompareMode
 252:.\Generated_Source\PSoC4/PWM_Right_LED_Blue.c ****         ********************************************************************************
 253:.\Generated_Source\PSoC4/PWM_Right_LED_Blue.c ****         *
 254:.\Generated_Source\PSoC4/PWM_Right_LED_Blue.c ****         * Summary:
 255:.\Generated_Source\PSoC4/PWM_Right_LED_Blue.c ****         *  This function writes the Compare Mode for the pwm output when in Dither mode,
 256:.\Generated_Source\PSoC4/PWM_Right_LED_Blue.c ****         *  Center Align Mode or One Output Mode.
 257:.\Generated_Source\PSoC4/PWM_Right_LED_Blue.c ****         *
 258:.\Generated_Source\PSoC4/PWM_Right_LED_Blue.c ****         * Parameters:
 259:.\Generated_Source\PSoC4/PWM_Right_LED_Blue.c ****         *  comparemode:  The new compare mode for the PWM output. Use the compare types
ARM GAS  C:\Users\Admin\AppData\Local\Temp\ccXr27ZC.s 			page 7


 260:.\Generated_Source\PSoC4/PWM_Right_LED_Blue.c ****         *                defined in the H file as input arguments.
 261:.\Generated_Source\PSoC4/PWM_Right_LED_Blue.c ****         *
 262:.\Generated_Source\PSoC4/PWM_Right_LED_Blue.c ****         * Return:
 263:.\Generated_Source\PSoC4/PWM_Right_LED_Blue.c ****         *  None
 264:.\Generated_Source\PSoC4/PWM_Right_LED_Blue.c ****         *
 265:.\Generated_Source\PSoC4/PWM_Right_LED_Blue.c ****         *******************************************************************************/
 266:.\Generated_Source\PSoC4/PWM_Right_LED_Blue.c ****         void PWM_Right_LED_Blue_SetCompareMode(uint8 comparemode) 
 267:.\Generated_Source\PSoC4/PWM_Right_LED_Blue.c ****         {
 268:.\Generated_Source\PSoC4/PWM_Right_LED_Blue.c ****             #if(PWM_Right_LED_Blue_UsingFixedFunction)
 269:.\Generated_Source\PSoC4/PWM_Right_LED_Blue.c **** 
 270:.\Generated_Source\PSoC4/PWM_Right_LED_Blue.c ****                 #if(0 != PWM_Right_LED_Blue_CTRL_CMPMODE1_SHIFT)
 271:.\Generated_Source\PSoC4/PWM_Right_LED_Blue.c ****                     uint8 comparemodemasked = ((uint8)((uint8)comparemode << PWM_Right_LED_Blue_CTR
 272:.\Generated_Source\PSoC4/PWM_Right_LED_Blue.c ****                 #else
 273:.\Generated_Source\PSoC4/PWM_Right_LED_Blue.c ****                     uint8 comparemodemasked = comparemode;
 274:.\Generated_Source\PSoC4/PWM_Right_LED_Blue.c ****                 #endif /* (0 != PWM_Right_LED_Blue_CTRL_CMPMODE1_SHIFT) */
 275:.\Generated_Source\PSoC4/PWM_Right_LED_Blue.c **** 
 276:.\Generated_Source\PSoC4/PWM_Right_LED_Blue.c ****                 PWM_Right_LED_Blue_CONTROL3 &= ((uint8)(~PWM_Right_LED_Blue_CTRL_CMPMODE1_MASK)); /
 277:.\Generated_Source\PSoC4/PWM_Right_LED_Blue.c ****                 PWM_Right_LED_Blue_CONTROL3 |= comparemodemasked;
 278:.\Generated_Source\PSoC4/PWM_Right_LED_Blue.c **** 
 279:.\Generated_Source\PSoC4/PWM_Right_LED_Blue.c ****             #elif (PWM_Right_LED_Blue_UseControl)
 280:.\Generated_Source\PSoC4/PWM_Right_LED_Blue.c **** 
 281:.\Generated_Source\PSoC4/PWM_Right_LED_Blue.c ****                 #if(0 != PWM_Right_LED_Blue_CTRL_CMPMODE1_SHIFT)
 282:.\Generated_Source\PSoC4/PWM_Right_LED_Blue.c ****                     uint8 comparemode1masked = ((uint8)((uint8)comparemode << PWM_Right_LED_Blue_CT
 283:.\Generated_Source\PSoC4/PWM_Right_LED_Blue.c ****                                                 PWM_Right_LED_Blue_CTRL_CMPMODE1_MASK;
 284:.\Generated_Source\PSoC4/PWM_Right_LED_Blue.c ****                 #else
 285:.\Generated_Source\PSoC4/PWM_Right_LED_Blue.c ****                     uint8 comparemode1masked = comparemode & PWM_Right_LED_Blue_CTRL_CMPMODE1_MASK;
 286:.\Generated_Source\PSoC4/PWM_Right_LED_Blue.c ****                 #endif /* (0 != PWM_Right_LED_Blue_CTRL_CMPMODE1_SHIFT) */
 287:.\Generated_Source\PSoC4/PWM_Right_LED_Blue.c **** 
 288:.\Generated_Source\PSoC4/PWM_Right_LED_Blue.c ****                 #if(0 != PWM_Right_LED_Blue_CTRL_CMPMODE2_SHIFT)
 289:.\Generated_Source\PSoC4/PWM_Right_LED_Blue.c ****                     uint8 comparemode2masked = ((uint8)((uint8)comparemode << PWM_Right_LED_Blue_CT
 290:.\Generated_Source\PSoC4/PWM_Right_LED_Blue.c ****                                                PWM_Right_LED_Blue_CTRL_CMPMODE2_MASK;
 291:.\Generated_Source\PSoC4/PWM_Right_LED_Blue.c ****                 #else
 292:.\Generated_Source\PSoC4/PWM_Right_LED_Blue.c ****                     uint8 comparemode2masked = comparemode & PWM_Right_LED_Blue_CTRL_CMPMODE2_MASK;
 293:.\Generated_Source\PSoC4/PWM_Right_LED_Blue.c ****                 #endif /* (0 != PWM_Right_LED_Blue_CTRL_CMPMODE2_SHIFT) */
 294:.\Generated_Source\PSoC4/PWM_Right_LED_Blue.c **** 
 295:.\Generated_Source\PSoC4/PWM_Right_LED_Blue.c ****                 /*Clear existing mode */
 296:.\Generated_Source\PSoC4/PWM_Right_LED_Blue.c ****                 PWM_Right_LED_Blue_CONTROL &= ((uint8)(~(PWM_Right_LED_Blue_CTRL_CMPMODE1_MASK |
 297:.\Generated_Source\PSoC4/PWM_Right_LED_Blue.c ****                                             PWM_Right_LED_Blue_CTRL_CMPMODE2_MASK)));
 298:.\Generated_Source\PSoC4/PWM_Right_LED_Blue.c ****                 PWM_Right_LED_Blue_CONTROL |= (comparemode1masked | comparemode2masked);
 299:.\Generated_Source\PSoC4/PWM_Right_LED_Blue.c **** 
 300:.\Generated_Source\PSoC4/PWM_Right_LED_Blue.c ****             #else
 301:.\Generated_Source\PSoC4/PWM_Right_LED_Blue.c ****                 uint8 temp = comparemode;
 302:.\Generated_Source\PSoC4/PWM_Right_LED_Blue.c ****             #endif /* (PWM_Right_LED_Blue_UsingFixedFunction) */
 303:.\Generated_Source\PSoC4/PWM_Right_LED_Blue.c ****         }
 304:.\Generated_Source\PSoC4/PWM_Right_LED_Blue.c ****     #endif /* PWM_Right_LED_Blue_CompareMode1SW */
 305:.\Generated_Source\PSoC4/PWM_Right_LED_Blue.c **** 
 306:.\Generated_Source\PSoC4/PWM_Right_LED_Blue.c **** #else /* UseOneCompareMode */
 307:.\Generated_Source\PSoC4/PWM_Right_LED_Blue.c **** 
 308:.\Generated_Source\PSoC4/PWM_Right_LED_Blue.c ****     #if (PWM_Right_LED_Blue_CompareMode1SW)
 309:.\Generated_Source\PSoC4/PWM_Right_LED_Blue.c **** 
 310:.\Generated_Source\PSoC4/PWM_Right_LED_Blue.c **** 
 311:.\Generated_Source\PSoC4/PWM_Right_LED_Blue.c ****         /*******************************************************************************
 312:.\Generated_Source\PSoC4/PWM_Right_LED_Blue.c ****         * Function Name: PWM_Right_LED_Blue_SetCompareMode1
 313:.\Generated_Source\PSoC4/PWM_Right_LED_Blue.c ****         ********************************************************************************
 314:.\Generated_Source\PSoC4/PWM_Right_LED_Blue.c ****         *
 315:.\Generated_Source\PSoC4/PWM_Right_LED_Blue.c ****         * Summary:
 316:.\Generated_Source\PSoC4/PWM_Right_LED_Blue.c ****         *  This function writes the Compare Mode for the pwm or pwm1 output
ARM GAS  C:\Users\Admin\AppData\Local\Temp\ccXr27ZC.s 			page 8


 317:.\Generated_Source\PSoC4/PWM_Right_LED_Blue.c ****         *
 318:.\Generated_Source\PSoC4/PWM_Right_LED_Blue.c ****         * Parameters:
 319:.\Generated_Source\PSoC4/PWM_Right_LED_Blue.c ****         *  comparemode:  The new compare mode for the PWM output. Use the compare types
 320:.\Generated_Source\PSoC4/PWM_Right_LED_Blue.c ****         *                defined in the H file as input arguments.
 321:.\Generated_Source\PSoC4/PWM_Right_LED_Blue.c ****         *
 322:.\Generated_Source\PSoC4/PWM_Right_LED_Blue.c ****         * Return:
 323:.\Generated_Source\PSoC4/PWM_Right_LED_Blue.c ****         *  None
 324:.\Generated_Source\PSoC4/PWM_Right_LED_Blue.c ****         *
 325:.\Generated_Source\PSoC4/PWM_Right_LED_Blue.c ****         *******************************************************************************/
 326:.\Generated_Source\PSoC4/PWM_Right_LED_Blue.c ****         void PWM_Right_LED_Blue_SetCompareMode1(uint8 comparemode) 
 327:.\Generated_Source\PSoC4/PWM_Right_LED_Blue.c ****         {
 328:.\Generated_Source\PSoC4/PWM_Right_LED_Blue.c ****             #if(0 != PWM_Right_LED_Blue_CTRL_CMPMODE1_SHIFT)
 329:.\Generated_Source\PSoC4/PWM_Right_LED_Blue.c ****                 uint8 comparemodemasked = ((uint8)((uint8)comparemode << PWM_Right_LED_Blue_CTRL_CM
 330:.\Generated_Source\PSoC4/PWM_Right_LED_Blue.c ****                                            PWM_Right_LED_Blue_CTRL_CMPMODE1_MASK;
 331:.\Generated_Source\PSoC4/PWM_Right_LED_Blue.c ****             #else
 332:.\Generated_Source\PSoC4/PWM_Right_LED_Blue.c ****                 uint8 comparemodemasked = comparemode & PWM_Right_LED_Blue_CTRL_CMPMODE1_MASK;
 333:.\Generated_Source\PSoC4/PWM_Right_LED_Blue.c ****             #endif /* (0 != PWM_Right_LED_Blue_CTRL_CMPMODE1_SHIFT) */
 334:.\Generated_Source\PSoC4/PWM_Right_LED_Blue.c **** 
 335:.\Generated_Source\PSoC4/PWM_Right_LED_Blue.c ****             #if (PWM_Right_LED_Blue_UseControl)
 336:.\Generated_Source\PSoC4/PWM_Right_LED_Blue.c ****                 PWM_Right_LED_Blue_CONTROL &= ((uint8)(~PWM_Right_LED_Blue_CTRL_CMPMODE1_MASK)); /*
 337:.\Generated_Source\PSoC4/PWM_Right_LED_Blue.c ****                 PWM_Right_LED_Blue_CONTROL |= comparemodemasked;
 338:.\Generated_Source\PSoC4/PWM_Right_LED_Blue.c ****             #endif /* (PWM_Right_LED_Blue_UseControl) */
 339:.\Generated_Source\PSoC4/PWM_Right_LED_Blue.c ****         }
 340:.\Generated_Source\PSoC4/PWM_Right_LED_Blue.c ****     #endif /* PWM_Right_LED_Blue_CompareMode1SW */
 341:.\Generated_Source\PSoC4/PWM_Right_LED_Blue.c **** 
 342:.\Generated_Source\PSoC4/PWM_Right_LED_Blue.c **** #if (PWM_Right_LED_Blue_CompareMode2SW)
 343:.\Generated_Source\PSoC4/PWM_Right_LED_Blue.c **** 
 344:.\Generated_Source\PSoC4/PWM_Right_LED_Blue.c **** 
 345:.\Generated_Source\PSoC4/PWM_Right_LED_Blue.c ****     /*******************************************************************************
 346:.\Generated_Source\PSoC4/PWM_Right_LED_Blue.c ****     * Function Name: PWM_Right_LED_Blue_SetCompareMode2
 347:.\Generated_Source\PSoC4/PWM_Right_LED_Blue.c ****     ********************************************************************************
 348:.\Generated_Source\PSoC4/PWM_Right_LED_Blue.c ****     *
 349:.\Generated_Source\PSoC4/PWM_Right_LED_Blue.c ****     * Summary:
 350:.\Generated_Source\PSoC4/PWM_Right_LED_Blue.c ****     *  This function writes the Compare Mode for the pwm or pwm2 output
 351:.\Generated_Source\PSoC4/PWM_Right_LED_Blue.c ****     *
 352:.\Generated_Source\PSoC4/PWM_Right_LED_Blue.c ****     * Parameters:
 353:.\Generated_Source\PSoC4/PWM_Right_LED_Blue.c ****     *  comparemode:  The new compare mode for the PWM output. Use the compare types
 354:.\Generated_Source\PSoC4/PWM_Right_LED_Blue.c ****     *                defined in the H file as input arguments.
 355:.\Generated_Source\PSoC4/PWM_Right_LED_Blue.c ****     *
 356:.\Generated_Source\PSoC4/PWM_Right_LED_Blue.c ****     * Return:
 357:.\Generated_Source\PSoC4/PWM_Right_LED_Blue.c ****     *  None
 358:.\Generated_Source\PSoC4/PWM_Right_LED_Blue.c ****     *
 359:.\Generated_Source\PSoC4/PWM_Right_LED_Blue.c ****     *******************************************************************************/
 360:.\Generated_Source\PSoC4/PWM_Right_LED_Blue.c ****     void PWM_Right_LED_Blue_SetCompareMode2(uint8 comparemode) 
 361:.\Generated_Source\PSoC4/PWM_Right_LED_Blue.c ****     {
 362:.\Generated_Source\PSoC4/PWM_Right_LED_Blue.c **** 
 363:.\Generated_Source\PSoC4/PWM_Right_LED_Blue.c ****         #if(0 != PWM_Right_LED_Blue_CTRL_CMPMODE2_SHIFT)
 364:.\Generated_Source\PSoC4/PWM_Right_LED_Blue.c ****             uint8 comparemodemasked = ((uint8)((uint8)comparemode << PWM_Right_LED_Blue_CTRL_CMPMOD
 365:.\Generated_Source\PSoC4/PWM_Right_LED_Blue.c ****                                                  PWM_Right_LED_Blue_CTRL_CMPMODE2_MASK;
 366:.\Generated_Source\PSoC4/PWM_Right_LED_Blue.c ****         #else
 367:.\Generated_Source\PSoC4/PWM_Right_LED_Blue.c ****             uint8 comparemodemasked = comparemode & PWM_Right_LED_Blue_CTRL_CMPMODE2_MASK;
 368:.\Generated_Source\PSoC4/PWM_Right_LED_Blue.c ****         #endif /* (0 != PWM_Right_LED_Blue_CTRL_CMPMODE2_SHIFT) */
 369:.\Generated_Source\PSoC4/PWM_Right_LED_Blue.c **** 
 370:.\Generated_Source\PSoC4/PWM_Right_LED_Blue.c ****         #if (PWM_Right_LED_Blue_UseControl)
 371:.\Generated_Source\PSoC4/PWM_Right_LED_Blue.c ****             PWM_Right_LED_Blue_CONTROL &= ((uint8)(~PWM_Right_LED_Blue_CTRL_CMPMODE2_MASK)); /*Clea
 372:.\Generated_Source\PSoC4/PWM_Right_LED_Blue.c ****             PWM_Right_LED_Blue_CONTROL |= comparemodemasked;
 373:.\Generated_Source\PSoC4/PWM_Right_LED_Blue.c ****         #endif /* (PWM_Right_LED_Blue_UseControl) */
ARM GAS  C:\Users\Admin\AppData\Local\Temp\ccXr27ZC.s 			page 9


 374:.\Generated_Source\PSoC4/PWM_Right_LED_Blue.c ****     }
 375:.\Generated_Source\PSoC4/PWM_Right_LED_Blue.c ****     #endif /*PWM_Right_LED_Blue_CompareMode2SW */
 376:.\Generated_Source\PSoC4/PWM_Right_LED_Blue.c **** 
 377:.\Generated_Source\PSoC4/PWM_Right_LED_Blue.c **** #endif /* UseOneCompareMode */
 378:.\Generated_Source\PSoC4/PWM_Right_LED_Blue.c **** 
 379:.\Generated_Source\PSoC4/PWM_Right_LED_Blue.c **** 
 380:.\Generated_Source\PSoC4/PWM_Right_LED_Blue.c **** #if (!PWM_Right_LED_Blue_UsingFixedFunction)
 381:.\Generated_Source\PSoC4/PWM_Right_LED_Blue.c **** 
 382:.\Generated_Source\PSoC4/PWM_Right_LED_Blue.c **** 
 383:.\Generated_Source\PSoC4/PWM_Right_LED_Blue.c ****     /*******************************************************************************
 384:.\Generated_Source\PSoC4/PWM_Right_LED_Blue.c ****     * Function Name: PWM_Right_LED_Blue_WriteCounter
 385:.\Generated_Source\PSoC4/PWM_Right_LED_Blue.c ****     ********************************************************************************
 386:.\Generated_Source\PSoC4/PWM_Right_LED_Blue.c ****     *
 387:.\Generated_Source\PSoC4/PWM_Right_LED_Blue.c ****     * Summary:
 388:.\Generated_Source\PSoC4/PWM_Right_LED_Blue.c ****     *  Writes a new counter value directly to the counter register. This will be
 389:.\Generated_Source\PSoC4/PWM_Right_LED_Blue.c ****     *  implemented for that currently running period and only that period. This API
 390:.\Generated_Source\PSoC4/PWM_Right_LED_Blue.c ****     *  is valid only for UDB implementation and not available for fixed function
 391:.\Generated_Source\PSoC4/PWM_Right_LED_Blue.c ****     *  PWM implementation.
 392:.\Generated_Source\PSoC4/PWM_Right_LED_Blue.c ****     *
 393:.\Generated_Source\PSoC4/PWM_Right_LED_Blue.c ****     * Parameters:
 394:.\Generated_Source\PSoC4/PWM_Right_LED_Blue.c ****     *  counter:  The period new period counter value.
 395:.\Generated_Source\PSoC4/PWM_Right_LED_Blue.c ****     *
 396:.\Generated_Source\PSoC4/PWM_Right_LED_Blue.c ****     * Return:
 397:.\Generated_Source\PSoC4/PWM_Right_LED_Blue.c ****     *  None
 398:.\Generated_Source\PSoC4/PWM_Right_LED_Blue.c ****     *
 399:.\Generated_Source\PSoC4/PWM_Right_LED_Blue.c ****     * Side Effects:
 400:.\Generated_Source\PSoC4/PWM_Right_LED_Blue.c ****     *  The PWM Period will be reloaded when a counter value will be a zero
 401:.\Generated_Source\PSoC4/PWM_Right_LED_Blue.c ****     *
 402:.\Generated_Source\PSoC4/PWM_Right_LED_Blue.c ****     *******************************************************************************/
 403:.\Generated_Source\PSoC4/PWM_Right_LED_Blue.c ****     void PWM_Right_LED_Blue_WriteCounter(uint8 counter) \
 404:.\Generated_Source\PSoC4/PWM_Right_LED_Blue.c ****                                        
 405:.\Generated_Source\PSoC4/PWM_Right_LED_Blue.c ****     {
  82              		.loc 1 405 0
  83              		.cfi_startproc
  84              	.LVL0:
 406:.\Generated_Source\PSoC4/PWM_Right_LED_Blue.c ****         CY_SET_REG8(PWM_Right_LED_Blue_COUNTER_LSB_PTR, counter);
  85              		.loc 1 406 0
  86 0000 014B     		ldr	r3, .L8
 407:.\Generated_Source\PSoC4/PWM_Right_LED_Blue.c ****     }
  87              		.loc 1 407 0
  88              		@ sp needed
 406:.\Generated_Source\PSoC4/PWM_Right_LED_Blue.c ****         CY_SET_REG8(PWM_Right_LED_Blue_COUNTER_LSB_PTR, counter);
  89              		.loc 1 406 0
  90 0002 1870     		strb	r0, [r3]
  91              		.loc 1 407 0
  92 0004 7047     		bx	lr
  93              	.L9:
  94 0006 C046     		.align	2
  95              	.L8:
  96 0008 02000F40 		.word	1074724866
  97              		.cfi_endproc
  98              	.LFE4:
  99              		.size	PWM_Right_LED_Blue_WriteCounter, .-PWM_Right_LED_Blue_WriteCounter
 100              		.section	.text.PWM_Right_LED_Blue_ReadCounter,"ax",%progbits
 101              		.align	1
 102              		.global	PWM_Right_LED_Blue_ReadCounter
 103              		.code	16
ARM GAS  C:\Users\Admin\AppData\Local\Temp\ccXr27ZC.s 			page 10


 104              		.thumb_func
 105              		.type	PWM_Right_LED_Blue_ReadCounter, %function
 106              	PWM_Right_LED_Blue_ReadCounter:
 107              	.LFB5:
 408:.\Generated_Source\PSoC4/PWM_Right_LED_Blue.c **** 
 409:.\Generated_Source\PSoC4/PWM_Right_LED_Blue.c **** 
 410:.\Generated_Source\PSoC4/PWM_Right_LED_Blue.c ****     /*******************************************************************************
 411:.\Generated_Source\PSoC4/PWM_Right_LED_Blue.c ****     * Function Name: PWM_Right_LED_Blue_ReadCounter
 412:.\Generated_Source\PSoC4/PWM_Right_LED_Blue.c ****     ********************************************************************************
 413:.\Generated_Source\PSoC4/PWM_Right_LED_Blue.c ****     *
 414:.\Generated_Source\PSoC4/PWM_Right_LED_Blue.c ****     * Summary:
 415:.\Generated_Source\PSoC4/PWM_Right_LED_Blue.c ****     *  This function returns the current value of the counter.  It doesn't matter
 416:.\Generated_Source\PSoC4/PWM_Right_LED_Blue.c ****     *  if the counter is enabled or running.
 417:.\Generated_Source\PSoC4/PWM_Right_LED_Blue.c ****     *
 418:.\Generated_Source\PSoC4/PWM_Right_LED_Blue.c ****     * Parameters:
 419:.\Generated_Source\PSoC4/PWM_Right_LED_Blue.c ****     *  None
 420:.\Generated_Source\PSoC4/PWM_Right_LED_Blue.c ****     *
 421:.\Generated_Source\PSoC4/PWM_Right_LED_Blue.c ****     * Return:
 422:.\Generated_Source\PSoC4/PWM_Right_LED_Blue.c ****     *  The current value of the counter.
 423:.\Generated_Source\PSoC4/PWM_Right_LED_Blue.c ****     *
 424:.\Generated_Source\PSoC4/PWM_Right_LED_Blue.c ****     *******************************************************************************/
 425:.\Generated_Source\PSoC4/PWM_Right_LED_Blue.c ****     uint8 PWM_Right_LED_Blue_ReadCounter(void) 
 426:.\Generated_Source\PSoC4/PWM_Right_LED_Blue.c ****     {
 108              		.loc 1 426 0
 109              		.cfi_startproc
 427:.\Generated_Source\PSoC4/PWM_Right_LED_Blue.c ****         /* Force capture by reading Accumulator */
 428:.\Generated_Source\PSoC4/PWM_Right_LED_Blue.c ****         /* Must first do a software capture to be able to read the counter */
 429:.\Generated_Source\PSoC4/PWM_Right_LED_Blue.c ****         /* It is up to the user code to make sure there isn't already captured data in the FIFO */
 430:.\Generated_Source\PSoC4/PWM_Right_LED_Blue.c ****           (void)CY_GET_REG8(PWM_Right_LED_Blue_COUNTERCAP_LSB_PTR_8BIT);
 110              		.loc 1 430 0
 111 0000 024B     		ldr	r3, .L11
 431:.\Generated_Source\PSoC4/PWM_Right_LED_Blue.c **** 
 432:.\Generated_Source\PSoC4/PWM_Right_LED_Blue.c ****         /* Read the data from the FIFO */
 433:.\Generated_Source\PSoC4/PWM_Right_LED_Blue.c ****         return (CY_GET_REG8(PWM_Right_LED_Blue_CAPTURE_LSB_PTR));
 434:.\Generated_Source\PSoC4/PWM_Right_LED_Blue.c ****     }
 112              		.loc 1 434 0
 113              		@ sp needed
 430:.\Generated_Source\PSoC4/PWM_Right_LED_Blue.c ****           (void)CY_GET_REG8(PWM_Right_LED_Blue_COUNTERCAP_LSB_PTR_8BIT);
 114              		.loc 1 430 0
 115 0002 1B78     		ldrb	r3, [r3]
 433:.\Generated_Source\PSoC4/PWM_Right_LED_Blue.c ****         return (CY_GET_REG8(PWM_Right_LED_Blue_CAPTURE_LSB_PTR));
 116              		.loc 1 433 0
 117 0004 024B     		ldr	r3, .L11+4
 118 0006 1878     		ldrb	r0, [r3]
 119 0008 C0B2     		uxtb	r0, r0
 120              		.loc 1 434 0
 121 000a 7047     		bx	lr
 122              	.L12:
 123              		.align	2
 124              	.L11:
 125 000c 12000F40 		.word	1074724882
 126 0010 52000F40 		.word	1074724946
 127              		.cfi_endproc
 128              	.LFE5:
 129              		.size	PWM_Right_LED_Blue_ReadCounter, .-PWM_Right_LED_Blue_ReadCounter
 130              		.section	.text.PWM_Right_LED_Blue_ClearFIFO,"ax",%progbits
 131              		.align	1
ARM GAS  C:\Users\Admin\AppData\Local\Temp\ccXr27ZC.s 			page 11


 132              		.global	PWM_Right_LED_Blue_ClearFIFO
 133              		.code	16
 134              		.thumb_func
 135              		.type	PWM_Right_LED_Blue_ClearFIFO, %function
 136              	PWM_Right_LED_Blue_ClearFIFO:
 137              	.LFB6:
 435:.\Generated_Source\PSoC4/PWM_Right_LED_Blue.c **** 
 436:.\Generated_Source\PSoC4/PWM_Right_LED_Blue.c ****     #if (PWM_Right_LED_Blue_UseStatus)
 437:.\Generated_Source\PSoC4/PWM_Right_LED_Blue.c **** 
 438:.\Generated_Source\PSoC4/PWM_Right_LED_Blue.c **** 
 439:.\Generated_Source\PSoC4/PWM_Right_LED_Blue.c ****         /*******************************************************************************
 440:.\Generated_Source\PSoC4/PWM_Right_LED_Blue.c ****         * Function Name: PWM_Right_LED_Blue_ClearFIFO
 441:.\Generated_Source\PSoC4/PWM_Right_LED_Blue.c ****         ********************************************************************************
 442:.\Generated_Source\PSoC4/PWM_Right_LED_Blue.c ****         *
 443:.\Generated_Source\PSoC4/PWM_Right_LED_Blue.c ****         * Summary:
 444:.\Generated_Source\PSoC4/PWM_Right_LED_Blue.c ****         *  This function clears all capture data from the capture FIFO
 445:.\Generated_Source\PSoC4/PWM_Right_LED_Blue.c ****         *
 446:.\Generated_Source\PSoC4/PWM_Right_LED_Blue.c ****         * Parameters:
 447:.\Generated_Source\PSoC4/PWM_Right_LED_Blue.c ****         *  None
 448:.\Generated_Source\PSoC4/PWM_Right_LED_Blue.c ****         *
 449:.\Generated_Source\PSoC4/PWM_Right_LED_Blue.c ****         * Return:
 450:.\Generated_Source\PSoC4/PWM_Right_LED_Blue.c ****         *  None
 451:.\Generated_Source\PSoC4/PWM_Right_LED_Blue.c ****         *
 452:.\Generated_Source\PSoC4/PWM_Right_LED_Blue.c ****         *******************************************************************************/
 453:.\Generated_Source\PSoC4/PWM_Right_LED_Blue.c ****         void PWM_Right_LED_Blue_ClearFIFO(void) 
 454:.\Generated_Source\PSoC4/PWM_Right_LED_Blue.c ****         {
 138              		.loc 1 454 0
 139              		.cfi_startproc
 140              	.L14:
 141              	.LBB14:
 142              	.LBB15:
 455:.\Generated_Source\PSoC4/PWM_Right_LED_Blue.c ****             while(0u != (PWM_Right_LED_Blue_ReadStatusRegister() & PWM_Right_LED_Blue_STATUS_FIFONE
 456:.\Generated_Source\PSoC4/PWM_Right_LED_Blue.c ****             {
 457:.\Generated_Source\PSoC4/PWM_Right_LED_Blue.c ****                 (void)PWM_Right_LED_Blue_ReadCapture();
 458:.\Generated_Source\PSoC4/PWM_Right_LED_Blue.c ****             }
 459:.\Generated_Source\PSoC4/PWM_Right_LED_Blue.c ****         }
 460:.\Generated_Source\PSoC4/PWM_Right_LED_Blue.c **** 
 461:.\Generated_Source\PSoC4/PWM_Right_LED_Blue.c ****     #endif /* PWM_Right_LED_Blue_UseStatus */
 462:.\Generated_Source\PSoC4/PWM_Right_LED_Blue.c **** 
 463:.\Generated_Source\PSoC4/PWM_Right_LED_Blue.c **** #endif /* !PWM_Right_LED_Blue_UsingFixedFunction */
 464:.\Generated_Source\PSoC4/PWM_Right_LED_Blue.c **** 
 465:.\Generated_Source\PSoC4/PWM_Right_LED_Blue.c **** 
 466:.\Generated_Source\PSoC4/PWM_Right_LED_Blue.c **** /*******************************************************************************
 467:.\Generated_Source\PSoC4/PWM_Right_LED_Blue.c **** * Function Name: PWM_Right_LED_Blue_WritePeriod
 468:.\Generated_Source\PSoC4/PWM_Right_LED_Blue.c **** ********************************************************************************
 469:.\Generated_Source\PSoC4/PWM_Right_LED_Blue.c **** *
 470:.\Generated_Source\PSoC4/PWM_Right_LED_Blue.c **** * Summary:
 471:.\Generated_Source\PSoC4/PWM_Right_LED_Blue.c **** *  This function is used to change the period of the counter.  The new period
 472:.\Generated_Source\PSoC4/PWM_Right_LED_Blue.c **** *  will be loaded the next time terminal count is detected.
 473:.\Generated_Source\PSoC4/PWM_Right_LED_Blue.c **** *
 474:.\Generated_Source\PSoC4/PWM_Right_LED_Blue.c **** * Parameters:
 475:.\Generated_Source\PSoC4/PWM_Right_LED_Blue.c **** *  period:  Period value. May be between 1 and (2^Resolution)-1.  A value of 0
 476:.\Generated_Source\PSoC4/PWM_Right_LED_Blue.c **** *           will result in the counter remaining at zero.
 477:.\Generated_Source\PSoC4/PWM_Right_LED_Blue.c **** *
 478:.\Generated_Source\PSoC4/PWM_Right_LED_Blue.c **** * Return:
 479:.\Generated_Source\PSoC4/PWM_Right_LED_Blue.c **** *  None
 480:.\Generated_Source\PSoC4/PWM_Right_LED_Blue.c **** *
ARM GAS  C:\Users\Admin\AppData\Local\Temp\ccXr27ZC.s 			page 12


 481:.\Generated_Source\PSoC4/PWM_Right_LED_Blue.c **** *******************************************************************************/
 482:.\Generated_Source\PSoC4/PWM_Right_LED_Blue.c **** void PWM_Right_LED_Blue_WritePeriod(uint8 period) 
 483:.\Generated_Source\PSoC4/PWM_Right_LED_Blue.c **** {
 484:.\Generated_Source\PSoC4/PWM_Right_LED_Blue.c ****     #if(PWM_Right_LED_Blue_UsingFixedFunction)
 485:.\Generated_Source\PSoC4/PWM_Right_LED_Blue.c ****         CY_SET_REG16(PWM_Right_LED_Blue_PERIOD_LSB_PTR, (uint16)period);
 486:.\Generated_Source\PSoC4/PWM_Right_LED_Blue.c ****     #else
 487:.\Generated_Source\PSoC4/PWM_Right_LED_Blue.c ****         CY_SET_REG8(PWM_Right_LED_Blue_PERIOD_LSB_PTR, period);
 488:.\Generated_Source\PSoC4/PWM_Right_LED_Blue.c ****     #endif /* (PWM_Right_LED_Blue_UsingFixedFunction) */
 489:.\Generated_Source\PSoC4/PWM_Right_LED_Blue.c **** }
 490:.\Generated_Source\PSoC4/PWM_Right_LED_Blue.c **** 
 491:.\Generated_Source\PSoC4/PWM_Right_LED_Blue.c **** #if (PWM_Right_LED_Blue_UseOneCompareMode)
 492:.\Generated_Source\PSoC4/PWM_Right_LED_Blue.c **** 
 493:.\Generated_Source\PSoC4/PWM_Right_LED_Blue.c **** 
 494:.\Generated_Source\PSoC4/PWM_Right_LED_Blue.c ****     /*******************************************************************************
 495:.\Generated_Source\PSoC4/PWM_Right_LED_Blue.c ****     * Function Name: PWM_Right_LED_Blue_WriteCompare
 496:.\Generated_Source\PSoC4/PWM_Right_LED_Blue.c ****     ********************************************************************************
 497:.\Generated_Source\PSoC4/PWM_Right_LED_Blue.c ****     *
 498:.\Generated_Source\PSoC4/PWM_Right_LED_Blue.c ****     * Summary:
 499:.\Generated_Source\PSoC4/PWM_Right_LED_Blue.c ****     *  This funtion is used to change the compare1 value when the PWM is in Dither
 500:.\Generated_Source\PSoC4/PWM_Right_LED_Blue.c ****     *  mode. The compare output will reflect the new value on the next UDB clock.
 501:.\Generated_Source\PSoC4/PWM_Right_LED_Blue.c ****     *  The compare output will be driven high when the present counter value is
 502:.\Generated_Source\PSoC4/PWM_Right_LED_Blue.c ****     *  compared to the compare value based on the compare mode defined in
 503:.\Generated_Source\PSoC4/PWM_Right_LED_Blue.c ****     *  Dither Mode.
 504:.\Generated_Source\PSoC4/PWM_Right_LED_Blue.c ****     *
 505:.\Generated_Source\PSoC4/PWM_Right_LED_Blue.c ****     * Parameters:
 506:.\Generated_Source\PSoC4/PWM_Right_LED_Blue.c ****     *  compare:  New compare value.
 507:.\Generated_Source\PSoC4/PWM_Right_LED_Blue.c ****     *
 508:.\Generated_Source\PSoC4/PWM_Right_LED_Blue.c ****     * Return:
 509:.\Generated_Source\PSoC4/PWM_Right_LED_Blue.c ****     *  None
 510:.\Generated_Source\PSoC4/PWM_Right_LED_Blue.c ****     *
 511:.\Generated_Source\PSoC4/PWM_Right_LED_Blue.c ****     * Side Effects:
 512:.\Generated_Source\PSoC4/PWM_Right_LED_Blue.c ****     *  This function is only available if the PWM mode parameter is set to
 513:.\Generated_Source\PSoC4/PWM_Right_LED_Blue.c ****     *  Dither Mode, Center Aligned Mode or One Output Mode
 514:.\Generated_Source\PSoC4/PWM_Right_LED_Blue.c ****     *
 515:.\Generated_Source\PSoC4/PWM_Right_LED_Blue.c ****     *******************************************************************************/
 516:.\Generated_Source\PSoC4/PWM_Right_LED_Blue.c ****     void PWM_Right_LED_Blue_WriteCompare(uint8 compare) \
 517:.\Generated_Source\PSoC4/PWM_Right_LED_Blue.c ****                                        
 518:.\Generated_Source\PSoC4/PWM_Right_LED_Blue.c ****     {
 519:.\Generated_Source\PSoC4/PWM_Right_LED_Blue.c ****         #if(PWM_Right_LED_Blue_UsingFixedFunction)
 520:.\Generated_Source\PSoC4/PWM_Right_LED_Blue.c ****             CY_SET_REG16(PWM_Right_LED_Blue_COMPARE1_LSB_PTR, (uint16)compare);
 521:.\Generated_Source\PSoC4/PWM_Right_LED_Blue.c ****         #else
 522:.\Generated_Source\PSoC4/PWM_Right_LED_Blue.c ****             CY_SET_REG8(PWM_Right_LED_Blue_COMPARE1_LSB_PTR, compare);
 523:.\Generated_Source\PSoC4/PWM_Right_LED_Blue.c ****         #endif /* (PWM_Right_LED_Blue_UsingFixedFunction) */
 524:.\Generated_Source\PSoC4/PWM_Right_LED_Blue.c **** 
 525:.\Generated_Source\PSoC4/PWM_Right_LED_Blue.c ****         #if (PWM_Right_LED_Blue_PWMMode == PWM_Right_LED_Blue__B_PWM__DITHER)
 526:.\Generated_Source\PSoC4/PWM_Right_LED_Blue.c ****             #if(PWM_Right_LED_Blue_UsingFixedFunction)
 527:.\Generated_Source\PSoC4/PWM_Right_LED_Blue.c ****                 CY_SET_REG16(PWM_Right_LED_Blue_COMPARE2_LSB_PTR, (uint16)(compare + 1u));
 528:.\Generated_Source\PSoC4/PWM_Right_LED_Blue.c ****             #else
 529:.\Generated_Source\PSoC4/PWM_Right_LED_Blue.c ****                 CY_SET_REG8(PWM_Right_LED_Blue_COMPARE2_LSB_PTR, (compare + 1u));
 530:.\Generated_Source\PSoC4/PWM_Right_LED_Blue.c ****             #endif /* (PWM_Right_LED_Blue_UsingFixedFunction) */
 531:.\Generated_Source\PSoC4/PWM_Right_LED_Blue.c ****         #endif /* (PWM_Right_LED_Blue_PWMMode == PWM_Right_LED_Blue__B_PWM__DITHER) */
 532:.\Generated_Source\PSoC4/PWM_Right_LED_Blue.c ****     }
 533:.\Generated_Source\PSoC4/PWM_Right_LED_Blue.c **** 
 534:.\Generated_Source\PSoC4/PWM_Right_LED_Blue.c **** 
 535:.\Generated_Source\PSoC4/PWM_Right_LED_Blue.c **** #else
 536:.\Generated_Source\PSoC4/PWM_Right_LED_Blue.c **** 
 537:.\Generated_Source\PSoC4/PWM_Right_LED_Blue.c **** 
ARM GAS  C:\Users\Admin\AppData\Local\Temp\ccXr27ZC.s 			page 13


 538:.\Generated_Source\PSoC4/PWM_Right_LED_Blue.c ****     /*******************************************************************************
 539:.\Generated_Source\PSoC4/PWM_Right_LED_Blue.c ****     * Function Name: PWM_Right_LED_Blue_WriteCompare1
 540:.\Generated_Source\PSoC4/PWM_Right_LED_Blue.c ****     ********************************************************************************
 541:.\Generated_Source\PSoC4/PWM_Right_LED_Blue.c ****     *
 542:.\Generated_Source\PSoC4/PWM_Right_LED_Blue.c ****     * Summary:
 543:.\Generated_Source\PSoC4/PWM_Right_LED_Blue.c ****     *  This funtion is used to change the compare1 value.  The compare output will
 544:.\Generated_Source\PSoC4/PWM_Right_LED_Blue.c ****     *  reflect the new value on the next UDB clock.  The compare output will be
 545:.\Generated_Source\PSoC4/PWM_Right_LED_Blue.c ****     *  driven high when the present counter value is less than or less than or
 546:.\Generated_Source\PSoC4/PWM_Right_LED_Blue.c ****     *  equal to the compare register, depending on the mode.
 547:.\Generated_Source\PSoC4/PWM_Right_LED_Blue.c ****     *
 548:.\Generated_Source\PSoC4/PWM_Right_LED_Blue.c ****     * Parameters:
 549:.\Generated_Source\PSoC4/PWM_Right_LED_Blue.c ****     *  compare:  New compare value.
 550:.\Generated_Source\PSoC4/PWM_Right_LED_Blue.c ****     *
 551:.\Generated_Source\PSoC4/PWM_Right_LED_Blue.c ****     * Return:
 552:.\Generated_Source\PSoC4/PWM_Right_LED_Blue.c ****     *  None
 553:.\Generated_Source\PSoC4/PWM_Right_LED_Blue.c ****     *
 554:.\Generated_Source\PSoC4/PWM_Right_LED_Blue.c ****     *******************************************************************************/
 555:.\Generated_Source\PSoC4/PWM_Right_LED_Blue.c ****     void PWM_Right_LED_Blue_WriteCompare1(uint8 compare) \
 556:.\Generated_Source\PSoC4/PWM_Right_LED_Blue.c ****                                         
 557:.\Generated_Source\PSoC4/PWM_Right_LED_Blue.c ****     {
 558:.\Generated_Source\PSoC4/PWM_Right_LED_Blue.c ****         #if(PWM_Right_LED_Blue_UsingFixedFunction)
 559:.\Generated_Source\PSoC4/PWM_Right_LED_Blue.c ****             CY_SET_REG16(PWM_Right_LED_Blue_COMPARE1_LSB_PTR, (uint16)compare);
 560:.\Generated_Source\PSoC4/PWM_Right_LED_Blue.c ****         #else
 561:.\Generated_Source\PSoC4/PWM_Right_LED_Blue.c ****             CY_SET_REG8(PWM_Right_LED_Blue_COMPARE1_LSB_PTR, compare);
 562:.\Generated_Source\PSoC4/PWM_Right_LED_Blue.c ****         #endif /* (PWM_Right_LED_Blue_UsingFixedFunction) */
 563:.\Generated_Source\PSoC4/PWM_Right_LED_Blue.c ****     }
 564:.\Generated_Source\PSoC4/PWM_Right_LED_Blue.c **** 
 565:.\Generated_Source\PSoC4/PWM_Right_LED_Blue.c **** 
 566:.\Generated_Source\PSoC4/PWM_Right_LED_Blue.c ****     /*******************************************************************************
 567:.\Generated_Source\PSoC4/PWM_Right_LED_Blue.c ****     * Function Name: PWM_Right_LED_Blue_WriteCompare2
 568:.\Generated_Source\PSoC4/PWM_Right_LED_Blue.c ****     ********************************************************************************
 569:.\Generated_Source\PSoC4/PWM_Right_LED_Blue.c ****     *
 570:.\Generated_Source\PSoC4/PWM_Right_LED_Blue.c ****     * Summary:
 571:.\Generated_Source\PSoC4/PWM_Right_LED_Blue.c ****     *  This funtion is used to change the compare value, for compare1 output.
 572:.\Generated_Source\PSoC4/PWM_Right_LED_Blue.c ****     *  The compare output will reflect the new value on the next UDB clock.
 573:.\Generated_Source\PSoC4/PWM_Right_LED_Blue.c ****     *  The compare output will be driven high when the present counter value is
 574:.\Generated_Source\PSoC4/PWM_Right_LED_Blue.c ****     *  less than or less than or equal to the compare register, depending on the
 575:.\Generated_Source\PSoC4/PWM_Right_LED_Blue.c ****     *  mode.
 576:.\Generated_Source\PSoC4/PWM_Right_LED_Blue.c ****     *
 577:.\Generated_Source\PSoC4/PWM_Right_LED_Blue.c ****     * Parameters:
 578:.\Generated_Source\PSoC4/PWM_Right_LED_Blue.c ****     *  compare:  New compare value.
 579:.\Generated_Source\PSoC4/PWM_Right_LED_Blue.c ****     *
 580:.\Generated_Source\PSoC4/PWM_Right_LED_Blue.c ****     * Return:
 581:.\Generated_Source\PSoC4/PWM_Right_LED_Blue.c ****     *  None
 582:.\Generated_Source\PSoC4/PWM_Right_LED_Blue.c ****     *
 583:.\Generated_Source\PSoC4/PWM_Right_LED_Blue.c ****     *******************************************************************************/
 584:.\Generated_Source\PSoC4/PWM_Right_LED_Blue.c ****     void PWM_Right_LED_Blue_WriteCompare2(uint8 compare) \
 585:.\Generated_Source\PSoC4/PWM_Right_LED_Blue.c ****                                         
 586:.\Generated_Source\PSoC4/PWM_Right_LED_Blue.c ****     {
 587:.\Generated_Source\PSoC4/PWM_Right_LED_Blue.c ****         #if(PWM_Right_LED_Blue_UsingFixedFunction)
 588:.\Generated_Source\PSoC4/PWM_Right_LED_Blue.c ****             CY_SET_REG16(PWM_Right_LED_Blue_COMPARE2_LSB_PTR, compare);
 589:.\Generated_Source\PSoC4/PWM_Right_LED_Blue.c ****         #else
 590:.\Generated_Source\PSoC4/PWM_Right_LED_Blue.c ****             CY_SET_REG8(PWM_Right_LED_Blue_COMPARE2_LSB_PTR, compare);
 591:.\Generated_Source\PSoC4/PWM_Right_LED_Blue.c ****         #endif /* (PWM_Right_LED_Blue_UsingFixedFunction) */
 592:.\Generated_Source\PSoC4/PWM_Right_LED_Blue.c ****     }
 593:.\Generated_Source\PSoC4/PWM_Right_LED_Blue.c **** #endif /* UseOneCompareMode */
 594:.\Generated_Source\PSoC4/PWM_Right_LED_Blue.c **** 
ARM GAS  C:\Users\Admin\AppData\Local\Temp\ccXr27ZC.s 			page 14


 595:.\Generated_Source\PSoC4/PWM_Right_LED_Blue.c **** #if (PWM_Right_LED_Blue_DeadBandUsed)
 596:.\Generated_Source\PSoC4/PWM_Right_LED_Blue.c **** 
 597:.\Generated_Source\PSoC4/PWM_Right_LED_Blue.c **** 
 598:.\Generated_Source\PSoC4/PWM_Right_LED_Blue.c ****     /*******************************************************************************
 599:.\Generated_Source\PSoC4/PWM_Right_LED_Blue.c ****     * Function Name: PWM_Right_LED_Blue_WriteDeadTime
 600:.\Generated_Source\PSoC4/PWM_Right_LED_Blue.c ****     ********************************************************************************
 601:.\Generated_Source\PSoC4/PWM_Right_LED_Blue.c ****     *
 602:.\Generated_Source\PSoC4/PWM_Right_LED_Blue.c ****     * Summary:
 603:.\Generated_Source\PSoC4/PWM_Right_LED_Blue.c ****     *  This function writes the dead-band counts to the corresponding register
 604:.\Generated_Source\PSoC4/PWM_Right_LED_Blue.c ****     *
 605:.\Generated_Source\PSoC4/PWM_Right_LED_Blue.c ****     * Parameters:
 606:.\Generated_Source\PSoC4/PWM_Right_LED_Blue.c ****     *  deadtime:  Number of counts for dead time
 607:.\Generated_Source\PSoC4/PWM_Right_LED_Blue.c ****     *
 608:.\Generated_Source\PSoC4/PWM_Right_LED_Blue.c ****     * Return:
 609:.\Generated_Source\PSoC4/PWM_Right_LED_Blue.c ****     *  None
 610:.\Generated_Source\PSoC4/PWM_Right_LED_Blue.c ****     *
 611:.\Generated_Source\PSoC4/PWM_Right_LED_Blue.c ****     *******************************************************************************/
 612:.\Generated_Source\PSoC4/PWM_Right_LED_Blue.c ****     void PWM_Right_LED_Blue_WriteDeadTime(uint8 deadtime) 
 613:.\Generated_Source\PSoC4/PWM_Right_LED_Blue.c ****     {
 614:.\Generated_Source\PSoC4/PWM_Right_LED_Blue.c ****         /* If using the Dead Band 1-255 mode then just write the register */
 615:.\Generated_Source\PSoC4/PWM_Right_LED_Blue.c ****         #if(!PWM_Right_LED_Blue_DeadBand2_4)
 616:.\Generated_Source\PSoC4/PWM_Right_LED_Blue.c ****             CY_SET_REG8(PWM_Right_LED_Blue_DEADBAND_COUNT_PTR, deadtime);
 617:.\Generated_Source\PSoC4/PWM_Right_LED_Blue.c ****         #else
 618:.\Generated_Source\PSoC4/PWM_Right_LED_Blue.c ****             /* Otherwise the data has to be masked and offset */
 619:.\Generated_Source\PSoC4/PWM_Right_LED_Blue.c ****             /* Clear existing data */
 620:.\Generated_Source\PSoC4/PWM_Right_LED_Blue.c ****             PWM_Right_LED_Blue_DEADBAND_COUNT &= ((uint8)(~PWM_Right_LED_Blue_DEADBAND_COUNT_MASK))
 621:.\Generated_Source\PSoC4/PWM_Right_LED_Blue.c **** 
 622:.\Generated_Source\PSoC4/PWM_Right_LED_Blue.c ****             /* Set new dead time */
 623:.\Generated_Source\PSoC4/PWM_Right_LED_Blue.c ****             #if(PWM_Right_LED_Blue_DEADBAND_COUNT_SHIFT)
 624:.\Generated_Source\PSoC4/PWM_Right_LED_Blue.c ****                 PWM_Right_LED_Blue_DEADBAND_COUNT |= ((uint8)((uint8)deadtime << PWM_Right_LED_Blue
 625:.\Generated_Source\PSoC4/PWM_Right_LED_Blue.c ****                                                     PWM_Right_LED_Blue_DEADBAND_COUNT_MASK;
 626:.\Generated_Source\PSoC4/PWM_Right_LED_Blue.c ****             #else
 627:.\Generated_Source\PSoC4/PWM_Right_LED_Blue.c ****                 PWM_Right_LED_Blue_DEADBAND_COUNT |= deadtime & PWM_Right_LED_Blue_DEADBAND_COUNT_M
 628:.\Generated_Source\PSoC4/PWM_Right_LED_Blue.c ****             #endif /* (PWM_Right_LED_Blue_DEADBAND_COUNT_SHIFT) */
 629:.\Generated_Source\PSoC4/PWM_Right_LED_Blue.c **** 
 630:.\Generated_Source\PSoC4/PWM_Right_LED_Blue.c ****         #endif /* (!PWM_Right_LED_Blue_DeadBand2_4) */
 631:.\Generated_Source\PSoC4/PWM_Right_LED_Blue.c ****     }
 632:.\Generated_Source\PSoC4/PWM_Right_LED_Blue.c **** 
 633:.\Generated_Source\PSoC4/PWM_Right_LED_Blue.c **** 
 634:.\Generated_Source\PSoC4/PWM_Right_LED_Blue.c ****     /*******************************************************************************
 635:.\Generated_Source\PSoC4/PWM_Right_LED_Blue.c ****     * Function Name: PWM_Right_LED_Blue_ReadDeadTime
 636:.\Generated_Source\PSoC4/PWM_Right_LED_Blue.c ****     ********************************************************************************
 637:.\Generated_Source\PSoC4/PWM_Right_LED_Blue.c ****     *
 638:.\Generated_Source\PSoC4/PWM_Right_LED_Blue.c ****     * Summary:
 639:.\Generated_Source\PSoC4/PWM_Right_LED_Blue.c ****     *  This function reads the dead-band counts from the corresponding register
 640:.\Generated_Source\PSoC4/PWM_Right_LED_Blue.c ****     *
 641:.\Generated_Source\PSoC4/PWM_Right_LED_Blue.c ****     * Parameters:
 642:.\Generated_Source\PSoC4/PWM_Right_LED_Blue.c ****     *  None
 643:.\Generated_Source\PSoC4/PWM_Right_LED_Blue.c ****     *
 644:.\Generated_Source\PSoC4/PWM_Right_LED_Blue.c ****     * Return:
 645:.\Generated_Source\PSoC4/PWM_Right_LED_Blue.c ****     *  Dead Band Counts
 646:.\Generated_Source\PSoC4/PWM_Right_LED_Blue.c ****     *
 647:.\Generated_Source\PSoC4/PWM_Right_LED_Blue.c ****     *******************************************************************************/
 648:.\Generated_Source\PSoC4/PWM_Right_LED_Blue.c ****     uint8 PWM_Right_LED_Blue_ReadDeadTime(void) 
 649:.\Generated_Source\PSoC4/PWM_Right_LED_Blue.c ****     {
 650:.\Generated_Source\PSoC4/PWM_Right_LED_Blue.c ****         /* If using the Dead Band 1-255 mode then just read the register */
 651:.\Generated_Source\PSoC4/PWM_Right_LED_Blue.c ****         #if(!PWM_Right_LED_Blue_DeadBand2_4)
ARM GAS  C:\Users\Admin\AppData\Local\Temp\ccXr27ZC.s 			page 15


 652:.\Generated_Source\PSoC4/PWM_Right_LED_Blue.c ****             return (CY_GET_REG8(PWM_Right_LED_Blue_DEADBAND_COUNT_PTR));
 653:.\Generated_Source\PSoC4/PWM_Right_LED_Blue.c ****         #else
 654:.\Generated_Source\PSoC4/PWM_Right_LED_Blue.c **** 
 655:.\Generated_Source\PSoC4/PWM_Right_LED_Blue.c ****             /* Otherwise the data has to be masked and offset */
 656:.\Generated_Source\PSoC4/PWM_Right_LED_Blue.c ****             #if(PWM_Right_LED_Blue_DEADBAND_COUNT_SHIFT)
 657:.\Generated_Source\PSoC4/PWM_Right_LED_Blue.c ****                 return ((uint8)(((uint8)(PWM_Right_LED_Blue_DEADBAND_COUNT & PWM_Right_LED_Blue_DEA
 658:.\Generated_Source\PSoC4/PWM_Right_LED_Blue.c ****                                                                            PWM_Right_LED_Blue_DEADB
 659:.\Generated_Source\PSoC4/PWM_Right_LED_Blue.c ****             #else
 660:.\Generated_Source\PSoC4/PWM_Right_LED_Blue.c ****                 return (PWM_Right_LED_Blue_DEADBAND_COUNT & PWM_Right_LED_Blue_DEADBAND_COUNT_MASK)
 661:.\Generated_Source\PSoC4/PWM_Right_LED_Blue.c ****             #endif /* (PWM_Right_LED_Blue_DEADBAND_COUNT_SHIFT) */
 662:.\Generated_Source\PSoC4/PWM_Right_LED_Blue.c ****         #endif /* (!PWM_Right_LED_Blue_DeadBand2_4) */
 663:.\Generated_Source\PSoC4/PWM_Right_LED_Blue.c ****     }
 664:.\Generated_Source\PSoC4/PWM_Right_LED_Blue.c **** #endif /* DeadBandUsed */
 665:.\Generated_Source\PSoC4/PWM_Right_LED_Blue.c **** 
 666:.\Generated_Source\PSoC4/PWM_Right_LED_Blue.c **** #if (PWM_Right_LED_Blue_UseStatus || PWM_Right_LED_Blue_UsingFixedFunction)
 667:.\Generated_Source\PSoC4/PWM_Right_LED_Blue.c **** 
 668:.\Generated_Source\PSoC4/PWM_Right_LED_Blue.c **** 
 669:.\Generated_Source\PSoC4/PWM_Right_LED_Blue.c ****     /*******************************************************************************
 670:.\Generated_Source\PSoC4/PWM_Right_LED_Blue.c ****     * Function Name: PWM_Right_LED_Blue_SetInterruptMode
 671:.\Generated_Source\PSoC4/PWM_Right_LED_Blue.c ****     ********************************************************************************
 672:.\Generated_Source\PSoC4/PWM_Right_LED_Blue.c ****     *
 673:.\Generated_Source\PSoC4/PWM_Right_LED_Blue.c ****     * Summary:
 674:.\Generated_Source\PSoC4/PWM_Right_LED_Blue.c ****     *  This function configures the interrupts mask control of theinterrupt
 675:.\Generated_Source\PSoC4/PWM_Right_LED_Blue.c ****     *  source status register.
 676:.\Generated_Source\PSoC4/PWM_Right_LED_Blue.c ****     *
 677:.\Generated_Source\PSoC4/PWM_Right_LED_Blue.c ****     * Parameters:
 678:.\Generated_Source\PSoC4/PWM_Right_LED_Blue.c ****     *  uint8 interruptMode: Bit field containing the interrupt sources enabled
 679:.\Generated_Source\PSoC4/PWM_Right_LED_Blue.c ****     *
 680:.\Generated_Source\PSoC4/PWM_Right_LED_Blue.c ****     * Return:
 681:.\Generated_Source\PSoC4/PWM_Right_LED_Blue.c ****     *  None
 682:.\Generated_Source\PSoC4/PWM_Right_LED_Blue.c ****     *
 683:.\Generated_Source\PSoC4/PWM_Right_LED_Blue.c ****     *******************************************************************************/
 684:.\Generated_Source\PSoC4/PWM_Right_LED_Blue.c ****     void PWM_Right_LED_Blue_SetInterruptMode(uint8 interruptMode) 
 685:.\Generated_Source\PSoC4/PWM_Right_LED_Blue.c ****     {
 686:.\Generated_Source\PSoC4/PWM_Right_LED_Blue.c ****         CY_SET_REG8(PWM_Right_LED_Blue_STATUS_MASK_PTR, interruptMode);
 687:.\Generated_Source\PSoC4/PWM_Right_LED_Blue.c ****     }
 688:.\Generated_Source\PSoC4/PWM_Right_LED_Blue.c **** 
 689:.\Generated_Source\PSoC4/PWM_Right_LED_Blue.c **** 
 690:.\Generated_Source\PSoC4/PWM_Right_LED_Blue.c ****     /*******************************************************************************
 691:.\Generated_Source\PSoC4/PWM_Right_LED_Blue.c ****     * Function Name: PWM_Right_LED_Blue_ReadStatusRegister
 692:.\Generated_Source\PSoC4/PWM_Right_LED_Blue.c ****     ********************************************************************************
 693:.\Generated_Source\PSoC4/PWM_Right_LED_Blue.c ****     *
 694:.\Generated_Source\PSoC4/PWM_Right_LED_Blue.c ****     * Summary:
 695:.\Generated_Source\PSoC4/PWM_Right_LED_Blue.c ****     *  This function returns the current state of the status register.
 696:.\Generated_Source\PSoC4/PWM_Right_LED_Blue.c ****     *
 697:.\Generated_Source\PSoC4/PWM_Right_LED_Blue.c ****     * Parameters:
 698:.\Generated_Source\PSoC4/PWM_Right_LED_Blue.c ****     *  None
 699:.\Generated_Source\PSoC4/PWM_Right_LED_Blue.c ****     *
 700:.\Generated_Source\PSoC4/PWM_Right_LED_Blue.c ****     * Return:
 701:.\Generated_Source\PSoC4/PWM_Right_LED_Blue.c ****     *  uint8 : Current status register value. The status register bits are:
 702:.\Generated_Source\PSoC4/PWM_Right_LED_Blue.c ****     *  [7:6] : Unused(0)
 703:.\Generated_Source\PSoC4/PWM_Right_LED_Blue.c ****     *  [5]   : Kill event output
 704:.\Generated_Source\PSoC4/PWM_Right_LED_Blue.c ****     *  [4]   : FIFO not empty
 705:.\Generated_Source\PSoC4/PWM_Right_LED_Blue.c ****     *  [3]   : FIFO full
 706:.\Generated_Source\PSoC4/PWM_Right_LED_Blue.c ****     *  [2]   : Terminal count
 707:.\Generated_Source\PSoC4/PWM_Right_LED_Blue.c ****     *  [1]   : Compare output 2
 708:.\Generated_Source\PSoC4/PWM_Right_LED_Blue.c ****     *  [0]   : Compare output 1
ARM GAS  C:\Users\Admin\AppData\Local\Temp\ccXr27ZC.s 			page 16


 709:.\Generated_Source\PSoC4/PWM_Right_LED_Blue.c ****     *
 710:.\Generated_Source\PSoC4/PWM_Right_LED_Blue.c ****     *******************************************************************************/
 711:.\Generated_Source\PSoC4/PWM_Right_LED_Blue.c ****     uint8 PWM_Right_LED_Blue_ReadStatusRegister(void) 
 712:.\Generated_Source\PSoC4/PWM_Right_LED_Blue.c ****     {
 713:.\Generated_Source\PSoC4/PWM_Right_LED_Blue.c ****         return (CY_GET_REG8(PWM_Right_LED_Blue_STATUS_PTR));
 143              		.loc 1 713 0 discriminator 1
 144 0000 034B     		ldr	r3, .L18
 145 0002 1B78     		ldrb	r3, [r3]
 146              	.LBE15:
 147              	.LBE14:
 455:.\Generated_Source\PSoC4/PWM_Right_LED_Blue.c ****             while(0u != (PWM_Right_LED_Blue_ReadStatusRegister() & PWM_Right_LED_Blue_STATUS_FIFONE
 148              		.loc 1 455 0 discriminator 1
 149 0004 DA06     		lsl	r2, r3, #27
 150 0006 02D5     		bpl	.L17
 151              	.LBB16:
 152              	.LBB17:
 714:.\Generated_Source\PSoC4/PWM_Right_LED_Blue.c ****     }
 715:.\Generated_Source\PSoC4/PWM_Right_LED_Blue.c **** 
 716:.\Generated_Source\PSoC4/PWM_Right_LED_Blue.c **** #endif /* (PWM_Right_LED_Blue_UseStatus || PWM_Right_LED_Blue_UsingFixedFunction) */
 717:.\Generated_Source\PSoC4/PWM_Right_LED_Blue.c **** 
 718:.\Generated_Source\PSoC4/PWM_Right_LED_Blue.c **** 
 719:.\Generated_Source\PSoC4/PWM_Right_LED_Blue.c **** #if (PWM_Right_LED_Blue_UseControl)
 720:.\Generated_Source\PSoC4/PWM_Right_LED_Blue.c **** 
 721:.\Generated_Source\PSoC4/PWM_Right_LED_Blue.c **** 
 722:.\Generated_Source\PSoC4/PWM_Right_LED_Blue.c ****     /*******************************************************************************
 723:.\Generated_Source\PSoC4/PWM_Right_LED_Blue.c ****     * Function Name: PWM_Right_LED_Blue_ReadControlRegister
 724:.\Generated_Source\PSoC4/PWM_Right_LED_Blue.c ****     ********************************************************************************
 725:.\Generated_Source\PSoC4/PWM_Right_LED_Blue.c ****     *
 726:.\Generated_Source\PSoC4/PWM_Right_LED_Blue.c ****     * Summary:
 727:.\Generated_Source\PSoC4/PWM_Right_LED_Blue.c ****     *  Returns the current state of the control register. This API is available
 728:.\Generated_Source\PSoC4/PWM_Right_LED_Blue.c ****     *  only if the control register is not removed.
 729:.\Generated_Source\PSoC4/PWM_Right_LED_Blue.c ****     *
 730:.\Generated_Source\PSoC4/PWM_Right_LED_Blue.c ****     * Parameters:
 731:.\Generated_Source\PSoC4/PWM_Right_LED_Blue.c ****     *  None
 732:.\Generated_Source\PSoC4/PWM_Right_LED_Blue.c ****     *
 733:.\Generated_Source\PSoC4/PWM_Right_LED_Blue.c ****     * Return:
 734:.\Generated_Source\PSoC4/PWM_Right_LED_Blue.c ****     *  uint8 : Current control register value
 735:.\Generated_Source\PSoC4/PWM_Right_LED_Blue.c ****     *
 736:.\Generated_Source\PSoC4/PWM_Right_LED_Blue.c ****     *******************************************************************************/
 737:.\Generated_Source\PSoC4/PWM_Right_LED_Blue.c ****     uint8 PWM_Right_LED_Blue_ReadControlRegister(void) 
 738:.\Generated_Source\PSoC4/PWM_Right_LED_Blue.c ****     {
 739:.\Generated_Source\PSoC4/PWM_Right_LED_Blue.c ****         uint8 result;
 740:.\Generated_Source\PSoC4/PWM_Right_LED_Blue.c **** 
 741:.\Generated_Source\PSoC4/PWM_Right_LED_Blue.c ****         result = CY_GET_REG8(PWM_Right_LED_Blue_CONTROL_PTR);
 742:.\Generated_Source\PSoC4/PWM_Right_LED_Blue.c ****         return (result);
 743:.\Generated_Source\PSoC4/PWM_Right_LED_Blue.c ****     }
 744:.\Generated_Source\PSoC4/PWM_Right_LED_Blue.c **** 
 745:.\Generated_Source\PSoC4/PWM_Right_LED_Blue.c **** 
 746:.\Generated_Source\PSoC4/PWM_Right_LED_Blue.c ****     /*******************************************************************************
 747:.\Generated_Source\PSoC4/PWM_Right_LED_Blue.c ****     * Function Name: PWM_Right_LED_Blue_WriteControlRegister
 748:.\Generated_Source\PSoC4/PWM_Right_LED_Blue.c ****     ********************************************************************************
 749:.\Generated_Source\PSoC4/PWM_Right_LED_Blue.c ****     *
 750:.\Generated_Source\PSoC4/PWM_Right_LED_Blue.c ****     * Summary:
 751:.\Generated_Source\PSoC4/PWM_Right_LED_Blue.c ****     *  Sets the bit field of the control register. This API is available only if
 752:.\Generated_Source\PSoC4/PWM_Right_LED_Blue.c ****     *  the control register is not removed.
 753:.\Generated_Source\PSoC4/PWM_Right_LED_Blue.c ****     *
 754:.\Generated_Source\PSoC4/PWM_Right_LED_Blue.c ****     * Parameters:
ARM GAS  C:\Users\Admin\AppData\Local\Temp\ccXr27ZC.s 			page 17


 755:.\Generated_Source\PSoC4/PWM_Right_LED_Blue.c ****     *  uint8 control: Control register bit field, The status register bits are:
 756:.\Generated_Source\PSoC4/PWM_Right_LED_Blue.c ****     *  [7]   : PWM Enable
 757:.\Generated_Source\PSoC4/PWM_Right_LED_Blue.c ****     *  [6]   : Reset
 758:.\Generated_Source\PSoC4/PWM_Right_LED_Blue.c ****     *  [5:3] : Compare Mode2
 759:.\Generated_Source\PSoC4/PWM_Right_LED_Blue.c ****     *  [2:0] : Compare Mode2
 760:.\Generated_Source\PSoC4/PWM_Right_LED_Blue.c ****     *
 761:.\Generated_Source\PSoC4/PWM_Right_LED_Blue.c ****     * Return:
 762:.\Generated_Source\PSoC4/PWM_Right_LED_Blue.c ****     *  None
 763:.\Generated_Source\PSoC4/PWM_Right_LED_Blue.c ****     *
 764:.\Generated_Source\PSoC4/PWM_Right_LED_Blue.c ****     *******************************************************************************/
 765:.\Generated_Source\PSoC4/PWM_Right_LED_Blue.c ****     void PWM_Right_LED_Blue_WriteControlRegister(uint8 control) 
 766:.\Generated_Source\PSoC4/PWM_Right_LED_Blue.c ****     {
 767:.\Generated_Source\PSoC4/PWM_Right_LED_Blue.c ****         CY_SET_REG8(PWM_Right_LED_Blue_CONTROL_PTR, control);
 768:.\Generated_Source\PSoC4/PWM_Right_LED_Blue.c ****     }
 769:.\Generated_Source\PSoC4/PWM_Right_LED_Blue.c **** 
 770:.\Generated_Source\PSoC4/PWM_Right_LED_Blue.c **** #endif /* (PWM_Right_LED_Blue_UseControl) */
 771:.\Generated_Source\PSoC4/PWM_Right_LED_Blue.c **** 
 772:.\Generated_Source\PSoC4/PWM_Right_LED_Blue.c **** 
 773:.\Generated_Source\PSoC4/PWM_Right_LED_Blue.c **** #if (!PWM_Right_LED_Blue_UsingFixedFunction)
 774:.\Generated_Source\PSoC4/PWM_Right_LED_Blue.c **** 
 775:.\Generated_Source\PSoC4/PWM_Right_LED_Blue.c **** 
 776:.\Generated_Source\PSoC4/PWM_Right_LED_Blue.c ****     /*******************************************************************************
 777:.\Generated_Source\PSoC4/PWM_Right_LED_Blue.c ****     * Function Name: PWM_Right_LED_Blue_ReadCapture
 778:.\Generated_Source\PSoC4/PWM_Right_LED_Blue.c ****     ********************************************************************************
 779:.\Generated_Source\PSoC4/PWM_Right_LED_Blue.c ****     *
 780:.\Generated_Source\PSoC4/PWM_Right_LED_Blue.c ****     * Summary:
 781:.\Generated_Source\PSoC4/PWM_Right_LED_Blue.c ****     *  Reads the capture value from the capture FIFO.
 782:.\Generated_Source\PSoC4/PWM_Right_LED_Blue.c ****     *
 783:.\Generated_Source\PSoC4/PWM_Right_LED_Blue.c ****     * Parameters:
 784:.\Generated_Source\PSoC4/PWM_Right_LED_Blue.c ****     *  None
 785:.\Generated_Source\PSoC4/PWM_Right_LED_Blue.c ****     *
 786:.\Generated_Source\PSoC4/PWM_Right_LED_Blue.c ****     * Return:
 787:.\Generated_Source\PSoC4/PWM_Right_LED_Blue.c ****     *  uint8/uint16: The current capture value
 788:.\Generated_Source\PSoC4/PWM_Right_LED_Blue.c ****     *
 789:.\Generated_Source\PSoC4/PWM_Right_LED_Blue.c ****     *******************************************************************************/
 790:.\Generated_Source\PSoC4/PWM_Right_LED_Blue.c ****     uint8 PWM_Right_LED_Blue_ReadCapture(void) 
 791:.\Generated_Source\PSoC4/PWM_Right_LED_Blue.c ****     {
 792:.\Generated_Source\PSoC4/PWM_Right_LED_Blue.c ****         return (CY_GET_REG8(PWM_Right_LED_Blue_CAPTURE_LSB_PTR));
 153              		.loc 1 792 0
 154 0008 024B     		ldr	r3, .L18+4
 155 000a 1B78     		ldrb	r3, [r3]
 156 000c F8E7     		b	.L14
 157              	.L17:
 158              	.LBE17:
 159              	.LBE16:
 459:.\Generated_Source\PSoC4/PWM_Right_LED_Blue.c ****         }
 160              		.loc 1 459 0
 161              		@ sp needed
 162 000e 7047     		bx	lr
 163              	.L19:
 164              		.align	2
 165              	.L18:
 166 0010 62000F40 		.word	1074724962
 167 0014 52000F40 		.word	1074724946
 168              		.cfi_endproc
 169              	.LFE6:
 170              		.size	PWM_Right_LED_Blue_ClearFIFO, .-PWM_Right_LED_Blue_ClearFIFO
ARM GAS  C:\Users\Admin\AppData\Local\Temp\ccXr27ZC.s 			page 18


 171              		.section	.text.PWM_Right_LED_Blue_Init,"ax",%progbits
 172              		.align	1
 173              		.global	PWM_Right_LED_Blue_Init
 174              		.code	16
 175              		.thumb_func
 176              		.type	PWM_Right_LED_Blue_Init, %function
 177              	PWM_Right_LED_Blue_Init:
 178              	.LFB1:
  85:.\Generated_Source\PSoC4/PWM_Right_LED_Blue.c **** {
 179              		.loc 1 85 0
 180              		.cfi_startproc
 181 0000 10B5     		push	{r4, lr}
 182              		.cfi_def_cfa_offset 8
 183              		.cfi_offset 4, -8
 184              		.cfi_offset 14, -4
 117:.\Generated_Source\PSoC4/PWM_Right_LED_Blue.c ****         ctrl = PWM_Right_LED_Blue_CONTROL & ((uint8)(~PWM_Right_LED_Blue_CTRL_CMPMODE2_MASK)) &
 185              		.loc 1 117 0
 186 0002 114B     		ldr	r3, .L21
 187 0004 3F21     		mov	r1, #63
 188 0006 1A78     		ldrb	r2, [r3]
 189              	.LVL1:
 126:.\Generated_Source\PSoC4/PWM_Right_LED_Blue.c ****             PWM_Right_LED_Blue_AUX_CONTROLDP0 |= (PWM_Right_LED_Blue_AUX_CTRL_FIFO0_CLR);
 190              		.loc 1 126 0
 191 0008 104C     		ldr	r4, .L21+4
 117:.\Generated_Source\PSoC4/PWM_Right_LED_Blue.c ****         ctrl = PWM_Right_LED_Blue_CONTROL & ((uint8)(~PWM_Right_LED_Blue_CTRL_CMPMODE2_MASK)) &
 192              		.loc 1 117 0
 193 000a 8A43     		bic	r2, r1
 194              	.LVL2:
 119:.\Generated_Source\PSoC4/PWM_Right_LED_Blue.c ****         PWM_Right_LED_Blue_CONTROL = ctrl | PWM_Right_LED_Blue_DEFAULT_COMPARE2_MODE |
 195              		.loc 1 119 0
 196 000c 0921     		mov	r1, #9
 197 000e 0A43     		orr	r2, r1
 198 0010 1A70     		strb	r2, [r3]
 126:.\Generated_Source\PSoC4/PWM_Right_LED_Blue.c ****             PWM_Right_LED_Blue_AUX_CONTROLDP0 |= (PWM_Right_LED_Blue_AUX_CTRL_FIFO0_CLR);
 199              		.loc 1 126 0
 200 0012 2378     		ldrb	r3, [r4]
 201 0014 0122     		mov	r2, #1
 202 0016 1343     		orr	r3, r2
 203              	.LBB18:
 204              	.LBB19:
 406:.\Generated_Source\PSoC4/PWM_Right_LED_Blue.c ****         CY_SET_REG8(PWM_Right_LED_Blue_COUNTER_LSB_PTR, counter);
 205              		.loc 1 406 0
 206 0018 0D4A     		ldr	r2, .L21+8
 207              	.LBE19:
 208              	.LBE18:
 126:.\Generated_Source\PSoC4/PWM_Right_LED_Blue.c ****             PWM_Right_LED_Blue_AUX_CONTROLDP0 |= (PWM_Right_LED_Blue_AUX_CTRL_FIFO0_CLR);
 209              		.loc 1 126 0
 210 001a 2370     		strb	r3, [r4]
 211              	.LVL3:
 212              	.LBB21:
 213              	.LBB20:
 406:.\Generated_Source\PSoC4/PWM_Right_LED_Blue.c ****         CY_SET_REG8(PWM_Right_LED_Blue_COUNTER_LSB_PTR, counter);
 214              		.loc 1 406 0
 215 001c 3C23     		mov	r3, #60
 216 001e 1370     		strb	r3, [r2]
 217              	.LVL4:
 218              	.LBE20:
ARM GAS  C:\Users\Admin\AppData\Local\Temp\ccXr27ZC.s 			page 19


 219              	.LBE21:
 220              	.LBB22:
 221              	.LBB23:
 487:.\Generated_Source\PSoC4/PWM_Right_LED_Blue.c ****         CY_SET_REG8(PWM_Right_LED_Blue_PERIOD_LSB_PTR, period);
 222              		.loc 1 487 0
 223 0020 0C4A     		ldr	r2, .L21+12
 224              	.LBE23:
 225              	.LBE22:
 179:.\Generated_Source\PSoC4/PWM_Right_LED_Blue.c **** }
 226              		.loc 1 179 0
 227              		@ sp needed
 228              	.LBB25:
 229              	.LBB24:
 487:.\Generated_Source\PSoC4/PWM_Right_LED_Blue.c ****         CY_SET_REG8(PWM_Right_LED_Blue_PERIOD_LSB_PTR, period);
 230              		.loc 1 487 0
 231 0022 1370     		strb	r3, [r2]
 232              	.LVL5:
 233              	.LBE24:
 234              	.LBE25:
 235              	.LBB26:
 236              	.LBB27:
 522:.\Generated_Source\PSoC4/PWM_Right_LED_Blue.c ****             CY_SET_REG8(PWM_Right_LED_Blue_COMPARE1_LSB_PTR, compare);
 237              		.loc 1 522 0
 238 0024 0C4B     		ldr	r3, .L21+16
 239 0026 1E22     		mov	r2, #30
 240 0028 1A70     		strb	r2, [r3]
 241              	.LVL6:
 242              	.LBE27:
 243              	.LBE26:
 244              	.LBB28:
 245              	.LBB29:
 686:.\Generated_Source\PSoC4/PWM_Right_LED_Blue.c ****         CY_SET_REG8(PWM_Right_LED_Blue_STATUS_MASK_PTR, interruptMode);
 246              		.loc 1 686 0
 247 002a 0C4B     		ldr	r3, .L21+20
 248 002c 0022     		mov	r2, #0
 249 002e 1A70     		strb	r2, [r3]
 250              	.LBE29:
 251              	.LBE28:
 167:.\Generated_Source\PSoC4/PWM_Right_LED_Blue.c ****             PWM_Right_LED_Blue_interruptState = CyEnterCriticalSection();
 252              		.loc 1 167 0
 253 0030 FFF7FEFF 		bl	CyEnterCriticalSection
 254              	.LVL7:
 169:.\Generated_Source\PSoC4/PWM_Right_LED_Blue.c ****             PWM_Right_LED_Blue_STATUS_AUX_CTRL |= PWM_Right_LED_Blue_STATUS_ACTL_INT_EN_MASK;
 255              		.loc 1 169 0
 256 0034 2378     		ldrb	r3, [r4]
 257 0036 1022     		mov	r2, #16
 258 0038 1343     		orr	r3, r2
 259 003a 2370     		strb	r3, [r4]
 172:.\Generated_Source\PSoC4/PWM_Right_LED_Blue.c ****             CyExitCriticalSection(PWM_Right_LED_Blue_interruptState);
 260              		.loc 1 172 0
 261 003c FFF7FEFF 		bl	CyExitCriticalSection
 262              	.LVL8:
 176:.\Generated_Source\PSoC4/PWM_Right_LED_Blue.c ****             PWM_Right_LED_Blue_ClearFIFO();
 263              		.loc 1 176 0
 264 0040 FFF7FEFF 		bl	PWM_Right_LED_Blue_ClearFIFO
 265              	.LVL9:
 179:.\Generated_Source\PSoC4/PWM_Right_LED_Blue.c **** }
ARM GAS  C:\Users\Admin\AppData\Local\Temp\ccXr27ZC.s 			page 20


 266              		.loc 1 179 0
 267 0044 10BD     		pop	{r4, pc}
 268              	.L22:
 269 0046 C046     		.align	2
 270              	.L21:
 271 0048 72000F40 		.word	1074724978
 272 004c 92000F40 		.word	1074725010
 273 0050 02000F40 		.word	1074724866
 274 0054 42000F40 		.word	1074724930
 275 0058 22000F40 		.word	1074724898
 276 005c 82000F40 		.word	1074724994
 277              		.cfi_endproc
 278              	.LFE1:
 279              		.size	PWM_Right_LED_Blue_Init, .-PWM_Right_LED_Blue_Init
 280              		.section	.text.PWM_Right_LED_Blue_Start,"ax",%progbits
 281              		.align	1
 282              		.global	PWM_Right_LED_Blue_Start
 283              		.code	16
 284              		.thumb_func
 285              		.type	PWM_Right_LED_Blue_Start, %function
 286              	PWM_Right_LED_Blue_Start:
 287              	.LFB0:
  56:.\Generated_Source\PSoC4/PWM_Right_LED_Blue.c **** {
 288              		.loc 1 56 0
 289              		.cfi_startproc
 290 0000 10B5     		push	{r4, lr}
 291              		.cfi_def_cfa_offset 8
 292              		.cfi_offset 4, -8
 293              		.cfi_offset 14, -4
  58:.\Generated_Source\PSoC4/PWM_Right_LED_Blue.c ****     if(PWM_Right_LED_Blue_initVar == 0u)
 294              		.loc 1 58 0
 295 0002 054C     		ldr	r4, .L25
 296 0004 2378     		ldrb	r3, [r4]
 297 0006 002B     		cmp	r3, #0
 298 0008 03D1     		bne	.L24
  60:.\Generated_Source\PSoC4/PWM_Right_LED_Blue.c ****         PWM_Right_LED_Blue_Init();
 299              		.loc 1 60 0
 300 000a FFF7FEFF 		bl	PWM_Right_LED_Blue_Init
 301              	.LVL10:
  61:.\Generated_Source\PSoC4/PWM_Right_LED_Blue.c ****         PWM_Right_LED_Blue_initVar = 1u;
 302              		.loc 1 61 0
 303 000e 0123     		mov	r3, #1
 304 0010 2370     		strb	r3, [r4]
 305              	.L24:
  63:.\Generated_Source\PSoC4/PWM_Right_LED_Blue.c ****     PWM_Right_LED_Blue_Enable();
 306              		.loc 1 63 0
 307 0012 FFF7FEFF 		bl	PWM_Right_LED_Blue_Enable
 308              	.LVL11:
  65:.\Generated_Source\PSoC4/PWM_Right_LED_Blue.c **** }
 309              		.loc 1 65 0
 310              		@ sp needed
 311 0016 10BD     		pop	{r4, pc}
 312              	.L26:
 313              		.align	2
 314              	.L25:
 315 0018 00000000 		.word	.LANCHOR0
 316              		.cfi_endproc
ARM GAS  C:\Users\Admin\AppData\Local\Temp\ccXr27ZC.s 			page 21


 317              	.LFE0:
 318              		.size	PWM_Right_LED_Blue_Start, .-PWM_Right_LED_Blue_Start
 319              		.section	.text.PWM_Right_LED_Blue_WritePeriod,"ax",%progbits
 320              		.align	1
 321              		.global	PWM_Right_LED_Blue_WritePeriod
 322              		.code	16
 323              		.thumb_func
 324              		.type	PWM_Right_LED_Blue_WritePeriod, %function
 325              	PWM_Right_LED_Blue_WritePeriod:
 326              	.LFB7:
 483:.\Generated_Source\PSoC4/PWM_Right_LED_Blue.c **** {
 327              		.loc 1 483 0
 328              		.cfi_startproc
 329              	.LVL12:
 487:.\Generated_Source\PSoC4/PWM_Right_LED_Blue.c ****         CY_SET_REG8(PWM_Right_LED_Blue_PERIOD_LSB_PTR, period);
 330              		.loc 1 487 0
 331 0000 014B     		ldr	r3, .L28
 489:.\Generated_Source\PSoC4/PWM_Right_LED_Blue.c **** }
 332              		.loc 1 489 0
 333              		@ sp needed
 487:.\Generated_Source\PSoC4/PWM_Right_LED_Blue.c ****         CY_SET_REG8(PWM_Right_LED_Blue_PERIOD_LSB_PTR, period);
 334              		.loc 1 487 0
 335 0002 1870     		strb	r0, [r3]
 489:.\Generated_Source\PSoC4/PWM_Right_LED_Blue.c **** }
 336              		.loc 1 489 0
 337 0004 7047     		bx	lr
 338              	.L29:
 339 0006 C046     		.align	2
 340              	.L28:
 341 0008 42000F40 		.word	1074724930
 342              		.cfi_endproc
 343              	.LFE7:
 344              		.size	PWM_Right_LED_Blue_WritePeriod, .-PWM_Right_LED_Blue_WritePeriod
 345              		.section	.text.PWM_Right_LED_Blue_WriteCompare,"ax",%progbits
 346              		.align	1
 347              		.global	PWM_Right_LED_Blue_WriteCompare
 348              		.code	16
 349              		.thumb_func
 350              		.type	PWM_Right_LED_Blue_WriteCompare, %function
 351              	PWM_Right_LED_Blue_WriteCompare:
 352              	.LFB8:
 518:.\Generated_Source\PSoC4/PWM_Right_LED_Blue.c ****     {
 353              		.loc 1 518 0
 354              		.cfi_startproc
 355              	.LVL13:
 522:.\Generated_Source\PSoC4/PWM_Right_LED_Blue.c ****             CY_SET_REG8(PWM_Right_LED_Blue_COMPARE1_LSB_PTR, compare);
 356              		.loc 1 522 0
 357 0000 014B     		ldr	r3, .L31
 532:.\Generated_Source\PSoC4/PWM_Right_LED_Blue.c ****     }
 358              		.loc 1 532 0
 359              		@ sp needed
 522:.\Generated_Source\PSoC4/PWM_Right_LED_Blue.c ****             CY_SET_REG8(PWM_Right_LED_Blue_COMPARE1_LSB_PTR, compare);
 360              		.loc 1 522 0
 361 0002 1870     		strb	r0, [r3]
 532:.\Generated_Source\PSoC4/PWM_Right_LED_Blue.c ****     }
 362              		.loc 1 532 0
 363 0004 7047     		bx	lr
ARM GAS  C:\Users\Admin\AppData\Local\Temp\ccXr27ZC.s 			page 22


 364              	.L32:
 365 0006 C046     		.align	2
 366              	.L31:
 367 0008 22000F40 		.word	1074724898
 368              		.cfi_endproc
 369              	.LFE8:
 370              		.size	PWM_Right_LED_Blue_WriteCompare, .-PWM_Right_LED_Blue_WriteCompare
 371              		.section	.text.PWM_Right_LED_Blue_SetInterruptMode,"ax",%progbits
 372              		.align	1
 373              		.global	PWM_Right_LED_Blue_SetInterruptMode
 374              		.code	16
 375              		.thumb_func
 376              		.type	PWM_Right_LED_Blue_SetInterruptMode, %function
 377              	PWM_Right_LED_Blue_SetInterruptMode:
 378              	.LFB9:
 685:.\Generated_Source\PSoC4/PWM_Right_LED_Blue.c ****     {
 379              		.loc 1 685 0
 380              		.cfi_startproc
 381              	.LVL14:
 686:.\Generated_Source\PSoC4/PWM_Right_LED_Blue.c ****         CY_SET_REG8(PWM_Right_LED_Blue_STATUS_MASK_PTR, interruptMode);
 382              		.loc 1 686 0
 383 0000 014B     		ldr	r3, .L34
 687:.\Generated_Source\PSoC4/PWM_Right_LED_Blue.c ****     }
 384              		.loc 1 687 0
 385              		@ sp needed
 686:.\Generated_Source\PSoC4/PWM_Right_LED_Blue.c ****         CY_SET_REG8(PWM_Right_LED_Blue_STATUS_MASK_PTR, interruptMode);
 386              		.loc 1 686 0
 387 0002 1870     		strb	r0, [r3]
 687:.\Generated_Source\PSoC4/PWM_Right_LED_Blue.c ****     }
 388              		.loc 1 687 0
 389 0004 7047     		bx	lr
 390              	.L35:
 391 0006 C046     		.align	2
 392              	.L34:
 393 0008 82000F40 		.word	1074724994
 394              		.cfi_endproc
 395              	.LFE9:
 396              		.size	PWM_Right_LED_Blue_SetInterruptMode, .-PWM_Right_LED_Blue_SetInterruptMode
 397              		.section	.text.PWM_Right_LED_Blue_ReadStatusRegister,"ax",%progbits
 398              		.align	1
 399              		.global	PWM_Right_LED_Blue_ReadStatusRegister
 400              		.code	16
 401              		.thumb_func
 402              		.type	PWM_Right_LED_Blue_ReadStatusRegister, %function
 403              	PWM_Right_LED_Blue_ReadStatusRegister:
 404              	.LFB10:
 712:.\Generated_Source\PSoC4/PWM_Right_LED_Blue.c ****     {
 405              		.loc 1 712 0
 406              		.cfi_startproc
 713:.\Generated_Source\PSoC4/PWM_Right_LED_Blue.c ****         return (CY_GET_REG8(PWM_Right_LED_Blue_STATUS_PTR));
 407              		.loc 1 713 0
 408 0000 014B     		ldr	r3, .L37
 714:.\Generated_Source\PSoC4/PWM_Right_LED_Blue.c ****     }
 409              		.loc 1 714 0
 410              		@ sp needed
 713:.\Generated_Source\PSoC4/PWM_Right_LED_Blue.c ****         return (CY_GET_REG8(PWM_Right_LED_Blue_STATUS_PTR));
 411              		.loc 1 713 0
ARM GAS  C:\Users\Admin\AppData\Local\Temp\ccXr27ZC.s 			page 23


 412 0002 1878     		ldrb	r0, [r3]
 413 0004 C0B2     		uxtb	r0, r0
 714:.\Generated_Source\PSoC4/PWM_Right_LED_Blue.c ****     }
 414              		.loc 1 714 0
 415 0006 7047     		bx	lr
 416              	.L38:
 417              		.align	2
 418              	.L37:
 419 0008 62000F40 		.word	1074724962
 420              		.cfi_endproc
 421              	.LFE10:
 422              		.size	PWM_Right_LED_Blue_ReadStatusRegister, .-PWM_Right_LED_Blue_ReadStatusRegister
 423              		.section	.text.PWM_Right_LED_Blue_ReadControlRegister,"ax",%progbits
 424              		.align	1
 425              		.global	PWM_Right_LED_Blue_ReadControlRegister
 426              		.code	16
 427              		.thumb_func
 428              		.type	PWM_Right_LED_Blue_ReadControlRegister, %function
 429              	PWM_Right_LED_Blue_ReadControlRegister:
 430              	.LFB11:
 738:.\Generated_Source\PSoC4/PWM_Right_LED_Blue.c ****     {
 431              		.loc 1 738 0
 432              		.cfi_startproc
 741:.\Generated_Source\PSoC4/PWM_Right_LED_Blue.c ****         result = CY_GET_REG8(PWM_Right_LED_Blue_CONTROL_PTR);
 433              		.loc 1 741 0
 434 0000 014B     		ldr	r3, .L40
 743:.\Generated_Source\PSoC4/PWM_Right_LED_Blue.c ****     }
 435              		.loc 1 743 0
 436              		@ sp needed
 741:.\Generated_Source\PSoC4/PWM_Right_LED_Blue.c ****         result = CY_GET_REG8(PWM_Right_LED_Blue_CONTROL_PTR);
 437              		.loc 1 741 0
 438 0002 1878     		ldrb	r0, [r3]
 439 0004 C0B2     		uxtb	r0, r0
 440              	.LVL15:
 743:.\Generated_Source\PSoC4/PWM_Right_LED_Blue.c ****     }
 441              		.loc 1 743 0
 442 0006 7047     		bx	lr
 443              	.L41:
 444              		.align	2
 445              	.L40:
 446 0008 72000F40 		.word	1074724978
 447              		.cfi_endproc
 448              	.LFE11:
 449              		.size	PWM_Right_LED_Blue_ReadControlRegister, .-PWM_Right_LED_Blue_ReadControlRegister
 450              		.section	.text.PWM_Right_LED_Blue_WriteControlRegister,"ax",%progbits
 451              		.align	1
 452              		.global	PWM_Right_LED_Blue_WriteControlRegister
 453              		.code	16
 454              		.thumb_func
 455              		.type	PWM_Right_LED_Blue_WriteControlRegister, %function
 456              	PWM_Right_LED_Blue_WriteControlRegister:
 457              	.LFB12:
 766:.\Generated_Source\PSoC4/PWM_Right_LED_Blue.c ****     {
 458              		.loc 1 766 0
 459              		.cfi_startproc
 460              	.LVL16:
 767:.\Generated_Source\PSoC4/PWM_Right_LED_Blue.c ****         CY_SET_REG8(PWM_Right_LED_Blue_CONTROL_PTR, control);
ARM GAS  C:\Users\Admin\AppData\Local\Temp\ccXr27ZC.s 			page 24


 461              		.loc 1 767 0
 462 0000 014B     		ldr	r3, .L43
 768:.\Generated_Source\PSoC4/PWM_Right_LED_Blue.c ****     }
 463              		.loc 1 768 0
 464              		@ sp needed
 767:.\Generated_Source\PSoC4/PWM_Right_LED_Blue.c ****         CY_SET_REG8(PWM_Right_LED_Blue_CONTROL_PTR, control);
 465              		.loc 1 767 0
 466 0002 1870     		strb	r0, [r3]
 768:.\Generated_Source\PSoC4/PWM_Right_LED_Blue.c ****     }
 467              		.loc 1 768 0
 468 0004 7047     		bx	lr
 469              	.L44:
 470 0006 C046     		.align	2
 471              	.L43:
 472 0008 72000F40 		.word	1074724978
 473              		.cfi_endproc
 474              	.LFE12:
 475              		.size	PWM_Right_LED_Blue_WriteControlRegister, .-PWM_Right_LED_Blue_WriteControlRegister
 476              		.section	.text.PWM_Right_LED_Blue_ReadCapture,"ax",%progbits
 477              		.align	1
 478              		.global	PWM_Right_LED_Blue_ReadCapture
 479              		.code	16
 480              		.thumb_func
 481              		.type	PWM_Right_LED_Blue_ReadCapture, %function
 482              	PWM_Right_LED_Blue_ReadCapture:
 483              	.LFB13:
 791:.\Generated_Source\PSoC4/PWM_Right_LED_Blue.c ****     {
 484              		.loc 1 791 0
 485              		.cfi_startproc
 486              		.loc 1 792 0
 487 0000 014B     		ldr	r3, .L46
 793:.\Generated_Source\PSoC4/PWM_Right_LED_Blue.c ****     }
 488              		.loc 1 793 0
 489              		@ sp needed
 792:.\Generated_Source\PSoC4/PWM_Right_LED_Blue.c ****         return (CY_GET_REG8(PWM_Right_LED_Blue_CAPTURE_LSB_PTR));
 490              		.loc 1 792 0
 491 0002 1878     		ldrb	r0, [r3]
 492 0004 C0B2     		uxtb	r0, r0
 493              		.loc 1 793 0
 494 0006 7047     		bx	lr
 495              	.L47:
 496              		.align	2
 497              	.L46:
 498 0008 52000F40 		.word	1074724946
 499              		.cfi_endproc
 500              	.LFE13:
 501              		.size	PWM_Right_LED_Blue_ReadCapture, .-PWM_Right_LED_Blue_ReadCapture
 502              		.section	.text.PWM_Right_LED_Blue_ReadCompare,"ax",%progbits
 503              		.align	1
 504              		.global	PWM_Right_LED_Blue_ReadCompare
 505              		.code	16
 506              		.thumb_func
 507              		.type	PWM_Right_LED_Blue_ReadCompare, %function
 508              	PWM_Right_LED_Blue_ReadCompare:
 509              	.LFB14:
 794:.\Generated_Source\PSoC4/PWM_Right_LED_Blue.c **** 
 795:.\Generated_Source\PSoC4/PWM_Right_LED_Blue.c **** #endif /* (!PWM_Right_LED_Blue_UsingFixedFunction) */
ARM GAS  C:\Users\Admin\AppData\Local\Temp\ccXr27ZC.s 			page 25


 796:.\Generated_Source\PSoC4/PWM_Right_LED_Blue.c **** 
 797:.\Generated_Source\PSoC4/PWM_Right_LED_Blue.c **** 
 798:.\Generated_Source\PSoC4/PWM_Right_LED_Blue.c **** #if (PWM_Right_LED_Blue_UseOneCompareMode)
 799:.\Generated_Source\PSoC4/PWM_Right_LED_Blue.c **** 
 800:.\Generated_Source\PSoC4/PWM_Right_LED_Blue.c **** 
 801:.\Generated_Source\PSoC4/PWM_Right_LED_Blue.c ****     /*******************************************************************************
 802:.\Generated_Source\PSoC4/PWM_Right_LED_Blue.c ****     * Function Name: PWM_Right_LED_Blue_ReadCompare
 803:.\Generated_Source\PSoC4/PWM_Right_LED_Blue.c ****     ********************************************************************************
 804:.\Generated_Source\PSoC4/PWM_Right_LED_Blue.c ****     *
 805:.\Generated_Source\PSoC4/PWM_Right_LED_Blue.c ****     * Summary:
 806:.\Generated_Source\PSoC4/PWM_Right_LED_Blue.c ****     *  Reads the compare value for the compare output when the PWM Mode parameter is
 807:.\Generated_Source\PSoC4/PWM_Right_LED_Blue.c ****     *  set to Dither mode, Center Aligned mode, or One Output mode.
 808:.\Generated_Source\PSoC4/PWM_Right_LED_Blue.c ****     *
 809:.\Generated_Source\PSoC4/PWM_Right_LED_Blue.c ****     * Parameters:
 810:.\Generated_Source\PSoC4/PWM_Right_LED_Blue.c ****     *  None
 811:.\Generated_Source\PSoC4/PWM_Right_LED_Blue.c ****     *
 812:.\Generated_Source\PSoC4/PWM_Right_LED_Blue.c ****     * Return:
 813:.\Generated_Source\PSoC4/PWM_Right_LED_Blue.c ****     *  uint8/uint16: Current compare value
 814:.\Generated_Source\PSoC4/PWM_Right_LED_Blue.c ****     *
 815:.\Generated_Source\PSoC4/PWM_Right_LED_Blue.c ****     *******************************************************************************/
 816:.\Generated_Source\PSoC4/PWM_Right_LED_Blue.c ****     uint8 PWM_Right_LED_Blue_ReadCompare(void) 
 817:.\Generated_Source\PSoC4/PWM_Right_LED_Blue.c ****     {
 510              		.loc 1 817 0
 511              		.cfi_startproc
 818:.\Generated_Source\PSoC4/PWM_Right_LED_Blue.c ****         #if(PWM_Right_LED_Blue_UsingFixedFunction)
 819:.\Generated_Source\PSoC4/PWM_Right_LED_Blue.c ****             return ((uint8)CY_GET_REG16(PWM_Right_LED_Blue_COMPARE1_LSB_PTR));
 820:.\Generated_Source\PSoC4/PWM_Right_LED_Blue.c ****         #else
 821:.\Generated_Source\PSoC4/PWM_Right_LED_Blue.c ****             return (CY_GET_REG8(PWM_Right_LED_Blue_COMPARE1_LSB_PTR));
 512              		.loc 1 821 0
 513 0000 014B     		ldr	r3, .L49
 822:.\Generated_Source\PSoC4/PWM_Right_LED_Blue.c ****         #endif /* (PWM_Right_LED_Blue_UsingFixedFunction) */
 823:.\Generated_Source\PSoC4/PWM_Right_LED_Blue.c ****     }
 514              		.loc 1 823 0
 515              		@ sp needed
 821:.\Generated_Source\PSoC4/PWM_Right_LED_Blue.c ****             return (CY_GET_REG8(PWM_Right_LED_Blue_COMPARE1_LSB_PTR));
 516              		.loc 1 821 0
 517 0002 1878     		ldrb	r0, [r3]
 518 0004 C0B2     		uxtb	r0, r0
 519              		.loc 1 823 0
 520 0006 7047     		bx	lr
 521              	.L50:
 522              		.align	2
 523              	.L49:
 524 0008 22000F40 		.word	1074724898
 525              		.cfi_endproc
 526              	.LFE14:
 527              		.size	PWM_Right_LED_Blue_ReadCompare, .-PWM_Right_LED_Blue_ReadCompare
 528              		.section	.text.PWM_Right_LED_Blue_ReadPeriod,"ax",%progbits
 529              		.align	1
 530              		.global	PWM_Right_LED_Blue_ReadPeriod
 531              		.code	16
 532              		.thumb_func
 533              		.type	PWM_Right_LED_Blue_ReadPeriod, %function
 534              	PWM_Right_LED_Blue_ReadPeriod:
 535              	.LFB15:
 824:.\Generated_Source\PSoC4/PWM_Right_LED_Blue.c **** 
 825:.\Generated_Source\PSoC4/PWM_Right_LED_Blue.c **** #else
ARM GAS  C:\Users\Admin\AppData\Local\Temp\ccXr27ZC.s 			page 26


 826:.\Generated_Source\PSoC4/PWM_Right_LED_Blue.c **** 
 827:.\Generated_Source\PSoC4/PWM_Right_LED_Blue.c **** 
 828:.\Generated_Source\PSoC4/PWM_Right_LED_Blue.c ****     /*******************************************************************************
 829:.\Generated_Source\PSoC4/PWM_Right_LED_Blue.c ****     * Function Name: PWM_Right_LED_Blue_ReadCompare1
 830:.\Generated_Source\PSoC4/PWM_Right_LED_Blue.c ****     ********************************************************************************
 831:.\Generated_Source\PSoC4/PWM_Right_LED_Blue.c ****     *
 832:.\Generated_Source\PSoC4/PWM_Right_LED_Blue.c ****     * Summary:
 833:.\Generated_Source\PSoC4/PWM_Right_LED_Blue.c ****     *  Reads the compare value for the compare1 output.
 834:.\Generated_Source\PSoC4/PWM_Right_LED_Blue.c ****     *
 835:.\Generated_Source\PSoC4/PWM_Right_LED_Blue.c ****     * Parameters:
 836:.\Generated_Source\PSoC4/PWM_Right_LED_Blue.c ****     *  None
 837:.\Generated_Source\PSoC4/PWM_Right_LED_Blue.c ****     *
 838:.\Generated_Source\PSoC4/PWM_Right_LED_Blue.c ****     * Return:
 839:.\Generated_Source\PSoC4/PWM_Right_LED_Blue.c ****     *  uint8/uint16: Current compare value.
 840:.\Generated_Source\PSoC4/PWM_Right_LED_Blue.c ****     *
 841:.\Generated_Source\PSoC4/PWM_Right_LED_Blue.c ****     *******************************************************************************/
 842:.\Generated_Source\PSoC4/PWM_Right_LED_Blue.c ****     uint8 PWM_Right_LED_Blue_ReadCompare1(void) 
 843:.\Generated_Source\PSoC4/PWM_Right_LED_Blue.c ****     {
 844:.\Generated_Source\PSoC4/PWM_Right_LED_Blue.c ****         return (CY_GET_REG8(PWM_Right_LED_Blue_COMPARE1_LSB_PTR));
 845:.\Generated_Source\PSoC4/PWM_Right_LED_Blue.c ****     }
 846:.\Generated_Source\PSoC4/PWM_Right_LED_Blue.c **** 
 847:.\Generated_Source\PSoC4/PWM_Right_LED_Blue.c **** 
 848:.\Generated_Source\PSoC4/PWM_Right_LED_Blue.c ****     /*******************************************************************************
 849:.\Generated_Source\PSoC4/PWM_Right_LED_Blue.c ****     * Function Name: PWM_Right_LED_Blue_ReadCompare2
 850:.\Generated_Source\PSoC4/PWM_Right_LED_Blue.c ****     ********************************************************************************
 851:.\Generated_Source\PSoC4/PWM_Right_LED_Blue.c ****     *
 852:.\Generated_Source\PSoC4/PWM_Right_LED_Blue.c ****     * Summary:
 853:.\Generated_Source\PSoC4/PWM_Right_LED_Blue.c ****     *  Reads the compare value for the compare2 output.
 854:.\Generated_Source\PSoC4/PWM_Right_LED_Blue.c ****     *
 855:.\Generated_Source\PSoC4/PWM_Right_LED_Blue.c ****     * Parameters:
 856:.\Generated_Source\PSoC4/PWM_Right_LED_Blue.c ****     *  None
 857:.\Generated_Source\PSoC4/PWM_Right_LED_Blue.c ****     *
 858:.\Generated_Source\PSoC4/PWM_Right_LED_Blue.c ****     * Return:
 859:.\Generated_Source\PSoC4/PWM_Right_LED_Blue.c ****     *  uint8/uint16: Current compare value.
 860:.\Generated_Source\PSoC4/PWM_Right_LED_Blue.c ****     *
 861:.\Generated_Source\PSoC4/PWM_Right_LED_Blue.c ****     *******************************************************************************/
 862:.\Generated_Source\PSoC4/PWM_Right_LED_Blue.c ****     uint8 PWM_Right_LED_Blue_ReadCompare2(void) 
 863:.\Generated_Source\PSoC4/PWM_Right_LED_Blue.c ****     {
 864:.\Generated_Source\PSoC4/PWM_Right_LED_Blue.c ****         return (CY_GET_REG8(PWM_Right_LED_Blue_COMPARE2_LSB_PTR));
 865:.\Generated_Source\PSoC4/PWM_Right_LED_Blue.c ****     }
 866:.\Generated_Source\PSoC4/PWM_Right_LED_Blue.c **** 
 867:.\Generated_Source\PSoC4/PWM_Right_LED_Blue.c **** #endif /* (PWM_Right_LED_Blue_UseOneCompareMode) */
 868:.\Generated_Source\PSoC4/PWM_Right_LED_Blue.c **** 
 869:.\Generated_Source\PSoC4/PWM_Right_LED_Blue.c **** 
 870:.\Generated_Source\PSoC4/PWM_Right_LED_Blue.c **** /*******************************************************************************
 871:.\Generated_Source\PSoC4/PWM_Right_LED_Blue.c **** * Function Name: PWM_Right_LED_Blue_ReadPeriod
 872:.\Generated_Source\PSoC4/PWM_Right_LED_Blue.c **** ********************************************************************************
 873:.\Generated_Source\PSoC4/PWM_Right_LED_Blue.c **** *
 874:.\Generated_Source\PSoC4/PWM_Right_LED_Blue.c **** * Summary:
 875:.\Generated_Source\PSoC4/PWM_Right_LED_Blue.c **** *  Reads the period value used by the PWM hardware.
 876:.\Generated_Source\PSoC4/PWM_Right_LED_Blue.c **** *
 877:.\Generated_Source\PSoC4/PWM_Right_LED_Blue.c **** * Parameters:
 878:.\Generated_Source\PSoC4/PWM_Right_LED_Blue.c **** *  None
 879:.\Generated_Source\PSoC4/PWM_Right_LED_Blue.c **** *
 880:.\Generated_Source\PSoC4/PWM_Right_LED_Blue.c **** * Return:
 881:.\Generated_Source\PSoC4/PWM_Right_LED_Blue.c **** *  uint8/16: Period value
 882:.\Generated_Source\PSoC4/PWM_Right_LED_Blue.c **** *
ARM GAS  C:\Users\Admin\AppData\Local\Temp\ccXr27ZC.s 			page 27


 883:.\Generated_Source\PSoC4/PWM_Right_LED_Blue.c **** *******************************************************************************/
 884:.\Generated_Source\PSoC4/PWM_Right_LED_Blue.c **** uint8 PWM_Right_LED_Blue_ReadPeriod(void) 
 885:.\Generated_Source\PSoC4/PWM_Right_LED_Blue.c **** {
 536              		.loc 1 885 0
 537              		.cfi_startproc
 886:.\Generated_Source\PSoC4/PWM_Right_LED_Blue.c ****     #if(PWM_Right_LED_Blue_UsingFixedFunction)
 887:.\Generated_Source\PSoC4/PWM_Right_LED_Blue.c ****         return ((uint8)CY_GET_REG16(PWM_Right_LED_Blue_PERIOD_LSB_PTR));
 888:.\Generated_Source\PSoC4/PWM_Right_LED_Blue.c ****     #else
 889:.\Generated_Source\PSoC4/PWM_Right_LED_Blue.c ****         return (CY_GET_REG8(PWM_Right_LED_Blue_PERIOD_LSB_PTR));
 538              		.loc 1 889 0
 539 0000 014B     		ldr	r3, .L52
 890:.\Generated_Source\PSoC4/PWM_Right_LED_Blue.c ****     #endif /* (PWM_Right_LED_Blue_UsingFixedFunction) */
 891:.\Generated_Source\PSoC4/PWM_Right_LED_Blue.c **** }
 540              		.loc 1 891 0
 541              		@ sp needed
 889:.\Generated_Source\PSoC4/PWM_Right_LED_Blue.c ****         return (CY_GET_REG8(PWM_Right_LED_Blue_PERIOD_LSB_PTR));
 542              		.loc 1 889 0
 543 0002 1878     		ldrb	r0, [r3]
 544 0004 C0B2     		uxtb	r0, r0
 545              		.loc 1 891 0
 546 0006 7047     		bx	lr
 547              	.L53:
 548              		.align	2
 549              	.L52:
 550 0008 42000F40 		.word	1074724930
 551              		.cfi_endproc
 552              	.LFE15:
 553              		.size	PWM_Right_LED_Blue_ReadPeriod, .-PWM_Right_LED_Blue_ReadPeriod
 554              		.global	PWM_Right_LED_Blue_initVar
 555              		.bss
 556              		.set	.LANCHOR0,. + 0
 557              		.type	PWM_Right_LED_Blue_initVar, %object
 558              		.size	PWM_Right_LED_Blue_initVar, 1
 559              	PWM_Right_LED_Blue_initVar:
 560 0000 00       		.space	1
 561              		.text
 562              	.Letext0:
 563              		.file 2 ".\\Generated_Source\\PSoC4\\cytypes.h"
 564              		.file 3 ".\\Generated_Source\\PSoC4\\CyLib.h"