ARM GAS  C:\Users\Admin\AppData\Local\Temp\ccLKGYsV.s 			page 1


   1              		.cpu cortex-m0
   2              		.fpu softvfp
   3              		.eabi_attribute 20, 1
   4              		.eabi_attribute 21, 1
   5              		.eabi_attribute 23, 3
   6              		.eabi_attribute 24, 1
   7              		.eabi_attribute 25, 1
   8              		.eabi_attribute 26, 1
   9              		.eabi_attribute 30, 4
  10              		.eabi_attribute 34, 0
  11              		.eabi_attribute 18, 4
  12              		.code	16
  13              		.file	"togglelib.c"
  14              		.text
  15              	.Ltext0:
  16              		.cfi_sections	.debug_frame
  17              		.global	__aeabi_idivmod
  18              		.section	.text.SWL_Handler,"ax",%progbits
  19              		.align	1
  20              		.global	SWL_Handler
  21              		.code	16
  22              		.thumb_func
  23              		.type	SWL_Handler, %function
  24              	SWL_Handler:
  25              	.LFB33:
  26              		.file 1 ".\\togglelib.c"
   1:.\togglelib.c **** /* ========================================
   2:.\togglelib.c ****  *
   3:.\togglelib.c ****  * Copyright Nullify, 2016
   4:.\togglelib.c ****  * All Rights Reserved
   5:.\togglelib.c ****  * UNPUBLISHED, LICENSED SOFTWARE.
   6:.\togglelib.c ****  *
   7:.\togglelib.c ****  * CONFIDENTIAL AND PROPRIETARY INFORMATION
   8:.\togglelib.c ****  * WHICH IS THE PROPERTY OF NULLIY.
   9:.\togglelib.c ****  *
  10:.\togglelib.c ****  * ========================================
  11:.\togglelib.c **** */
  12:.\togglelib.c **** #include <project.h>
  13:.\togglelib.c **** #include <stdio.h>
  14:.\togglelib.c **** #include <time.h>
  15:.\togglelib.c **** #include <stdlib.h>
  16:.\togglelib.c **** #include "lightlib.h"
  17:.\togglelib.c **** #include "togglelib.h"
  18:.\togglelib.c **** 
  19:.\togglelib.c **** 
  20:.\togglelib.c **** volatile uint8 ltp_count = 0;
  21:.\togglelib.c **** volatile uint8 rtp_count = 0;
  22:.\togglelib.c **** 
  23:.\togglelib.c **** /* Signal handler for left toggle press */
  24:.\togglelib.c **** CY_ISR( SWL_Handler ) {
  27              		.loc 1 24 0
  28              		.cfi_startproc
  29 0000 38B5     		push	{r3, r4, r5, lr}
  30              		.cfi_def_cfa_offset 16
  31              		.cfi_offset 3, -16
  32              		.cfi_offset 4, -12
  33              		.cfi_offset 5, -8
ARM GAS  C:\Users\Admin\AppData\Local\Temp\ccLKGYsV.s 			page 2


  34              		.cfi_offset 14, -4
  25:.\togglelib.c ****     uint8 new_color_left;
  26:.\togglelib.c ****     uint8 current_color_left; 
  27:.\togglelib.c ****     
  28:.\togglelib.c ****     ltp_count += 1;
  35              		.loc 1 28 0
  36 0002 104B     		ldr	r3, .L6
  37 0004 1A78     		ldrb	r2, [r3]
  38 0006 1C1C     		mov	r4, r3
  39 0008 0132     		add	r2, r2, #1
  40 000a D2B2     		uxtb	r2, r2
  41 000c 1A70     		strb	r2, [r3]
  29:.\togglelib.c ****     
  30:.\togglelib.c ****     if (ltp_count == LIGHT_CHANGE_NUM) {
  42              		.loc 1 30 0
  43 000e 1A78     		ldrb	r2, [r3]
  44 0010 0A2A     		cmp	r2, #10
  45 0012 11D1     		bne	.L2
  31:.\togglelib.c ****         current_color_left = get_color(LEFT_LED);
  46              		.loc 1 31 0
  47 0014 0120     		mov	r0, #1
  48 0016 FFF7FEFF 		bl	get_color
  49              	.LVL0:
  50 001a 051C     		mov	r5, r0
  51              	.LVL1:
  52              	.L4:
  32:.\togglelib.c ****         new_color_left = (rand() % 7) + 1;
  33:.\togglelib.c ****         
  34:.\togglelib.c ****         while (new_color_left == current_color_left){
  35:.\togglelib.c ****             new_color_left = (rand() % 7) + 1;
  53              		.loc 1 35 0
  54 001c FFF7FEFF 		bl	rand
  55              	.LVL2:
  56 0020 0721     		mov	r1, #7
  57 0022 FFF7FEFF 		bl	__aeabi_idivmod
  58              	.LVL3:
  59 0026 0131     		add	r1, r1, #1
  60 0028 C9B2     		uxtb	r1, r1
  61              	.LVL4:
  34:.\togglelib.c ****         while (new_color_left == current_color_left){
  62              		.loc 1 34 0
  63 002a A942     		cmp	r1, r5
  64 002c F6D0     		beq	.L4
  36:.\togglelib.c ****         }
  37:.\togglelib.c ****         set_color(LEFT_LED, new_color_left);
  65              		.loc 1 37 0
  66 002e 0120     		mov	r0, #1
  67 0030 FFF7FEFF 		bl	set_color
  68              	.LVL5:
  38:.\togglelib.c ****         ltp_count = 0;
  69              		.loc 1 38 0
  70 0034 0023     		mov	r3, #0
  71 0036 2370     		strb	r3, [r4]
  72              	.LVL6:
  73              	.L2:
  39:.\togglelib.c ****     }
  40:.\togglelib.c ****     
ARM GAS  C:\Users\Admin\AppData\Local\Temp\ccLKGYsV.s 			page 3


  41:.\togglelib.c ****     /* Clear interrupt */
  42:.\togglelib.c ****     CyDelay(TOGGLE_DELAY);
  74              		.loc 1 42 0
  75 0038 9620     		mov	r0, #150
  76 003a FFF7FEFF 		bl	CyDelay
  77              	.LVL7:
  43:.\togglelib.c ****     SWL_ClearInterrupt();
  44:.\togglelib.c **** }
  78              		.loc 1 44 0
  79              		@ sp needed
  43:.\togglelib.c ****     SWL_ClearInterrupt();
  80              		.loc 1 43 0
  81 003e FFF7FEFF 		bl	SWL_ClearInterrupt
  82              	.LVL8:
  83              		.loc 1 44 0
  84 0042 38BD     		pop	{r3, r4, r5, pc}
  85              	.L7:
  86              		.align	2
  87              	.L6:
  88 0044 00000000 		.word	.LANCHOR0
  89              		.cfi_endproc
  90              	.LFE33:
  91              		.size	SWL_Handler, .-SWL_Handler
  92              		.section	.text.SWR_Handler,"ax",%progbits
  93              		.align	1
  94              		.global	SWR_Handler
  95              		.code	16
  96              		.thumb_func
  97              		.type	SWR_Handler, %function
  98              	SWR_Handler:
  99              	.LFB34:
  45:.\togglelib.c **** 
  46:.\togglelib.c **** /* Signal handler for right toggle press */
  47:.\togglelib.c **** CY_ISR( SWR_Handler ) {  
 100              		.loc 1 47 0
 101              		.cfi_startproc
 102 0000 38B5     		push	{r3, r4, r5, lr}
 103              		.cfi_def_cfa_offset 16
 104              		.cfi_offset 3, -16
 105              		.cfi_offset 4, -12
 106              		.cfi_offset 5, -8
 107              		.cfi_offset 14, -4
  48:.\togglelib.c ****     uint8 new_color_right;
  49:.\togglelib.c ****     uint8 current_color_right; 
  50:.\togglelib.c ****     
  51:.\togglelib.c ****     rtp_count += 1;
 108              		.loc 1 51 0
 109 0002 104B     		ldr	r3, .L12
 110 0004 5A78     		ldrb	r2, [r3, #1]
 111 0006 1C1C     		mov	r4, r3
 112 0008 0132     		add	r2, r2, #1
 113 000a D2B2     		uxtb	r2, r2
 114 000c 5A70     		strb	r2, [r3, #1]
  52:.\togglelib.c ****     
  53:.\togglelib.c ****     if (rtp_count == LIGHT_CHANGE_NUM) {
 115              		.loc 1 53 0
 116 000e 5A78     		ldrb	r2, [r3, #1]
ARM GAS  C:\Users\Admin\AppData\Local\Temp\ccLKGYsV.s 			page 4


 117 0010 0A2A     		cmp	r2, #10
 118 0012 11D1     		bne	.L9
  54:.\togglelib.c ****         current_color_right = get_color(RIGHT_LED);
 119              		.loc 1 54 0
 120 0014 0220     		mov	r0, #2
 121 0016 FFF7FEFF 		bl	get_color
 122              	.LVL9:
 123 001a 051C     		mov	r5, r0
 124              	.LVL10:
 125              	.L11:
  55:.\togglelib.c ****         new_color_right = (rand() % 7) + 1;
  56:.\togglelib.c ****         
  57:.\togglelib.c ****         while (new_color_right == current_color_right){
  58:.\togglelib.c ****             new_color_right = (rand() % 7) + 1;
 126              		.loc 1 58 0
 127 001c FFF7FEFF 		bl	rand
 128              	.LVL11:
 129 0020 0721     		mov	r1, #7
 130 0022 FFF7FEFF 		bl	__aeabi_idivmod
 131              	.LVL12:
 132 0026 0131     		add	r1, r1, #1
 133 0028 C9B2     		uxtb	r1, r1
 134              	.LVL13:
  57:.\togglelib.c ****         while (new_color_right == current_color_right){
 135              		.loc 1 57 0
 136 002a A942     		cmp	r1, r5
 137 002c F6D0     		beq	.L11
  59:.\togglelib.c ****         }
  60:.\togglelib.c ****         set_color(RIGHT_LED, new_color_right);
 138              		.loc 1 60 0
 139 002e 0220     		mov	r0, #2
 140 0030 FFF7FEFF 		bl	set_color
 141              	.LVL14:
  61:.\togglelib.c ****         rtp_count = 0;
 142              		.loc 1 61 0
 143 0034 0023     		mov	r3, #0
 144 0036 6370     		strb	r3, [r4, #1]
 145              	.LVL15:
 146              	.L9:
  62:.\togglelib.c ****     }
  63:.\togglelib.c ****     
  64:.\togglelib.c ****     /* Clear interrupt */
  65:.\togglelib.c ****     CyDelay(TOGGLE_DELAY);
 147              		.loc 1 65 0
 148 0038 9620     		mov	r0, #150
 149 003a FFF7FEFF 		bl	CyDelay
 150              	.LVL16:
  66:.\togglelib.c ****     SWR_ClearInterrupt();
  67:.\togglelib.c **** }
 151              		.loc 1 67 0
 152              		@ sp needed
  66:.\togglelib.c ****     SWR_ClearInterrupt();
 153              		.loc 1 66 0
 154 003e FFF7FEFF 		bl	SWR_ClearInterrupt
 155              	.LVL17:
 156              		.loc 1 67 0
 157 0042 38BD     		pop	{r3, r4, r5, pc}
ARM GAS  C:\Users\Admin\AppData\Local\Temp\ccLKGYsV.s 			page 5


 158              	.L13:
 159              		.align	2
 160              	.L12:
 161 0044 00000000 		.word	.LANCHOR0
 162              		.cfi_endproc
 163              	.LFE34:
 164              		.size	SWR_Handler, .-SWR_Handler
 165              		.section	.text.SWB_Handler,"ax",%progbits
 166              		.align	1
 167              		.global	SWB_Handler
 168              		.code	16
 169              		.thumb_func
 170              		.type	SWB_Handler, %function
 171              	SWB_Handler:
 172              	.LFB35:
  68:.\togglelib.c **** 
  69:.\togglelib.c **** /* Signal handler for on board toggle press */
  70:.\togglelib.c **** CY_ISR( SWB_Handler ) {
 173              		.loc 1 70 0
 174              		.cfi_startproc
 175 0000 08B5     		push	{r3, lr}
 176              		.cfi_def_cfa_offset 8
 177              		.cfi_offset 3, -8
 178              		.cfi_offset 14, -4
  71:.\togglelib.c ****     /* Flip IR Status */
  72:.\togglelib.c ****     if (get_status(IR_LED) == OFF) {
 179              		.loc 1 72 0
 180 0002 0420     		mov	r0, #4
 181 0004 FFF7FEFF 		bl	get_status
 182              	.LVL18:
 183 0008 0028     		cmp	r0, #0
 184 000a 03D1     		bne	.L15
  73:.\togglelib.c ****         turn_on(IR_LED);
 185              		.loc 1 73 0
 186 000c 0420     		mov	r0, #4
 187 000e FFF7FEFF 		bl	turn_on
 188              	.LVL19:
 189 0012 02E0     		b	.L16
 190              	.L15:
  74:.\togglelib.c ****     } 
  75:.\togglelib.c ****     else {
  76:.\togglelib.c ****          turn_off(IR_LED);
 191              		.loc 1 76 0
 192 0014 0420     		mov	r0, #4
 193 0016 FFF7FEFF 		bl	turn_off
 194              	.LVL20:
 195              	.L16:
  77:.\togglelib.c ****     }
  78:.\togglelib.c ****     
  79:.\togglelib.c ****     if (get_status(BOARD_LED) == OFF) {
 196              		.loc 1 79 0
 197 001a 0520     		mov	r0, #5
 198 001c FFF7FEFF 		bl	get_status
 199              	.LVL21:
 200 0020 0028     		cmp	r0, #0
 201 0022 03D1     		bne	.L17
  80:.\togglelib.c ****         turn_on(BOARD_LED);
ARM GAS  C:\Users\Admin\AppData\Local\Temp\ccLKGYsV.s 			page 6


 202              		.loc 1 80 0
 203 0024 0520     		mov	r0, #5
 204 0026 FFF7FEFF 		bl	turn_on
 205              	.LVL22:
 206 002a 02E0     		b	.L18
 207              	.L17:
  81:.\togglelib.c ****     } 
  82:.\togglelib.c ****     else {
  83:.\togglelib.c ****          turn_off(BOARD_LED);
 208              		.loc 1 83 0
 209 002c 0520     		mov	r0, #5
 210 002e FFF7FEFF 		bl	turn_off
 211              	.LVL23:
 212              	.L18:
  84:.\togglelib.c ****     }
  85:.\togglelib.c ****     
  86:.\togglelib.c **** 
  87:.\togglelib.c ****     /* Clear interrupt */
  88:.\togglelib.c ****     SWB_ClearInterrupt();
 213              		.loc 1 88 0
 214 0032 FFF7FEFF 		bl	SWB_ClearInterrupt
 215              	.LVL24:
  89:.\togglelib.c **** }
 216              		.loc 1 89 0
 217              		@ sp needed
 218 0036 08BD     		pop	{r3, pc}
 219              		.cfi_endproc
 220              	.LFE35:
 221              		.size	SWB_Handler, .-SWB_Handler
 222              		.section	.text.clear_toggle_press_count,"ax",%progbits
 223              		.align	1
 224              		.global	clear_toggle_press_count
 225              		.code	16
 226              		.thumb_func
 227              		.type	clear_toggle_press_count, %function
 228              	clear_toggle_press_count:
 229              	.LFB36:
  90:.\togglelib.c **** 
  91:.\togglelib.c **** void clear_toggle_press_count() {
 230              		.loc 1 91 0
 231              		.cfi_startproc
  92:.\togglelib.c ****     /* Clear press count variables */
  93:.\togglelib.c ****     ltp_count = 0;
 232              		.loc 1 93 0
 233 0000 024B     		ldr	r3, .L20
 234 0002 0022     		mov	r2, #0
 235 0004 1A70     		strb	r2, [r3]
  94:.\togglelib.c ****     rtp_count = 0;
  95:.\togglelib.c **** }
 236              		.loc 1 95 0
 237              		@ sp needed
  94:.\togglelib.c ****     rtp_count = 0;
 238              		.loc 1 94 0
 239 0006 5A70     		strb	r2, [r3, #1]
 240              		.loc 1 95 0
 241 0008 7047     		bx	lr
 242              	.L21:
ARM GAS  C:\Users\Admin\AppData\Local\Temp\ccLKGYsV.s 			page 7


 243 000a C046     		.align	2
 244              	.L20:
 245 000c 00000000 		.word	.LANCHOR0
 246              		.cfi_endproc
 247              	.LFE36:
 248              		.size	clear_toggle_press_count, .-clear_toggle_press_count
 249              		.section	.text.enable_toggle_interrupts,"ax",%progbits
 250              		.align	1
 251              		.global	enable_toggle_interrupts
 252              		.code	16
 253              		.thumb_func
 254              		.type	enable_toggle_interrupts, %function
 255              	enable_toggle_interrupts:
 256              	.LFB37:
  96:.\togglelib.c **** 
  97:.\togglelib.c **** void enable_toggle_interrupts() {
 257              		.loc 1 97 0
 258              		.cfi_startproc
 259 0000 08B5     		push	{r3, lr}
 260              		.cfi_def_cfa_offset 8
 261              		.cfi_offset 3, -8
 262              		.cfi_offset 14, -4
  98:.\togglelib.c ****     /* Setup toggle interrupts  */
  99:.\togglelib.c ****     SWB_Int_StartEx( SWB_Handler );
 263              		.loc 1 99 0
 264 0002 0748     		ldr	r0, .L23
 265 0004 FFF7FEFF 		bl	SWB_Int_StartEx
 266              	.LVL25:
 100:.\togglelib.c ****     SWL_Int_StartEx( SWL_Handler );
 267              		.loc 1 100 0
 268 0008 0648     		ldr	r0, .L23+4
 269 000a FFF7FEFF 		bl	SWL_Int_StartEx
 270              	.LVL26:
 101:.\togglelib.c ****     SWR_Int_StartEx( SWR_Handler );
 271              		.loc 1 101 0
 272 000e 0648     		ldr	r0, .L23+8
 273 0010 FFF7FEFF 		bl	SWR_Int_StartEx
 274              	.LVL27:
 102:.\togglelib.c ****     /* Seed random */
 103:.\togglelib.c ****     srand(time(NULL));
 275              		.loc 1 103 0
 276 0014 0020     		mov	r0, #0
 277 0016 FFF7FEFF 		bl	time
 278              	.LVL28:
 279 001a FFF7FEFF 		bl	srand
 280              	.LVL29:
 104:.\togglelib.c **** }...
 281              		.loc 1 104 0
 282              		@ sp needed
 283 001e 08BD     		pop	{r3, pc}
 284              	.L24:
 285              		.align	2
 286              	.L23:
 287 0020 00000000 		.word	SWB_Handler
 288 0024 00000000 		.word	SWL_Handler
 289 0028 00000000 		.word	SWR_Handler
 290              		.cfi_endproc
ARM GAS  C:\Users\Admin\AppData\Local\Temp\ccLKGYsV.s 			page 8


 291              	.LFE37:
 292              		.size	enable_toggle_interrupts, .-enable_toggle_interrupts
 293              		.global	rtp_count
 294              		.global	ltp_count
 295              		.bss
 296              		.set	.LANCHOR0,. + 0
 297              		.type	ltp_count, %object
 298              		.size	ltp_count, 1
 299              	ltp_count:
 300 0000 00       		.space	1
 301              		.type	rtp_count, %object
 302              		.size	rtp_count, 1
 303              	rtp_count:
 304 0001 00       		.space	1
 305              		.text
 306              	.Letext0:
 307              		.file 2 ".\\Generated_Source\\PSoC4/cytypes.h"
 308              		.file 3 "c:\\program files\\cypress\\psoc creator\\3.1\\psoc creator\\import\\gnu_cs\\arm\\4.8.4\\
 309              		.file 4 ".\\lightlib.h"
 310              		.file 5 ".\\Generated_Source\\PSoC4/CyLib.h"
 311              		.file 6 "c:\\program files\\cypress\\psoc creator\\3.1\\psoc creator\\import\\gnu_cs\\arm\\4.8.4\\
 312              		.file 7 ".\\Generated_Source\\PSoC4/SWL.h"
 313              		.file 8 ".\\Generated_Source\\PSoC4/SWR.h"
 314              		.file 9 ".\\Generated_Source\\PSoC4/SWB.h"
 315              		.file 10 ".\\Generated_Source\\PSoC4/SWB_Int.h"
 316              		.file 11 ".\\Generated_Source\\PSoC4/SWL_Int.h"
 317              		.file 12 ".\\Generated_Source\\PSoC4/SWR_Int.h"
 318              		.file 13 "c:\\program files\\cypress\\psoc creator\\3.1\\psoc creator\\import\\gnu_cs\\arm\\4.8.4\