ARM GAS  C:\Users\Admin\AppData\Local\Temp\ccvZUe8G.s 			page 1


   1              		.cpu cortex-m0
   2              		.fpu softvfp
   3              		.eabi_attribute 20, 1
   4              		.eabi_attribute 21, 1
   5              		.eabi_attribute 23, 3
   6              		.eabi_attribute 24, 1
   7              		.eabi_attribute 25, 1
   8              		.eabi_attribute 26, 1
   9              		.eabi_attribute 30, 4
  10              		.eabi_attribute 34, 0
  11              		.eabi_attribute 18, 4
  12              		.code	16
  13              		.file	"binary.c"
  14              		.text
  15              	.Ltext0:
  16              		.cfi_sections	.debug_frame
  17              		.section	.text.blink_zero,"ax",%progbits
  18              		.align	1
  19              		.global	blink_zero
  20              		.code	16
  21              		.thumb_func
  22              		.type	blink_zero, %function
  23              	blink_zero:
  24              	.LFB33:
  25              		.file 1 ".\\binary.c"
   1:.\binary.c    **** /* ========================================
   2:.\binary.c    ****  *
   3:.\binary.c    ****  * Copyright Nullify, 2016
   4:.\binary.c    ****  * All Rights Reserved
   5:.\binary.c    ****  * UNPUBLISHED, LICENSED SOFTWARE.
   6:.\binary.c    ****  *
   7:.\binary.c    ****  * CONFIDENTIAL AND PROPRIETARY INFORMATION
   8:.\binary.c    ****  * WHICH IS THE PROPERTY OF NULLIY.
   9:.\binary.c    ****  *
  10:.\binary.c    ****  * ========================================
  11:.\binary.c    **** */
  12:.\binary.c    **** #include <project.h>
  13:.\binary.c    **** #include <string.h>
  14:.\binary.c    **** #include "lightlib.h"
  15:.\binary.c    **** #include "binary.h"
  16:.\binary.c    **** #include "state.h"
  17:.\binary.c    **** 
  18:.\binary.c    **** void blink_zero(void) {
  26              		.loc 1 18 0
  27              		.cfi_startproc
  28 0000 08B5     		push	{r3, lr}
  29              		.cfi_def_cfa_offset 8
  30              		.cfi_offset 3, -8
  31              		.cfi_offset 14, -4
  19:.\binary.c    ****     /* Verify state */
  20:.\binary.c    ****     if(!verify_state(BINARY)) {
  32              		.loc 1 20 0
  33 0002 0220     		mov	r0, #2
  34 0004 FFF7FEFF 		bl	verify_state
  35              	.LVL0:
  36 0008 0028     		cmp	r0, #0
  37 000a 0DD0     		beq	.L1
ARM GAS  C:\Users\Admin\AppData\Local\Temp\ccvZUe8G.s 			page 2


  38              	.LBB4:
  39              	.LBB5:
  21:.\binary.c    ****         return;
  22:.\binary.c    ****     }
  23:.\binary.c    ****     turn_on(LEFT_LED);
  40              		.loc 1 23 0
  41 000c 0120     		mov	r0, #1
  42 000e FFF7FEFF 		bl	turn_on
  43              	.LVL1:
  24:.\binary.c    ****     CyDelay(BLINK_DELAY_ON);
  44              		.loc 1 24 0
  45 0012 FA20     		mov	r0, #250
  46 0014 4000     		lsl	r0, r0, #1
  47 0016 FFF7FEFF 		bl	CyDelay
  48              	.LVL2:
  25:.\binary.c    ****     turn_off(LEFT_LED);
  49              		.loc 1 25 0
  50 001a 0120     		mov	r0, #1
  51 001c FFF7FEFF 		bl	turn_off
  52              	.LVL3:
  26:.\binary.c    ****     CyDelay(BLINK_DELAY_OFF);
  53              		.loc 1 26 0
  54 0020 FA20     		mov	r0, #250
  55 0022 4000     		lsl	r0, r0, #1
  56 0024 FFF7FEFF 		bl	CyDelay
  57              	.LVL4:
  58              	.L1:
  59              	.LBE5:
  60              	.LBE4:
  27:.\binary.c    **** }
  61              		.loc 1 27 0
  62              		@ sp needed
  63 0028 08BD     		pop	{r3, pc}
  64              		.cfi_endproc
  65              	.LFE33:
  66              		.size	blink_zero, .-blink_zero
  67              		.section	.text.blink_one,"ax",%progbits
  68              		.align	1
  69              		.global	blink_one
  70              		.code	16
  71              		.thumb_func
  72              		.type	blink_one, %function
  73              	blink_one:
  74              	.LFB34:
  28:.\binary.c    **** 
  29:.\binary.c    **** void blink_one(void) {
  75              		.loc 1 29 0
  76              		.cfi_startproc
  77 0000 08B5     		push	{r3, lr}
  78              		.cfi_def_cfa_offset 8
  79              		.cfi_offset 3, -8
  80              		.cfi_offset 14, -4
  30:.\binary.c    ****     /* Verify state */
  31:.\binary.c    ****     if(!verify_state(BINARY)) {
  81              		.loc 1 31 0
  82 0002 0220     		mov	r0, #2
  83 0004 FFF7FEFF 		bl	verify_state
ARM GAS  C:\Users\Admin\AppData\Local\Temp\ccvZUe8G.s 			page 3


  84              	.LVL5:
  85 0008 0028     		cmp	r0, #0
  86 000a 0DD0     		beq	.L7
  87              	.LBB8:
  88              	.LBB9:
  32:.\binary.c    ****         return;
  33:.\binary.c    ****     }
  34:.\binary.c    ****     turn_on(RIGHT_LED);
  89              		.loc 1 34 0
  90 000c 0220     		mov	r0, #2
  91 000e FFF7FEFF 		bl	turn_on
  92              	.LVL6:
  35:.\binary.c    ****     CyDelay(BLINK_DELAY_ON);
  93              		.loc 1 35 0
  94 0012 FA20     		mov	r0, #250
  95 0014 4000     		lsl	r0, r0, #1
  96 0016 FFF7FEFF 		bl	CyDelay
  97              	.LVL7:
  36:.\binary.c    ****     turn_off(RIGHT_LED);
  98              		.loc 1 36 0
  99 001a 0220     		mov	r0, #2
 100 001c FFF7FEFF 		bl	turn_off
 101              	.LVL8:
  37:.\binary.c    ****     CyDelay(BLINK_DELAY_OFF);
 102              		.loc 1 37 0
 103 0020 FA20     		mov	r0, #250
 104 0022 4000     		lsl	r0, r0, #1
 105 0024 FFF7FEFF 		bl	CyDelay
 106              	.LVL9:
 107              	.L7:
 108              	.LBE9:
 109              	.LBE8:
  38:.\binary.c    **** }
 110              		.loc 1 38 0
 111              		@ sp needed
 112 0028 08BD     		pop	{r3, pc}
 113              		.cfi_endproc
 114              	.LFE34:
 115              		.size	blink_one, .-blink_one
 116              		.section	.text.new_message_binary,"ax",%progbits
 117              		.align	1
 118              		.global	new_message_binary
 119              		.code	16
 120              		.thumb_func
 121              		.type	new_message_binary, %function
 122              	new_message_binary:
 123              	.LFB35:
  39:.\binary.c    **** 
  40:.\binary.c    **** void new_message_binary(void) {
 124              		.loc 1 40 0
 125              		.cfi_startproc
 126 0000 38B5     		push	{r3, r4, r5, lr}
 127              		.cfi_def_cfa_offset 16
 128              		.cfi_offset 3, -16
 129              		.cfi_offset 4, -12
 130              		.cfi_offset 5, -8
 131              		.cfi_offset 14, -4
ARM GAS  C:\Users\Admin\AppData\Local\Temp\ccvZUe8G.s 			page 4


  41:.\binary.c    ****     unsigned int i;
  42:.\binary.c    ****     uint8 original_color;
  43:.\binary.c    ****     original_color = get_color(LEFT_LED);
 132              		.loc 1 43 0
 133 0002 0120     		mov	r0, #1
 134 0004 FFF7FEFF 		bl	get_color
 135              	.LVL10:
  44:.\binary.c    ****     set_color(LEFT_RIGHT_LED, WHITE);
 136              		.loc 1 44 0
 137 0008 0721     		mov	r1, #7
  43:.\binary.c    ****     original_color = get_color(LEFT_LED);
 138              		.loc 1 43 0
 139 000a 051C     		mov	r5, r0
 140              	.LVL11:
 141              		.loc 1 44 0
 142 000c 0320     		mov	r0, #3
 143              	.LVL12:
 144 000e FFF7FEFF 		bl	set_color
 145              	.LVL13:
 146 0012 0524     		mov	r4, #5
 147              	.LVL14:
 148              	.L15:
  45:.\binary.c    ****     for (i=0; i<NEW_MESSAGE_NUMBER; i++) {
  46:.\binary.c    ****         /* Verify state */
  47:.\binary.c    ****     if(!verify_state(BINARY)) {
 149              		.loc 1 47 0
 150 0014 0220     		mov	r0, #2
 151 0016 FFF7FEFF 		bl	verify_state
 152              	.LVL15:
 153 001a 0028     		cmp	r0, #0
 154 001c 12D0     		beq	.L12
  48:.\binary.c    ****         return;
  49:.\binary.c    ****     }
  50:.\binary.c    ****        turn_on(LEFT_RIGHT_LED);
 155              		.loc 1 50 0
 156 001e 0320     		mov	r0, #3
 157 0020 FFF7FEFF 		bl	turn_on
 158              	.LVL16:
  51:.\binary.c    ****        CyDelay(RESET_DELAY);
 159              		.loc 1 51 0
 160 0024 FA20     		mov	r0, #250
 161 0026 FFF7FEFF 		bl	CyDelay
 162              	.LVL17:
  52:.\binary.c    ****        turn_off(LEFT_RIGHT_LED);
 163              		.loc 1 52 0
 164 002a 0320     		mov	r0, #3
 165 002c FFF7FEFF 		bl	turn_off
 166              	.LVL18:
 167 0030 013C     		sub	r4, r4, #1
 168              	.LVL19:
  53:.\binary.c    ****        CyDelay(RESET_DELAY);
 169              		.loc 1 53 0
 170 0032 FA20     		mov	r0, #250
 171 0034 FFF7FEFF 		bl	CyDelay
 172              	.LVL20:
  45:.\binary.c    ****     for (i=0; i<NEW_MESSAGE_NUMBER; i++) {
 173              		.loc 1 45 0
ARM GAS  C:\Users\Admin\AppData\Local\Temp\ccvZUe8G.s 			page 5


 174 0038 002C     		cmp	r4, #0
 175 003a EBD1     		bne	.L15
  54:.\binary.c    ****     }
  55:.\binary.c    ****     set_color(LEFT_RIGHT_LED, original_color);
 176              		.loc 1 55 0
 177 003c 0320     		mov	r0, #3
 178 003e 291C     		mov	r1, r5
 179 0040 FFF7FEFF 		bl	set_color
 180              	.LVL21:
 181              	.L12:
  56:.\binary.c    **** }
 182              		.loc 1 56 0
 183              		@ sp needed
 184              	.LVL22:
 185 0044 38BD     		pop	{r3, r4, r5, pc}
 186              		.cfi_endproc
 187              	.LFE35:
 188              		.size	new_message_binary, .-new_message_binary
 189              		.section	.text.binary_encode,"ax",%progbits
 190              		.align	1
 191              		.global	binary_encode
 192              		.code	16
 193              		.thumb_func
 194              		.type	binary_encode, %function
 195              	binary_encode:
 196              	.LFB36:
  57:.\binary.c    **** 
  58:.\binary.c    **** void binary_encode(char c){
 197              		.loc 1 58 0
 198              		.cfi_startproc
 199              	.LVL23:
 200 0000 10B5     		push	{r4, lr}
 201              		.cfi_def_cfa_offset 8
 202              		.cfi_offset 4, -8
 203              		.cfi_offset 14, -4
 204              		.loc 1 58 0
 205 0002 041C     		mov	r4, r0
  59:.\binary.c    ****     /* Verify state */
  60:.\binary.c    ****     if(!verify_state(BINARY)) {
 206              		.loc 1 60 0
 207 0004 0220     		mov	r0, #2
 208              	.LVL24:
 209 0006 FFF7FEFF 		bl	verify_state
 210              	.LVL25:
 211 000a 0028     		cmp	r0, #0
 212 000c 00D1     		bne	.LCB155
 213 000e BCE1     		b	.L19	@long jump
 214              	.LCB155:
  61:.\binary.c    ****        return;
  62:.\binary.c    ****     }
  63:.\binary.c    ****     switch(c) {
 215              		.loc 1 63 0
 216 0010 201C     		mov	r0, r4
 217 0012 3038     		sub	r0, r0, #48
 218 0014 4A28     		cmp	r0, #74
 219 0016 00D9     		bls	.LCB159
 220 0018 B7E1     		b	.L19	@long jump
ARM GAS  C:\Users\Admin\AppData\Local\Temp\ccvZUe8G.s 			page 6


 221              	.LCB159:
 222 001a FFF7FEFF 		bl	__gnu_thumb1_case_uhi
 223              	.L22:
 224 001e 2D01     		.2byte	(.L21-.L22)/2
 225 0020 3801     		.2byte	(.L23-.L22)/2
 226 0022 4301     		.2byte	(.L24-.L22)/2
 227 0024 5001     		.2byte	(.L25-.L22)/2
 228 0026 5D01     		.2byte	(.L26-.L22)/2
 229 0028 6A01     		.2byte	(.L27-.L22)/2
 230 002a 7701     		.2byte	(.L28-.L22)/2
 231 002c 8601     		.2byte	(.L29-.L22)/2
 232 002e 9501     		.2byte	(.L30-.L22)/2
 233 0030 A601     		.2byte	(.L31-.L22)/2
 234 0032 B601     		.2byte	(.L19-.L22)/2
 235 0034 B601     		.2byte	(.L19-.L22)/2
 236 0036 B601     		.2byte	(.L19-.L22)/2
 237 0038 B601     		.2byte	(.L19-.L22)/2
 238 003a B601     		.2byte	(.L19-.L22)/2
 239 003c B601     		.2byte	(.L19-.L22)/2
 240 003e B601     		.2byte	(.L19-.L22)/2
 241 0040 4B00     		.2byte	(.L32-.L22)/2
 242 0042 5400     		.2byte	(.L33-.L22)/2
 243 0044 5D00     		.2byte	(.L34-.L22)/2
 244 0046 6600     		.2byte	(.L35-.L22)/2
 245 0048 6F00     		.2byte	(.L36-.L22)/2
 246 004a 7800     		.2byte	(.L37-.L22)/2
 247 004c 8100     		.2byte	(.L38-.L22)/2
 248 004e 8A00     		.2byte	(.L39-.L22)/2
 249 0050 9300     		.2byte	(.L40-.L22)/2
 250 0052 9C00     		.2byte	(.L41-.L22)/2
 251 0054 A500     		.2byte	(.L42-.L22)/2
 252 0056 B000     		.2byte	(.L43-.L22)/2
 253 0058 BB00     		.2byte	(.L44-.L22)/2
 254 005a C600     		.2byte	(.L45-.L22)/2
 255 005c D100     		.2byte	(.L46-.L22)/2
 256 005e DC00     		.2byte	(.L47-.L22)/2
 257 0060 E300     		.2byte	(.L48-.L22)/2
 258 0062 EA00     		.2byte	(.L49-.L22)/2
 259 0064 F100     		.2byte	(.L50-.L22)/2
 260 0066 F800     		.2byte	(.L51-.L22)/2
 261 0068 FF00     		.2byte	(.L52-.L22)/2
 262 006a 0601     		.2byte	(.L53-.L22)/2
 263 006c 0D01     		.2byte	(.L54-.L22)/2
 264 006e 1401     		.2byte	(.L55-.L22)/2
 265 0070 1B01     		.2byte	(.L56-.L22)/2
 266 0072 2201     		.2byte	(.L57-.L22)/2
 267 0074 B601     		.2byte	(.L19-.L22)/2
 268 0076 B601     		.2byte	(.L19-.L22)/2
 269 0078 B601     		.2byte	(.L19-.L22)/2
 270 007a B601     		.2byte	(.L19-.L22)/2
 271 007c B601     		.2byte	(.L19-.L22)/2
 272 007e B601     		.2byte	(.L19-.L22)/2
 273 0080 4B00     		.2byte	(.L32-.L22)/2
 274 0082 5400     		.2byte	(.L33-.L22)/2
 275 0084 5D00     		.2byte	(.L34-.L22)/2
 276 0086 6600     		.2byte	(.L35-.L22)/2
 277 0088 6F00     		.2byte	(.L36-.L22)/2
ARM GAS  C:\Users\Admin\AppData\Local\Temp\ccvZUe8G.s 			page 7


 278 008a 7800     		.2byte	(.L37-.L22)/2
 279 008c 8100     		.2byte	(.L38-.L22)/2
 280 008e 8A00     		.2byte	(.L39-.L22)/2
 281 0090 9300     		.2byte	(.L40-.L22)/2
 282 0092 9C00     		.2byte	(.L41-.L22)/2
 283 0094 A500     		.2byte	(.L42-.L22)/2
 284 0096 B000     		.2byte	(.L43-.L22)/2
 285 0098 BB00     		.2byte	(.L44-.L22)/2
 286 009a C600     		.2byte	(.L45-.L22)/2
 287 009c D100     		.2byte	(.L46-.L22)/2
 288 009e DC00     		.2byte	(.L47-.L22)/2
 289 00a0 E300     		.2byte	(.L48-.L22)/2
 290 00a2 EA00     		.2byte	(.L49-.L22)/2
 291 00a4 F100     		.2byte	(.L50-.L22)/2
 292 00a6 F800     		.2byte	(.L51-.L22)/2
 293 00a8 FF00     		.2byte	(.L52-.L22)/2
 294 00aa 0601     		.2byte	(.L53-.L22)/2
 295 00ac 0D01     		.2byte	(.L54-.L22)/2
 296 00ae 1401     		.2byte	(.L55-.L22)/2
 297 00b0 1B01     		.2byte	(.L56-.L22)/2
 298 00b2 2201     		.2byte	(.L57-.L22)/2
 299              		.p2align 1
 300              	.L32:
  64:.\binary.c    ****       case 'A':
  65:.\binary.c    ****       case 'a':
  66:.\binary.c    ****         blink_zero();
 301              		.loc 1 66 0
 302 00b4 FFF7FEFF 		bl	blink_zero
 303              	.LVL26:
  67:.\binary.c    ****         blink_one();
 304              		.loc 1 67 0
 305 00b8 FFF7FEFF 		bl	blink_one
 306              	.LVL27:
  68:.\binary.c    ****         blink_zero();
 307              		.loc 1 68 0
 308 00bc FFF7FEFF 		bl	blink_zero
 309              	.LVL28:
  69:.\binary.c    ****         blink_zero();
 310              		.loc 1 69 0
 311 00c0 FFF7FEFF 		bl	blink_zero
 312              	.LVL29:
 313 00c4 EBE0     		b	.L79
 314              	.L33:
  70:.\binary.c    ****         blink_zero();
  71:.\binary.c    ****         blink_zero();
  72:.\binary.c    ****         blink_zero();
  73:.\binary.c    ****         blink_one();
  74:.\binary.c    ****         break;
  75:.\binary.c    ****       case 'B':
  76:.\binary.c    ****       case 'b':
  77:.\binary.c    ****         blink_zero();
 315              		.loc 1 77 0
 316 00c6 FFF7FEFF 		bl	blink_zero
 317              	.LVL30:
  78:.\binary.c    ****         blink_one();
 318              		.loc 1 78 0
 319 00ca FFF7FEFF 		bl	blink_one
ARM GAS  C:\Users\Admin\AppData\Local\Temp\ccvZUe8G.s 			page 8


 320              	.LVL31:
  79:.\binary.c    ****         blink_zero();
 321              		.loc 1 79 0
 322 00ce FFF7FEFF 		bl	blink_zero
 323              	.LVL32:
  80:.\binary.c    ****         blink_zero();
 324              		.loc 1 80 0
 325 00d2 FFF7FEFF 		bl	blink_zero
 326              	.LVL33:
 327 00d6 EDE0     		b	.L88
 328              	.L34:
  81:.\binary.c    ****         blink_zero();
  82:.\binary.c    ****         blink_zero();
  83:.\binary.c    ****         blink_one();
  84:.\binary.c    ****         blink_zero();
  85:.\binary.c    ****         break;
  86:.\binary.c    ****       case 'C':
  87:.\binary.c    ****       case 'c':
  88:.\binary.c    ****         blink_zero();
 329              		.loc 1 88 0
 330 00d8 FFF7FEFF 		bl	blink_zero
 331              	.LVL34:
  89:.\binary.c    ****         blink_one();
 332              		.loc 1 89 0
 333 00dc FFF7FEFF 		bl	blink_one
 334              	.LVL35:
  90:.\binary.c    ****         blink_zero();
 335              		.loc 1 90 0
 336 00e0 FFF7FEFF 		bl	blink_zero
 337              	.LVL36:
  91:.\binary.c    ****         blink_zero();
 338              		.loc 1 91 0
 339 00e4 FFF7FEFF 		bl	blink_zero
 340              	.LVL37:
 341 00e8 F1E0     		b	.L91
 342              	.L35:
  92:.\binary.c    ****         blink_zero();
  93:.\binary.c    ****         blink_zero();
  94:.\binary.c    ****         blink_one();
  95:.\binary.c    ****         blink_one();
  96:.\binary.c    ****         break;
  97:.\binary.c    ****       case 'D':
  98:.\binary.c    ****       case 'd':
  99:.\binary.c    ****         blink_zero();
 343              		.loc 1 99 0
 344 00ea FFF7FEFF 		bl	blink_zero
 345              	.LVL38:
 100:.\binary.c    ****         blink_one();
 346              		.loc 1 100 0
 347 00ee FFF7FEFF 		bl	blink_one
 348              	.LVL39:
 101:.\binary.c    ****         blink_zero();
 349              		.loc 1 101 0
 350 00f2 FFF7FEFF 		bl	blink_zero
 351              	.LVL40:
 102:.\binary.c    ****         blink_zero();
 352              		.loc 1 102 0
ARM GAS  C:\Users\Admin\AppData\Local\Temp\ccvZUe8G.s 			page 9


 353 00f6 FFF7FEFF 		bl	blink_zero
 354              	.LVL41:
 355 00fa F5E0     		b	.L73
 356              	.L36:
 103:.\binary.c    ****         blink_zero();
 104:.\binary.c    ****         blink_one();
 105:.\binary.c    ****         blink_zero();
 106:.\binary.c    ****         blink_zero();
 107:.\binary.c    ****         break;
 108:.\binary.c    ****        case 'E':
 109:.\binary.c    ****        case 'e':
 110:.\binary.c    ****         blink_zero();
 357              		.loc 1 110 0
 358 00fc FFF7FEFF 		bl	blink_zero
 359              	.LVL42:
 111:.\binary.c    ****         blink_one();
 360              		.loc 1 111 0
 361 0100 FFF7FEFF 		bl	blink_one
 362              	.LVL43:
 112:.\binary.c    ****         blink_zero();
 363              		.loc 1 112 0
 364 0104 FFF7FEFF 		bl	blink_zero
 365              	.LVL44:
 113:.\binary.c    ****         blink_zero();
 366              		.loc 1 113 0
 367 0108 FFF7FEFF 		bl	blink_zero
 368              	.LVL45:
 369 010c F9E0     		b	.L82
 370              	.L37:
 114:.\binary.c    ****         blink_zero();
 115:.\binary.c    ****         blink_one();
 116:.\binary.c    ****         blink_zero();
 117:.\binary.c    ****         blink_one();
 118:.\binary.c    ****         break;
 119:.\binary.c    ****        case 'F':
 120:.\binary.c    ****        case 'f':
 121:.\binary.c    ****         blink_zero();
 371              		.loc 1 121 0
 372 010e FFF7FEFF 		bl	blink_zero
 373              	.LVL46:
 122:.\binary.c    ****         blink_one();
 374              		.loc 1 122 0
 375 0112 FFF7FEFF 		bl	blink_one
 376              	.LVL47:
 123:.\binary.c    ****         blink_zero();
 377              		.loc 1 123 0
 378 0116 FFF7FEFF 		bl	blink_zero
 379              	.LVL48:
 124:.\binary.c    ****         blink_zero();
 380              		.loc 1 124 0
 381 011a FFF7FEFF 		bl	blink_zero
 382              	.LVL49:
 383 011e FDE0     		b	.L76
 384              	.L38:
 125:.\binary.c    ****         blink_zero();
 126:.\binary.c    ****         blink_one();
 127:.\binary.c    ****         blink_one();
ARM GAS  C:\Users\Admin\AppData\Local\Temp\ccvZUe8G.s 			page 10


 128:.\binary.c    ****         blink_zero();
 129:.\binary.c    ****         break;
 130:.\binary.c    ****        case 'G':
 131:.\binary.c    ****        case 'g':
 132:.\binary.c    ****         blink_zero();
 385              		.loc 1 132 0
 386 0120 FFF7FEFF 		bl	blink_zero
 387              	.LVL50:
 133:.\binary.c    ****         blink_one();
 388              		.loc 1 133 0
 389 0124 FFF7FEFF 		bl	blink_one
 390              	.LVL51:
 134:.\binary.c    ****         blink_zero();
 391              		.loc 1 134 0
 392 0128 FFF7FEFF 		bl	blink_zero
 393              	.LVL52:
 135:.\binary.c    ****         blink_zero();
 394              		.loc 1 135 0
 395 012c FFF7FEFF 		bl	blink_zero
 396              	.LVL53:
 397 0130 03E1     		b	.L85
 398              	.L39:
 136:.\binary.c    ****         blink_zero();
 137:.\binary.c    ****         blink_one();
 138:.\binary.c    ****         blink_one();
 139:.\binary.c    ****         blink_one();
 140:.\binary.c    ****         break;
 141:.\binary.c    ****        case 'H':
 142:.\binary.c    ****        case 'h':
 143:.\binary.c    ****         blink_zero();
 399              		.loc 1 143 0
 400 0132 FFF7FEFF 		bl	blink_zero
 401              	.LVL54:
 144:.\binary.c    ****         blink_one();
 402              		.loc 1 144 0
 403 0136 FFF7FEFF 		bl	blink_one
 404              	.LVL55:
 145:.\binary.c    ****         blink_zero();
 405              		.loc 1 145 0
 406 013a FFF7FEFF 		bl	blink_zero
 407              	.LVL56:
 146:.\binary.c    ****         blink_zero();
 408              		.loc 1 146 0
 409 013e FFF7FEFF 		bl	blink_zero
 410              	.LVL57:
 411 0142 09E1     		b	.L70
 412              	.L40:
 147:.\binary.c    ****         blink_one();
 148:.\binary.c    ****         blink_zero();
 149:.\binary.c    ****         blink_zero();
 150:.\binary.c    ****         blink_zero();
 151:.\binary.c    ****         break;
 152:.\binary.c    ****        case 'I':
 153:.\binary.c    ****        case 'i':
 154:.\binary.c    ****         blink_zero();
 413              		.loc 1 154 0
 414 0144 FFF7FEFF 		bl	blink_zero
ARM GAS  C:\Users\Admin\AppData\Local\Temp\ccvZUe8G.s 			page 11


 415              	.LVL58:
 155:.\binary.c    ****         blink_one();
 416              		.loc 1 155 0
 417 0148 FFF7FEFF 		bl	blink_one
 418              	.LVL59:
 156:.\binary.c    ****         blink_zero();
 419              		.loc 1 156 0
 420 014c FFF7FEFF 		bl	blink_zero
 421              	.LVL60:
 157:.\binary.c    ****         blink_zero();
 422              		.loc 1 157 0
 423 0150 FFF7FEFF 		bl	blink_zero
 424              	.LVL61:
 425 0154 11E1     		b	.L69
 426              	.L41:
 158:.\binary.c    ****         blink_one();
 159:.\binary.c    ****         blink_zero();
 160:.\binary.c    ****         blink_zero();
 161:.\binary.c    ****         blink_one();
 162:.\binary.c    ****         break;
 163:.\binary.c    ****        case 'J':
 164:.\binary.c    ****        case 'j':
 165:.\binary.c    ****         blink_zero();
 427              		.loc 1 165 0
 428 0156 FFF7FEFF 		bl	blink_zero
 429              	.LVL62:
 166:.\binary.c    ****         blink_one();
 430              		.loc 1 166 0
 431 015a FFF7FEFF 		bl	blink_one
 432              	.LVL63:
 167:.\binary.c    ****         blink_zero();
 433              		.loc 1 167 0
 434 015e FFF7FEFF 		bl	blink_zero
 435              	.LVL64:
 168:.\binary.c    ****         blink_zero();
 436              		.loc 1 168 0
 437 0162 FFF7FEFF 		bl	blink_zero
 438              	.LVL65:
 439 0166 84E0     		b	.L94
 440              	.L42:
 169:.\binary.c    ****         blink_one();
 170:.\binary.c    ****         blink_zero();
 171:.\binary.c    ****         blink_one();
 172:.\binary.c    ****         blink_zero();
 173:.\binary.c    ****         break;
 174:.\binary.c    ****        case 'K':
 175:.\binary.c    ****        case 'k':
 176:.\binary.c    ****         blink_zero();
 441              		.loc 1 176 0
 442 0168 FFF7FEFF 		bl	blink_zero
 443              	.LVL66:
 177:.\binary.c    ****         blink_one();
 444              		.loc 1 177 0
 445 016c FFF7FEFF 		bl	blink_one
 446              	.LVL67:
 178:.\binary.c    ****         blink_zero();
 447              		.loc 1 178 0
ARM GAS  C:\Users\Admin\AppData\Local\Temp\ccvZUe8G.s 			page 12


 448 0170 FFF7FEFF 		bl	blink_zero
 449              	.LVL68:
 179:.\binary.c    ****         blink_zero();
 450              		.loc 1 179 0
 451 0174 FFF7FEFF 		bl	blink_zero
 452              	.LVL69:
 180:.\binary.c    ****         blink_one();
 453              		.loc 1 180 0
 454 0178 FFF7FEFF 		bl	blink_one
 455              	.LVL70:
 456 017c A9E0     		b	.L93
 457              	.L43:
 181:.\binary.c    ****         blink_zero();
 182:.\binary.c    ****         blink_one();
 183:.\binary.c    ****         blink_one();
 184:.\binary.c    ****         break;
 185:.\binary.c    ****        case 'L':
 186:.\binary.c    ****        case 'l':
 187:.\binary.c    ****         blink_zero();
 458              		.loc 1 187 0
 459 017e FFF7FEFF 		bl	blink_zero
 460              	.LVL71:
 188:.\binary.c    ****         blink_one();
 461              		.loc 1 188 0
 462 0182 FFF7FEFF 		bl	blink_one
 463              	.LVL72:
 189:.\binary.c    ****         blink_zero();
 464              		.loc 1 189 0
 465 0186 FFF7FEFF 		bl	blink_zero
 466              	.LVL73:
 190:.\binary.c    ****         blink_zero();
 467              		.loc 1 190 0
 468 018a FFF7FEFF 		bl	blink_zero
 469              	.LVL74:
 191:.\binary.c    ****         blink_one();
 470              		.loc 1 191 0
 471 018e FFF7FEFF 		bl	blink_one
 472              	.LVL75:
 473 0192 ABE0     		b	.L74
 474              	.L44:
 192:.\binary.c    ****         blink_one();
 193:.\binary.c    ****         blink_zero();
 194:.\binary.c    ****         blink_zero();
 195:.\binary.c    ****         break;
 196:.\binary.c    ****        case 'M':
 197:.\binary.c    ****        case 'm':
 198:.\binary.c    ****         blink_zero();
 475              		.loc 1 198 0
 476 0194 FFF7FEFF 		bl	blink_zero
 477              	.LVL76:
 199:.\binary.c    ****         blink_one();
 478              		.loc 1 199 0
 479 0198 FFF7FEFF 		bl	blink_one
 480              	.LVL77:
 200:.\binary.c    ****         blink_zero();
 481              		.loc 1 200 0
 482 019c FFF7FEFF 		bl	blink_zero
ARM GAS  C:\Users\Admin\AppData\Local\Temp\ccvZUe8G.s 			page 13


 483              	.LVL78:
 201:.\binary.c    ****         blink_zero();
 484              		.loc 1 201 0
 485 01a0 FFF7FEFF 		bl	blink_zero
 486              	.LVL79:
 202:.\binary.c    ****         blink_one();
 487              		.loc 1 202 0
 488 01a4 FFF7FEFF 		bl	blink_one
 489              	.LVL80:
 490 01a8 ADE0     		b	.L83
 491              	.L45:
 203:.\binary.c    ****         blink_one();
 204:.\binary.c    ****         blink_zero();
 205:.\binary.c    ****         blink_one();
 206:.\binary.c    ****         break;
 207:.\binary.c    ****        case 'N':
 208:.\binary.c    ****        case 'n':
 209:.\binary.c    ****         blink_zero();
 492              		.loc 1 209 0
 493 01aa FFF7FEFF 		bl	blink_zero
 494              	.LVL81:
 210:.\binary.c    ****         blink_one();
 495              		.loc 1 210 0
 496 01ae FFF7FEFF 		bl	blink_one
 497              	.LVL82:
 211:.\binary.c    ****         blink_zero();
 498              		.loc 1 211 0
 499 01b2 FFF7FEFF 		bl	blink_zero
 500              	.LVL83:
 212:.\binary.c    ****         blink_zero();
 501              		.loc 1 212 0
 502 01b6 FFF7FEFF 		bl	blink_zero
 503              	.LVL84:
 213:.\binary.c    ****         blink_one();
 504              		.loc 1 213 0
 505 01ba FFF7FEFF 		bl	blink_one
 506              	.LVL85:
 507 01be AFE0     		b	.L77
 508              	.L46:
 214:.\binary.c    ****         blink_one();
 215:.\binary.c    ****         blink_one();
 216:.\binary.c    ****         blink_zero();
 217:.\binary.c    ****         break;
 218:.\binary.c    ****        case 'O':
 219:.\binary.c    ****        case 'o':
 220:.\binary.c    ****         blink_zero();
 509              		.loc 1 220 0
 510 01c0 FFF7FEFF 		bl	blink_zero
 511              	.LVL86:
 221:.\binary.c    ****         blink_one();
 512              		.loc 1 221 0
 513 01c4 FFF7FEFF 		bl	blink_one
 514              	.LVL87:
 222:.\binary.c    ****         blink_zero();
 515              		.loc 1 222 0
 516 01c8 FFF7FEFF 		bl	blink_zero
 517              	.LVL88:
ARM GAS  C:\Users\Admin\AppData\Local\Temp\ccvZUe8G.s 			page 14


 223:.\binary.c    ****         blink_zero();
 518              		.loc 1 223 0
 519 01cc FFF7FEFF 		bl	blink_zero
 520              	.LVL89:
 224:.\binary.c    ****         blink_one();
 521              		.loc 1 224 0
 522 01d0 FFF7FEFF 		bl	blink_one
 523              	.LVL90:
 524 01d4 B3E0     		b	.L86
 525              	.L47:
 225:.\binary.c    ****         blink_one();
 226:.\binary.c    ****         blink_one();
 227:.\binary.c    ****         blink_one();
 228:.\binary.c    ****         break;
 229:.\binary.c    ****        case 'P':
 230:.\binary.c    ****        case 'p':
 231:.\binary.c    ****         blink_zero();
 526              		.loc 1 231 0
 527 01d6 FFF7FEFF 		bl	blink_zero
 528              	.LVL91:
 232:.\binary.c    ****         blink_one();
 529              		.loc 1 232 0
 530 01da FFF7FEFF 		bl	blink_one
 531              	.LVL92:
 233:.\binary.c    ****         blink_zero();
 532              		.loc 1 233 0
 533 01de FFF7FEFF 		bl	blink_zero
 534              	.LVL93:
 535 01e2 4FE0     		b	.L71
 536              	.L48:
 234:.\binary.c    ****         blink_one();
 235:.\binary.c    ****         blink_zero();
 236:.\binary.c    ****         blink_zero();
 237:.\binary.c    ****         blink_zero();
 238:.\binary.c    ****         blink_zero();
 239:.\binary.c    ****         break;
 240:.\binary.c    ****        case 'Q':
 241:.\binary.c    ****        case 'q':
 242:.\binary.c    ****         blink_zero();
 537              		.loc 1 242 0
 538 01e4 FFF7FEFF 		bl	blink_zero
 539              	.LVL94:
 243:.\binary.c    ****         blink_one();
 540              		.loc 1 243 0
 541 01e8 FFF7FEFF 		bl	blink_one
 542              	.LVL95:
 244:.\binary.c    ****         blink_zero();
 543              		.loc 1 244 0
 544 01ec FFF7FEFF 		bl	blink_zero
 545              	.LVL96:
 546 01f0 53E0     		b	.L80
 547              	.L49:
 245:.\binary.c    ****         blink_one();
 246:.\binary.c    ****         blink_zero();
 247:.\binary.c    ****         blink_zero();
 248:.\binary.c    ****         blink_zero();
 249:.\binary.c    ****         blink_one();
ARM GAS  C:\Users\Admin\AppData\Local\Temp\ccvZUe8G.s 			page 15


 250:.\binary.c    ****         break;
 251:.\binary.c    ****        case 'R':
 252:.\binary.c    ****        case 'r':
 253:.\binary.c    ****         blink_zero();
 548              		.loc 1 253 0
 549 01f2 FFF7FEFF 		bl	blink_zero
 550              	.LVL97:
 254:.\binary.c    ****         blink_one();
 551              		.loc 1 254 0
 552 01f6 FFF7FEFF 		bl	blink_one
 553              	.LVL98:
 255:.\binary.c    ****         blink_zero();
 554              		.loc 1 255 0
 555 01fa FFF7FEFF 		bl	blink_zero
 556              	.LVL99:
 557 01fe 57E0     		b	.L90
 558              	.L50:
 256:.\binary.c    ****         blink_one();
 257:.\binary.c    ****         blink_zero();
 258:.\binary.c    ****         blink_zero();
 259:.\binary.c    ****         blink_one();
 260:.\binary.c    ****         blink_zero();
 261:.\binary.c    ****         break;
 262:.\binary.c    ****        case 'S':
 263:.\binary.c    ****        case 's':
 264:.\binary.c    ****         blink_zero();
 559              		.loc 1 264 0
 560 0200 FFF7FEFF 		bl	blink_zero
 561              	.LVL100:
 265:.\binary.c    ****         blink_one();
 562              		.loc 1 265 0
 563 0204 FFF7FEFF 		bl	blink_one
 564              	.LVL101:
 266:.\binary.c    ****         blink_zero();
 565              		.loc 1 266 0
 566 0208 FFF7FEFF 		bl	blink_zero
 567              	.LVL102:
 568 020c 5DE0     		b	.L92
 569              	.L51:
 267:.\binary.c    ****         blink_one();
 268:.\binary.c    ****         blink_zero();
 269:.\binary.c    ****         blink_zero();
 270:.\binary.c    ****         blink_one();
 271:.\binary.c    ****         blink_one();
 272:.\binary.c    ****         break;
 273:.\binary.c    ****        case 'T':
 274:.\binary.c    ****        case 't':
 275:.\binary.c    ****         blink_zero();
 570              		.loc 1 275 0
 571 020e FFF7FEFF 		bl	blink_zero
 572              	.LVL103:
 276:.\binary.c    ****         blink_one();
 573              		.loc 1 276 0
 574 0212 FFF7FEFF 		bl	blink_one
 575              	.LVL104:
 277:.\binary.c    ****         blink_zero();
 576              		.loc 1 277 0
ARM GAS  C:\Users\Admin\AppData\Local\Temp\ccvZUe8G.s 			page 16


 577 0216 FFF7FEFF 		bl	blink_zero
 578              	.LVL105:
 579 021a 63E0     		b	.L72
 580              	.L52:
 278:.\binary.c    ****         blink_one();
 279:.\binary.c    ****         blink_zero();
 280:.\binary.c    ****         blink_one();
 281:.\binary.c    ****         blink_zero();
 282:.\binary.c    ****         blink_zero();
 283:.\binary.c    ****         break;
 284:.\binary.c    ****        case 'U':
 285:.\binary.c    ****        case 'u':
 286:.\binary.c    ****         blink_zero();
 581              		.loc 1 286 0
 582 021c FFF7FEFF 		bl	blink_zero
 583              	.LVL106:
 287:.\binary.c    ****         blink_one();
 584              		.loc 1 287 0
 585 0220 FFF7FEFF 		bl	blink_one
 586              	.LVL107:
 288:.\binary.c    ****         blink_zero();
 587              		.loc 1 288 0
 588 0224 FFF7FEFF 		bl	blink_zero
 589              	.LVL108:
 590 0228 69E0     		b	.L81
 591              	.L53:
 289:.\binary.c    ****         blink_one();
 290:.\binary.c    ****         blink_zero();
 291:.\binary.c    ****         blink_one();
 292:.\binary.c    ****         blink_zero();
 293:.\binary.c    ****         blink_one();
 294:.\binary.c    ****         break;
 295:.\binary.c    ****        case 'V':
 296:.\binary.c    ****        case 'v':
 297:.\binary.c    ****         blink_zero();
 592              		.loc 1 297 0
 593 022a FFF7FEFF 		bl	blink_zero
 594              	.LVL109:
 298:.\binary.c    ****         blink_one();
 595              		.loc 1 298 0
 596 022e FFF7FEFF 		bl	blink_one
 597              	.LVL110:
 299:.\binary.c    ****         blink_zero();
 598              		.loc 1 299 0
 599 0232 FFF7FEFF 		bl	blink_zero
 600              	.LVL111:
 601 0236 6FE0     		b	.L78
 602              	.L54:
 300:.\binary.c    ****         blink_one();
 301:.\binary.c    ****         blink_zero();
 302:.\binary.c    ****         blink_one();
 303:.\binary.c    ****         blink_one();
 304:.\binary.c    ****         blink_zero();
 305:.\binary.c    ****         break;
 306:.\binary.c    ****        case 'W':
 307:.\binary.c    ****        case 'w':
 308:.\binary.c    ****         blink_zero();
ARM GAS  C:\Users\Admin\AppData\Local\Temp\ccvZUe8G.s 			page 17


 603              		.loc 1 308 0
 604 0238 FFF7FEFF 		bl	blink_zero
 605              	.LVL112:
 309:.\binary.c    ****         blink_one();
 606              		.loc 1 309 0
 607 023c FFF7FEFF 		bl	blink_one
 608              	.LVL113:
 310:.\binary.c    ****         blink_zero();
 609              		.loc 1 310 0
 610 0240 FFF7FEFF 		bl	blink_zero
 611              	.LVL114:
 612 0244 77E0     		b	.L87
 613              	.L55:
 311:.\binary.c    ****         blink_one();
 312:.\binary.c    ****         blink_zero();
 313:.\binary.c    ****         blink_one();
 314:.\binary.c    ****         blink_one();
 315:.\binary.c    ****         blink_one();
 316:.\binary.c    ****         break;
 317:.\binary.c    ****        case 'X':
 318:.\binary.c    ****        case 'x':
 319:.\binary.c    ****         blink_zero();
 614              		.loc 1 319 0
 615 0246 FFF7FEFF 		bl	blink_zero
 616              	.LVL115:
 320:.\binary.c    ****         blink_one();
 617              		.loc 1 320 0
 618 024a FFF7FEFF 		bl	blink_one
 619              	.LVL116:
 321:.\binary.c    ****         blink_zero();
 620              		.loc 1 321 0
 621 024e FFF7FEFF 		bl	blink_zero
 622              	.LVL117:
 623 0252 7FE0     		b	.L68
 624              	.L56:
 322:.\binary.c    ****         blink_one();
 323:.\binary.c    ****         blink_one();
 324:.\binary.c    ****         blink_zero();
 325:.\binary.c    ****         blink_zero();
 326:.\binary.c    ****         blink_zero();
 327:.\binary.c    ****         break;
 328:.\binary.c    ****        case 'Y':
 329:.\binary.c    ****        case 'y':
 330:.\binary.c    ****         blink_zero();
 625              		.loc 1 330 0
 626 0254 FFF7FEFF 		bl	blink_zero
 627              	.LVL118:
 331:.\binary.c    ****         blink_one();
 628              		.loc 1 331 0
 629 0258 FFF7FEFF 		bl	blink_one
 630              	.LVL119:
 332:.\binary.c    ****         blink_zero();
 631              		.loc 1 332 0
 632 025c FFF7FEFF 		bl	blink_zero
 633              	.LVL120:
 634 0260 89E0     		b	.L67
 635              	.L57:
ARM GAS  C:\Users\Admin\AppData\Local\Temp\ccvZUe8G.s 			page 18


 333:.\binary.c    ****         blink_one();
 334:.\binary.c    ****         blink_one();
 335:.\binary.c    ****         blink_zero();
 336:.\binary.c    ****         blink_zero();
 337:.\binary.c    ****         blink_one();
 338:.\binary.c    ****         break;
 339:.\binary.c    ****        case 'Z':
 340:.\binary.c    ****        case 'z':
 341:.\binary.c    ****         blink_zero();
 636              		.loc 1 341 0
 637 0262 FFF7FEFF 		bl	blink_zero
 638              	.LVL121:
 342:.\binary.c    ****         blink_one();
 639              		.loc 1 342 0
 640 0266 FFF7FEFF 		bl	blink_one
 641              	.LVL122:
 343:.\binary.c    ****         blink_zero();
 642              		.loc 1 343 0
 643 026a FFF7FEFF 		bl	blink_zero
 644              	.LVL123:
 344:.\binary.c    ****         blink_one();
 645              		.loc 1 344 0
 646 026e FFF7FEFF 		bl	blink_one
 647              	.LVL124:
 648              	.L94:
 345:.\binary.c    ****         blink_one();
 649              		.loc 1 345 0
 650 0272 FFF7FEFF 		bl	blink_one
 651              	.LVL125:
 652 0276 1FE0     		b	.L89
 653              	.L21:
 346:.\binary.c    ****         blink_zero();
 347:.\binary.c    ****         blink_one();
 348:.\binary.c    ****         blink_zero();
 349:.\binary.c    ****         break;
 350:.\binary.c    ****        case '0':
 351:.\binary.c    ****         blink_zero();
 654              		.loc 1 351 0
 655 0278 FFF7FEFF 		bl	blink_zero
 656              	.LVL126:
 352:.\binary.c    ****         blink_zero();
 657              		.loc 1 352 0
 658 027c FFF7FEFF 		bl	blink_zero
 659              	.LVL127:
 353:.\binary.c    ****         blink_one();
 660              		.loc 1 353 0
 661 0280 FFF7FEFF 		bl	blink_one
 662              	.LVL128:
 663              	.L71:
 354:.\binary.c    ****         blink_one();
 664              		.loc 1 354 0
 665 0284 FFF7FEFF 		bl	blink_one
 666              	.LVL129:
 355:.\binary.c    ****         blink_zero();
 667              		.loc 1 355 0
 668 0288 FFF7FEFF 		bl	blink_zero
 669              	.LVL130:
ARM GAS  C:\Users\Admin\AppData\Local\Temp\ccvZUe8G.s 			page 19


 670 028c 66E0     		b	.L66
 671              	.L23:
 356:.\binary.c    ****         blink_zero();
 357:.\binary.c    ****         blink_zero();
 358:.\binary.c    ****         blink_zero();
 359:.\binary.c    ****         break;
 360:.\binary.c    ****        case '1':
 361:.\binary.c    ****         blink_zero();
 672              		.loc 1 361 0
 673 028e FFF7FEFF 		bl	blink_zero
 674              	.LVL131:
 362:.\binary.c    ****         blink_zero();
 675              		.loc 1 362 0
 676 0292 FFF7FEFF 		bl	blink_zero
 677              	.LVL132:
 363:.\binary.c    ****         blink_one();
 678              		.loc 1 363 0
 679 0296 FFF7FEFF 		bl	blink_one
 680              	.LVL133:
 681              	.L80:
 364:.\binary.c    ****         blink_one();
 682              		.loc 1 364 0
 683 029a FFF7FEFF 		bl	blink_one
 684              	.LVL134:
 685              	.L79:
 365:.\binary.c    ****         blink_zero();
 686              		.loc 1 365 0
 687 029e FFF7FEFF 		bl	blink_zero
 688              	.LVL135:
 689 02a2 6CE0     		b	.L62
 690              	.L24:
 366:.\binary.c    ****         blink_zero();
 367:.\binary.c    ****         blink_zero();
 368:.\binary.c    ****         blink_one();
 369:.\binary.c    ****         break;
 370:.\binary.c    ****        case '2':
 371:.\binary.c    ****         blink_zero();
 691              		.loc 1 371 0
 692 02a4 FFF7FEFF 		bl	blink_zero
 693              	.LVL136:
 372:.\binary.c    ****         blink_zero();
 694              		.loc 1 372 0
 695 02a8 FFF7FEFF 		bl	blink_zero
 696              	.LVL137:
 373:.\binary.c    ****         blink_one();
 697              		.loc 1 373 0
 698 02ac FFF7FEFF 		bl	blink_one
 699              	.LVL138:
 700              	.L90:
 374:.\binary.c    ****         blink_one();
 701              		.loc 1 374 0
 702 02b0 FFF7FEFF 		bl	blink_one
 703              	.LVL139:
 704              	.L88:
 375:.\binary.c    ****         blink_zero();
 705              		.loc 1 375 0
 706 02b4 FFF7FEFF 		bl	blink_zero
ARM GAS  C:\Users\Admin\AppData\Local\Temp\ccvZUe8G.s 			page 20


 707              	.LVL140:
 708              	.L89:
 376:.\binary.c    ****         blink_zero();
 709              		.loc 1 376 0
 710 02b8 FFF7FEFF 		bl	blink_zero
 711              	.LVL141:
 712 02bc 32E0     		b	.L75
 713              	.L25:
 377:.\binary.c    ****         blink_one();
 378:.\binary.c    ****         blink_zero();
 379:.\binary.c    ****         break;
 380:.\binary.c    ****        case '3':
 381:.\binary.c    ****         blink_zero();
 714              		.loc 1 381 0
 715 02be FFF7FEFF 		bl	blink_zero
 716              	.LVL142:
 382:.\binary.c    ****         blink_zero();
 717              		.loc 1 382 0
 718 02c2 FFF7FEFF 		bl	blink_zero
 719              	.LVL143:
 383:.\binary.c    ****         blink_one();
 720              		.loc 1 383 0
 721 02c6 FFF7FEFF 		bl	blink_one
 722              	.LVL144:
 723              	.L92:
 384:.\binary.c    ****         blink_one();
 724              		.loc 1 384 0
 725 02ca FFF7FEFF 		bl	blink_one
 726              	.LVL145:
 727              	.L91:
 385:.\binary.c    ****         blink_zero();
 728              		.loc 1 385 0
 729 02ce FFF7FEFF 		bl	blink_zero
 730              	.LVL146:
 731              	.L93:
 386:.\binary.c    ****         blink_zero();
 732              		.loc 1 386 0
 733 02d2 FFF7FEFF 		bl	blink_zero
 734              	.LVL147:
 735 02d6 34E0     		b	.L84
 736              	.L26:
 387:.\binary.c    ****         blink_one();
 388:.\binary.c    ****         blink_one();
 389:.\binary.c    ****         break;
 390:.\binary.c    ****        case '4':
 391:.\binary.c    ****         blink_zero();
 737              		.loc 1 391 0
 738 02d8 FFF7FEFF 		bl	blink_zero
 739              	.LVL148:
 392:.\binary.c    ****         blink_zero();
 740              		.loc 1 392 0
 741 02dc FFF7FEFF 		bl	blink_zero
 742              	.LVL149:
 393:.\binary.c    ****         blink_one();
 743              		.loc 1 393 0
 744 02e0 FFF7FEFF 		bl	blink_one
 745              	.LVL150:
ARM GAS  C:\Users\Admin\AppData\Local\Temp\ccvZUe8G.s 			page 21


 746              	.L72:
 394:.\binary.c    ****         blink_one();
 747              		.loc 1 394 0
 748 02e4 FFF7FEFF 		bl	blink_one
 749              	.LVL151:
 750              	.L73:
 395:.\binary.c    ****         blink_zero();
 751              		.loc 1 395 0
 752 02e8 FFF7FEFF 		bl	blink_zero
 753              	.LVL152:
 754              	.L74:
 396:.\binary.c    ****         blink_one();
 755              		.loc 1 396 0
 756 02ec FFF7FEFF 		bl	blink_one
 757              	.LVL153:
 758 02f0 36E0     		b	.L65
 759              	.L27:
 397:.\binary.c    ****         blink_zero();
 398:.\binary.c    ****         blink_zero();
 399:.\binary.c    ****         break;
 400:.\binary.c    ****        case '5':
 401:.\binary.c    ****         blink_zero();
 760              		.loc 1 401 0
 761 02f2 FFF7FEFF 		bl	blink_zero
 762              	.LVL154:
 402:.\binary.c    ****         blink_zero();
 763              		.loc 1 402 0
 764 02f6 FFF7FEFF 		bl	blink_zero
 765              	.LVL155:
 403:.\binary.c    ****         blink_one();
 766              		.loc 1 403 0
 767 02fa FFF7FEFF 		bl	blink_one
 768              	.LVL156:
 769              	.L81:
 404:.\binary.c    ****         blink_one();
 770              		.loc 1 404 0
 771 02fe FFF7FEFF 		bl	blink_one
 772              	.LVL157:
 773              	.L82:
 405:.\binary.c    ****         blink_zero();
 774              		.loc 1 405 0
 775 0302 FFF7FEFF 		bl	blink_zero
 776              	.LVL158:
 777              	.L83:
 406:.\binary.c    ****         blink_one();
 778              		.loc 1 406 0
 779 0306 FFF7FEFF 		bl	blink_one
 780              	.LVL159:
 781 030a 3AE0     		b	.L64
 782              	.L28:
 407:.\binary.c    ****         blink_zero();
 408:.\binary.c    ****         blink_one();
 409:.\binary.c    ****         break;
 410:.\binary.c    ****        case '6':
 411:.\binary.c    ****         blink_zero();
 783              		.loc 1 411 0
 784 030c FFF7FEFF 		bl	blink_zero
ARM GAS  C:\Users\Admin\AppData\Local\Temp\ccvZUe8G.s 			page 22


 785              	.LVL160:
 412:.\binary.c    ****         blink_zero();
 786              		.loc 1 412 0
 787 0310 FFF7FEFF 		bl	blink_zero
 788              	.LVL161:
 413:.\binary.c    ****         blink_one();
 789              		.loc 1 413 0
 790 0314 FFF7FEFF 		bl	blink_one
 791              	.LVL162:
 792              	.L78:
 414:.\binary.c    ****         blink_one();
 793              		.loc 1 414 0
 794 0318 FFF7FEFF 		bl	blink_one
 795              	.LVL163:
 796              	.L76:
 415:.\binary.c    ****         blink_zero();
 797              		.loc 1 415 0
 798 031c FFF7FEFF 		bl	blink_zero
 799              	.LVL164:
 800              	.L77:
 416:.\binary.c    ****         blink_one();
 801              		.loc 1 416 0
 802 0320 FFF7FEFF 		bl	blink_one
 803              	.LVL165:
 804              	.L75:
 417:.\binary.c    ****         blink_one();
 805              		.loc 1 417 0
 806 0324 FFF7FEFF 		bl	blink_one
 807              	.LVL166:
 808 0328 1CE0     		b	.L63
 809              	.L29:
 418:.\binary.c    ****         blink_zero();
 419:.\binary.c    ****         break;
 420:.\binary.c    ****        case '7':
 421:.\binary.c    ****         blink_zero();
 810              		.loc 1 421 0
 811 032a FFF7FEFF 		bl	blink_zero
 812              	.LVL167:
 422:.\binary.c    ****         blink_zero();
 813              		.loc 1 422 0
 814 032e FFF7FEFF 		bl	blink_zero
 815              	.LVL168:
 423:.\binary.c    ****         blink_one();
 816              		.loc 1 423 0
 817 0332 FFF7FEFF 		bl	blink_one
 818              	.LVL169:
 819              	.L87:
 424:.\binary.c    ****         blink_one();
 820              		.loc 1 424 0
 821 0336 FFF7FEFF 		bl	blink_one
 822              	.LVL170:
 823              	.L85:
 425:.\binary.c    ****         blink_zero();
 824              		.loc 1 425 0
 825 033a FFF7FEFF 		bl	blink_zero
 826              	.LVL171:
 827              	.L86:
ARM GAS  C:\Users\Admin\AppData\Local\Temp\ccvZUe8G.s 			page 23


 426:.\binary.c    ****         blink_one();
 828              		.loc 1 426 0
 829 033e FFF7FEFF 		bl	blink_one
 830              	.LVL172:
 831              	.L84:
 427:.\binary.c    ****         blink_one();
 832              		.loc 1 427 0
 833 0342 FFF7FEFF 		bl	blink_one
 834              	.LVL173:
 835 0346 1EE0     		b	.L61
 836              	.L30:
 428:.\binary.c    ****         blink_one();
 429:.\binary.c    ****         break;
 430:.\binary.c    ****        case '8':
 431:.\binary.c    ****         blink_zero();
 837              		.loc 1 431 0
 838 0348 FFF7FEFF 		bl	blink_zero
 839              	.LVL174:
 432:.\binary.c    ****         blink_zero();
 840              		.loc 1 432 0
 841 034c FFF7FEFF 		bl	blink_zero
 842              	.LVL175:
 433:.\binary.c    ****         blink_one();
 843              		.loc 1 433 0
 844 0350 FFF7FEFF 		bl	blink_one
 845              	.LVL176:
 846              	.L68:
 434:.\binary.c    ****         blink_one();
 847              		.loc 1 434 0
 848 0354 FFF7FEFF 		bl	blink_one
 849              	.LVL177:
 850              	.L70:
 435:.\binary.c    ****         blink_one();
 851              		.loc 1 435 0
 852 0358 FFF7FEFF 		bl	blink_one
 853              	.LVL178:
 854              	.L66:
 436:.\binary.c    ****         blink_zero();
 855              		.loc 1 436 0
 856 035c FFF7FEFF 		bl	blink_zero
 857              	.LVL179:
 858              	.L65:
 437:.\binary.c    ****         blink_zero();
 859              		.loc 1 437 0
 860 0360 FFF7FEFF 		bl	blink_zero
 861              	.LVL180:
 862              	.L63:
 438:.\binary.c    ****         blink_zero();
 863              		.loc 1 438 0
 864 0364 FFF7FEFF 		bl	blink_zero
 865              	.LVL181:
 439:.\binary.c    ****         break;
 866              		.loc 1 439 0
 867 0368 0FE0     		b	.L19
 868              	.L31:
 440:.\binary.c    ****        case '9':
 441:.\binary.c    ****         blink_zero();
ARM GAS  C:\Users\Admin\AppData\Local\Temp\ccvZUe8G.s 			page 24


 869              		.loc 1 441 0
 870 036a FFF7FEFF 		bl	blink_zero
 871              	.LVL182:
 442:.\binary.c    ****         blink_zero();
 872              		.loc 1 442 0
 873 036e FFF7FEFF 		bl	blink_zero
 874              	.LVL183:
 443:.\binary.c    ****         blink_one();
 875              		.loc 1 443 0
 876 0372 FFF7FEFF 		bl	blink_one
 877              	.LVL184:
 878              	.L67:
 444:.\binary.c    ****         blink_one();
 879              		.loc 1 444 0
 880 0376 FFF7FEFF 		bl	blink_one
 881              	.LVL185:
 882              	.L69:
 445:.\binary.c    ****         blink_one();
 883              		.loc 1 445 0
 884 037a FFF7FEFF 		bl	blink_one
 885              	.LVL186:
 886              	.L62:
 446:.\binary.c    ****         blink_zero();
 887              		.loc 1 446 0
 888 037e FFF7FEFF 		bl	blink_zero
 889              	.LVL187:
 890              	.L64:
 447:.\binary.c    ****         blink_zero();
 891              		.loc 1 447 0
 892 0382 FFF7FEFF 		bl	blink_zero
 893              	.LVL188:
 894              	.L61:
 448:.\binary.c    ****         blink_one();
 895              		.loc 1 448 0
 896 0386 FFF7FEFF 		bl	blink_one
 897              	.LVL189:
 898              	.L19:
 449:.\binary.c    ****         break;
 450:.\binary.c    ****        case '\n':
 451:.\binary.c    ****         /* Clear the screen on a new line */
 452:.\binary.c    ****         break;
 453:.\binary.c    ****    }
 454:.\binary.c    **** }
 899              		.loc 1 454 0
 900              		@ sp needed
 901 038a 10BD     		pop	{r4, pc}
 902              		.cfi_endproc
 903              	.LFE36:
 904              		.size	binary_encode, .-binary_encode
 905              		.section	.text.binary_message,"ax",%progbits
 906              		.align	1
 907              		.global	binary_message
 908              		.code	16
 909              		.thumb_func
 910              		.type	binary_message, %function
 911              	binary_message:
 912              	.LFB37:
ARM GAS  C:\Users\Admin\AppData\Local\Temp\ccvZUe8G.s 			page 25


 455:.\binary.c    **** 
 456:.\binary.c    **** void binary_message(char* message) {
 913              		.loc 1 456 0
 914              		.cfi_startproc
 915              	.LVL190:
 916 0000 38B5     		push	{r3, r4, r5, lr}
 917              		.cfi_def_cfa_offset 16
 918              		.cfi_offset 3, -16
 919              		.cfi_offset 4, -12
 920              		.cfi_offset 5, -8
 921              		.cfi_offset 14, -4
 922              		.loc 1 456 0
 923 0002 051C     		mov	r5, r0
 457:.\binary.c    ****     unsigned int i;
 458:.\binary.c    ****     
 459:.\binary.c    ****     /* Signal new message to user */
 460:.\binary.c    ****     new_message_binary();
 924              		.loc 1 460 0
 925 0004 FFF7FEFF 		bl	new_message_binary
 926              	.LVL191:
 461:.\binary.c    ****     
 462:.\binary.c    ****     /* Blink the encoded message */
 463:.\binary.c    ****     for (i=0; i < strlen(message); i++) {
 927              		.loc 1 463 0
 928 0008 0024     		mov	r4, #0
 929              	.LVL192:
 930              	.L96:
 931              		.loc 1 463 0 is_stmt 0 discriminator 1
 932 000a 281C     		mov	r0, r5
 933 000c FFF7FEFF 		bl	strlen
 934              	.LVL193:
 935 0010 8442     		cmp	r4, r0
 936 0012 09D2     		bcs	.L95
 464:.\binary.c    ****         /* Verify state */
 465:.\binary.c    ****         if(!verify_state(BINARY)) {
 937              		.loc 1 465 0 is_stmt 1
 938 0014 0220     		mov	r0, #2
 939 0016 FFF7FEFF 		bl	verify_state
 940              	.LVL194:
 941 001a 0028     		cmp	r0, #0
 942 001c 04D0     		beq	.L95
 466:.\binary.c    ****             return;
 467:.\binary.c    ****         }
 468:.\binary.c    ****         binary_encode(message[i]);
 943              		.loc 1 468 0
 944 001e 285D     		ldrb	r0, [r5, r4]
 945 0020 FFF7FEFF 		bl	binary_encode
 946              	.LVL195:
 463:.\binary.c    ****     for (i=0; i < strlen(message); i++) {
 947              		.loc 1 463 0
 948 0024 0134     		add	r4, r4, #1
 949              	.LVL196:
 950 0026 F0E7     		b	.L96
 951              	.L95:
 469:.\binary.c    ****     }
 470:.\binary.c    **** }
 952              		.loc 1 470 0
ARM GAS  C:\Users\Admin\AppData\Local\Temp\ccvZUe8G.s 			page 26


 953              		@ sp needed
 954              	.LVL197:
 955              	.LVL198:
 956 0028 38BD     		pop	{r3, r4, r5, pc}
 957              		.cfi_endproc
 958              	.LFE37:
 959              		.size	binary_message, .-binary_message
 960              		.text
 961              	.Letext0:
 962              		.file 2 ".\\Generated_Source\\PSoC4/cytypes.h"
 963              		.file 3 "c:\\program files\\cypress\\psoc creator\\3.1\\psoc creator\\import\\gnu_cs\\arm\\4.8.4\\
 964              		.file 4 ".\\lightlib.h"
 965              		.file 5 ".\\Generated_Source\\PSoC4/CyLib.h"
 966              		.file 6 ".\\state.h"
 967              		.file 7 "c:\\program files\\cypress\\psoc creator\\3.1\\psoc creator\\import\\gnu_cs\\arm\\4.8.4\\