ARM GAS  C:\Users\Admin\AppData\Local\Temp\ccnuK7s7.s 			page 1


   1              		.cpu cortex-m0
   2              		.fpu softvfp
   3              		.eabi_attribute 20, 1
   4              		.eabi_attribute 21, 1
   5              		.eabi_attribute 23, 3
   6              		.eabi_attribute 24, 1
   7              		.eabi_attribute 25, 1
   8              		.eabi_attribute 26, 1
   9              		.eabi_attribute 30, 4
  10              		.eabi_attribute 34, 0
  11              		.eabi_attribute 18, 4
  12              		.code	16
  13              		.file	"lightlib.c"
  14              		.text
  15              	.Ltext0:
  16              		.cfi_sections	.debug_frame
  17              		.section	.text.set_color,"ax",%progbits
  18              		.align	1
  19              		.global	set_color
  20              		.code	16
  21              		.thumb_func
  22              		.type	set_color, %function
  23              	set_color:
  24              	.LFB33:
  25              		.file 1 ".\\lightlib.c"
   1:.\lightlib.c  **** /* ========================================
   2:.\lightlib.c  ****  *
   3:.\lightlib.c  ****  * Copyright Nullify, 2016
   4:.\lightlib.c  ****  * All Rights Reserved
   5:.\lightlib.c  ****  * UNPUBLISHED, LICENSED SOFTWARE.
   6:.\lightlib.c  ****  *
   7:.\lightlib.c  ****  * CONFIDENTIAL AND PROPRIETARY INFORMATION
   8:.\lightlib.c  ****  * WHICH IS THE PROPERTY OF NULLIY.
   9:.\lightlib.c  ****  *
  10:.\lightlib.c  ****  * ========================================
  11:.\lightlib.c  **** */
  12:.\lightlib.c  **** #include <project.h>
  13:.\lightlib.c  **** #include "lightlib.h"
  14:.\lightlib.c  **** 
  15:.\lightlib.c  **** 
  16:.\lightlib.c  **** /* Allocate a structure for each led in the project */
  17:.\lightlib.c  **** volatile struct RGB_LED_State Left_LED_State;
  18:.\lightlib.c  **** volatile struct RGB_LED_State Right_LED_State;
  19:.\lightlib.c  **** volatile struct LED_State IR_LED_State;
  20:.\lightlib.c  **** volatile struct LED_State Board_LED_State;
  21:.\lightlib.c  **** 
  22:.\lightlib.c  **** /*
  23:.\lightlib.c  ****  * Sets the color of the of the passed in led_flag.
  24:.\lightlib.c  ****  */
  25:.\lightlib.c  **** void set_color(uint8 led_flag, uint8 color) {
  26              		.loc 1 25 0
  27              		.cfi_startproc
  28              	.LVL0:
  29 0000 10B5     		push	{r4, lr}
  30              		.cfi_def_cfa_offset 8
  31              		.cfi_offset 4, -8
  32              		.cfi_offset 14, -4
ARM GAS  C:\Users\Admin\AppData\Local\Temp\ccnuK7s7.s 			page 2


  33              		.loc 1 25 0
  34 0002 0C1C     		mov	r4, r1
  26:.\lightlib.c  ****     switch(led_flag) {
  35              		.loc 1 26 0
  36 0004 0228     		cmp	r0, #2
  37 0006 08D0     		beq	.L3
  38 0008 0328     		cmp	r0, #3
  39 000a 03D0     		beq	.L4
  40 000c 0128     		cmp	r0, #1
  41 000e 06D1     		bne	.L1
  27:.\lightlib.c  ****         case LEFT_LED:
  28:.\lightlib.c  ****             Left_LED_State.color = color;
  42              		.loc 1 28 0
  43 0010 034B     		ldr	r3, .L11
  44 0012 03E0     		b	.L9
  45              	.L4:
  29:.\lightlib.c  ****         break;
  30:.\lightlib.c  ****         case RIGHT_LED:
  31:.\lightlib.c  ****             Right_LED_State.color = color;
  32:.\lightlib.c  ****         break;
  33:.\lightlib.c  ****         case LEFT_RIGHT_LED:
  34:.\lightlib.c  ****             set_color(LEFT_LED, color);
  46              		.loc 1 34 0
  47 0014 0120     		mov	r0, #1
  48              	.LVL1:
  49 0016 FFF7FEFF 		bl	set_color
  50              	.LVL2:
  51              	.L3:
  31:.\lightlib.c  ****             Right_LED_State.color = color;
  52              		.loc 1 31 0
  53 001a 024B     		ldr	r3, .L11+4
  54              	.L9:
  55 001c 5C70     		strb	r4, [r3, #1]
  56              	.L1:
  35:.\lightlib.c  ****             set_color(RIGHT_LED, color);
  36:.\lightlib.c  ****         break;
  37:.\lightlib.c  ****     }    
  38:.\lightlib.c  **** }
  57              		.loc 1 38 0
  58              		@ sp needed
  59 001e 10BD     		pop	{r4, pc}
  60              	.L12:
  61              		.align	2
  62              	.L11:
  63 0020 00000000 		.word	Left_LED_State
  64 0024 00000000 		.word	Right_LED_State
  65              		.cfi_endproc
  66              	.LFE33:
  67              		.size	set_color, .-set_color
  68              		.section	.text.set_status,"ax",%progbits
  69              		.align	1
  70              		.global	set_status
  71              		.code	16
  72              		.thumb_func
  73              		.type	set_status, %function
  74              	set_status:
  75              	.LFB34:
ARM GAS  C:\Users\Admin\AppData\Local\Temp\ccnuK7s7.s 			page 3


  39:.\lightlib.c  **** 
  40:.\lightlib.c  **** void set_status(uint8 led_flag, uint8 status) {
  76              		.loc 1 40 0
  77              		.cfi_startproc
  78              	.LVL3:
  41:.\lightlib.c  ****     switch(led_flag) {
  79              		.loc 1 41 0
  80 0000 0138     		sub	r0, r0, #1
  81              	.LVL4:
  40:.\lightlib.c  **** void set_status(uint8 led_flag, uint8 status) {
  82              		.loc 1 40 0
  83 0002 10B5     		push	{r4, lr}
  84              		.cfi_def_cfa_offset 8
  85              		.cfi_offset 4, -8
  86              		.cfi_offset 14, -4
  40:.\lightlib.c  **** void set_status(uint8 led_flag, uint8 status) {
  87              		.loc 1 40 0
  88 0004 0C1C     		mov	r4, r1
  89              		.loc 1 41 0
  90 0006 0428     		cmp	r0, #4
  91 0008 0FD8     		bhi	.L13
  92 000a FFF7FEFF 		bl	__gnu_thumb1_case_uqi
  93              	.L16:
  94 000e 03       		.byte	(.L15-.L16)/2
  95 000f 08       		.byte	(.L17-.L16)/2
  96 0010 05       		.byte	(.L18-.L16)/2
  97 0011 0A       		.byte	(.L19-.L16)/2
  98 0012 0C       		.byte	(.L20-.L16)/2
  99 0013 00       		.p2align 1
 100              	.L15:
  42:.\lightlib.c  ****         case LEFT_LED:
  43:.\lightlib.c  ****             Left_LED_State.status = status;
 101              		.loc 1 43 0
 102 0014 054B     		ldr	r3, .L22
 103 0016 07E0     		b	.L21
 104              	.L18:
  44:.\lightlib.c  ****         break;
  45:.\lightlib.c  ****         case RIGHT_LED:
  46:.\lightlib.c  ****             Right_LED_State.status = status;
  47:.\lightlib.c  ****         break;
  48:.\lightlib.c  ****         case LEFT_RIGHT_LED:
  49:.\lightlib.c  ****             set_status(LEFT_LED, status);
 105              		.loc 1 49 0
 106 0018 0120     		mov	r0, #1
 107 001a FFF7FEFF 		bl	set_status
 108              	.LVL5:
 109              	.L17:
  46:.\lightlib.c  ****             Right_LED_State.status = status;
 110              		.loc 1 46 0
 111 001e 044B     		ldr	r3, .L22+4
 112 0020 02E0     		b	.L21
 113              	.LVL6:
 114              	.L19:
  50:.\lightlib.c  ****             set_status(RIGHT_LED, status);
  51:.\lightlib.c  ****         break;
  52:.\lightlib.c  ****         case IR_LED:
  53:.\lightlib.c  ****             IR_LED_State.status = status;
ARM GAS  C:\Users\Admin\AppData\Local\Temp\ccnuK7s7.s 			page 4


 115              		.loc 1 53 0
 116 0022 044B     		ldr	r3, .L22+8
 117 0024 00E0     		b	.L21
 118              	.L20:
  54:.\lightlib.c  ****         break;
  55:.\lightlib.c  ****         case BOARD_LED:
  56:.\lightlib.c  ****            Board_LED_State.status = status;
 119              		.loc 1 56 0
 120 0026 044B     		ldr	r3, .L22+12
 121              	.LVL7:
 122              	.L21:
 123 0028 1C70     		strb	r4, [r3]
 124              	.L13:
  57:.\lightlib.c  ****         break;
  58:.\lightlib.c  ****     }    
  59:.\lightlib.c  **** }
 125              		.loc 1 59 0
 126              		@ sp needed
 127 002a 10BD     		pop	{r4, pc}
 128              	.L23:
 129              		.align	2
 130              	.L22:
 131 002c 00000000 		.word	Left_LED_State
 132 0030 00000000 		.word	Right_LED_State
 133 0034 00000000 		.word	IR_LED_State
 134 0038 00000000 		.word	Board_LED_State
 135              		.cfi_endproc
 136              	.LFE34:
 137              		.size	set_status, .-set_status
 138              		.section	.text.get_color,"ax",%progbits
 139              		.align	1
 140              		.global	get_color
 141              		.code	16
 142              		.thumb_func
 143              		.type	get_color, %function
 144              	get_color:
 145              	.LFB35:
  60:.\lightlib.c  **** 
  61:.\lightlib.c  **** uint8 get_color(uint8 led_flag) {
 146              		.loc 1 61 0
 147              		.cfi_startproc
 148              	.LVL8:
  62:.\lightlib.c  ****     switch(led_flag) {
 149              		.loc 1 62 0
 150 0000 0128     		cmp	r0, #1
 151 0002 03D0     		beq	.L26
 152 0004 0228     		cmp	r0, #2
 153 0006 05D1     		bne	.L31
  63:.\lightlib.c  ****         case LEFT_LED:
  64:.\lightlib.c  ****             return Left_LED_State.color;
  65:.\lightlib.c  ****         break;
  66:.\lightlib.c  ****         case RIGHT_LED:
  67:.\lightlib.c  ****             return Right_LED_State.color;
 154              		.loc 1 67 0
 155 0008 034B     		ldr	r3, .L32
 156 000a 00E0     		b	.L30
 157              	.L26:
ARM GAS  C:\Users\Admin\AppData\Local\Temp\ccnuK7s7.s 			page 5


  64:.\lightlib.c  ****             return Left_LED_State.color;
 158              		.loc 1 64 0
 159 000c 034B     		ldr	r3, .L32+4
 160              	.L30:
 161              		.loc 1 67 0
 162 000e 5878     		ldrb	r0, [r3, #1]
 163              	.LVL9:
 164 0010 C0B2     		uxtb	r0, r0
 165 0012 00E0     		b	.L25
 166              	.LVL10:
 167              	.L31:
  68:.\lightlib.c  ****         break;
  69:.\lightlib.c  ****     }
  70:.\lightlib.c  ****     return -1;
 168              		.loc 1 70 0
 169 0014 FF20     		mov	r0, #255
 170              	.LVL11:
 171              	.L25:
  71:.\lightlib.c  **** }
 172              		.loc 1 71 0
 173              		@ sp needed
 174 0016 7047     		bx	lr
 175              	.L33:
 176              		.align	2
 177              	.L32:
 178 0018 00000000 		.word	Right_LED_State
 179 001c 00000000 		.word	Left_LED_State
 180              		.cfi_endproc
 181              	.LFE35:
 182              		.size	get_color, .-get_color
 183              		.section	.text.get_status,"ax",%progbits
 184              		.align	1
 185              		.global	get_status
 186              		.code	16
 187              		.thumb_func
 188              		.type	get_status, %function
 189              	get_status:
 190              	.LFB36:
  72:.\lightlib.c  **** 
  73:.\lightlib.c  **** uint8 get_status(uint8 led_flag) {
 191              		.loc 1 73 0
 192              		.cfi_startproc
 193              	.LVL12:
  74:.\lightlib.c  ****     switch(led_flag) {
 194              		.loc 1 74 0
 195 0000 0138     		sub	r0, r0, #1
 196              	.LVL13:
  73:.\lightlib.c  **** uint8 get_status(uint8 led_flag) {
 197              		.loc 1 73 0
 198 0002 00B5     		push	{lr}
 199              		.cfi_def_cfa_offset 4
 200              		.cfi_offset 14, -4
 201              		.loc 1 74 0
 202 0004 0428     		cmp	r0, #4
 203 0006 0ED8     		bhi	.L41
 204 0008 FFF7FEFF 		bl	__gnu_thumb1_case_uqi
 205              	.L37:
ARM GAS  C:\Users\Admin\AppData\Local\Temp\ccnuK7s7.s 			page 6


 206 000c 03       		.byte	(.L36-.L37)/2
 207 000d 05       		.byte	(.L38-.L37)/2
 208 000e 0D       		.byte	(.L41-.L37)/2
 209 000f 07       		.byte	(.L39-.L37)/2
 210 0010 09       		.byte	(.L40-.L37)/2
 211 0011 00       		.p2align 1
 212              	.L36:
  75:.\lightlib.c  ****         case LEFT_LED:
  76:.\lightlib.c  ****             return Left_LED_State.status;
 213              		.loc 1 76 0
 214 0012 064B     		ldr	r3, .L43
 215 0014 04E0     		b	.L42
 216              	.L38:
  77:.\lightlib.c  ****         break;
  78:.\lightlib.c  ****         case RIGHT_LED:
  79:.\lightlib.c  ****             return Right_LED_State.status;
 217              		.loc 1 79 0
 218 0016 064B     		ldr	r3, .L43+4
 219 0018 02E0     		b	.L42
 220              	.L39:
  80:.\lightlib.c  ****         break;
  81:.\lightlib.c  ****         case IR_LED:
  82:.\lightlib.c  ****             return IR_LED_State.status;
 221              		.loc 1 82 0
 222 001a 064B     		ldr	r3, .L43+8
 223 001c 00E0     		b	.L42
 224              	.L40:
  83:.\lightlib.c  ****         break;
  84:.\lightlib.c  ****         case BOARD_LED:
  85:.\lightlib.c  ****            return Board_LED_State.status;
 225              		.loc 1 85 0
 226 001e 064B     		ldr	r3, .L43+12
 227              	.L42:
 228 0020 1878     		ldrb	r0, [r3]
 229 0022 C0B2     		uxtb	r0, r0
 230 0024 00E0     		b	.L35
 231              	.L41:
  86:.\lightlib.c  ****         break;
  87:.\lightlib.c  ****     }  
  88:.\lightlib.c  ****     return -1;
 232              		.loc 1 88 0
 233 0026 FF20     		mov	r0, #255
 234              	.L35:
  89:.\lightlib.c  **** }
 235              		.loc 1 89 0
 236              		@ sp needed
 237 0028 00BD     		pop	{pc}
 238              	.L44:
 239 002a C046     		.align	2
 240              	.L43:
 241 002c 00000000 		.word	Left_LED_State
 242 0030 00000000 		.word	Right_LED_State
 243 0034 00000000 		.word	IR_LED_State
 244 0038 00000000 		.word	Board_LED_State
 245              		.cfi_endproc
 246              	.LFE36:
 247              		.size	get_status, .-get_status
ARM GAS  C:\Users\Admin\AppData\Local\Temp\ccnuK7s7.s 			page 7


 248              		.section	.text.turn_on,"ax",%progbits
 249              		.align	1
 250              		.global	turn_on
 251              		.code	16
 252              		.thumb_func
 253              		.type	turn_on, %function
 254              	turn_on:
 255              	.LFB37:
  90:.\lightlib.c  **** 
  91:.\lightlib.c  **** void turn_on(uint8 led_flag) {
 256              		.loc 1 91 0
 257              		.cfi_startproc
 258              	.LVL14:
  92:.\lightlib.c  ****     switch(led_flag) {
 259              		.loc 1 92 0
 260 0000 0138     		sub	r0, r0, #1
 261              	.LVL15:
  91:.\lightlib.c  **** void turn_on(uint8 led_flag) {
 262              		.loc 1 91 0
 263 0002 08B5     		push	{r3, lr}
 264              		.cfi_def_cfa_offset 8
 265              		.cfi_offset 3, -8
 266              		.cfi_offset 14, -4
 267              		.loc 1 92 0
 268 0004 0428     		cmp	r0, #4
 269 0006 56D8     		bhi	.L45
 270 0008 FFF7FEFF 		bl	__gnu_thumb1_case_uqi
 271              	.L48:
 272 000c 03       		.byte	(.L47-.L48)/2
 273 000d 28       		.byte	(.L49-.L48)/2
 274 000e 25       		.byte	(.L50-.L48)/2
 275 000f 49       		.byte	(.L51-.L48)/2
 276 0010 4E       		.byte	(.L52-.L48)/2
 277 0011 00       		.p2align 1
 278              	.L47:
 279              	.LVL16:
 280              	.LBB6:
 281              	.LBB7:
  64:.\lightlib.c  ****             return Left_LED_State.color;
 282              		.loc 1 64 0
 283 0012 294B     		ldr	r3, .L79
 284 0014 5878     		ldrb	r0, [r3, #1]
 285              	.LBE7:
 286              	.LBE6:
  93:.\lightlib.c  ****         case LEFT_LED:
  94:.\lightlib.c  ****             switch(get_color(LEFT_LED)) {
 287              		.loc 1 94 0
 288 0016 0138     		sub	r0, r0, #1
 289 0018 0628     		cmp	r0, #6
 290 001a 19D8     		bhi	.L53
 291 001c FFF7FEFF 		bl	__gnu_thumb1_case_uqi
 292              	.L55:
 293 0020 04       		.byte	(.L54-.L55)/2
 294 0021 09       		.byte	(.L71-.L55)/2
 295 0022 07       		.byte	(.L57-.L55)/2
 296 0023 15       		.byte	(.L73-.L55)/2
 297 0024 0D       		.byte	(.L59-.L55)/2
ARM GAS  C:\Users\Admin\AppData\Local\Temp\ccnuK7s7.s 			page 8


 298 0025 12       		.byte	(.L72-.L55)/2
 299 0026 10       		.byte	(.L61-.L55)/2
 300 0027 00       		.p2align 1
 301              	.L54:
  95:.\lightlib.c  ****                 case RED:
  96:.\lightlib.c  ****                     PWM_Left_LED_Red_Start();
 302              		.loc 1 96 0
 303 0028 FFF7FEFF 		bl	PWM_Left_LED_Red_Start
 304              	.LVL17:
  97:.\lightlib.c  ****                 break;
 305              		.loc 1 97 0
 306 002c 10E0     		b	.L53
 307              	.L57:
  98:.\lightlib.c  ****                 case BLUE:
  99:.\lightlib.c  ****                     Left_LED_Blue_Write(1);
 100:.\lightlib.c  ****                 break;
 101:.\lightlib.c  ****                 case MAGENTA:
 102:.\lightlib.c  ****                     PWM_Left_LED_Red_Start();
 308              		.loc 1 102 0
 309 002e FFF7FEFF 		bl	PWM_Left_LED_Red_Start
 310              	.LVL18:
 311              	.L71:
 103:.\lightlib.c  ****                     Left_LED_Blue_Write(1);
 312              		.loc 1 103 0
 313 0032 0120     		mov	r0, #1
 314 0034 FFF7FEFF 		bl	Left_LED_Blue_Write
 315              	.LVL19:
 104:.\lightlib.c  ****                 break;
 316              		.loc 1 104 0
 317 0038 0AE0     		b	.L53
 318              	.L59:
 105:.\lightlib.c  ****                 case GREEN:
 106:.\lightlib.c  ****                     Left_LED_Green_Write(1);
 107:.\lightlib.c  ****                 break;
 108:.\lightlib.c  ****                 case YELLOW:
 109:.\lightlib.c  ****                     PWM_Left_LED_Red_Start();
 319              		.loc 1 109 0
 320 003a FFF7FEFF 		bl	PWM_Left_LED_Red_Start
 321              	.LVL20:
 322 003e 04E0     		b	.L73
 323              	.L61:
 110:.\lightlib.c  ****                     Left_LED_Green_Write(1);
 111:.\lightlib.c  ****                 break;
 112:.\lightlib.c  ****                 case CYAN:
 113:.\lightlib.c  ****                     Left_LED_Blue_Write(1);
 114:.\lightlib.c  ****                     Left_LED_Green_Write(1);
 115:.\lightlib.c  ****                 break;
 116:.\lightlib.c  ****                 case WHITE:
 117:.\lightlib.c  ****                     PWM_Left_LED_Red_Start();
 324              		.loc 1 117 0
 325 0040 FFF7FEFF 		bl	PWM_Left_LED_Red_Start
 326              	.LVL21:
 327              	.L72:
 118:.\lightlib.c  ****                     Left_LED_Blue_Write(1);
 328              		.loc 1 118 0
 329 0044 0120     		mov	r0, #1
 330 0046 FFF7FEFF 		bl	Left_LED_Blue_Write
ARM GAS  C:\Users\Admin\AppData\Local\Temp\ccnuK7s7.s 			page 9


 331              	.LVL22:
 332              	.L73:
 119:.\lightlib.c  ****                     Left_LED_Green_Write(1);
 333              		.loc 1 119 0
 334 004a 0120     		mov	r0, #1
 335 004c FFF7FEFF 		bl	Left_LED_Green_Write
 336              	.LVL23:
 337              	.L53:
 120:.\lightlib.c  ****                 break;
 121:.\lightlib.c  ****             }
 122:.\lightlib.c  ****         set_status(LEFT_LED, ON);
 338              		.loc 1 122 0
 339 0050 0120     		mov	r0, #1
 340 0052 011C     		mov	r1, r0
 341 0054 2DE0     		b	.L78
 342              	.LVL24:
 343              	.L50:
 123:.\lightlib.c  ****         break;
 124:.\lightlib.c  ****         case RIGHT_LED:
 125:.\lightlib.c  ****             switch(get_color(RIGHT_LED)) {
 126:.\lightlib.c  ****                 case RED:
 127:.\lightlib.c  ****                     PWM_Right_LED_Red_Start();
 128:.\lightlib.c  ****                 break;
 129:.\lightlib.c  ****                 case BLUE:
 130:.\lightlib.c  ****                     Right_LED_Blue_Write(1);
 131:.\lightlib.c  ****                 break;
 132:.\lightlib.c  ****                 case MAGENTA:
 133:.\lightlib.c  ****                     PWM_Right_LED_Red_Start();
 134:.\lightlib.c  ****                     Right_LED_Blue_Write(1);
 135:.\lightlib.c  ****                 break;
 136:.\lightlib.c  ****                 case GREEN:
 137:.\lightlib.c  ****                     Right_LED_Green_Write(1);
 138:.\lightlib.c  ****                 break;
 139:.\lightlib.c  ****                 case YELLOW:
 140:.\lightlib.c  ****                     PWM_Right_LED_Red_Start();
 141:.\lightlib.c  ****                     Right_LED_Green_Write(1);
 142:.\lightlib.c  ****                 break;
 143:.\lightlib.c  ****                 case CYAN:
 144:.\lightlib.c  ****                     Right_LED_Blue_Write(1);
 145:.\lightlib.c  ****                     Right_LED_Green_Write(1);
 146:.\lightlib.c  ****                 break;
 147:.\lightlib.c  ****                 case WHITE:
 148:.\lightlib.c  ****                     PWM_Right_LED_Red_Start();
 149:.\lightlib.c  ****                     Right_LED_Blue_Write(1);
 150:.\lightlib.c  ****                     Right_LED_Green_Write(1);
 151:.\lightlib.c  ****                 break;
 152:.\lightlib.c  ****             }
 153:.\lightlib.c  ****         set_status(RIGHT_LED, ON);
 154:.\lightlib.c  ****         break;
 155:.\lightlib.c  ****         case LEFT_RIGHT_LED:
 156:.\lightlib.c  ****             turn_on(LEFT_LED);
 344              		.loc 1 156 0
 345 0056 0120     		mov	r0, #1
 346 0058 FFF7FEFF 		bl	turn_on
 347              	.LVL25:
 348              	.L49:
 349              	.LBB8:
ARM GAS  C:\Users\Admin\AppData\Local\Temp\ccnuK7s7.s 			page 10


 350              	.LBB9:
  67:.\lightlib.c  ****             return Right_LED_State.color;
 351              		.loc 1 67 0
 352 005c 174B     		ldr	r3, .L79+4
 353 005e 5878     		ldrb	r0, [r3, #1]
 354              	.LBE9:
 355              	.LBE8:
 125:.\lightlib.c  ****             switch(get_color(RIGHT_LED)) {
 356              		.loc 1 125 0
 357 0060 0138     		sub	r0, r0, #1
 358 0062 0628     		cmp	r0, #6
 359 0064 19D8     		bhi	.L62
 360 0066 FFF7FEFF 		bl	__gnu_thumb1_case_uqi
 361              	.L64:
 362 006a 04       		.byte	(.L63-.L64)/2
 363 006b 09       		.byte	(.L74-.L64)/2
 364 006c 07       		.byte	(.L66-.L64)/2
 365 006d 15       		.byte	(.L76-.L64)/2
 366 006e 0D       		.byte	(.L68-.L64)/2
 367 006f 12       		.byte	(.L75-.L64)/2
 368 0070 10       		.byte	(.L70-.L64)/2
 369 0071 00       		.p2align 1
 370              	.L63:
 127:.\lightlib.c  ****                     PWM_Right_LED_Red_Start();
 371              		.loc 1 127 0
 372 0072 FFF7FEFF 		bl	PWM_Right_LED_Red_Start
 373              	.LVL26:
 128:.\lightlib.c  ****                 break;
 374              		.loc 1 128 0
 375 0076 10E0     		b	.L62
 376              	.L66:
 133:.\lightlib.c  ****                     PWM_Right_LED_Red_Start();
 377              		.loc 1 133 0
 378 0078 FFF7FEFF 		bl	PWM_Right_LED_Red_Start
 379              	.LVL27:
 380              	.L74:
 134:.\lightlib.c  ****                     Right_LED_Blue_Write(1);
 381              		.loc 1 134 0
 382 007c 0120     		mov	r0, #1
 383 007e FFF7FEFF 		bl	Right_LED_Blue_Write
 384              	.LVL28:
 135:.\lightlib.c  ****                 break;
 385              		.loc 1 135 0
 386 0082 0AE0     		b	.L62
 387              	.L68:
 140:.\lightlib.c  ****                     PWM_Right_LED_Red_Start();
 388              		.loc 1 140 0
 389 0084 FFF7FEFF 		bl	PWM_Right_LED_Red_Start
 390              	.LVL29:
 391 0088 04E0     		b	.L76
 392              	.L70:
 148:.\lightlib.c  ****                     PWM_Right_LED_Red_Start();
 393              		.loc 1 148 0
 394 008a FFF7FEFF 		bl	PWM_Right_LED_Red_Start
 395              	.LVL30:
 396              	.L75:
 149:.\lightlib.c  ****                     Right_LED_Blue_Write(1);
ARM GAS  C:\Users\Admin\AppData\Local\Temp\ccnuK7s7.s 			page 11


 397              		.loc 1 149 0
 398 008e 0120     		mov	r0, #1
 399 0090 FFF7FEFF 		bl	Right_LED_Blue_Write
 400              	.LVL31:
 401              	.L76:
 150:.\lightlib.c  ****                     Right_LED_Green_Write(1);
 402              		.loc 1 150 0
 403 0094 0120     		mov	r0, #1
 404 0096 FFF7FEFF 		bl	Right_LED_Green_Write
 405              	.LVL32:
 406              	.L62:
 153:.\lightlib.c  ****         set_status(RIGHT_LED, ON);
 407              		.loc 1 153 0
 408 009a 0220     		mov	r0, #2
 409 009c 08E0     		b	.L77
 410              	.LVL33:
 411              	.L51:
 157:.\lightlib.c  ****             turn_on(RIGHT_LED);
 158:.\lightlib.c  ****         break;
 159:.\lightlib.c  ****         case IR_LED:
 160:.\lightlib.c  ****             IR_LED_Write(1);
 412              		.loc 1 160 0
 413 009e 0120     		mov	r0, #1
 414 00a0 FFF7FEFF 		bl	IR_LED_Write
 415              	.LVL34:
 161:.\lightlib.c  ****             set_status(IR_LED, ON);
 416              		.loc 1 161 0
 417 00a4 0420     		mov	r0, #4
 418 00a6 03E0     		b	.L77
 419              	.L52:
 162:.\lightlib.c  ****         break;
 163:.\lightlib.c  ****         case BOARD_LED:
 164:.\lightlib.c  ****             Board_LED_Write(1);
 420              		.loc 1 164 0
 421 00a8 0120     		mov	r0, #1
 422 00aa FFF7FEFF 		bl	Board_LED_Write
 423              	.LVL35:
 165:.\lightlib.c  ****             set_status(BOARD_LED, ON);
 424              		.loc 1 165 0
 425 00ae 0520     		mov	r0, #5
 426              	.L77:
 427 00b0 0121     		mov	r1, #1
 428              	.L78:
 429 00b2 FFF7FEFF 		bl	set_status
 430              	.LVL36:
 431              	.L45:
 166:.\lightlib.c  **** 
 167:.\lightlib.c  ****         break;
 168:.\lightlib.c  ****     }    
 169:.\lightlib.c  **** }
 432              		.loc 1 169 0
 433              		@ sp needed
 434 00b6 08BD     		pop	{r3, pc}
 435              	.L80:
 436              		.align	2
 437              	.L79:
 438 00b8 00000000 		.word	Left_LED_State
ARM GAS  C:\Users\Admin\AppData\Local\Temp\ccnuK7s7.s 			page 12


 439 00bc 00000000 		.word	Right_LED_State
 440              		.cfi_endproc
 441              	.LFE37:
 442              		.size	turn_on, .-turn_on
 443              		.section	.text.turn_off,"ax",%progbits
 444              		.align	1
 445              		.global	turn_off
 446              		.code	16
 447              		.thumb_func
 448              		.type	turn_off, %function
 449              	turn_off:
 450              	.LFB38:
 170:.\lightlib.c  **** 
 171:.\lightlib.c  **** void turn_off(uint8 led_flag) {
 451              		.loc 1 171 0
 452              		.cfi_startproc
 453              	.LVL37:
 172:.\lightlib.c  ****     switch(led_flag) {
 454              		.loc 1 172 0
 455 0000 0138     		sub	r0, r0, #1
 456              	.LVL38:
 171:.\lightlib.c  **** void turn_off(uint8 led_flag) {
 457              		.loc 1 171 0
 458 0002 08B5     		push	{r3, lr}
 459              		.cfi_def_cfa_offset 8
 460              		.cfi_offset 3, -8
 461              		.cfi_offset 14, -4
 462              		.loc 1 172 0
 463 0004 0428     		cmp	r0, #4
 464 0006 27D8     		bhi	.L81
 465 0008 FFF7FEFF 		bl	__gnu_thumb1_case_uqi
 466              	.L84:
 467 000c 03       		.byte	(.L83-.L84)/2
 468 000d 10       		.byte	(.L85-.L84)/2
 469 000e 0D       		.byte	(.L86-.L84)/2
 470 000f 1A       		.byte	(.L87-.L84)/2
 471 0010 1F       		.byte	(.L88-.L84)/2
 472 0011 00       		.p2align 1
 473              	.L83:
 474              	.LVL39:
 475              	.LBB12:
 476              	.LBB13:
 173:.\lightlib.c  ****         case LEFT_LED:
 174:.\lightlib.c  ****             PWM_Left_LED_Red_Stop();
 477              		.loc 1 174 0
 478 0012 FFF7FEFF 		bl	PWM_Left_LED_Red_Stop
 479              	.LVL40:
 175:.\lightlib.c  ****             Left_LED_Blue_Write(0);
 480              		.loc 1 175 0
 481 0016 0020     		mov	r0, #0
 482 0018 FFF7FEFF 		bl	Left_LED_Blue_Write
 483              	.LVL41:
 176:.\lightlib.c  ****             Left_LED_Green_Write(0);
 484              		.loc 1 176 0
 485 001c 0020     		mov	r0, #0
 486 001e FFF7FEFF 		bl	Left_LED_Green_Write
 487              	.LVL42:
ARM GAS  C:\Users\Admin\AppData\Local\Temp\ccnuK7s7.s 			page 13


 177:.\lightlib.c  ****             set_status(LEFT_LED, OFF);
 488              		.loc 1 177 0
 489 0022 0120     		mov	r0, #1
 490 0024 15E0     		b	.L89
 491              	.LVL43:
 492              	.L86:
 493              	.LBE13:
 494              	.LBE12:
 178:.\lightlib.c  ****         break;
 179:.\lightlib.c  ****         case RIGHT_LED:
 180:.\lightlib.c  ****             PWM_Right_LED_Red_Stop();
 181:.\lightlib.c  ****             Right_LED_Blue_Write(0);
 182:.\lightlib.c  ****             Right_LED_Green_Write(0);
 183:.\lightlib.c  ****             set_status(RIGHT_LED, OFF);
 184:.\lightlib.c  ****         break;
 185:.\lightlib.c  ****         case LEFT_RIGHT_LED:
 186:.\lightlib.c  ****             turn_off(LEFT_LED);
 495              		.loc 1 186 0
 496 0026 0120     		mov	r0, #1
 497 0028 FFF7FEFF 		bl	turn_off
 498              	.LVL44:
 499              	.L85:
 180:.\lightlib.c  ****             PWM_Right_LED_Red_Stop();
 500              		.loc 1 180 0
 501 002c FFF7FEFF 		bl	PWM_Right_LED_Red_Stop
 502              	.LVL45:
 181:.\lightlib.c  ****             Right_LED_Blue_Write(0);
 503              		.loc 1 181 0
 504 0030 0020     		mov	r0, #0
 505 0032 FFF7FEFF 		bl	Right_LED_Blue_Write
 506              	.LVL46:
 182:.\lightlib.c  ****             Right_LED_Green_Write(0);
 507              		.loc 1 182 0
 508 0036 0020     		mov	r0, #0
 509 0038 FFF7FEFF 		bl	Right_LED_Green_Write
 510              	.LVL47:
 183:.\lightlib.c  ****             set_status(RIGHT_LED, OFF);
 511              		.loc 1 183 0
 512 003c 0220     		mov	r0, #2
 513 003e 08E0     		b	.L89
 514              	.L87:
 187:.\lightlib.c  ****             turn_off(RIGHT_LED);
 188:.\lightlib.c  ****         break;
 189:.\lightlib.c  ****         case IR_LED:
 190:.\lightlib.c  ****             IR_LED_Write(0);
 515              		.loc 1 190 0
 516 0040 0020     		mov	r0, #0
 517 0042 FFF7FEFF 		bl	IR_LED_Write
 518              	.LVL48:
 191:.\lightlib.c  ****             set_status(IR_LED, OFF);
 519              		.loc 1 191 0
 520 0046 0420     		mov	r0, #4
 521 0048 03E0     		b	.L89
 522              	.L88:
 192:.\lightlib.c  ****         break;
 193:.\lightlib.c  ****         case BOARD_LED:
 194:.\lightlib.c  ****             Board_LED_Write(0);
ARM GAS  C:\Users\Admin\AppData\Local\Temp\ccnuK7s7.s 			page 14


 523              		.loc 1 194 0
 524 004a 0020     		mov	r0, #0
 525 004c FFF7FEFF 		bl	Board_LED_Write
 526              	.LVL49:
 195:.\lightlib.c  ****            set_status(BOARD_LED, OFF);
 527              		.loc 1 195 0
 528 0050 0520     		mov	r0, #5
 529              	.L89:
 530 0052 0021     		mov	r1, #0
 531 0054 FFF7FEFF 		bl	set_status
 532              	.LVL50:
 533              	.L81:
 196:.\lightlib.c  ****         break;
 197:.\lightlib.c  ****     }    
 198:.\lightlib.c  **** }
 534              		.loc 1 198 0
 535              		@ sp needed
 536 0058 08BD     		pop	{r3, pc}
 537              		.cfi_endproc
 538              	.LFE38:
 539              		.size	turn_off, .-turn_off
 540              		.section	.text.turn_on_all_led,"ax",%progbits
 541              		.align	1
 542              		.global	turn_on_all_led
 543              		.code	16
 544              		.thumb_func
 545              		.type	turn_on_all_led, %function
 546              	turn_on_all_led:
 547              	.LFB39:
 199:.\lightlib.c  **** 
 200:.\lightlib.c  **** void turn_on_all_led(void) {
 548              		.loc 1 200 0
 549              		.cfi_startproc
 550 0000 08B5     		push	{r3, lr}
 551              		.cfi_def_cfa_offset 8
 552              		.cfi_offset 3, -8
 553              		.cfi_offset 14, -4
 201:.\lightlib.c  ****     turn_on(LEFT_LED);
 554              		.loc 1 201 0
 555 0002 0120     		mov	r0, #1
 556 0004 FFF7FEFF 		bl	turn_on
 557              	.LVL51:
 202:.\lightlib.c  ****     turn_on(RIGHT_LED); 
 558              		.loc 1 202 0
 559 0008 0220     		mov	r0, #2
 560 000a FFF7FEFF 		bl	turn_on
 561              	.LVL52:
 203:.\lightlib.c  ****     turn_on(IR_LED); 
 562              		.loc 1 203 0
 563 000e 0420     		mov	r0, #4
 564 0010 FFF7FEFF 		bl	turn_on
 565              	.LVL53:
 204:.\lightlib.c  ****     turn_on(BOARD_LED); 
 566              		.loc 1 204 0
 567 0014 0520     		mov	r0, #5
 568 0016 FFF7FEFF 		bl	turn_on
 569              	.LVL54:
ARM GAS  C:\Users\Admin\AppData\Local\Temp\ccnuK7s7.s 			page 15


 205:.\lightlib.c  **** }
 570              		.loc 1 205 0
 571              		@ sp needed
 572 001a 08BD     		pop	{r3, pc}
 573              		.cfi_endproc
 574              	.LFE39:
 575              		.size	turn_on_all_led, .-turn_on_all_led
 576              		.section	.text.turn_off_all_led,"ax",%progbits
 577              		.align	1
 578              		.global	turn_off_all_led
 579              		.code	16
 580              		.thumb_func
 581              		.type	turn_off_all_led, %function
 582              	turn_off_all_led:
 583              	.LFB40:
 206:.\lightlib.c  **** 
 207:.\lightlib.c  **** void turn_off_all_led(void) {
 584              		.loc 1 207 0
 585              		.cfi_startproc
 586 0000 08B5     		push	{r3, lr}
 587              		.cfi_def_cfa_offset 8
 588              		.cfi_offset 3, -8
 589              		.cfi_offset 14, -4
 208:.\lightlib.c  ****     turn_off(LEFT_LED);
 590              		.loc 1 208 0
 591 0002 0120     		mov	r0, #1
 592 0004 FFF7FEFF 		bl	turn_off
 593              	.LVL55:
 209:.\lightlib.c  ****     turn_off(RIGHT_LED); 
 594              		.loc 1 209 0
 595 0008 0220     		mov	r0, #2
 596 000a FFF7FEFF 		bl	turn_off
 597              	.LVL56:
 210:.\lightlib.c  ****     turn_off(IR_LED); 
 598              		.loc 1 210 0
 599 000e 0420     		mov	r0, #4
 600 0010 FFF7FEFF 		bl	turn_off
 601              	.LVL57:
 211:.\lightlib.c  ****     turn_off(BOARD_LED); 
 602              		.loc 1 211 0
 603 0014 0520     		mov	r0, #5
 604 0016 FFF7FEFF 		bl	turn_off
 605              	.LVL58:
 212:.\lightlib.c  **** }
 606              		.loc 1 212 0
 607              		@ sp needed
 608 001a 08BD     		pop	{r3, pc}
 609              		.cfi_endproc
 610              	.LFE40:
 611              		.size	turn_off_all_led, .-turn_off_all_led
 612              		.section	.text.init_led,"ax",%progbits
 613              		.align	1
 614              		.global	init_led
 615              		.code	16
 616              		.thumb_func
 617              		.type	init_led, %function
 618              	init_led:
ARM GAS  C:\Users\Admin\AppData\Local\Temp\ccnuK7s7.s 			page 16


 619              	.LFB41:
 213:.\lightlib.c  **** 
 214:.\lightlib.c  **** void init_led(uint8 color) {
 620              		.loc 1 214 0
 621              		.cfi_startproc
 622              	.LVL59:
 623 0000 10B5     		push	{r4, lr}
 624              		.cfi_def_cfa_offset 8
 625              		.cfi_offset 4, -8
 626              		.cfi_offset 14, -4
 627              		.loc 1 214 0
 628 0002 041C     		mov	r4, r0
 215:.\lightlib.c  ****     /* Turn off all leds */
 216:.\lightlib.c  ****     turn_off_all_led();
 629              		.loc 1 216 0
 630 0004 FFF7FEFF 		bl	turn_off_all_led
 631              	.LVL60:
 217:.\lightlib.c  ****     
 218:.\lightlib.c  ****     /* Set default led color */
 219:.\lightlib.c  ****     set_color(LEFT_LED, color);
 632              		.loc 1 219 0
 633 0008 211C     		mov	r1, r4
 634 000a 0120     		mov	r0, #1
 635 000c FFF7FEFF 		bl	set_color
 636              	.LVL61:
 220:.\lightlib.c  ****     set_color(RIGHT_LED, color);
 637              		.loc 1 220 0
 638 0010 0220     		mov	r0, #2
 639 0012 211C     		mov	r1, r4
 640 0014 FFF7FEFF 		bl	set_color
 641              	.LVL62:
 221:.\lightlib.c  **** }...
 642              		.loc 1 221 0
 643              		@ sp needed
 644 0018 10BD     		pop	{r4, pc}
 645              		.cfi_endproc
 646              	.LFE41:
 647              		.size	init_led, .-init_led
 648              		.comm	Board_LED_State,1,1
 649              		.comm	IR_LED_State,1,1
 650              		.comm	Right_LED_State,2,1
 651              		.comm	Left_LED_State,2,1
 652              		.text
 653              	.Letext0:
 654              		.file 2 ".\\lightlib.h"
 655              		.file 3 ".\\Generated_Source\\PSoC4/Left_LED_Blue.h"
 656              		.file 4 ".\\Generated_Source\\PSoC4/Left_LED_Green.h"
 657              		.file 5 ".\\Generated_Source\\PSoC4/PWM_Left_LED_Red.h"
 658              		.file 6 ".\\Generated_Source\\PSoC4/PWM_Right_LED_Red.h"
 659              		.file 7 ".\\Generated_Source\\PSoC4/Right_LED_Blue.h"
 660              		.file 8 ".\\Generated_Source\\PSoC4/Right_LED_Green.h"
 661              		.file 9 ".\\Generated_Source\\PSoC4/IR_LED.h"
 662              		.file 10 ".\\Generated_Source\\PSoC4/Board_LED.h"
 663              		.file 11 ".\\Generated_Source\\PSoC4/cytypes.h"