ARM GAS  C:\Users\Admin\AppData\Local\Temp\ccNW5zXV.s 			page 1


   1              		.cpu cortex-m0
   2              		.fpu softvfp
   3              		.eabi_attribute 20, 1
   4              		.eabi_attribute 21, 1
   5              		.eabi_attribute 23, 3
   6              		.eabi_attribute 24, 1
   7              		.eabi_attribute 25, 1
   8              		.eabi_attribute 26, 1
   9              		.eabi_attribute 30, 4
  10              		.eabi_attribute 34, 0
  11              		.eabi_attribute 18, 4
  12              		.code	16
  13              		.file	"morse.c"
  14              		.text
  15              	.Ltext0:
  16              		.cfi_sections	.debug_frame
  17              		.section	.text.blinkdot,"ax",%progbits
  18              		.align	1
  19              		.global	blinkdot
  20              		.code	16
  21              		.thumb_func
  22              		.type	blinkdot, %function
  23              	blinkdot:
  24              	.LFB33:
  25              		.file 1 ".\\morse.c"
   1:.\morse.c     **** /* ========================================
   2:.\morse.c     ****  *
   3:.\morse.c     ****  * Copyright Nullify, 2016
   4:.\morse.c     ****  * All Rights Reserved
   5:.\morse.c     ****  * UNPUBLISHED, LICENSED SOFTWARE.
   6:.\morse.c     ****  *
   7:.\morse.c     ****  * CONFIDENTIAL AND PROPRIETARY INFORMATION
   8:.\morse.c     ****  * WHICH IS THE PROPERTY OF NULLIY.
   9:.\morse.c     ****  *
  10:.\morse.c     ****  * ========================================
  11:.\morse.c     **** */
  12:.\morse.c     **** #include <project.h>
  13:.\morse.c     **** #include <string.h>
  14:.\morse.c     **** #include "lightlib.h"
  15:.\morse.c     **** #include "morse.h"
  16:.\morse.c     **** #include "state.h"
  17:.\morse.c     **** 
  18:.\morse.c     **** void blinkdot(uint8 led_flag) {
  26              		.loc 1 18 0
  27              		.cfi_startproc
  28              	.LVL0:
  29 0000 10B5     		push	{r4, lr}
  30              		.cfi_def_cfa_offset 8
  31              		.cfi_offset 4, -8
  32              		.cfi_offset 14, -4
  33              		.loc 1 18 0
  34 0002 041C     		mov	r4, r0
  19:.\morse.c     ****     /* Verify state */
  20:.\morse.c     ****     if(!verify_state(MORSE)) {
  35              		.loc 1 20 0
  36 0004 0120     		mov	r0, #1
  37              	.LVL1:
ARM GAS  C:\Users\Admin\AppData\Local\Temp\ccNW5zXV.s 			page 2


  38 0006 FFF7FEFF 		bl	verify_state
  39              	.LVL2:
  40 000a 0028     		cmp	r0, #0
  41 000c 0CD0     		beq	.L1
  42              	.LVL3:
  43              	.LBB4:
  44              	.LBB5:
  21:.\morse.c     ****         return;
  22:.\morse.c     ****     }
  23:.\morse.c     ****     turn_on(led_flag);
  45              		.loc 1 23 0
  46 000e 201C     		mov	r0, r4
  47 0010 FFF7FEFF 		bl	turn_on
  48              	.LVL4:
  24:.\morse.c     ****     CyDelay(DOT_ON_TIME);
  49              		.loc 1 24 0
  50 0014 FA20     		mov	r0, #250
  51 0016 4000     		lsl	r0, r0, #1
  52 0018 FFF7FEFF 		bl	CyDelay
  53              	.LVL5:
  25:.\morse.c     ****     turn_off(led_flag);
  54              		.loc 1 25 0
  55 001c 201C     		mov	r0, r4
  56 001e FFF7FEFF 		bl	turn_off
  57              	.LVL6:
  26:.\morse.c     ****     CyDelay(DOT_OFF_TIME);
  58              		.loc 1 26 0
  59 0022 FA20     		mov	r0, #250
  60 0024 FFF7FEFF 		bl	CyDelay
  61              	.LVL7:
  62              	.L1:
  63              	.LBE5:
  64              	.LBE4:
  27:.\morse.c     **** }
  65              		.loc 1 27 0
  66              		@ sp needed
  67 0028 10BD     		pop	{r4, pc}
  68              		.cfi_endproc
  69              	.LFE33:
  70              		.size	blinkdot, .-blinkdot
  71              		.section	.text.blinkdash,"ax",%progbits
  72              		.align	1
  73              		.global	blinkdash
  74              		.code	16
  75              		.thumb_func
  76              		.type	blinkdash, %function
  77              	blinkdash:
  78              	.LFB34:
  28:.\morse.c     **** 
  29:.\morse.c     **** void blinkdash(uint8 led_flag) {
  79              		.loc 1 29 0
  80              		.cfi_startproc
  81              	.LVL8:
  82 0000 10B5     		push	{r4, lr}
  83              		.cfi_def_cfa_offset 8
  84              		.cfi_offset 4, -8
  85              		.cfi_offset 14, -4
ARM GAS  C:\Users\Admin\AppData\Local\Temp\ccNW5zXV.s 			page 3


  86              		.loc 1 29 0
  87 0002 041C     		mov	r4, r0
  30:.\morse.c     ****     /* Verify state */
  31:.\morse.c     ****     if(!verify_state(MORSE)) {
  88              		.loc 1 31 0
  89 0004 0120     		mov	r0, #1
  90              	.LVL9:
  91 0006 FFF7FEFF 		bl	verify_state
  92              	.LVL10:
  93 000a 0028     		cmp	r0, #0
  94 000c 0BD0     		beq	.L7
  95              	.LVL11:
  96              	.LBB8:
  97              	.LBB9:
  32:.\morse.c     ****         return;
  33:.\morse.c     ****     }
  34:.\morse.c     ****     turn_on(led_flag);
  98              		.loc 1 34 0
  99 000e 201C     		mov	r0, r4
 100 0010 FFF7FEFF 		bl	turn_on
 101              	.LVL12:
  35:.\morse.c     ****     CyDelay(DASH_ON_TIME);
 102              		.loc 1 35 0
 103 0014 0448     		ldr	r0, .L12
 104 0016 FFF7FEFF 		bl	CyDelay
 105              	.LVL13:
  36:.\morse.c     ****     turn_off(led_flag);
 106              		.loc 1 36 0
 107 001a 201C     		mov	r0, r4
 108 001c FFF7FEFF 		bl	turn_off
 109              	.LVL14:
  37:.\morse.c     ****     CyDelay(DASH_OFF_TIME);
 110              		.loc 1 37 0
 111 0020 FA20     		mov	r0, #250
 112 0022 FFF7FEFF 		bl	CyDelay
 113              	.LVL15:
 114              	.L7:
 115              	.LBE9:
 116              	.LBE8:
  38:.\morse.c     **** }
 117              		.loc 1 38 0
 118              		@ sp needed
 119 0026 10BD     		pop	{r4, pc}
 120              	.L13:
 121              		.align	2
 122              	.L12:
 123 0028 DC050000 		.word	1500
 124              		.cfi_endproc
 125              	.LFE34:
 126              		.size	blinkdash, .-blinkdash
 127              		.section	.text.new_message_morse,"ax",%progbits
 128              		.align	1
 129              		.global	new_message_morse
 130              		.code	16
 131              		.thumb_func
 132              		.type	new_message_morse, %function
 133              	new_message_morse:
ARM GAS  C:\Users\Admin\AppData\Local\Temp\ccNW5zXV.s 			page 4


 134              	.LFB35:
  39:.\morse.c     **** 
  40:.\morse.c     **** void new_message_morse(void) {
 135              		.loc 1 40 0
 136              		.cfi_startproc
 137 0000 38B5     		push	{r3, r4, r5, lr}
 138              		.cfi_def_cfa_offset 16
 139              		.cfi_offset 3, -16
 140              		.cfi_offset 4, -12
 141              		.cfi_offset 5, -8
 142              		.cfi_offset 14, -4
  41:.\morse.c     ****     unsigned int i;
  42:.\morse.c     ****     uint8 original_color;
  43:.\morse.c     ****     original_color = get_color(LEFT_LED);
 143              		.loc 1 43 0
 144 0002 0120     		mov	r0, #1
 145 0004 FFF7FEFF 		bl	get_color
 146              	.LVL16:
  44:.\morse.c     ****     set_color(LEFT_RIGHT_LED, WHITE);
 147              		.loc 1 44 0
 148 0008 0721     		mov	r1, #7
  43:.\morse.c     ****     original_color = get_color(LEFT_LED);
 149              		.loc 1 43 0
 150 000a 051C     		mov	r5, r0
 151              	.LVL17:
 152              		.loc 1 44 0
 153 000c 0320     		mov	r0, #3
 154              	.LVL18:
 155 000e FFF7FEFF 		bl	set_color
 156              	.LVL19:
 157 0012 0524     		mov	r4, #5
 158              	.LVL20:
 159              	.L17:
  45:.\morse.c     ****     for (i=0; i<NEW_MESSAGE_NUMBER; i++) {
  46:.\morse.c     ****         /* Verify state */
  47:.\morse.c     ****     if(!verify_state(MORSE)) {
 160              		.loc 1 47 0
 161 0014 0120     		mov	r0, #1
 162 0016 FFF7FEFF 		bl	verify_state
 163              	.LVL21:
 164 001a 0028     		cmp	r0, #0
 165 001c 12D0     		beq	.L14
  48:.\morse.c     ****         return;
  49:.\morse.c     ****     }
  50:.\morse.c     ****        turn_on(LEFT_RIGHT_LED);
 166              		.loc 1 50 0
 167 001e 0320     		mov	r0, #3
 168 0020 FFF7FEFF 		bl	turn_on
 169              	.LVL22:
  51:.\morse.c     ****        CyDelay(RESET_DELAY);
 170              		.loc 1 51 0
 171 0024 FA20     		mov	r0, #250
 172 0026 FFF7FEFF 		bl	CyDelay
 173              	.LVL23:
  52:.\morse.c     ****        turn_off(LEFT_RIGHT_LED);
 174              		.loc 1 52 0
 175 002a 0320     		mov	r0, #3
ARM GAS  C:\Users\Admin\AppData\Local\Temp\ccNW5zXV.s 			page 5


 176 002c FFF7FEFF 		bl	turn_off
 177              	.LVL24:
 178 0030 013C     		sub	r4, r4, #1
 179              	.LVL25:
  53:.\morse.c     ****        CyDelay(RESET_DELAY);
 180              		.loc 1 53 0
 181 0032 FA20     		mov	r0, #250
 182 0034 FFF7FEFF 		bl	CyDelay
 183              	.LVL26:
  45:.\morse.c     ****     for (i=0; i<NEW_MESSAGE_NUMBER; i++) {
 184              		.loc 1 45 0
 185 0038 002C     		cmp	r4, #0
 186 003a EBD1     		bne	.L17
  54:.\morse.c     ****     }
  55:.\morse.c     ****     set_color(LEFT_RIGHT_LED, original_color);
 187              		.loc 1 55 0
 188 003c 0320     		mov	r0, #3
 189 003e 291C     		mov	r1, r5
 190 0040 FFF7FEFF 		bl	set_color
 191              	.LVL27:
 192              	.L14:
  56:.\morse.c     **** }
 193              		.loc 1 56 0
 194              		@ sp needed
 195              	.LVL28:
 196 0044 38BD     		pop	{r3, r4, r5, pc}
 197              		.cfi_endproc
 198              	.LFE35:
 199              		.size	new_message_morse, .-new_message_morse
 200              		.section	.text.char_separate,"ax",%progbits
 201              		.align	1
 202              		.global	char_separate
 203              		.code	16
 204              		.thumb_func
 205              		.type	char_separate, %function
 206              	char_separate:
 207              	.LFB36:
  57:.\morse.c     **** 
  58:.\morse.c     **** void char_separate(void) {
 208              		.loc 1 58 0
 209              		.cfi_startproc
 210 0000 08B5     		push	{r3, lr}
 211              		.cfi_def_cfa_offset 8
 212              		.cfi_offset 3, -8
 213              		.cfi_offset 14, -4
  59:.\morse.c     ****     /* Verify state */
  60:.\morse.c     ****     if(!verify_state(MORSE)) {
 214              		.loc 1 60 0
 215 0002 0120     		mov	r0, #1
 216 0004 FFF7FEFF 		bl	verify_state
 217              	.LVL29:
 218 0008 0028     		cmp	r0, #0
 219 000a 03D0     		beq	.L21
  61:.\morse.c     ****         return;
  62:.\morse.c     ****     }
  63:.\morse.c     ****     CyDelay(CHAR_SEPARATE_TIME);
 220              		.loc 1 63 0
ARM GAS  C:\Users\Admin\AppData\Local\Temp\ccNW5zXV.s 			page 6


 221 000c FA20     		mov	r0, #250
 222 000e 8000     		lsl	r0, r0, #2
 223 0010 FFF7FEFF 		bl	CyDelay
 224              	.LVL30:
 225              	.L21:
  64:.\morse.c     **** }
 226              		.loc 1 64 0
 227              		@ sp needed
 228 0014 08BD     		pop	{r3, pc}
 229              		.cfi_endproc
 230              	.LFE36:
 231              		.size	char_separate, .-char_separate
 232              		.section	.text.morse_encode,"ax",%progbits
 233              		.align	1
 234              		.global	morse_encode
 235              		.code	16
 236              		.thumb_func
 237              		.type	morse_encode, %function
 238              	morse_encode:
 239              	.LFB37:
  65:.\morse.c     **** 
  66:.\morse.c     **** void morse_encode(uint8 led_flag, char c){
 240              		.loc 1 66 0
 241              		.cfi_startproc
 242              	.LVL31:
 243 0000 38B5     		push	{r3, r4, r5, lr}
 244              		.cfi_def_cfa_offset 16
 245              		.cfi_offset 3, -16
 246              		.cfi_offset 4, -12
 247              		.cfi_offset 5, -8
 248              		.cfi_offset 14, -4
 249              		.loc 1 66 0
 250 0002 041C     		mov	r4, r0
  67:.\morse.c     ****     /* Verify state */
  68:.\morse.c     ****     if(!verify_state(MORSE)) {
 251              		.loc 1 68 0
 252 0004 0120     		mov	r0, #1
 253              	.LVL32:
  66:.\morse.c     **** void morse_encode(uint8 led_flag, char c){
 254              		.loc 1 66 0
 255 0006 0D1C     		mov	r5, r1
 256              		.loc 1 68 0
 257 0008 FFF7FEFF 		bl	verify_state
 258              	.LVL33:
 259 000c 0028     		cmp	r0, #0
 260 000e 00D1     		bne	.LCB199
 261 0010 D1E0     		b	.L26	@long jump
 262              	.LCB199:
  69:.\morse.c     ****         return;
  70:.\morse.c     ****     }
  71:.\morse.c     ****     switch(c) {
 263              		.loc 1 71 0
 264 0012 281C     		mov	r0, r5
 265 0014 2038     		sub	r0, r0, #32
 266 0016 5A28     		cmp	r0, #90
 267 0018 00D9     		bls	.LCB203
 268 001a CCE0     		b	.L26	@long jump
ARM GAS  C:\Users\Admin\AppData\Local\Temp\ccNW5zXV.s 			page 7


 269              	.LCB203:
 270 001c FFF7FEFF 		bl	__gnu_thumb1_case_uqi
 271              	.L29:
 272 0020 C7       		.byte	(.L28-.L29)/2
 273 0021 CB       		.byte	(.L26-.L29)/2
 274 0022 CB       		.byte	(.L26-.L29)/2
 275 0023 CB       		.byte	(.L26-.L29)/2
 276 0024 CB       		.byte	(.L26-.L29)/2
 277 0025 CB       		.byte	(.L26-.L29)/2
 278 0026 CB       		.byte	(.L26-.L29)/2
 279 0027 CB       		.byte	(.L26-.L29)/2
 280 0028 CB       		.byte	(.L26-.L29)/2
 281 0029 CB       		.byte	(.L26-.L29)/2
 282 002a CB       		.byte	(.L26-.L29)/2
 283 002b CB       		.byte	(.L26-.L29)/2
 284 002c B2       		.byte	(.L30-.L29)/2
 285 002d CB       		.byte	(.L26-.L29)/2
 286 002e A2       		.byte	(.L31-.L29)/2
 287 002f CB       		.byte	(.L26-.L29)/2
 288 0030 4D       		.byte	(.L32-.L29)/2
 289 0031 51       		.byte	(.L33-.L29)/2
 290 0032 58       		.byte	(.L34-.L29)/2
 291 0033 62       		.byte	(.L35-.L29)/2
 292 0034 66       		.byte	(.L36-.L29)/2
 293 0035 70       		.byte	(.L37-.L29)/2
 294 0036 74       		.byte	(.L38-.L29)/2
 295 0037 7B       		.byte	(.L39-.L29)/2
 296 0038 85       		.byte	(.L40-.L29)/2
 297 0039 92       		.byte	(.L41-.L29)/2
 298 003a CB       		.byte	(.L26-.L29)/2
 299 003b CB       		.byte	(.L26-.L29)/2
 300 003c CB       		.byte	(.L26-.L29)/2
 301 003d CB       		.byte	(.L26-.L29)/2
 302 003e CB       		.byte	(.L26-.L29)/2
 303 003f CB       		.byte	(.L26-.L29)/2
 304 0040 CB       		.byte	(.L26-.L29)/2
 305 0041 AE       		.byte	(.L78-.L29)/2
 306 0042 7E       		.byte	(.L90-.L29)/2
 307 0043 2E       		.byte	(.L44-.L29)/2
 308 0044 8B       		.byte	(.L87-.L29)/2
 309 0045 9E       		.byte	(.L80-.L29)/2
 310 0046 32       		.byte	(.L47-.L29)/2
 311 0047 98       		.byte	(.L82-.L29)/2
 312 0048 77       		.byte	(.L92-.L29)/2
 313 0049 8E       		.byte	(.L85-.L29)/2
 314 004a 5B       		.byte	(.L77-.L29)/2
 315 004b AB       		.byte	(.L79-.L29)/2
 316 004c 39       		.byte	(.L53-.L29)/2
 317 004d BE       		.byte	(.L74-.L29)/2
 318 004e 9B       		.byte	(.L81-.L29)/2
 319 004f 5E       		.byte	(.L76-.L29)/2
 320 0050 3D       		.byte	(.L57-.L29)/2
 321 0051 41       		.byte	(.L58-.L29)/2
 322 0052 35       		.byte	(.L84-.L29)/2
 323 0053 81       		.byte	(.L91-.L29)/2
 324 0054 C1       		.byte	(.L71-.L29)/2
 325 0055 6C       		.byte	(.L88-.L29)/2
ARM GAS  C:\Users\Admin\AppData\Local\Temp\ccNW5zXV.s 			page 8


 326 0056 69       		.byte	(.L89-.L29)/2
 327 0057 BB       		.byte	(.L75-.L29)/2
 328 0058 45       		.byte	(.L65-.L29)/2
 329 0059 49       		.byte	(.L66-.L29)/2
 330 005a 88       		.byte	(.L86-.L29)/2
 331 005b CB       		.byte	(.L26-.L29)/2
 332 005c CB       		.byte	(.L26-.L29)/2
 333 005d CB       		.byte	(.L26-.L29)/2
 334 005e CB       		.byte	(.L26-.L29)/2
 335 005f CB       		.byte	(.L26-.L29)/2
 336 0060 CB       		.byte	(.L26-.L29)/2
 337 0061 AE       		.byte	(.L78-.L29)/2
 338 0062 7E       		.byte	(.L90-.L29)/2
 339 0063 2E       		.byte	(.L44-.L29)/2
 340 0064 8B       		.byte	(.L87-.L29)/2
 341 0065 9E       		.byte	(.L80-.L29)/2
 342 0066 32       		.byte	(.L47-.L29)/2
 343 0067 98       		.byte	(.L82-.L29)/2
 344 0068 77       		.byte	(.L92-.L29)/2
 345 0069 8E       		.byte	(.L85-.L29)/2
 346 006a 5B       		.byte	(.L77-.L29)/2
 347 006b AB       		.byte	(.L79-.L29)/2
 348 006c 39       		.byte	(.L53-.L29)/2
 349 006d BE       		.byte	(.L74-.L29)/2
 350 006e 9B       		.byte	(.L81-.L29)/2
 351 006f 5E       		.byte	(.L76-.L29)/2
 352 0070 3D       		.byte	(.L57-.L29)/2
 353 0071 41       		.byte	(.L58-.L29)/2
 354 0072 35       		.byte	(.L84-.L29)/2
 355 0073 81       		.byte	(.L91-.L29)/2
 356 0074 C1       		.byte	(.L71-.L29)/2
 357 0075 6C       		.byte	(.L88-.L29)/2
 358 0076 69       		.byte	(.L89-.L29)/2
 359 0077 BB       		.byte	(.L75-.L29)/2
 360 0078 45       		.byte	(.L65-.L29)/2
 361 0079 49       		.byte	(.L66-.L29)/2
 362 007a 88       		.byte	(.L86-.L29)/2
 363 007b 00       		.p2align 1
 364              	.L44:
  72:.\morse.c     ****       case 'A':
  73:.\morse.c     ****       case 'a':
  74:.\morse.c     ****         blinkdot(led_flag);
  75:.\morse.c     ****         blinkdash(led_flag);
  76:.\morse.c     ****         char_separate();
  77:.\morse.c     ****         break;
  78:.\morse.c     ****       case 'B':
  79:.\morse.c     ****       case 'b':
  80:.\morse.c     ****         blinkdash(led_flag);
  81:.\morse.c     ****         blinkdot(led_flag);
  82:.\morse.c     ****         blinkdot(led_flag);
  83:.\morse.c     ****         blinkdot(led_flag);
  84:.\morse.c     ****         char_separate();
  85:.\morse.c     ****         break;
  86:.\morse.c     ****       case 'C':
  87:.\morse.c     ****       case 'c':
  88:.\morse.c     ****         blinkdash(led_flag);
 365              		.loc 1 88 0
ARM GAS  C:\Users\Admin\AppData\Local\Temp\ccNW5zXV.s 			page 9


 366 007c 201C     		mov	r0, r4
 367 007e FFF7FEFF 		bl	blinkdash
 368              	.LVL34:
 369 0082 02E0     		b	.L84
 370              	.L47:
  89:.\morse.c     ****         blinkdot(led_flag);
  90:.\morse.c     ****         blinkdash(led_flag);
  91:.\morse.c     ****         blinkdot(led_flag);
  92:.\morse.c     ****         char_separate();
  93:.\morse.c     ****         break;
  94:.\morse.c     ****       case 'D':
  95:.\morse.c     ****       case 'd':
  96:.\morse.c     ****         blinkdash(led_flag);
  97:.\morse.c     ****         blinkdot(led_flag);
  98:.\morse.c     ****         blinkdot(led_flag);
  99:.\morse.c     ****         char_separate();
 100:.\morse.c     ****         break;
 101:.\morse.c     ****        case 'E':
 102:.\morse.c     ****        case 'e':
 103:.\morse.c     ****         blinkdot(led_flag);
 104:.\morse.c     ****         char_separate();
 105:.\morse.c     ****         break;
 106:.\morse.c     ****        case 'F':
 107:.\morse.c     ****        case 'f':
 108:.\morse.c     ****         blinkdot(led_flag);
 371              		.loc 1 108 0
 372 0084 201C     		mov	r0, r4
 373 0086 FFF7FEFF 		bl	blinkdot
 374              	.LVL35:
 375              	.L84:
 109:.\morse.c     ****         blinkdot(led_flag);
 376              		.loc 1 109 0
 377 008a 201C     		mov	r0, r4
 378 008c FFF7FEFF 		bl	blinkdot
 379              	.LVL36:
 380 0090 61E0     		b	.L81
 381              	.L53:
 110:.\morse.c     ****         blinkdash(led_flag);
 111:.\morse.c     ****         blinkdot(led_flag);
 112:.\morse.c     ****         char_separate();
 113:.\morse.c     ****         break;
 114:.\morse.c     ****        case 'G':
 115:.\morse.c     ****        case 'g':
 116:.\morse.c     ****         blinkdash(led_flag);
 117:.\morse.c     ****         blinkdash(led_flag);
 118:.\morse.c     ****         blinkdot(led_flag);
 119:.\morse.c     ****         char_separate();
 120:.\morse.c     ****         break;
 121:.\morse.c     ****        case 'H':
 122:.\morse.c     ****        case 'h':
 123:.\morse.c     ****         blinkdot(led_flag);
 124:.\morse.c     ****         blinkdot(led_flag);
 125:.\morse.c     ****         blinkdot(led_flag);
 126:.\morse.c     ****         blinkdot(led_flag);
 127:.\morse.c     ****         char_separate();
 128:.\morse.c     ****         break;
 129:.\morse.c     ****        case 'I':
ARM GAS  C:\Users\Admin\AppData\Local\Temp\ccNW5zXV.s 			page 10


 130:.\morse.c     ****        case 'i':
 131:.\morse.c     ****         blinkdot(led_flag);
 132:.\morse.c     ****         blinkdot(led_flag);
 133:.\morse.c     ****         char_separate();
 134:.\morse.c     ****         break;
 135:.\morse.c     ****        case 'J':
 136:.\morse.c     ****        case 'j':
 137:.\morse.c     ****         blinkdot(led_flag);
 138:.\morse.c     ****         blinkdash(led_flag);
 139:.\morse.c     ****         blinkdash(led_flag);
 140:.\morse.c     ****         blinkdash(led_flag);
 141:.\morse.c     ****         char_separate();
 142:.\morse.c     ****         break;
 143:.\morse.c     ****        case 'K':
 144:.\morse.c     ****        case 'k':
 145:.\morse.c     ****         blinkdash(led_flag);
 146:.\morse.c     ****         blinkdot(led_flag);
 147:.\morse.c     ****         blinkdash(led_flag);
 148:.\morse.c     ****         char_separate();
 149:.\morse.c     ****         break;
 150:.\morse.c     ****        case 'L':
 151:.\morse.c     ****        case 'l':
 152:.\morse.c     ****         blinkdot(led_flag);
 382              		.loc 1 152 0
 383 0092 201C     		mov	r0, r4
 384 0094 FFF7FEFF 		bl	blinkdot
 385              	.LVL37:
 386 0098 4DE0     		b	.L87
 387              	.L57:
 153:.\morse.c     ****         blinkdash(led_flag);
 154:.\morse.c     ****         blinkdot(led_flag);
 155:.\morse.c     ****         blinkdot(led_flag);
 156:.\morse.c     ****         char_separate();
 157:.\morse.c     ****         break;
 158:.\morse.c     ****        case 'M':
 159:.\morse.c     ****        case 'm':
 160:.\morse.c     ****         blinkdash(led_flag);
 161:.\morse.c     ****         blinkdash(led_flag);
 162:.\morse.c     ****         char_separate();
 163:.\morse.c     ****         break;
 164:.\morse.c     ****        case 'N':
 165:.\morse.c     ****        case 'n':
 166:.\morse.c     ****         blinkdash(led_flag);
 167:.\morse.c     ****         blinkdot(led_flag);
 168:.\morse.c     ****         char_separate();
 169:.\morse.c     ****         break;
 170:.\morse.c     ****        case 'O':
 171:.\morse.c     ****        case 'o':
 172:.\morse.c     ****         blinkdash(led_flag);
 173:.\morse.c     ****         blinkdash(led_flag);
 174:.\morse.c     ****         blinkdash(led_flag);
 175:.\morse.c     ****         char_separate();
 176:.\morse.c     ****         break;
 177:.\morse.c     ****        case 'P':
 178:.\morse.c     ****        case 'p':
 179:.\morse.c     ****         blinkdot(led_flag);
 388              		.loc 1 179 0
ARM GAS  C:\Users\Admin\AppData\Local\Temp\ccNW5zXV.s 			page 11


 389 009a 201C     		mov	r0, r4
 390 009c FFF7FEFF 		bl	blinkdot
 391              	.LVL38:
 392 00a0 56E0     		b	.L82
 393              	.L58:
 180:.\morse.c     ****         blinkdash(led_flag);
 181:.\morse.c     ****         blinkdash(led_flag);
 182:.\morse.c     ****         blinkdot(led_flag);
 183:.\morse.c     ****         char_separate();
 184:.\morse.c     ****         break;
 185:.\morse.c     ****        case 'Q':
 186:.\morse.c     ****        case 'q':
 187:.\morse.c     ****         blinkdash(led_flag);
 394              		.loc 1 187 0
 395 00a2 201C     		mov	r0, r4
 396 00a4 FFF7FEFF 		bl	blinkdash
 397              	.LVL39:
 398 00a8 65E0     		b	.L79
 399              	.L65:
 188:.\morse.c     ****         blinkdash(led_flag);
 189:.\morse.c     ****         blinkdot(led_flag);
 190:.\morse.c     ****         blinkdash(led_flag);
 191:.\morse.c     ****         char_separate();
 192:.\morse.c     ****         break;
 193:.\morse.c     ****        case 'R':
 194:.\morse.c     ****        case 'r':
 195:.\morse.c     ****         blinkdot(led_flag);
 196:.\morse.c     ****         blinkdash(led_flag);
 197:.\morse.c     ****         blinkdot(led_flag);
 198:.\morse.c     ****         char_separate();
 199:.\morse.c     ****         break;
 200:.\morse.c     ****        case 'S':
 201:.\morse.c     ****        case 's':
 202:.\morse.c     ****         blinkdot(led_flag);
 203:.\morse.c     ****         blinkdot(led_flag);
 204:.\morse.c     ****         blinkdot(led_flag);
 205:.\morse.c     ****         char_separate();
 206:.\morse.c     ****         break;
 207:.\morse.c     ****        case 'T':
 208:.\morse.c     ****        case 't':
 209:.\morse.c     ****         blinkdash(led_flag);
 210:.\morse.c     ****         char_separate();
 211:.\morse.c     ****         break;
 212:.\morse.c     ****        case 'U':
 213:.\morse.c     ****        case 'u':
 214:.\morse.c     ****         blinkdot(led_flag);
 215:.\morse.c     ****         blinkdot(led_flag);
 216:.\morse.c     ****         blinkdash(led_flag);
 217:.\morse.c     ****         char_separate();
 218:.\morse.c     ****         break;
 219:.\morse.c     ****        case 'V':
 220:.\morse.c     ****        case 'v':
 221:.\morse.c     ****         blinkdot(led_flag);
 222:.\morse.c     ****         blinkdot(led_flag);
 223:.\morse.c     ****         blinkdot(led_flag);
 224:.\morse.c     ****         blinkdash(led_flag);
 225:.\morse.c     ****         char_separate();
ARM GAS  C:\Users\Admin\AppData\Local\Temp\ccNW5zXV.s 			page 12


 226:.\morse.c     ****         break;
 227:.\morse.c     ****        case 'W':
 228:.\morse.c     ****        case 'w':
 229:.\morse.c     ****         blinkdot(led_flag);
 230:.\morse.c     ****         blinkdash(led_flag);
 231:.\morse.c     ****         blinkdash(led_flag);
 232:.\morse.c     ****         char_separate();
 233:.\morse.c     ****         break;
 234:.\morse.c     ****        case 'X':
 235:.\morse.c     ****        case 'x':
 236:.\morse.c     ****         blinkdash(led_flag);
 400              		.loc 1 236 0
 401 00aa 201C     		mov	r0, r4
 402 00ac FFF7FEFF 		bl	blinkdash
 403              	.LVL40:
 404 00b0 22E0     		b	.L88
 405              	.L66:
 237:.\morse.c     ****         blinkdot(led_flag);
 238:.\morse.c     ****         blinkdot(led_flag);
 239:.\morse.c     ****         blinkdash(led_flag);
 240:.\morse.c     ****         char_separate();
 241:.\morse.c     ****         break;
 242:.\morse.c     ****        case 'Y':
 243:.\morse.c     ****        case 'y':
 244:.\morse.c     ****         blinkdash(led_flag);
 406              		.loc 1 244 0
 407 00b2 201C     		mov	r0, r4
 408 00b4 FFF7FEFF 		bl	blinkdash
 409              	.LVL41:
 410 00b8 6DE0     		b	.L75
 411              	.L32:
 245:.\morse.c     ****         blinkdot(led_flag);
 246:.\morse.c     ****         blinkdash(led_flag);
 247:.\morse.c     ****         blinkdash(led_flag);
 248:.\morse.c     ****         char_separate();
 249:.\morse.c     ****         break;
 250:.\morse.c     ****        case 'Z':
 251:.\morse.c     ****        case 'z':
 252:.\morse.c     ****         blinkdash(led_flag);
 253:.\morse.c     ****         blinkdash(led_flag);
 254:.\morse.c     ****         blinkdot(led_flag);
 255:.\morse.c     ****         blinkdot(led_flag);
 256:.\morse.c     ****         char_separate();
 257:.\morse.c     ****         break;
 258:.\morse.c     ****        case '0':
 259:.\morse.c     ****         blinkdash(led_flag);
 412              		.loc 1 259 0
 413 00ba 201C     		mov	r0, r4
 414 00bc FFF7FEFF 		bl	blinkdash
 415              	.LVL42:
 416 00c0 02E0     		b	.L83
 417              	.L33:
 260:.\morse.c     ****         blinkdash(led_flag);
 261:.\morse.c     ****         blinkdash(led_flag);
 262:.\morse.c     ****         blinkdash(led_flag);
 263:.\morse.c     ****         blinkdash(led_flag);
 264:.\morse.c     ****         char_separate();
ARM GAS  C:\Users\Admin\AppData\Local\Temp\ccNW5zXV.s 			page 13


 265:.\morse.c     ****         break;
 266:.\morse.c     ****        case '1':
 267:.\morse.c     ****         blinkdot(led_flag);
 418              		.loc 1 267 0
 419 00c2 201C     		mov	r0, r4
 420 00c4 FFF7FEFF 		bl	blinkdot
 421              	.LVL43:
 422              	.L83:
 268:.\morse.c     ****         blinkdash(led_flag);
 423              		.loc 1 268 0
 424 00c8 201C     		mov	r0, r4
 425 00ca FFF7FEFF 		bl	blinkdash
 426              	.LVL44:
 427 00ce 05E0     		b	.L76
 428              	.L34:
 269:.\morse.c     ****         blinkdash(led_flag);
 270:.\morse.c     ****         blinkdash(led_flag);
 271:.\morse.c     ****         blinkdash(led_flag);
 272:.\morse.c     ****         char_separate();
 273:.\morse.c     ****         break;
 274:.\morse.c     ****        case '2':
 275:.\morse.c     ****         blinkdot(led_flag);
 429              		.loc 1 275 0
 430 00d0 201C     		mov	r0, r4
 431 00d2 FFF7FEFF 		bl	blinkdot
 432              	.LVL45:
 433              	.L77:
 276:.\morse.c     ****         blinkdot(led_flag);
 434              		.loc 1 276 0
 435 00d6 201C     		mov	r0, r4
 436 00d8 FFF7FEFF 		bl	blinkdot
 437              	.LVL46:
 438              	.L76:
 277:.\morse.c     ****         blinkdash(led_flag);
 439              		.loc 1 277 0
 440 00dc 201C     		mov	r0, r4
 441 00de FFF7FEFF 		bl	blinkdash
 442              	.LVL47:
 443 00e2 5BE0     		b	.L74
 444              	.L35:
 278:.\morse.c     ****         blinkdash(led_flag);
 279:.\morse.c     ****         blinkdash(led_flag);
 280:.\morse.c     ****         char_separate();
 281:.\morse.c     ****         break;
 282:.\morse.c     ****        case '3':
 283:.\morse.c     ****         blinkdot(led_flag);
 445              		.loc 1 283 0
 446 00e4 201C     		mov	r0, r4
 447 00e6 FFF7FEFF 		bl	blinkdot
 448              	.LVL48:
 449 00ea 51E0     		b	.L73
 450              	.L36:
 284:.\morse.c     ****         blinkdot(led_flag);
 285:.\morse.c     ****         blinkdot(led_flag);
 286:.\morse.c     ****         blinkdash(led_flag);
 287:.\morse.c     ****         blinkdash(led_flag);
 288:.\morse.c     ****         char_separate();
ARM GAS  C:\Users\Admin\AppData\Local\Temp\ccNW5zXV.s 			page 14


 289:.\morse.c     ****         break;
 290:.\morse.c     ****        case '4':
 291:.\morse.c     ****         blinkdot(led_flag);
 451              		.loc 1 291 0
 452 00ec 201C     		mov	r0, r4
 453 00ee FFF7FEFF 		bl	blinkdot
 454              	.LVL49:
 455              	.L89:
 292:.\morse.c     ****         blinkdot(led_flag);
 456              		.loc 1 292 0
 457 00f2 201C     		mov	r0, r4
 458 00f4 FFF7FEFF 		bl	blinkdot
 459              	.LVL50:
 460              	.L88:
 293:.\morse.c     ****         blinkdot(led_flag);
 461              		.loc 1 293 0
 462 00f8 201C     		mov	r0, r4
 463 00fa FFF7FEFF 		bl	blinkdot
 464              	.LVL51:
 465 00fe 3DE0     		b	.L78
 466              	.L37:
 294:.\morse.c     ****         blinkdot(led_flag);
 295:.\morse.c     ****         blinkdash(led_flag);
 296:.\morse.c     ****         char_separate();
 297:.\morse.c     ****         break;
 298:.\morse.c     ****        case '5':
 299:.\morse.c     ****         blinkdot(led_flag);
 467              		.loc 1 299 0
 468 0100 201C     		mov	r0, r4
 469 0102 FFF7FEFF 		bl	blinkdot
 470              	.LVL52:
 471 0106 02E0     		b	.L92
 472              	.L38:
 300:.\morse.c     ****         blinkdot(led_flag);
 301:.\morse.c     ****         blinkdot(led_flag);
 302:.\morse.c     ****         blinkdot(led_flag);
 303:.\morse.c     ****         blinkdot(led_flag);
 304:.\morse.c     ****         char_separate();
 305:.\morse.c     ****         break;
 306:.\morse.c     ****        case '6':
 307:.\morse.c     ****         blinkdash(led_flag);
 473              		.loc 1 307 0
 474 0108 201C     		mov	r0, r4
 475 010a FFF7FEFF 		bl	blinkdash
 476              	.LVL53:
 477              	.L92:
 308:.\morse.c     ****         blinkdot(led_flag);
 478              		.loc 1 308 0
 479 010e 201C     		mov	r0, r4
 480 0110 FFF7FEFF 		bl	blinkdot
 481              	.LVL54:
 482 0114 05E0     		b	.L91
 483              	.L39:
 309:.\morse.c     ****         blinkdot(led_flag);
 310:.\morse.c     ****         blinkdot(led_flag);
 311:.\morse.c     ****         blinkdot(led_flag);
 312:.\morse.c     ****         char_separate();
ARM GAS  C:\Users\Admin\AppData\Local\Temp\ccNW5zXV.s 			page 15


 313:.\morse.c     ****         break;
 314:.\morse.c     ****        case '7':
 315:.\morse.c     ****         blinkdash(led_flag);
 484              		.loc 1 315 0
 485 0116 201C     		mov	r0, r4
 486 0118 FFF7FEFF 		bl	blinkdash
 487              	.LVL55:
 488              	.L90:
 316:.\morse.c     ****         blinkdash(led_flag);
 489              		.loc 1 316 0
 490 011c 201C     		mov	r0, r4
 491 011e FFF7FEFF 		bl	blinkdash
 492              	.LVL56:
 493              	.L91:
 317:.\morse.c     ****         blinkdot(led_flag);
 494              		.loc 1 317 0
 495 0122 201C     		mov	r0, r4
 496 0124 FFF7FEFF 		bl	blinkdot
 497              	.LVL57:
 498 0128 08E0     		b	.L85
 499              	.L40:
 318:.\morse.c     ****         blinkdot(led_flag);
 319:.\morse.c     ****         blinkdot(led_flag);
 320:.\morse.c     ****         char_separate();
 321:.\morse.c     ****         break;
 322:.\morse.c     ****        case '8':
 323:.\morse.c     ****         blinkdash(led_flag);
 500              		.loc 1 323 0
 501 012a 201C     		mov	r0, r4
 502 012c FFF7FEFF 		bl	blinkdash
 503              	.LVL58:
 504              	.L86:
 324:.\morse.c     ****         blinkdash(led_flag);
 505              		.loc 1 324 0
 506 0130 201C     		mov	r0, r4
 507 0132 FFF7FEFF 		bl	blinkdash
 508              	.LVL59:
 509              	.L87:
 325:.\morse.c     ****         blinkdash(led_flag);
 510              		.loc 1 325 0
 511 0136 201C     		mov	r0, r4
 512 0138 FFF7FEFF 		bl	blinkdash
 513              	.LVL60:
 514              	.L85:
 326:.\morse.c     ****         blinkdot(led_flag);
 515              		.loc 1 326 0
 516 013c 201C     		mov	r0, r4
 517 013e FFF7FEFF 		bl	blinkdot
 518              	.LVL61:
 519 0142 0BE0     		b	.L80
 520              	.L41:
 327:.\morse.c     ****         blinkdot(led_flag);
 328:.\morse.c     ****         char_separate();
 329:.\morse.c     ****         break;
 330:.\morse.c     ****        case '9':
 331:.\morse.c     ****         blinkdash(led_flag);
 521              		.loc 1 331 0
ARM GAS  C:\Users\Admin\AppData\Local\Temp\ccNW5zXV.s 			page 16


 522 0144 201C     		mov	r0, r4
 523 0146 FFF7FEFF 		bl	blinkdash
 524              	.LVL62:
 332:.\morse.c     ****         blinkdash(led_flag);
 525              		.loc 1 332 0
 526 014a 201C     		mov	r0, r4
 527 014c FFF7FEFF 		bl	blinkdash
 528              	.LVL63:
 529              	.L82:
 333:.\morse.c     ****         blinkdash(led_flag);
 530              		.loc 1 333 0
 531 0150 201C     		mov	r0, r4
 532 0152 FFF7FEFF 		bl	blinkdash
 533              	.LVL64:
 534              	.L81:
 334:.\morse.c     ****         blinkdash(led_flag);
 535              		.loc 1 334 0
 536 0156 201C     		mov	r0, r4
 537 0158 FFF7FEFF 		bl	blinkdash
 538              	.LVL65:
 539              	.L80:
 335:.\morse.c     ****         blinkdot(led_flag);
 540              		.loc 1 335 0
 541 015c 201C     		mov	r0, r4
 542 015e FFF7FEFF 		bl	blinkdot
 543              	.LVL66:
 544 0162 21E0     		b	.L72
 545              	.L31:
 336:.\morse.c     ****         char_separate();
 337:.\morse.c     ****         break;
 338:.\morse.c     ****        case '.':
 339:.\morse.c     ****         blinkdot(led_flag);
 546              		.loc 1 339 0
 547 0164 201C     		mov	r0, r4
 548 0166 FFF7FEFF 		bl	blinkdot
 549              	.LVL67:
 340:.\morse.c     ****         blinkdash(led_flag);
 550              		.loc 1 340 0
 551 016a 201C     		mov	r0, r4
 552 016c FFF7FEFF 		bl	blinkdash
 553              	.LVL68:
 341:.\morse.c     ****         blinkdot(led_flag);
 554              		.loc 1 341 0
 555 0170 201C     		mov	r0, r4
 556 0172 FFF7FEFF 		bl	blinkdot
 557              	.LVL69:
 558              	.L79:
 342:.\morse.c     ****         blinkdash(led_flag);
 559              		.loc 1 342 0
 560 0176 201C     		mov	r0, r4
 561 0178 FFF7FEFF 		bl	blinkdash
 562              	.LVL70:
 563              	.L78:
 343:.\morse.c     ****         blinkdot(led_flag);
 564              		.loc 1 343 0
 565 017c 201C     		mov	r0, r4
 566 017e FFF7FEFF 		bl	blinkdot
ARM GAS  C:\Users\Admin\AppData\Local\Temp\ccNW5zXV.s 			page 17


 567              	.LVL71:
 568 0182 0EE0     		b	.L71
 569              	.L30:
 344:.\morse.c     ****         blinkdash(led_flag);
 345:.\morse.c     ****         char_separate();
 346:.\morse.c     ****         break;
 347:.\morse.c     ****        case ',':
 348:.\morse.c     ****         blinkdash(led_flag);
 570              		.loc 1 348 0
 571 0184 201C     		mov	r0, r4
 572 0186 FFF7FEFF 		bl	blinkdash
 573              	.LVL72:
 349:.\morse.c     ****         blinkdash(led_flag);
 574              		.loc 1 349 0
 575 018a 201C     		mov	r0, r4
 576 018c FFF7FEFF 		bl	blinkdash
 577              	.LVL73:
 578              	.L73:
 350:.\morse.c     ****         blinkdot(led_flag);
 579              		.loc 1 350 0
 580 0190 201C     		mov	r0, r4
 581 0192 FFF7FEFF 		bl	blinkdot
 582              	.LVL74:
 583              	.L75:
 351:.\morse.c     ****         blinkdot(led_flag);
 584              		.loc 1 351 0
 585 0196 201C     		mov	r0, r4
 586 0198 FFF7FEFF 		bl	blinkdot
 587              	.LVL75:
 588              	.L74:
 352:.\morse.c     ****         blinkdash(led_flag);
 589              		.loc 1 352 0
 590 019c 201C     		mov	r0, r4
 591 019e FFF7FEFF 		bl	blinkdash
 592              	.LVL76:
 593              	.L71:
 353:.\morse.c     ****         blinkdash(led_flag);
 594              		.loc 1 353 0
 595 01a2 201C     		mov	r0, r4
 596 01a4 FFF7FEFF 		bl	blinkdash
 597              	.LVL77:
 598              	.L72:
 354:.\morse.c     ****         char_separate();
 599              		.loc 1 354 0
 600 01a8 FFF7FEFF 		bl	char_separate
 601              	.LVL78:
 355:.\morse.c     ****         break;
 602              		.loc 1 355 0
 603 01ac 03E0     		b	.L26
 604              	.L28:
 356:.\morse.c     ****        case ' ':
 357:.\morse.c     ****         CyDelay(WORD_SEPARATE_TIME);
 605              		.loc 1 357 0
 606 01ae FA20     		mov	r0, #250
 607 01b0 8000     		lsl	r0, r0, #2
 608 01b2 FFF7FEFF 		bl	CyDelay
 609              	.LVL79:
ARM GAS  C:\Users\Admin\AppData\Local\Temp\ccNW5zXV.s 			page 18


 610              	.L26:
 358:.\morse.c     ****         break;
 359:.\morse.c     ****        case '\n':
 360:.\morse.c     ****         break;
 361:.\morse.c     ****    }
 362:.\morse.c     **** }
 611              		.loc 1 362 0
 612              		@ sp needed
 613 01b6 38BD     		pop	{r3, r4, r5, pc}
 614              		.cfi_endproc
 615              	.LFE37:
 616              		.size	morse_encode, .-morse_encode
 617              		.section	.text.morse_message,"ax",%progbits
 618              		.align	1
 619              		.global	morse_message
 620              		.code	16
 621              		.thumb_func
 622              		.type	morse_message, %function
 623              	morse_message:
 624              	.LFB38:
 363:.\morse.c     **** 
 364:.\morse.c     **** void morse_message(uint8 led_flag, char* message) {
 625              		.loc 1 364 0
 626              		.cfi_startproc
 627              	.LVL80:
 628 0000 70B5     		push	{r4, r5, r6, lr}
 629              		.cfi_def_cfa_offset 16
 630              		.cfi_offset 4, -16
 631              		.cfi_offset 5, -12
 632              		.cfi_offset 6, -8
 633              		.cfi_offset 14, -4
 634              		.loc 1 364 0
 635 0002 061C     		mov	r6, r0
 636 0004 0D1C     		mov	r5, r1
 365:.\morse.c     ****     unsigned int i;
 366:.\morse.c     ****     
 367:.\morse.c     ****     new_message_morse();
 637              		.loc 1 367 0
 638 0006 FFF7FEFF 		bl	new_message_morse
 639              	.LVL81:
 368:.\morse.c     ****     
 369:.\morse.c     ****     for (i=0; i < strlen(message); i++) {
 640              		.loc 1 369 0
 641 000a 0024     		mov	r4, #0
 642              	.LVL82:
 643              	.L94:
 644              		.loc 1 369 0 is_stmt 0 discriminator 1
 645 000c 281C     		mov	r0, r5
 646 000e FFF7FEFF 		bl	strlen
 647              	.LVL83:
 648 0012 8442     		cmp	r4, r0
 649 0014 0AD2     		bcs	.L93
 370:.\morse.c     ****         /* Verify state */
 371:.\morse.c     ****         if(!verify_state(MORSE)) {
 650              		.loc 1 371 0 is_stmt 1
 651 0016 0120     		mov	r0, #1
 652 0018 FFF7FEFF 		bl	verify_state
ARM GAS  C:\Users\Admin\AppData\Local\Temp\ccNW5zXV.s 			page 19


 653              	.LVL84:
 654 001c 0028     		cmp	r0, #0
 655 001e 05D0     		beq	.L93
 372:.\morse.c     ****             return;
 373:.\morse.c     ****         }
 374:.\morse.c     ****         morse_encode(led_flag, message[i]);
 656              		.loc 1 374 0
 657 0020 295D     		ldrb	r1, [r5, r4]
 658 0022 301C     		mov	r0, r6
 659 0024 FFF7FEFF 		bl	morse_encode
 660              	.LVL85:
 369:.\morse.c     ****     for (i=0; i < strlen(message); i++) {
 661              		.loc 1 369 0
 662 0028 0134     		add	r4, r4, #1
 663              	.LVL86:
 664 002a EFE7     		b	.L94
 665              	.L93:
 375:.\morse.c     ****     }
 376:.\morse.c     **** }
 666              		.loc 1 376 0
 667              		@ sp needed
 668              	.LVL87:
 669              	.LVL88:
 670 002c 70BD     		pop	{r4, r5, r6, pc}
 671              		.cfi_endproc
 672              	.LFE38:
 673              		.size	morse_message, .-morse_message
 674              		.text
 675              	.Letext0:
 676              		.file 2 ".\\Generated_Source\\PSoC4/cytypes.h"
 677              		.file 3 "c:\\program files\\cypress\\psoc creator\\3.1\\psoc creator\\import\\gnu_cs\\arm\\4.8.4\\
 678              		.file 4 ".\\lightlib.h"
 679              		.file 5 ".\\Generated_Source\\PSoC4/CyLib.h"
 680              		.file 6 ".\\state.h"
 681              		.file 7 "c:\\program files\\cypress\\psoc creator\\3.1\\psoc creator\\import\\gnu_cs\\arm\\4.8.4\\