ARM GAS  C:\Users\Admin\AppData\Local\Temp\ccd7Q9kw.s 			page 1


   1              		.cpu cortex-m0
   2              		.fpu softvfp
   3              		.eabi_attribute 20, 1
   4              		.eabi_attribute 21, 1
   5              		.eabi_attribute 23, 3
   6              		.eabi_attribute 24, 1
   7              		.eabi_attribute 25, 1
   8              		.eabi_attribute 26, 1
   9              		.eabi_attribute 30, 4
  10              		.eabi_attribute 34, 0
  11              		.eabi_attribute 18, 4
  12              		.code	16
  13              		.file	"ORG_Int.c"
  14              		.text
  15              	.Ltext0:
  16              		.cfi_sections	.debug_frame
  17              		.section	.text.ORG_Int_Interrupt,"ax",%progbits
  18              		.align	1
  19              		.global	ORG_Int_Interrupt
  20              		.code	16
  21              		.thumb_func
  22              		.type	ORG_Int_Interrupt, %function
  23              	ORG_Int_Interrupt:
  24              	.LFB3:
  25              		.file 1 ".\\Generated_Source\\PSoC4\\ORG_Int.c"
   1:.\Generated_Source\PSoC4/ORG_Int.c **** /*******************************************************************************
   2:.\Generated_Source\PSoC4/ORG_Int.c **** * File Name: ORG_Int.c  
   3:.\Generated_Source\PSoC4/ORG_Int.c **** * Version 1.70
   4:.\Generated_Source\PSoC4/ORG_Int.c **** *
   5:.\Generated_Source\PSoC4/ORG_Int.c **** *  Description:
   6:.\Generated_Source\PSoC4/ORG_Int.c **** *   API for controlling the state of an interrupt.
   7:.\Generated_Source\PSoC4/ORG_Int.c **** *
   8:.\Generated_Source\PSoC4/ORG_Int.c **** *
   9:.\Generated_Source\PSoC4/ORG_Int.c **** *  Note:
  10:.\Generated_Source\PSoC4/ORG_Int.c **** *
  11:.\Generated_Source\PSoC4/ORG_Int.c **** ********************************************************************************
  12:.\Generated_Source\PSoC4/ORG_Int.c **** * Copyright 2008-2012, Cypress Semiconductor Corporation.  All rights reserved.
  13:.\Generated_Source\PSoC4/ORG_Int.c **** * You may use this file only in accordance with the license, terms, conditions, 
  14:.\Generated_Source\PSoC4/ORG_Int.c **** * disclaimers, and limitations in the end user license agreement accompanying 
  15:.\Generated_Source\PSoC4/ORG_Int.c **** * the software package with which this file was provided.
  16:.\Generated_Source\PSoC4/ORG_Int.c **** *******************************************************************************/
  17:.\Generated_Source\PSoC4/ORG_Int.c **** 
  18:.\Generated_Source\PSoC4/ORG_Int.c **** 
  19:.\Generated_Source\PSoC4/ORG_Int.c **** #include <cydevice_trm.h>
  20:.\Generated_Source\PSoC4/ORG_Int.c **** #include <CyLib.h>
  21:.\Generated_Source\PSoC4/ORG_Int.c **** #include <ORG_Int.h>
  22:.\Generated_Source\PSoC4/ORG_Int.c **** 
  23:.\Generated_Source\PSoC4/ORG_Int.c **** #if !defined(ORG_Int__REMOVED) /* Check for removal by optimization */
  24:.\Generated_Source\PSoC4/ORG_Int.c **** 
  25:.\Generated_Source\PSoC4/ORG_Int.c **** /*******************************************************************************
  26:.\Generated_Source\PSoC4/ORG_Int.c **** *  Place your includes, defines and code here 
  27:.\Generated_Source\PSoC4/ORG_Int.c **** ********************************************************************************/
  28:.\Generated_Source\PSoC4/ORG_Int.c **** /* `#START ORG_Int_intc` */
  29:.\Generated_Source\PSoC4/ORG_Int.c **** 
  30:.\Generated_Source\PSoC4/ORG_Int.c **** /* `#END` */
  31:.\Generated_Source\PSoC4/ORG_Int.c **** 
  32:.\Generated_Source\PSoC4/ORG_Int.c **** extern cyisraddress CyRamVectors[CYINT_IRQ_BASE + CY_NUM_INTERRUPTS];
ARM GAS  C:\Users\Admin\AppData\Local\Temp\ccd7Q9kw.s 			page 2


  33:.\Generated_Source\PSoC4/ORG_Int.c **** 
  34:.\Generated_Source\PSoC4/ORG_Int.c **** /* Declared in startup, used to set unused interrupts to. */
  35:.\Generated_Source\PSoC4/ORG_Int.c **** CY_ISR_PROTO(IntDefaultHandler);
  36:.\Generated_Source\PSoC4/ORG_Int.c **** 
  37:.\Generated_Source\PSoC4/ORG_Int.c **** 
  38:.\Generated_Source\PSoC4/ORG_Int.c **** /*******************************************************************************
  39:.\Generated_Source\PSoC4/ORG_Int.c **** * Function Name: ORG_Int_Start
  40:.\Generated_Source\PSoC4/ORG_Int.c **** ********************************************************************************
  41:.\Generated_Source\PSoC4/ORG_Int.c **** *
  42:.\Generated_Source\PSoC4/ORG_Int.c **** * Summary:
  43:.\Generated_Source\PSoC4/ORG_Int.c **** *  Set up the interrupt and enable it.
  44:.\Generated_Source\PSoC4/ORG_Int.c **** *
  45:.\Generated_Source\PSoC4/ORG_Int.c **** * Parameters:  
  46:.\Generated_Source\PSoC4/ORG_Int.c **** *   None
  47:.\Generated_Source\PSoC4/ORG_Int.c **** *
  48:.\Generated_Source\PSoC4/ORG_Int.c **** * Return:
  49:.\Generated_Source\PSoC4/ORG_Int.c **** *   None
  50:.\Generated_Source\PSoC4/ORG_Int.c **** *
  51:.\Generated_Source\PSoC4/ORG_Int.c **** *******************************************************************************/
  52:.\Generated_Source\PSoC4/ORG_Int.c **** void ORG_Int_Start(void)
  53:.\Generated_Source\PSoC4/ORG_Int.c **** {
  54:.\Generated_Source\PSoC4/ORG_Int.c ****     /* For all we know the interrupt is active. */
  55:.\Generated_Source\PSoC4/ORG_Int.c ****     ORG_Int_Disable();
  56:.\Generated_Source\PSoC4/ORG_Int.c **** 
  57:.\Generated_Source\PSoC4/ORG_Int.c ****     /* Set the ISR to point to the ORG_Int Interrupt. */
  58:.\Generated_Source\PSoC4/ORG_Int.c ****     ORG_Int_SetVector(&ORG_Int_Interrupt);
  59:.\Generated_Source\PSoC4/ORG_Int.c **** 
  60:.\Generated_Source\PSoC4/ORG_Int.c ****     /* Set the priority. */
  61:.\Generated_Source\PSoC4/ORG_Int.c ****     ORG_Int_SetPriority((uint8)ORG_Int_INTC_PRIOR_NUMBER);
  62:.\Generated_Source\PSoC4/ORG_Int.c **** 
  63:.\Generated_Source\PSoC4/ORG_Int.c ****     /* Enable it. */
  64:.\Generated_Source\PSoC4/ORG_Int.c ****     ORG_Int_Enable();
  65:.\Generated_Source\PSoC4/ORG_Int.c **** }
  66:.\Generated_Source\PSoC4/ORG_Int.c **** 
  67:.\Generated_Source\PSoC4/ORG_Int.c **** 
  68:.\Generated_Source\PSoC4/ORG_Int.c **** /*******************************************************************************
  69:.\Generated_Source\PSoC4/ORG_Int.c **** * Function Name: ORG_Int_StartEx
  70:.\Generated_Source\PSoC4/ORG_Int.c **** ********************************************************************************
  71:.\Generated_Source\PSoC4/ORG_Int.c **** *
  72:.\Generated_Source\PSoC4/ORG_Int.c **** * Summary:
  73:.\Generated_Source\PSoC4/ORG_Int.c **** *  Set up the interrupt and enable it.
  74:.\Generated_Source\PSoC4/ORG_Int.c **** *
  75:.\Generated_Source\PSoC4/ORG_Int.c **** * Parameters:  
  76:.\Generated_Source\PSoC4/ORG_Int.c **** *   address: Address of the ISR to set in the interrupt vector table.
  77:.\Generated_Source\PSoC4/ORG_Int.c **** *
  78:.\Generated_Source\PSoC4/ORG_Int.c **** * Return:
  79:.\Generated_Source\PSoC4/ORG_Int.c **** *   None
  80:.\Generated_Source\PSoC4/ORG_Int.c **** *
  81:.\Generated_Source\PSoC4/ORG_Int.c **** *******************************************************************************/
  82:.\Generated_Source\PSoC4/ORG_Int.c **** void ORG_Int_StartEx(cyisraddress address)
  83:.\Generated_Source\PSoC4/ORG_Int.c **** {
  84:.\Generated_Source\PSoC4/ORG_Int.c ****     /* For all we know the interrupt is active. */
  85:.\Generated_Source\PSoC4/ORG_Int.c ****     ORG_Int_Disable();
  86:.\Generated_Source\PSoC4/ORG_Int.c **** 
  87:.\Generated_Source\PSoC4/ORG_Int.c ****     /* Set the ISR to point to the ORG_Int Interrupt. */
  88:.\Generated_Source\PSoC4/ORG_Int.c ****     ORG_Int_SetVector(address);
  89:.\Generated_Source\PSoC4/ORG_Int.c **** 
ARM GAS  C:\Users\Admin\AppData\Local\Temp\ccd7Q9kw.s 			page 3


  90:.\Generated_Source\PSoC4/ORG_Int.c ****     /* Set the priority. */
  91:.\Generated_Source\PSoC4/ORG_Int.c ****     ORG_Int_SetPriority((uint8)ORG_Int_INTC_PRIOR_NUMBER);
  92:.\Generated_Source\PSoC4/ORG_Int.c **** 
  93:.\Generated_Source\PSoC4/ORG_Int.c ****     /* Enable it. */
  94:.\Generated_Source\PSoC4/ORG_Int.c ****     ORG_Int_Enable();
  95:.\Generated_Source\PSoC4/ORG_Int.c **** }
  96:.\Generated_Source\PSoC4/ORG_Int.c **** 
  97:.\Generated_Source\PSoC4/ORG_Int.c **** 
  98:.\Generated_Source\PSoC4/ORG_Int.c **** /*******************************************************************************
  99:.\Generated_Source\PSoC4/ORG_Int.c **** * Function Name: ORG_Int_Stop
 100:.\Generated_Source\PSoC4/ORG_Int.c **** ********************************************************************************
 101:.\Generated_Source\PSoC4/ORG_Int.c **** *
 102:.\Generated_Source\PSoC4/ORG_Int.c **** * Summary:
 103:.\Generated_Source\PSoC4/ORG_Int.c **** *   Disables and removes the interrupt.
 104:.\Generated_Source\PSoC4/ORG_Int.c **** *
 105:.\Generated_Source\PSoC4/ORG_Int.c **** * Parameters:  
 106:.\Generated_Source\PSoC4/ORG_Int.c **** *
 107:.\Generated_Source\PSoC4/ORG_Int.c **** * Return:
 108:.\Generated_Source\PSoC4/ORG_Int.c **** *   None
 109:.\Generated_Source\PSoC4/ORG_Int.c **** *
 110:.\Generated_Source\PSoC4/ORG_Int.c **** *******************************************************************************/
 111:.\Generated_Source\PSoC4/ORG_Int.c **** void ORG_Int_Stop(void)
 112:.\Generated_Source\PSoC4/ORG_Int.c **** {
 113:.\Generated_Source\PSoC4/ORG_Int.c ****     /* Disable this interrupt. */
 114:.\Generated_Source\PSoC4/ORG_Int.c ****     ORG_Int_Disable();
 115:.\Generated_Source\PSoC4/ORG_Int.c **** 
 116:.\Generated_Source\PSoC4/ORG_Int.c ****     /* Set the ISR to point to the passive one. */
 117:.\Generated_Source\PSoC4/ORG_Int.c ****     ORG_Int_SetVector(&IntDefaultHandler);
 118:.\Generated_Source\PSoC4/ORG_Int.c **** }
 119:.\Generated_Source\PSoC4/ORG_Int.c **** 
 120:.\Generated_Source\PSoC4/ORG_Int.c **** 
 121:.\Generated_Source\PSoC4/ORG_Int.c **** /*******************************************************************************
 122:.\Generated_Source\PSoC4/ORG_Int.c **** * Function Name: ORG_Int_Interrupt
 123:.\Generated_Source\PSoC4/ORG_Int.c **** ********************************************************************************
 124:.\Generated_Source\PSoC4/ORG_Int.c **** *
 125:.\Generated_Source\PSoC4/ORG_Int.c **** * Summary:
 126:.\Generated_Source\PSoC4/ORG_Int.c **** *   The default Interrupt Service Routine for ORG_Int.
 127:.\Generated_Source\PSoC4/ORG_Int.c **** *
 128:.\Generated_Source\PSoC4/ORG_Int.c **** *   Add custom code between the coments to keep the next version of this file
 129:.\Generated_Source\PSoC4/ORG_Int.c **** *   from over writting your code.
 130:.\Generated_Source\PSoC4/ORG_Int.c **** *
 131:.\Generated_Source\PSoC4/ORG_Int.c **** * Parameters:  
 132:.\Generated_Source\PSoC4/ORG_Int.c **** *   None
 133:.\Generated_Source\PSoC4/ORG_Int.c **** *
 134:.\Generated_Source\PSoC4/ORG_Int.c **** * Return:
 135:.\Generated_Source\PSoC4/ORG_Int.c **** *   None
 136:.\Generated_Source\PSoC4/ORG_Int.c **** *
 137:.\Generated_Source\PSoC4/ORG_Int.c **** *******************************************************************************/
 138:.\Generated_Source\PSoC4/ORG_Int.c **** CY_ISR(ORG_Int_Interrupt)
 139:.\Generated_Source\PSoC4/ORG_Int.c **** {
  26              		.loc 1 139 0
  27              		.cfi_startproc
 140:.\Generated_Source\PSoC4/ORG_Int.c ****     /*  Place your Interrupt code here. */
 141:.\Generated_Source\PSoC4/ORG_Int.c ****     /* `#START ORG_Int_Interrupt` */
 142:.\Generated_Source\PSoC4/ORG_Int.c **** 
 143:.\Generated_Source\PSoC4/ORG_Int.c ****     /* `#END` */
 144:.\Generated_Source\PSoC4/ORG_Int.c **** }
ARM GAS  C:\Users\Admin\AppData\Local\Temp\ccd7Q9kw.s 			page 4


  28              		.loc 1 144 0
  29              		@ sp needed
  30 0000 7047     		bx	lr
  31              		.cfi_endproc
  32              	.LFE3:
  33              		.size	ORG_Int_Interrupt, .-ORG_Int_Interrupt
  34              		.section	.text.ORG_Int_Stop,"ax",%progbits
  35              		.align	1
  36              		.global	ORG_Int_Stop
  37              		.code	16
  38              		.thumb_func
  39              		.type	ORG_Int_Stop, %function
  40              	ORG_Int_Stop:
  41              	.LFB2:
 112:.\Generated_Source\PSoC4/ORG_Int.c **** {
  42              		.loc 1 112 0
  43              		.cfi_startproc
  44              	.LBB18:
  45              	.LBB19:
 145:.\Generated_Source\PSoC4/ORG_Int.c **** 
 146:.\Generated_Source\PSoC4/ORG_Int.c **** 
 147:.\Generated_Source\PSoC4/ORG_Int.c **** /*******************************************************************************
 148:.\Generated_Source\PSoC4/ORG_Int.c **** * Function Name: ORG_Int_SetVector
 149:.\Generated_Source\PSoC4/ORG_Int.c **** ********************************************************************************
 150:.\Generated_Source\PSoC4/ORG_Int.c **** *
 151:.\Generated_Source\PSoC4/ORG_Int.c **** * Summary:
 152:.\Generated_Source\PSoC4/ORG_Int.c **** *   Change the ISR vector for the Interrupt. Note calling ORG_Int_Start
 153:.\Generated_Source\PSoC4/ORG_Int.c **** *   will override any effect this method would have had. To set the vector 
 154:.\Generated_Source\PSoC4/ORG_Int.c **** *   before the component has been started use ORG_Int_StartEx instead.
 155:.\Generated_Source\PSoC4/ORG_Int.c **** *
 156:.\Generated_Source\PSoC4/ORG_Int.c **** * Parameters:
 157:.\Generated_Source\PSoC4/ORG_Int.c **** *   address: Address of the ISR to set in the interrupt vector table.
 158:.\Generated_Source\PSoC4/ORG_Int.c **** *
 159:.\Generated_Source\PSoC4/ORG_Int.c **** * Return:
 160:.\Generated_Source\PSoC4/ORG_Int.c **** *   None
 161:.\Generated_Source\PSoC4/ORG_Int.c **** *
 162:.\Generated_Source\PSoC4/ORG_Int.c **** *******************************************************************************/
 163:.\Generated_Source\PSoC4/ORG_Int.c **** void ORG_Int_SetVector(cyisraddress address)
 164:.\Generated_Source\PSoC4/ORG_Int.c **** {
 165:.\Generated_Source\PSoC4/ORG_Int.c ****     CyRamVectors[CYINT_IRQ_BASE + ORG_Int__INTC_NUMBER] = address;
 166:.\Generated_Source\PSoC4/ORG_Int.c **** }
 167:.\Generated_Source\PSoC4/ORG_Int.c **** 
 168:.\Generated_Source\PSoC4/ORG_Int.c **** 
 169:.\Generated_Source\PSoC4/ORG_Int.c **** /*******************************************************************************
 170:.\Generated_Source\PSoC4/ORG_Int.c **** * Function Name: ORG_Int_GetVector
 171:.\Generated_Source\PSoC4/ORG_Int.c **** ********************************************************************************
 172:.\Generated_Source\PSoC4/ORG_Int.c **** *
 173:.\Generated_Source\PSoC4/ORG_Int.c **** * Summary:
 174:.\Generated_Source\PSoC4/ORG_Int.c **** *   Gets the "address" of the current ISR vector for the Interrupt.
 175:.\Generated_Source\PSoC4/ORG_Int.c **** *
 176:.\Generated_Source\PSoC4/ORG_Int.c **** * Parameters:
 177:.\Generated_Source\PSoC4/ORG_Int.c **** *   None
 178:.\Generated_Source\PSoC4/ORG_Int.c **** *
 179:.\Generated_Source\PSoC4/ORG_Int.c **** * Return:
 180:.\Generated_Source\PSoC4/ORG_Int.c **** *   Address of the ISR in the interrupt vector table.
 181:.\Generated_Source\PSoC4/ORG_Int.c **** *
 182:.\Generated_Source\PSoC4/ORG_Int.c **** *******************************************************************************/
ARM GAS  C:\Users\Admin\AppData\Local\Temp\ccd7Q9kw.s 			page 5


 183:.\Generated_Source\PSoC4/ORG_Int.c **** cyisraddress ORG_Int_GetVector(void)
 184:.\Generated_Source\PSoC4/ORG_Int.c **** {
 185:.\Generated_Source\PSoC4/ORG_Int.c ****     return CyRamVectors[CYINT_IRQ_BASE + ORG_Int__INTC_NUMBER];
 186:.\Generated_Source\PSoC4/ORG_Int.c **** }
 187:.\Generated_Source\PSoC4/ORG_Int.c **** 
 188:.\Generated_Source\PSoC4/ORG_Int.c **** 
 189:.\Generated_Source\PSoC4/ORG_Int.c **** /*******************************************************************************
 190:.\Generated_Source\PSoC4/ORG_Int.c **** * Function Name: ORG_Int_SetPriority
 191:.\Generated_Source\PSoC4/ORG_Int.c **** ********************************************************************************
 192:.\Generated_Source\PSoC4/ORG_Int.c **** *
 193:.\Generated_Source\PSoC4/ORG_Int.c **** * Summary:
 194:.\Generated_Source\PSoC4/ORG_Int.c **** *   Sets the Priority of the Interrupt. Note calling ORG_Int_Start
 195:.\Generated_Source\PSoC4/ORG_Int.c **** *   or ORG_Int_StartEx will override any effect this method would 
 196:.\Generated_Source\PSoC4/ORG_Int.c **** *   have had. This method should only be called after ORG_Int_Start or 
 197:.\Generated_Source\PSoC4/ORG_Int.c **** *   ORG_Int_StartEx has been called. To set the initial
 198:.\Generated_Source\PSoC4/ORG_Int.c **** *   priority for the component use the cydwr file in the tool.
 199:.\Generated_Source\PSoC4/ORG_Int.c **** *
 200:.\Generated_Source\PSoC4/ORG_Int.c **** * Parameters:
 201:.\Generated_Source\PSoC4/ORG_Int.c **** *   priority: Priority of the interrupt. 0 - 3, 0 being the highest.
 202:.\Generated_Source\PSoC4/ORG_Int.c **** *
 203:.\Generated_Source\PSoC4/ORG_Int.c **** * Return:
 204:.\Generated_Source\PSoC4/ORG_Int.c **** *   None
 205:.\Generated_Source\PSoC4/ORG_Int.c **** *
 206:.\Generated_Source\PSoC4/ORG_Int.c **** *******************************************************************************/
 207:.\Generated_Source\PSoC4/ORG_Int.c **** void ORG_Int_SetPriority(uint8 priority)
 208:.\Generated_Source\PSoC4/ORG_Int.c **** {
 209:.\Generated_Source\PSoC4/ORG_Int.c **** 	uint8 interruptState;
 210:.\Generated_Source\PSoC4/ORG_Int.c ****     uint32 priorityOffset = ((ORG_Int__INTC_NUMBER % 4u) * 8u) + 6u;
 211:.\Generated_Source\PSoC4/ORG_Int.c ****     
 212:.\Generated_Source\PSoC4/ORG_Int.c **** 	interruptState = CyEnterCriticalSection();
 213:.\Generated_Source\PSoC4/ORG_Int.c ****     *ORG_Int_INTC_PRIOR = (*ORG_Int_INTC_PRIOR & (uint32)(~ORG_Int__INTC_PRIOR_MASK)) |
 214:.\Generated_Source\PSoC4/ORG_Int.c ****                                     ((uint32)priority << priorityOffset);
 215:.\Generated_Source\PSoC4/ORG_Int.c **** 	CyExitCriticalSection(interruptState);
 216:.\Generated_Source\PSoC4/ORG_Int.c **** }
 217:.\Generated_Source\PSoC4/ORG_Int.c **** 
 218:.\Generated_Source\PSoC4/ORG_Int.c **** 
 219:.\Generated_Source\PSoC4/ORG_Int.c **** /*******************************************************************************
 220:.\Generated_Source\PSoC4/ORG_Int.c **** * Function Name: ORG_Int_GetPriority
 221:.\Generated_Source\PSoC4/ORG_Int.c **** ********************************************************************************
 222:.\Generated_Source\PSoC4/ORG_Int.c **** *
 223:.\Generated_Source\PSoC4/ORG_Int.c **** * Summary:
 224:.\Generated_Source\PSoC4/ORG_Int.c **** *   Gets the Priority of the Interrupt.
 225:.\Generated_Source\PSoC4/ORG_Int.c **** *
 226:.\Generated_Source\PSoC4/ORG_Int.c **** * Parameters:
 227:.\Generated_Source\PSoC4/ORG_Int.c **** *   None
 228:.\Generated_Source\PSoC4/ORG_Int.c **** *
 229:.\Generated_Source\PSoC4/ORG_Int.c **** * Return:
 230:.\Generated_Source\PSoC4/ORG_Int.c **** *   Priority of the interrupt. 0 - 3, 0 being the highest.
 231:.\Generated_Source\PSoC4/ORG_Int.c **** *
 232:.\Generated_Source\PSoC4/ORG_Int.c **** *******************************************************************************/
 233:.\Generated_Source\PSoC4/ORG_Int.c **** uint8 ORG_Int_GetPriority(void)
 234:.\Generated_Source\PSoC4/ORG_Int.c **** {
 235:.\Generated_Source\PSoC4/ORG_Int.c ****     uint32 priority;
 236:.\Generated_Source\PSoC4/ORG_Int.c **** 	uint32 priorityOffset = ((ORG_Int__INTC_NUMBER % 4u) * 8u) + 6u;
 237:.\Generated_Source\PSoC4/ORG_Int.c **** 
 238:.\Generated_Source\PSoC4/ORG_Int.c ****     priority = (*ORG_Int_INTC_PRIOR & ORG_Int__INTC_PRIOR_MASK) >> priorityOffset;
 239:.\Generated_Source\PSoC4/ORG_Int.c **** 
ARM GAS  C:\Users\Admin\AppData\Local\Temp\ccd7Q9kw.s 			page 6


 240:.\Generated_Source\PSoC4/ORG_Int.c ****     return (uint8)priority;
 241:.\Generated_Source\PSoC4/ORG_Int.c **** }
 242:.\Generated_Source\PSoC4/ORG_Int.c **** 
 243:.\Generated_Source\PSoC4/ORG_Int.c **** 
 244:.\Generated_Source\PSoC4/ORG_Int.c **** /*******************************************************************************
 245:.\Generated_Source\PSoC4/ORG_Int.c **** * Function Name: ORG_Int_Enable
 246:.\Generated_Source\PSoC4/ORG_Int.c **** ********************************************************************************
 247:.\Generated_Source\PSoC4/ORG_Int.c **** *
 248:.\Generated_Source\PSoC4/ORG_Int.c **** * Summary:
 249:.\Generated_Source\PSoC4/ORG_Int.c **** *   Enables the interrupt.
 250:.\Generated_Source\PSoC4/ORG_Int.c **** *
 251:.\Generated_Source\PSoC4/ORG_Int.c **** * Parameters:
 252:.\Generated_Source\PSoC4/ORG_Int.c **** *   None
 253:.\Generated_Source\PSoC4/ORG_Int.c **** *
 254:.\Generated_Source\PSoC4/ORG_Int.c **** * Return:
 255:.\Generated_Source\PSoC4/ORG_Int.c **** *   None
 256:.\Generated_Source\PSoC4/ORG_Int.c **** *
 257:.\Generated_Source\PSoC4/ORG_Int.c **** *******************************************************************************/
 258:.\Generated_Source\PSoC4/ORG_Int.c **** void ORG_Int_Enable(void)
 259:.\Generated_Source\PSoC4/ORG_Int.c **** {
 260:.\Generated_Source\PSoC4/ORG_Int.c ****     /* Enable the general interrupt. */
 261:.\Generated_Source\PSoC4/ORG_Int.c ****     *ORG_Int_INTC_SET_EN = ORG_Int__INTC_MASK;
 262:.\Generated_Source\PSoC4/ORG_Int.c **** }
 263:.\Generated_Source\PSoC4/ORG_Int.c **** 
 264:.\Generated_Source\PSoC4/ORG_Int.c **** 
 265:.\Generated_Source\PSoC4/ORG_Int.c **** /*******************************************************************************
 266:.\Generated_Source\PSoC4/ORG_Int.c **** * Function Name: ORG_Int_GetState
 267:.\Generated_Source\PSoC4/ORG_Int.c **** ********************************************************************************
 268:.\Generated_Source\PSoC4/ORG_Int.c **** *
 269:.\Generated_Source\PSoC4/ORG_Int.c **** * Summary:
 270:.\Generated_Source\PSoC4/ORG_Int.c **** *   Gets the state (enabled, disabled) of the Interrupt.
 271:.\Generated_Source\PSoC4/ORG_Int.c **** *
 272:.\Generated_Source\PSoC4/ORG_Int.c **** * Parameters:
 273:.\Generated_Source\PSoC4/ORG_Int.c **** *   None
 274:.\Generated_Source\PSoC4/ORG_Int.c **** *
 275:.\Generated_Source\PSoC4/ORG_Int.c **** * Return:
 276:.\Generated_Source\PSoC4/ORG_Int.c **** *   1 if enabled, 0 if disabled.
 277:.\Generated_Source\PSoC4/ORG_Int.c **** *
 278:.\Generated_Source\PSoC4/ORG_Int.c **** *******************************************************************************/
 279:.\Generated_Source\PSoC4/ORG_Int.c **** uint8 ORG_Int_GetState(void)
 280:.\Generated_Source\PSoC4/ORG_Int.c **** {
 281:.\Generated_Source\PSoC4/ORG_Int.c ****     /* Get the state of the general interrupt. */
 282:.\Generated_Source\PSoC4/ORG_Int.c ****     return ((*ORG_Int_INTC_SET_EN & (uint32)ORG_Int__INTC_MASK) != 0u) ? 1u:0u;
 283:.\Generated_Source\PSoC4/ORG_Int.c **** }
 284:.\Generated_Source\PSoC4/ORG_Int.c **** 
 285:.\Generated_Source\PSoC4/ORG_Int.c **** 
 286:.\Generated_Source\PSoC4/ORG_Int.c **** /*******************************************************************************
 287:.\Generated_Source\PSoC4/ORG_Int.c **** * Function Name: ORG_Int_Disable
 288:.\Generated_Source\PSoC4/ORG_Int.c **** ********************************************************************************
 289:.\Generated_Source\PSoC4/ORG_Int.c **** *
 290:.\Generated_Source\PSoC4/ORG_Int.c **** * Summary:
 291:.\Generated_Source\PSoC4/ORG_Int.c **** *   Disables the Interrupt.
 292:.\Generated_Source\PSoC4/ORG_Int.c **** *
 293:.\Generated_Source\PSoC4/ORG_Int.c **** * Parameters:
 294:.\Generated_Source\PSoC4/ORG_Int.c **** *   None
 295:.\Generated_Source\PSoC4/ORG_Int.c **** *
 296:.\Generated_Source\PSoC4/ORG_Int.c **** * Return:
ARM GAS  C:\Users\Admin\AppData\Local\Temp\ccd7Q9kw.s 			page 7


 297:.\Generated_Source\PSoC4/ORG_Int.c **** *   None
 298:.\Generated_Source\PSoC4/ORG_Int.c **** *
 299:.\Generated_Source\PSoC4/ORG_Int.c **** *******************************************************************************/
 300:.\Generated_Source\PSoC4/ORG_Int.c **** void ORG_Int_Disable(void)
 301:.\Generated_Source\PSoC4/ORG_Int.c **** {
 302:.\Generated_Source\PSoC4/ORG_Int.c ****     /* Disable the general interrupt. */
 303:.\Generated_Source\PSoC4/ORG_Int.c ****     *ORG_Int_INTC_CLR_EN = ORG_Int__INTC_MASK;
  46              		.loc 1 303 0
  47 0000 034B     		ldr	r3, .L3
  48 0002 0422     		mov	r2, #4
  49 0004 1A60     		str	r2, [r3]
  50              	.LVL0:
  51              	.LBE19:
  52              	.LBE18:
  53              	.LBB20:
  54              	.LBB21:
 165:.\Generated_Source\PSoC4/ORG_Int.c ****     CyRamVectors[CYINT_IRQ_BASE + ORG_Int__INTC_NUMBER] = address;
  55              		.loc 1 165 0
  56 0006 034A     		ldr	r2, .L3+4
  57 0008 034B     		ldr	r3, .L3+8
  58              	.LBE21:
  59              	.LBE20:
 118:.\Generated_Source\PSoC4/ORG_Int.c **** }
  60              		.loc 1 118 0
  61              		@ sp needed
  62              	.LBB23:
  63              	.LBB22:
 165:.\Generated_Source\PSoC4/ORG_Int.c ****     CyRamVectors[CYINT_IRQ_BASE + ORG_Int__INTC_NUMBER] = address;
  64              		.loc 1 165 0
  65 000a 9A64     		str	r2, [r3, #72]
  66              	.LBE22:
  67              	.LBE23:
 118:.\Generated_Source\PSoC4/ORG_Int.c **** }
  68              		.loc 1 118 0
  69 000c 7047     		bx	lr
  70              	.L4:
  71 000e C046     		.align	2
  72              	.L3:
  73 0010 80E100E0 		.word	-536813184
  74 0014 00000000 		.word	IntDefaultHandler
  75 0018 00000000 		.word	CyRamVectors
  76              		.cfi_endproc
  77              	.LFE2:
  78              		.size	ORG_Int_Stop, .-ORG_Int_Stop
  79              		.section	.text.ORG_Int_SetVector,"ax",%progbits
  80              		.align	1
  81              		.global	ORG_Int_SetVector
  82              		.code	16
  83              		.thumb_func
  84              		.type	ORG_Int_SetVector, %function
  85              	ORG_Int_SetVector:
  86              	.LFB4:
 164:.\Generated_Source\PSoC4/ORG_Int.c **** {
  87              		.loc 1 164 0
  88              		.cfi_startproc
  89              	.LVL1:
 165:.\Generated_Source\PSoC4/ORG_Int.c ****     CyRamVectors[CYINT_IRQ_BASE + ORG_Int__INTC_NUMBER] = address;
ARM GAS  C:\Users\Admin\AppData\Local\Temp\ccd7Q9kw.s 			page 8


  90              		.loc 1 165 0
  91 0000 014B     		ldr	r3, .L6
 166:.\Generated_Source\PSoC4/ORG_Int.c **** }
  92              		.loc 1 166 0
  93              		@ sp needed
 165:.\Generated_Source\PSoC4/ORG_Int.c ****     CyRamVectors[CYINT_IRQ_BASE + ORG_Int__INTC_NUMBER] = address;
  94              		.loc 1 165 0
  95 0002 9864     		str	r0, [r3, #72]
 166:.\Generated_Source\PSoC4/ORG_Int.c **** }
  96              		.loc 1 166 0
  97 0004 7047     		bx	lr
  98              	.L7:
  99 0006 C046     		.align	2
 100              	.L6:
 101 0008 00000000 		.word	CyRamVectors
 102              		.cfi_endproc
 103              	.LFE4:
 104              		.size	ORG_Int_SetVector, .-ORG_Int_SetVector
 105              		.section	.text.ORG_Int_GetVector,"ax",%progbits
 106              		.align	1
 107              		.global	ORG_Int_GetVector
 108              		.code	16
 109              		.thumb_func
 110              		.type	ORG_Int_GetVector, %function
 111              	ORG_Int_GetVector:
 112              	.LFB5:
 184:.\Generated_Source\PSoC4/ORG_Int.c **** {
 113              		.loc 1 184 0
 114              		.cfi_startproc
 185:.\Generated_Source\PSoC4/ORG_Int.c ****     return CyRamVectors[CYINT_IRQ_BASE + ORG_Int__INTC_NUMBER];
 115              		.loc 1 185 0
 116 0000 014B     		ldr	r3, .L9
 186:.\Generated_Source\PSoC4/ORG_Int.c **** }
 117              		.loc 1 186 0
 118              		@ sp needed
 185:.\Generated_Source\PSoC4/ORG_Int.c ****     return CyRamVectors[CYINT_IRQ_BASE + ORG_Int__INTC_NUMBER];
 119              		.loc 1 185 0
 120 0002 986C     		ldr	r0, [r3, #72]
 186:.\Generated_Source\PSoC4/ORG_Int.c **** }
 121              		.loc 1 186 0
 122 0004 7047     		bx	lr
 123              	.L10:
 124 0006 C046     		.align	2
 125              	.L9:
 126 0008 00000000 		.word	CyRamVectors
 127              		.cfi_endproc
 128              	.LFE5:
 129              		.size	ORG_Int_GetVector, .-ORG_Int_GetVector
 130              		.section	.text.ORG_Int_SetPriority,"ax",%progbits
 131              		.align	1
 132              		.global	ORG_Int_SetPriority
 133              		.code	16
 134              		.thumb_func
 135              		.type	ORG_Int_SetPriority, %function
 136              	ORG_Int_SetPriority:
 137              	.LFB6:
 208:.\Generated_Source\PSoC4/ORG_Int.c **** {
ARM GAS  C:\Users\Admin\AppData\Local\Temp\ccd7Q9kw.s 			page 9


 138              		.loc 1 208 0
 139              		.cfi_startproc
 140              	.LVL2:
 141 0000 38B5     		push	{r3, r4, r5, lr}
 142              		.cfi_def_cfa_offset 16
 143              		.cfi_offset 3, -16
 144              		.cfi_offset 4, -12
 145              		.cfi_offset 5, -8
 146              		.cfi_offset 14, -4
 208:.\Generated_Source\PSoC4/ORG_Int.c **** {
 147              		.loc 1 208 0
 148 0002 041C     		mov	r4, r0
 212:.\Generated_Source\PSoC4/ORG_Int.c **** 	interruptState = CyEnterCriticalSection();
 149              		.loc 1 212 0
 150 0004 FFF7FEFF 		bl	CyEnterCriticalSection
 151              	.LVL3:
 213:.\Generated_Source\PSoC4/ORG_Int.c ****     *ORG_Int_INTC_PRIOR = (*ORG_Int_INTC_PRIOR & (uint32)(~ORG_Int__INTC_PRIOR_MASK)) |
 152              		.loc 1 213 0
 153 0008 054B     		ldr	r3, .L12
 154 000a 0649     		ldr	r1, .L12+4
 155 000c 1D68     		ldr	r5, [r3]
 214:.\Generated_Source\PSoC4/ORG_Int.c ****                                     ((uint32)priority << priorityOffset);
 156              		.loc 1 214 0
 157 000e A205     		lsl	r2, r4, #22
 213:.\Generated_Source\PSoC4/ORG_Int.c ****     *ORG_Int_INTC_PRIOR = (*ORG_Int_INTC_PRIOR & (uint32)(~ORG_Int__INTC_PRIOR_MASK)) |
 158              		.loc 1 213 0
 159 0010 2C1C     		mov	r4, r5
 160 0012 0C40     		and	r4, r1
 161 0014 1443     		orr	r4, r2
 162 0016 1C60     		str	r4, [r3]
 215:.\Generated_Source\PSoC4/ORG_Int.c **** 	CyExitCriticalSection(interruptState);
 163              		.loc 1 215 0
 164 0018 FFF7FEFF 		bl	CyExitCriticalSection
 165              	.LVL4:
 216:.\Generated_Source\PSoC4/ORG_Int.c **** }
 166              		.loc 1 216 0
 167              		@ sp needed
 168 001c 38BD     		pop	{r3, r4, r5, pc}
 169              	.L13:
 170 001e C046     		.align	2
 171              	.L12:
 172 0020 00E400E0 		.word	-536812544
 173 0024 FFFF3FFF 		.word	-12582913
 174              		.cfi_endproc
 175              	.LFE6:
 176              		.size	ORG_Int_SetPriority, .-ORG_Int_SetPriority
 177              		.section	.text.ORG_Int_Start,"ax",%progbits
 178              		.align	1
 179              		.global	ORG_Int_Start
 180              		.code	16
 181              		.thumb_func
 182              		.type	ORG_Int_Start, %function
 183              	ORG_Int_Start:
 184              	.LFB0:
  53:.\Generated_Source\PSoC4/ORG_Int.c **** {
 185              		.loc 1 53 0
 186              		.cfi_startproc
ARM GAS  C:\Users\Admin\AppData\Local\Temp\ccd7Q9kw.s 			page 10


 187              	.LBB24:
 188              	.LBB25:
 189              		.loc 1 303 0
 190 0000 064B     		ldr	r3, .L15
 191              	.LBE25:
 192              	.LBE24:
  53:.\Generated_Source\PSoC4/ORG_Int.c **** {
 193              		.loc 1 53 0
 194 0002 10B5     		push	{r4, lr}
 195              		.cfi_def_cfa_offset 8
 196              		.cfi_offset 4, -8
 197              		.cfi_offset 14, -4
 198              	.LBB27:
 199              	.LBB26:
 200              		.loc 1 303 0
 201 0004 0424     		mov	r4, #4
 202 0006 1C60     		str	r4, [r3]
 203              	.LVL5:
 204              	.LBE26:
 205              	.LBE27:
 206              	.LBB28:
 207              	.LBB29:
 165:.\Generated_Source\PSoC4/ORG_Int.c ****     CyRamVectors[CYINT_IRQ_BASE + ORG_Int__INTC_NUMBER] = address;
 208              		.loc 1 165 0
 209 0008 054A     		ldr	r2, .L15+4
 210 000a 064B     		ldr	r3, .L15+8
 211              	.LBE29:
 212              	.LBE28:
  61:.\Generated_Source\PSoC4/ORG_Int.c ****     ORG_Int_SetPriority((uint8)ORG_Int_INTC_PRIOR_NUMBER);
 213              		.loc 1 61 0
 214 000c 0320     		mov	r0, #3
 215              	.LBB31:
 216              	.LBB30:
 165:.\Generated_Source\PSoC4/ORG_Int.c ****     CyRamVectors[CYINT_IRQ_BASE + ORG_Int__INTC_NUMBER] = address;
 217              		.loc 1 165 0
 218 000e 9A64     		str	r2, [r3, #72]
 219              	.LBE30:
 220              	.LBE31:
  61:.\Generated_Source\PSoC4/ORG_Int.c ****     ORG_Int_SetPriority((uint8)ORG_Int_INTC_PRIOR_NUMBER);
 221              		.loc 1 61 0
 222 0010 FFF7FEFF 		bl	ORG_Int_SetPriority
 223              	.LVL6:
 224              	.LBB32:
 225              	.LBB33:
 261:.\Generated_Source\PSoC4/ORG_Int.c ****     *ORG_Int_INTC_SET_EN = ORG_Int__INTC_MASK;
 226              		.loc 1 261 0
 227 0014 044B     		ldr	r3, .L15+12
 228              	.LBE33:
 229              	.LBE32:
  65:.\Generated_Source\PSoC4/ORG_Int.c **** }
 230              		.loc 1 65 0
 231              		@ sp needed
 232              	.LBB35:
 233              	.LBB34:
 261:.\Generated_Source\PSoC4/ORG_Int.c ****     *ORG_Int_INTC_SET_EN = ORG_Int__INTC_MASK;
 234              		.loc 1 261 0
 235 0016 1C60     		str	r4, [r3]
ARM GAS  C:\Users\Admin\AppData\Local\Temp\ccd7Q9kw.s 			page 11


 236              	.LBE34:
 237              	.LBE35:
  65:.\Generated_Source\PSoC4/ORG_Int.c **** }
 238              		.loc 1 65 0
 239 0018 10BD     		pop	{r4, pc}
 240              	.L16:
 241 001a C046     		.align	2
 242              	.L15:
 243 001c 80E100E0 		.word	-536813184
 244 0020 00000000 		.word	ORG_Int_Interrupt
 245 0024 00000000 		.word	CyRamVectors
 246 0028 00E100E0 		.word	-536813312
 247              		.cfi_endproc
 248              	.LFE0:
 249              		.size	ORG_Int_Start, .-ORG_Int_Start
 250              		.section	.text.ORG_Int_StartEx,"ax",%progbits
 251              		.align	1
 252              		.global	ORG_Int_StartEx
 253              		.code	16
 254              		.thumb_func
 255              		.type	ORG_Int_StartEx, %function
 256              	ORG_Int_StartEx:
 257              	.LFB1:
  83:.\Generated_Source\PSoC4/ORG_Int.c **** {
 258              		.loc 1 83 0
 259              		.cfi_startproc
 260              	.LVL7:
 261              	.LBB36:
 262              	.LBB37:
 263              		.loc 1 303 0
 264 0000 054B     		ldr	r3, .L18
 265              	.LBE37:
 266              	.LBE36:
  83:.\Generated_Source\PSoC4/ORG_Int.c **** {
 267              		.loc 1 83 0
 268 0002 10B5     		push	{r4, lr}
 269              		.cfi_def_cfa_offset 8
 270              		.cfi_offset 4, -8
 271              		.cfi_offset 14, -4
 272              	.LBB39:
 273              	.LBB38:
 274              		.loc 1 303 0
 275 0004 0424     		mov	r4, #4
 276 0006 1C60     		str	r4, [r3]
 277              	.LVL8:
 278              	.LBE38:
 279              	.LBE39:
 280              	.LBB40:
 281              	.LBB41:
 165:.\Generated_Source\PSoC4/ORG_Int.c ****     CyRamVectors[CYINT_IRQ_BASE + ORG_Int__INTC_NUMBER] = address;
 282              		.loc 1 165 0
 283 0008 044B     		ldr	r3, .L18+4
 284              	.LBE41:
 285              	.LBE40:
  95:.\Generated_Source\PSoC4/ORG_Int.c **** }
 286              		.loc 1 95 0
 287              		@ sp needed
ARM GAS  C:\Users\Admin\AppData\Local\Temp\ccd7Q9kw.s 			page 12


 288              	.LBB43:
 289              	.LBB42:
 165:.\Generated_Source\PSoC4/ORG_Int.c ****     CyRamVectors[CYINT_IRQ_BASE + ORG_Int__INTC_NUMBER] = address;
 290              		.loc 1 165 0
 291 000a 9864     		str	r0, [r3, #72]
 292              	.LBE42:
 293              	.LBE43:
  91:.\Generated_Source\PSoC4/ORG_Int.c ****     ORG_Int_SetPriority((uint8)ORG_Int_INTC_PRIOR_NUMBER);
 294              		.loc 1 91 0
 295 000c 0320     		mov	r0, #3
 296              	.LVL9:
 297 000e FFF7FEFF 		bl	ORG_Int_SetPriority
 298              	.LVL10:
 299              	.LBB44:
 300              	.LBB45:
 261:.\Generated_Source\PSoC4/ORG_Int.c ****     *ORG_Int_INTC_SET_EN = ORG_Int__INTC_MASK;
 301              		.loc 1 261 0
 302 0012 034B     		ldr	r3, .L18+8
 303 0014 1C60     		str	r4, [r3]
 304              	.LBE45:
 305              	.LBE44:
  95:.\Generated_Source\PSoC4/ORG_Int.c **** }
 306              		.loc 1 95 0
 307 0016 10BD     		pop	{r4, pc}
 308              	.L19:
 309              		.align	2
 310              	.L18:
 311 0018 80E100E0 		.word	-536813184
 312 001c 00000000 		.word	CyRamVectors
 313 0020 00E100E0 		.word	-536813312
 314              		.cfi_endproc
 315              	.LFE1:
 316              		.size	ORG_Int_StartEx, .-ORG_Int_StartEx
 317              		.section	.text.ORG_Int_GetPriority,"ax",%progbits
 318              		.align	1
 319              		.global	ORG_Int_GetPriority
 320              		.code	16
 321              		.thumb_func
 322              		.type	ORG_Int_GetPriority, %function
 323              	ORG_Int_GetPriority:
 324              	.LFB7:
 234:.\Generated_Source\PSoC4/ORG_Int.c **** {
 325              		.loc 1 234 0
 326              		.cfi_startproc
 327              	.LVL11:
 238:.\Generated_Source\PSoC4/ORG_Int.c ****     priority = (*ORG_Int_INTC_PRIOR & ORG_Int__INTC_PRIOR_MASK) >> priorityOffset;
 328              		.loc 1 238 0
 329 0000 024B     		ldr	r3, .L21
 241:.\Generated_Source\PSoC4/ORG_Int.c **** }
 330              		.loc 1 241 0
 331              		@ sp needed
 238:.\Generated_Source\PSoC4/ORG_Int.c ****     priority = (*ORG_Int_INTC_PRIOR & ORG_Int__INTC_PRIOR_MASK) >> priorityOffset;
 332              		.loc 1 238 0
 333 0002 1868     		ldr	r0, [r3]
 334              	.LVL12:
 335 0004 0002     		lsl	r0, r0, #8
 336              	.LVL13:
ARM GAS  C:\Users\Admin\AppData\Local\Temp\ccd7Q9kw.s 			page 13


 240:.\Generated_Source\PSoC4/ORG_Int.c ****     return (uint8)priority;
 337              		.loc 1 240 0
 338 0006 800F     		lsr	r0, r0, #30
 241:.\Generated_Source\PSoC4/ORG_Int.c **** }
 339              		.loc 1 241 0
 340 0008 7047     		bx	lr
 341              	.L22:
 342 000a C046     		.align	2
 343              	.L21:
 344 000c 00E400E0 		.word	-536812544
 345              		.cfi_endproc
 346              	.LFE7:
 347              		.size	ORG_Int_GetPriority, .-ORG_Int_GetPriority
 348              		.section	.text.ORG_Int_Enable,"ax",%progbits
 349              		.align	1
 350              		.global	ORG_Int_Enable
 351              		.code	16
 352              		.thumb_func
 353              		.type	ORG_Int_Enable, %function
 354              	ORG_Int_Enable:
 355              	.LFB8:
 259:.\Generated_Source\PSoC4/ORG_Int.c **** {
 356              		.loc 1 259 0
 357              		.cfi_startproc
 261:.\Generated_Source\PSoC4/ORG_Int.c ****     *ORG_Int_INTC_SET_EN = ORG_Int__INTC_MASK;
 358              		.loc 1 261 0
 359 0000 014B     		ldr	r3, .L24
 360 0002 0422     		mov	r2, #4
 361 0004 1A60     		str	r2, [r3]
 262:.\Generated_Source\PSoC4/ORG_Int.c **** }
 362              		.loc 1 262 0
 363              		@ sp needed
 364 0006 7047     		bx	lr
 365              	.L25:
 366              		.align	2
 367              	.L24:
 368 0008 00E100E0 		.word	-536813312
 369              		.cfi_endproc
 370              	.LFE8:
 371              		.size	ORG_Int_Enable, .-ORG_Int_Enable
 372              		.section	.text.ORG_Int_GetState,"ax",%progbits
 373              		.align	1
 374              		.global	ORG_Int_GetState
 375              		.code	16
 376              		.thumb_func
 377              		.type	ORG_Int_GetState, %function
 378              	ORG_Int_GetState:
 379              	.LFB9:
 280:.\Generated_Source\PSoC4/ORG_Int.c **** {
 380              		.loc 1 280 0
 381              		.cfi_startproc
 282:.\Generated_Source\PSoC4/ORG_Int.c ****     return ((*ORG_Int_INTC_SET_EN & (uint32)ORG_Int__INTC_MASK) != 0u) ? 1u:0u;
 382              		.loc 1 282 0
 383 0000 024B     		ldr	r3, .L27
 283:.\Generated_Source\PSoC4/ORG_Int.c **** }
 384              		.loc 1 283 0
 385              		@ sp needed
ARM GAS  C:\Users\Admin\AppData\Local\Temp\ccd7Q9kw.s 			page 14


 282:.\Generated_Source\PSoC4/ORG_Int.c ****     return ((*ORG_Int_INTC_SET_EN & (uint32)ORG_Int__INTC_MASK) != 0u) ? 1u:0u;
 386              		.loc 1 282 0
 387 0002 1868     		ldr	r0, [r3]
 388 0004 4007     		lsl	r0, r0, #29
 389 0006 C00F     		lsr	r0, r0, #31
 283:.\Generated_Source\PSoC4/ORG_Int.c **** }
 390              		.loc 1 283 0
 391 0008 7047     		bx	lr
 392              	.L28:
 393 000a C046     		.align	2
 394              	.L27:
 395 000c 00E100E0 		.word	-536813312
 396              		.cfi_endproc
 397              	.LFE9:
 398              		.size	ORG_Int_GetState, .-ORG_Int_GetState
 399              		.section	.text.ORG_Int_Disable,"ax",%progbits
 400              		.align	1
 401              		.global	ORG_Int_Disable
 402              		.code	16
 403              		.thumb_func
 404              		.type	ORG_Int_Disable, %function
 405              	ORG_Int_Disable:
 406              	.LFB10:
 301:.\Generated_Source\PSoC4/ORG_Int.c **** {
 407              		.loc 1 301 0
 408              		.cfi_startproc
 409              		.loc 1 303 0
 410 0000 014B     		ldr	r3, .L30
 411 0002 0422     		mov	r2, #4
 412 0004 1A60     		str	r2, [r3]
 304:.\Generated_Source\PSoC4/ORG_Int.c **** }
 413              		.loc 1 304 0
 414              		@ sp needed
 415 0006 7047     		bx	lr
 416              	.L31:
 417              		.align	2
 418              	.L30:
 419 0008 80E100E0 		.word	-536813184
 420              		.cfi_endproc
 421              	.LFE10:
 422              		.size	ORG_Int_Disable, .-ORG_Int_Disable
 423              		.section	.text.ORG_Int_SetPending,"ax",%progbits
 424              		.align	1
 425              		.global	ORG_Int_SetPending
 426              		.code	16
 427              		.thumb_func
 428              		.type	ORG_Int_SetPending, %function
 429              	ORG_Int_SetPending:
 430              	.LFB11:
 305:.\Generated_Source\PSoC4/ORG_Int.c **** 
 306:.\Generated_Source\PSoC4/ORG_Int.c **** 
 307:.\Generated_Source\PSoC4/ORG_Int.c **** /*******************************************************************************
 308:.\Generated_Source\PSoC4/ORG_Int.c **** * Function Name: ORG_Int_SetPending
 309:.\Generated_Source\PSoC4/ORG_Int.c **** ********************************************************************************
 310:.\Generated_Source\PSoC4/ORG_Int.c **** *
 311:.\Generated_Source\PSoC4/ORG_Int.c **** * Summary:
 312:.\Generated_Source\PSoC4/ORG_Int.c **** *   Causes the Interrupt to enter the pending state, a software method of
ARM GAS  C:\Users\Admin\AppData\Local\Temp\ccd7Q9kw.s 			page 15


 313:.\Generated_Source\PSoC4/ORG_Int.c **** *   generating the interrupt.
 314:.\Generated_Source\PSoC4/ORG_Int.c **** *
 315:.\Generated_Source\PSoC4/ORG_Int.c **** * Parameters:
 316:.\Generated_Source\PSoC4/ORG_Int.c **** *   None
 317:.\Generated_Source\PSoC4/ORG_Int.c **** *
 318:.\Generated_Source\PSoC4/ORG_Int.c **** * Return:
 319:.\Generated_Source\PSoC4/ORG_Int.c **** *   None
 320:.\Generated_Source\PSoC4/ORG_Int.c **** *
 321:.\Generated_Source\PSoC4/ORG_Int.c **** *******************************************************************************/
 322:.\Generated_Source\PSoC4/ORG_Int.c **** void ORG_Int_SetPending(void)
 323:.\Generated_Source\PSoC4/ORG_Int.c **** {
 431              		.loc 1 323 0
 432              		.cfi_startproc
 324:.\Generated_Source\PSoC4/ORG_Int.c ****     *ORG_Int_INTC_SET_PD = ORG_Int__INTC_MASK;
 433              		.loc 1 324 0
 434 0000 014B     		ldr	r3, .L33
 435 0002 0422     		mov	r2, #4
 436 0004 1A60     		str	r2, [r3]
 325:.\Generated_Source\PSoC4/ORG_Int.c **** }
 437              		.loc 1 325 0
 438              		@ sp needed
 439 0006 7047     		bx	lr
 440              	.L34:
 441              		.align	2
 442              	.L33:
 443 0008 00E200E0 		.word	-536813056
 444              		.cfi_endproc
 445              	.LFE11:
 446              		.size	ORG_Int_SetPending, .-ORG_Int_SetPending
 447              		.section	.text.ORG_Int_ClearPending,"ax",%progbits
 448              		.align	1
 449              		.global	ORG_Int_ClearPending
 450              		.code	16
 451              		.thumb_func
 452              		.type	ORG_Int_ClearPending, %function
 453              	ORG_Int_ClearPending:
 454              	.LFB12:
 326:.\Generated_Source\PSoC4/ORG_Int.c **** 
 327:.\Generated_Source\PSoC4/ORG_Int.c **** 
 328:.\Generated_Source\PSoC4/ORG_Int.c **** /*******************************************************************************
 329:.\Generated_Source\PSoC4/ORG_Int.c **** * Function Name: ORG_Int_ClearPending
 330:.\Generated_Source\PSoC4/ORG_Int.c **** ********************************************************************************
 331:.\Generated_Source\PSoC4/ORG_Int.c **** *
 332:.\Generated_Source\PSoC4/ORG_Int.c **** * Summary:
 333:.\Generated_Source\PSoC4/ORG_Int.c **** *   Clears a pending interrupt.
 334:.\Generated_Source\PSoC4/ORG_Int.c **** *
 335:.\Generated_Source\PSoC4/ORG_Int.c **** * Parameters:
 336:.\Generated_Source\PSoC4/ORG_Int.c **** *   None
 337:.\Generated_Source\PSoC4/ORG_Int.c **** *
 338:.\Generated_Source\PSoC4/ORG_Int.c **** * Return:
 339:.\Generated_Source\PSoC4/ORG_Int.c **** *   None
 340:.\Generated_Source\PSoC4/ORG_Int.c **** *
 341:.\Generated_Source\PSoC4/ORG_Int.c **** *******************************************************************************/
 342:.\Generated_Source\PSoC4/ORG_Int.c **** void ORG_Int_ClearPending(void)
 343:.\Generated_Source\PSoC4/ORG_Int.c **** {
 455              		.loc 1 343 0
 456              		.cfi_startproc
ARM GAS  C:\Users\Admin\AppData\Local\Temp\ccd7Q9kw.s 			page 16


 344:.\Generated_Source\PSoC4/ORG_Int.c ****     *ORG_Int_INTC_CLR_PD = ORG_Int__INTC_MASK;
 457              		.loc 1 344 0
 458 0000 014B     		ldr	r3, .L36
 459 0002 0422     		mov	r2, #4
 460 0004 1A60     		str	r2, [r3]
 345:.\Generated_Source\PSoC4/ORG_Int.c **** }
 461              		.loc 1 345 0
 462              		@ sp needed
 463 0006 7047     		bx	lr
 464              	.L37:
 465              		.align	2
 466              	.L36:
 467 0008 80E200E0 		.word	-536812928
 468              		.cfi_endproc
 469              	.LFE12:
 470              		.size	ORG_Int_ClearPending, .-ORG_Int_ClearPending
 471              		.text
 472              	.Letext0:
 473              		.file 2 ".\\Generated_Source\\PSoC4/cytypes.h"
 474              		.file 3 ".\\Generated_Source\\PSoC4/CyLib.h"